Archive member included to satisfy reference by file (symbol)

e:/nxp_mcu/ft1_mcu_make/toolschain/bin/../lib/gcc/arm-none-eabi/10.2.1/thumb/v7-m/nofp\libgcc.a(_arm_addsubsf3.o)
                              obj/stm32f10x-uart.o (__aeabi_fsub)
e:/nxp_mcu/ft1_mcu_make/toolschain/bin/../lib/gcc/arm-none-eabi/10.2.1/thumb/v7-m/nofp\libgcc.a(_arm_fixunssfsi.o)
                              obj/stm32f10x-uart.o (__aeabi_f2uiz)
e:/nxp_mcu/ft1_mcu_make/toolschain/bin/../lib/gcc/arm-none-eabi/10.2.1/../../../../arm-none-eabi/lib/thumb/v7-m/nofp\libc_nano.a(lib_a-exit.o)
                              e:/nxp_mcu/ft1_mcu_make/toolschain/bin/../lib/gcc/arm-none-eabi/10.2.1/../../../../arm-none-eabi/lib/thumb/v7-m/nofp/crt0.o (exit)
e:/nxp_mcu/ft1_mcu_make/toolschain/bin/../lib/gcc/arm-none-eabi/10.2.1/../../../../arm-none-eabi/lib/thumb/v7-m/nofp\libc_nano.a(lib_a-impure.o)
                              e:/nxp_mcu/ft1_mcu_make/toolschain/bin/../lib/gcc/arm-none-eabi/10.2.1/../../../../arm-none-eabi/lib/thumb/v7-m/nofp\libc_nano.a(lib_a-exit.o) (_global_impure_ptr)
e:/nxp_mcu/ft1_mcu_make/toolschain/bin/../lib/gcc/arm-none-eabi/10.2.1/../../../../arm-none-eabi/lib/thumb/v7-m/nofp\libc_nano.a(lib_a-init.o)
                              e:/nxp_mcu/ft1_mcu_make/toolschain/bin/../lib/gcc/arm-none-eabi/10.2.1/../../../../arm-none-eabi/lib/thumb/v7-m/nofp/crt0.o (__libc_init_array)
e:/nxp_mcu/ft1_mcu_make/toolschain/bin/../lib/gcc/arm-none-eabi/10.2.1/../../../../arm-none-eabi/lib/thumb/v7-m/nofp\libc_nano.a(lib_a-memset.o)
                              e:/nxp_mcu/ft1_mcu_make/toolschain/bin/../lib/gcc/arm-none-eabi/10.2.1/../../../../arm-none-eabi/lib/thumb/v7-m/nofp/crt0.o (memset)
e:/nxp_mcu/ft1_mcu_make/toolschain/bin/../lib/gcc/arm-none-eabi/10.2.1/../../../../arm-none-eabi/lib/thumb/v7-m/nofp\libnosys.a(_exit.o)
                              e:/nxp_mcu/ft1_mcu_make/toolschain/bin/../lib/gcc/arm-none-eabi/10.2.1/../../../../arm-none-eabi/lib/thumb/v7-m/nofp\libc_nano.a(lib_a-exit.o) (_exit)

Discarded input sections

 .text          0x00000000        0x0 e:/nxp_mcu/ft1_mcu_make/toolschain/bin/../lib/gcc/arm-none-eabi/10.2.1/thumb/v7-m/nofp/crti.o
 .data          0x00000000        0x0 e:/nxp_mcu/ft1_mcu_make/toolschain/bin/../lib/gcc/arm-none-eabi/10.2.1/thumb/v7-m/nofp/crti.o
 .bss           0x00000000        0x0 e:/nxp_mcu/ft1_mcu_make/toolschain/bin/../lib/gcc/arm-none-eabi/10.2.1/thumb/v7-m/nofp/crti.o
 .data          0x00000000        0x4 e:/nxp_mcu/ft1_mcu_make/toolschain/bin/../lib/gcc/arm-none-eabi/10.2.1/thumb/v7-m/nofp/crtbegin.o
 .rodata        0x00000000       0x24 e:/nxp_mcu/ft1_mcu_make/toolschain/bin/../lib/gcc/arm-none-eabi/10.2.1/thumb/v7-m/nofp/crtbegin.o
 .text          0x00000000       0x7c e:/nxp_mcu/ft1_mcu_make/toolschain/bin/../lib/gcc/arm-none-eabi/10.2.1/../../../../arm-none-eabi/lib/thumb/v7-m/nofp/crt0.o
 .data          0x00000000        0x0 e:/nxp_mcu/ft1_mcu_make/toolschain/bin/../lib/gcc/arm-none-eabi/10.2.1/../../../../arm-none-eabi/lib/thumb/v7-m/nofp/crt0.o
 .bss           0x00000000        0x0 e:/nxp_mcu/ft1_mcu_make/toolschain/bin/../lib/gcc/arm-none-eabi/10.2.1/../../../../arm-none-eabi/lib/thumb/v7-m/nofp/crt0.o
 .ARM.extab     0x00000000        0x0 e:/nxp_mcu/ft1_mcu_make/toolschain/bin/../lib/gcc/arm-none-eabi/10.2.1/../../../../arm-none-eabi/lib/thumb/v7-m/nofp/crt0.o
 .ARM.exidx     0x00000000       0x10 e:/nxp_mcu/ft1_mcu_make/toolschain/bin/../lib/gcc/arm-none-eabi/10.2.1/../../../../arm-none-eabi/lib/thumb/v7-m/nofp/crt0.o
 .ARM.attributes
                0x00000000       0x1b e:/nxp_mcu/ft1_mcu_make/toolschain/bin/../lib/gcc/arm-none-eabi/10.2.1/../../../../arm-none-eabi/lib/thumb/v7-m/nofp/crt0.o
 .text          0x00000000        0x0 obj/stm32f10x-spi.o
 .data          0x00000000        0x0 obj/stm32f10x-spi.o
 .bss           0x00000000        0x0 obj/stm32f10x-spi.o
 .debug_info    0x00000000       0x64 obj/stm32f10x-spi.o
 .debug_abbrev  0x00000000       0x26 obj/stm32f10x-spi.o
 .debug_aranges
                0x00000000       0x18 obj/stm32f10x-spi.o
 .debug_line    0x00000000       0x1d obj/stm32f10x-spi.o
 .debug_str     0x00000000      0x1ae obj/stm32f10x-spi.o
 .comment       0x00000000       0x4e obj/stm32f10x-spi.o
 .ARM.attributes
                0x00000000       0x35 obj/stm32f10x-spi.o
 .text          0x00000000        0x0 obj/stm32f10x-gpio.o
 .data          0x00000000        0x0 obj/stm32f10x-gpio.o
 .bss           0x00000000        0x0 obj/stm32f10x-gpio.o
 .debug_info    0x00000000       0x64 obj/stm32f10x-gpio.o
 .debug_abbrev  0x00000000       0x26 obj/stm32f10x-gpio.o
 .debug_aranges
                0x00000000       0x18 obj/stm32f10x-gpio.o
 .debug_line    0x00000000       0x1d obj/stm32f10x-gpio.o
 .debug_str     0x00000000      0x1af obj/stm32f10x-gpio.o
 .comment       0x00000000       0x4e obj/stm32f10x-gpio.o
 .ARM.attributes
                0x00000000       0x35 obj/stm32f10x-gpio.o
 .text          0x00000000        0x0 obj/stm32f10x-delay.o
 .data          0x00000000        0x0 obj/stm32f10x-delay.o
 .bss           0x00000000        0x0 obj/stm32f10x-delay.o
 .text          0x00000000        0x0 obj/stm32f10x-uart.o
 .data          0x00000000        0x0 obj/stm32f10x-uart.o
 .bss           0x00000000        0x0 obj/stm32f10x-uart.o
 .text.USART4_IRQHandler
                0x00000000        0xc obj/stm32f10x-uart.o
 .text.USART5_IRQHandler
                0x00000000        0xc obj/stm32f10x-uart.o
 .text          0x00000000        0x0 obj/stm32f10x-i2c.o
 .data          0x00000000        0x0 obj/stm32f10x-i2c.o
 .bss           0x00000000        0x0 obj/stm32f10x-i2c.o
 .debug_line    0x00000000        0x0 obj/stm32f10x-i2c.o
 .debug_str     0x00000000      0x12a obj/stm32f10x-i2c.o
 .comment       0x00000000       0x4e obj/stm32f10x-i2c.o
 .ARM.attributes
                0x00000000       0x35 obj/stm32f10x-i2c.o
 .text          0x00000000        0x0 obj/system_stm32f10x.o
 .data          0x00000000        0x0 obj/system_stm32f10x.o
 .bss           0x00000000        0x0 obj/system_stm32f10x.o
 .text.SystemCoreClockUpdate
                0x00000000       0x5c obj/system_stm32f10x.o
 .data.AHBPrescTable
                0x00000000       0x10 obj/system_stm32f10x.o
 .data.SystemCoreClock
                0x00000000        0x4 obj/system_stm32f10x.o
 .text          0x00000000        0x0 obj/at24c02.o
 .data          0x00000000        0x0 obj/at24c02.o
 .bss           0x00000000        0x0 obj/at24c02.o
 .debug_line    0x00000000        0x0 obj/at24c02.o
 .debug_str     0x00000000      0x10c obj/at24c02.o
 .comment       0x00000000       0x4e obj/at24c02.o
 .ARM.attributes
                0x00000000       0x35 obj/at24c02.o
 .text          0x00000000        0x0 obj/tmp112.o
 .data          0x00000000        0x0 obj/tmp112.o
 .bss           0x00000000        0x0 obj/tmp112.o
 .data.tmp1122  0x00000000        0xc obj/tmp112.o
 .debug_info    0x00000000      0x260 obj/tmp112.o
 .debug_abbrev  0x00000000       0x96 obj/tmp112.o
 .debug_aranges
                0x00000000       0x18 obj/tmp112.o
 .debug_line    0x00000000       0xe3 obj/tmp112.o
 .debug_str     0x00000000      0x251 obj/tmp112.o
 .comment       0x00000000       0x4e obj/tmp112.o
 .ARM.attributes
                0x00000000       0x35 obj/tmp112.o
 .text          0x00000000        0x0 obj/spi-gpio-core.o
 .data          0x00000000        0x0 obj/spi-gpio-core.o
 .bss           0x00000000        0x0 obj/spi-gpio-core.o
 .text.spi_gpio_probe
                0x00000000       0x80 obj/spi-gpio-core.o
 .text.spi_gpio_remove
                0x00000000        0x8 obj/spi-gpio-core.o
 .text.spi_gpio_set_speed
                0x00000000        0x4 obj/spi-gpio-core.o
 .text.spi_gpio_transfer
                0x00000000        0x4 obj/spi-gpio-core.o
 .text.spi_gpio_write
                0x00000000        0x4 obj/spi-gpio-core.o
 .text.spi_gpio_read
                0x00000000        0x4 obj/spi-gpio-core.o
 .bss.spi_clk   0x00000000        0x8 obj/spi-gpio-core.o
 .bss.spi_cs    0x00000000        0x8 obj/spi-gpio-core.o
 .bss.spi_miso  0x00000000        0x8 obj/spi-gpio-core.o
 .bss.spi_mosi  0x00000000        0x8 obj/spi-gpio-core.o
 .data.__spi_gpio_master
                0x00000000       0x1c obj/spi-gpio-core.o
 .debug_info    0x00000000      0x8d9 obj/spi-gpio-core.o
 .debug_abbrev  0x00000000      0x26d obj/spi-gpio-core.o
 .debug_loc     0x00000000      0x20e obj/spi-gpio-core.o
 .debug_aranges
                0x00000000       0x40 obj/spi-gpio-core.o
 .debug_ranges  0x00000000       0xb8 obj/spi-gpio-core.o
 .debug_line    0x00000000      0x284 obj/spi-gpio-core.o
 .debug_str     0x00000000      0x453 obj/spi-gpio-core.o
 .comment       0x00000000       0x4e obj/spi-gpio-core.o
 .debug_frame   0x00000000       0x84 obj/spi-gpio-core.o
 .ARM.attributes
                0x00000000       0x2d obj/spi-gpio-core.o
 .text          0x00000000        0x0 obj/i2c-gpio-core.o
 .data          0x00000000        0x0 obj/i2c-gpio-core.o
 .bss           0x00000000        0x0 obj/i2c-gpio-core.o
 .text.i2c_gpio_probe
                0x00000000       0x30 obj/i2c-gpio-core.o
 .text.i2c_gpio_remove
                0x00000000        0x4 obj/i2c-gpio-core.o
 .text.i2c_gpio_set_speed
                0x00000000        0x4 obj/i2c-gpio-core.o
 .text.i2c_gpio_write
                0x00000000        0x4 obj/i2c-gpio-core.o
 .text.i2c_gpio_read
                0x00000000        0x4 obj/i2c-gpio-core.o
 .text.i2c_gpio_cmd_write
                0x00000000        0x4 obj/i2c-gpio-core.o
 .text.i2c_gpio_cmd_read
                0x00000000        0x4 obj/i2c-gpio-core.o
 .bss.__adaptor_sck
                0x00000000        0x8 obj/i2c-gpio-core.o
 .bss.__adaptor_sda
                0x00000000        0x8 obj/i2c-gpio-core.o
 .debug_info    0x00000000      0x708 obj/i2c-gpio-core.o
 .debug_abbrev  0x00000000      0x22d obj/i2c-gpio-core.o
 .debug_loc     0x00000000      0x10c obj/i2c-gpio-core.o
 .debug_aranges
                0x00000000       0x40 obj/i2c-gpio-core.o
 .debug_ranges  0x00000000       0x70 obj/i2c-gpio-core.o
 .debug_line    0x00000000      0x1dc obj/i2c-gpio-core.o
 .debug_str     0x00000000      0x414 obj/i2c-gpio-core.o
 .comment       0x00000000       0x4e obj/i2c-gpio-core.o
 .debug_frame   0x00000000       0x94 obj/i2c-gpio-core.o
 .ARM.attributes
                0x00000000       0x2d obj/i2c-gpio-core.o
 .text          0x00000000        0x0 obj/main.o
 .data          0x00000000        0x0 obj/main.o
 .bss           0x00000000        0x0 obj/main.o
 .text          0x00000000       0x14 obj/stm32f10x_startup.o
 .data          0x00000000        0x0 obj/stm32f10x_startup.o
 .bss           0x00000000        0x0 obj/stm32f10x_startup.o
 .data          0x00000000        0x0 e:/nxp_mcu/ft1_mcu_make/toolschain/bin/../lib/gcc/arm-none-eabi/10.2.1/thumb/v7-m/nofp\libgcc.a(_arm_addsubsf3.o)
 .bss           0x00000000        0x0 e:/nxp_mcu/ft1_mcu_make/toolschain/bin/../lib/gcc/arm-none-eabi/10.2.1/thumb/v7-m/nofp\libgcc.a(_arm_addsubsf3.o)
 .data          0x00000000        0x0 e:/nxp_mcu/ft1_mcu_make/toolschain/bin/../lib/gcc/arm-none-eabi/10.2.1/thumb/v7-m/nofp\libgcc.a(_arm_fixunssfsi.o)
 .bss           0x00000000        0x0 e:/nxp_mcu/ft1_mcu_make/toolschain/bin/../lib/gcc/arm-none-eabi/10.2.1/thumb/v7-m/nofp\libgcc.a(_arm_fixunssfsi.o)
 .text          0x00000000        0x0 e:/nxp_mcu/ft1_mcu_make/toolschain/bin/../lib/gcc/arm-none-eabi/10.2.1/../../../../arm-none-eabi/lib/thumb/v7-m/nofp\libc_nano.a(lib_a-exit.o)
 .data          0x00000000        0x0 e:/nxp_mcu/ft1_mcu_make/toolschain/bin/../lib/gcc/arm-none-eabi/10.2.1/../../../../arm-none-eabi/lib/thumb/v7-m/nofp\libc_nano.a(lib_a-exit.o)
 .bss           0x00000000        0x0 e:/nxp_mcu/ft1_mcu_make/toolschain/bin/../lib/gcc/arm-none-eabi/10.2.1/../../../../arm-none-eabi/lib/thumb/v7-m/nofp\libc_nano.a(lib_a-exit.o)
 .text.exit     0x00000000       0x28 e:/nxp_mcu/ft1_mcu_make/toolschain/bin/../lib/gcc/arm-none-eabi/10.2.1/../../../../arm-none-eabi/lib/thumb/v7-m/nofp\libc_nano.a(lib_a-exit.o)
 .debug_frame   0x00000000       0x28 e:/nxp_mcu/ft1_mcu_make/toolschain/bin/../lib/gcc/arm-none-eabi/10.2.1/../../../../arm-none-eabi/lib/thumb/v7-m/nofp\libc_nano.a(lib_a-exit.o)
 .ARM.attributes
                0x00000000       0x2d e:/nxp_mcu/ft1_mcu_make/toolschain/bin/../lib/gcc/arm-none-eabi/10.2.1/../../../../arm-none-eabi/lib/thumb/v7-m/nofp\libc_nano.a(lib_a-exit.o)
 .text          0x00000000        0x0 e:/nxp_mcu/ft1_mcu_make/toolschain/bin/../lib/gcc/arm-none-eabi/10.2.1/../../../../arm-none-eabi/lib/thumb/v7-m/nofp\libc_nano.a(lib_a-impure.o)
 .data          0x00000000        0x0 e:/nxp_mcu/ft1_mcu_make/toolschain/bin/../lib/gcc/arm-none-eabi/10.2.1/../../../../arm-none-eabi/lib/thumb/v7-m/nofp\libc_nano.a(lib_a-impure.o)
 .bss           0x00000000        0x0 e:/nxp_mcu/ft1_mcu_make/toolschain/bin/../lib/gcc/arm-none-eabi/10.2.1/../../../../arm-none-eabi/lib/thumb/v7-m/nofp\libc_nano.a(lib_a-impure.o)
 .data._impure_ptr
                0x00000000        0x4 e:/nxp_mcu/ft1_mcu_make/toolschain/bin/../lib/gcc/arm-none-eabi/10.2.1/../../../../arm-none-eabi/lib/thumb/v7-m/nofp\libc_nano.a(lib_a-impure.o)
 .data.impure_data
                0x00000000       0x60 e:/nxp_mcu/ft1_mcu_make/toolschain/bin/../lib/gcc/arm-none-eabi/10.2.1/../../../../arm-none-eabi/lib/thumb/v7-m/nofp\libc_nano.a(lib_a-impure.o)
 .rodata._global_impure_ptr
                0x00000000        0x4 e:/nxp_mcu/ft1_mcu_make/toolschain/bin/../lib/gcc/arm-none-eabi/10.2.1/../../../../arm-none-eabi/lib/thumb/v7-m/nofp\libc_nano.a(lib_a-impure.o)
 .ARM.attributes
                0x00000000       0x2d e:/nxp_mcu/ft1_mcu_make/toolschain/bin/../lib/gcc/arm-none-eabi/10.2.1/../../../../arm-none-eabi/lib/thumb/v7-m/nofp\libc_nano.a(lib_a-impure.o)
 .text          0x00000000        0x0 e:/nxp_mcu/ft1_mcu_make/toolschain/bin/../lib/gcc/arm-none-eabi/10.2.1/../../../../arm-none-eabi/lib/thumb/v7-m/nofp\libc_nano.a(lib_a-init.o)
 .data          0x00000000        0x0 e:/nxp_mcu/ft1_mcu_make/toolschain/bin/../lib/gcc/arm-none-eabi/10.2.1/../../../../arm-none-eabi/lib/thumb/v7-m/nofp\libc_nano.a(lib_a-init.o)
 .bss           0x00000000        0x0 e:/nxp_mcu/ft1_mcu_make/toolschain/bin/../lib/gcc/arm-none-eabi/10.2.1/../../../../arm-none-eabi/lib/thumb/v7-m/nofp\libc_nano.a(lib_a-init.o)
 .text          0x00000000        0x0 e:/nxp_mcu/ft1_mcu_make/toolschain/bin/../lib/gcc/arm-none-eabi/10.2.1/../../../../arm-none-eabi/lib/thumb/v7-m/nofp\libc_nano.a(lib_a-memset.o)
 .data          0x00000000        0x0 e:/nxp_mcu/ft1_mcu_make/toolschain/bin/../lib/gcc/arm-none-eabi/10.2.1/../../../../arm-none-eabi/lib/thumb/v7-m/nofp\libc_nano.a(lib_a-memset.o)
 .bss           0x00000000        0x0 e:/nxp_mcu/ft1_mcu_make/toolschain/bin/../lib/gcc/arm-none-eabi/10.2.1/../../../../arm-none-eabi/lib/thumb/v7-m/nofp\libc_nano.a(lib_a-memset.o)
 .text          0x00000000        0x0 e:/nxp_mcu/ft1_mcu_make/toolschain/bin/../lib/gcc/arm-none-eabi/10.2.1/../../../../arm-none-eabi/lib/thumb/v7-m/nofp\libnosys.a(_exit.o)
 .data          0x00000000        0x0 e:/nxp_mcu/ft1_mcu_make/toolschain/bin/../lib/gcc/arm-none-eabi/10.2.1/../../../../arm-none-eabi/lib/thumb/v7-m/nofp\libnosys.a(_exit.o)
 .bss           0x00000000        0x0 e:/nxp_mcu/ft1_mcu_make/toolschain/bin/../lib/gcc/arm-none-eabi/10.2.1/../../../../arm-none-eabi/lib/thumb/v7-m/nofp\libnosys.a(_exit.o)
 .text._exit    0x00000000        0x4 e:/nxp_mcu/ft1_mcu_make/toolschain/bin/../lib/gcc/arm-none-eabi/10.2.1/../../../../arm-none-eabi/lib/thumb/v7-m/nofp\libnosys.a(_exit.o)
 .debug_frame   0x00000000       0x20 e:/nxp_mcu/ft1_mcu_make/toolschain/bin/../lib/gcc/arm-none-eabi/10.2.1/../../../../arm-none-eabi/lib/thumb/v7-m/nofp\libnosys.a(_exit.o)
 .ARM.attributes
                0x00000000       0x2d e:/nxp_mcu/ft1_mcu_make/toolschain/bin/../lib/gcc/arm-none-eabi/10.2.1/../../../../arm-none-eabi/lib/thumb/v7-m/nofp\libnosys.a(_exit.o)
 .text          0x00000000        0x0 e:/nxp_mcu/ft1_mcu_make/toolschain/bin/../lib/gcc/arm-none-eabi/10.2.1/thumb/v7-m/nofp/crtend.o
 .data          0x00000000        0x0 e:/nxp_mcu/ft1_mcu_make/toolschain/bin/../lib/gcc/arm-none-eabi/10.2.1/thumb/v7-m/nofp/crtend.o
 .bss           0x00000000        0x0 e:/nxp_mcu/ft1_mcu_make/toolschain/bin/../lib/gcc/arm-none-eabi/10.2.1/thumb/v7-m/nofp/crtend.o
 .rodata        0x00000000       0x24 e:/nxp_mcu/ft1_mcu_make/toolschain/bin/../lib/gcc/arm-none-eabi/10.2.1/thumb/v7-m/nofp/crtend.o
 .eh_frame      0x00000000        0x4 e:/nxp_mcu/ft1_mcu_make/toolschain/bin/../lib/gcc/arm-none-eabi/10.2.1/thumb/v7-m/nofp/crtend.o
 .ARM.attributes
                0x00000000       0x2d e:/nxp_mcu/ft1_mcu_make/toolschain/bin/../lib/gcc/arm-none-eabi/10.2.1/thumb/v7-m/nofp/crtend.o
 .text          0x00000000        0x0 e:/nxp_mcu/ft1_mcu_make/toolschain/bin/../lib/gcc/arm-none-eabi/10.2.1/thumb/v7-m/nofp/crtn.o
 .data          0x00000000        0x0 e:/nxp_mcu/ft1_mcu_make/toolschain/bin/../lib/gcc/arm-none-eabi/10.2.1/thumb/v7-m/nofp/crtn.o
 .bss           0x00000000        0x0 e:/nxp_mcu/ft1_mcu_make/toolschain/bin/../lib/gcc/arm-none-eabi/10.2.1/thumb/v7-m/nofp/crtn.o

Memory Configuration

Name             Origin             Length             Attributes
FLASH            0x08000000         0x00010000         xr
RAM              0x20000000         0x00005000         xrw
MEMORY_B1        0x60000000         0x00000000         xr
*default*        0x00000000         0xffffffff

Linker script and memory map

LOAD e:/nxp_mcu/ft1_mcu_make/toolschain/bin/../lib/gcc/arm-none-eabi/10.2.1/thumb/v7-m/nofp/crti.o
LOAD e:/nxp_mcu/ft1_mcu_make/toolschain/bin/../lib/gcc/arm-none-eabi/10.2.1/thumb/v7-m/nofp/crtbegin.o
LOAD e:/nxp_mcu/ft1_mcu_make/toolschain/bin/../lib/gcc/arm-none-eabi/10.2.1/../../../../arm-none-eabi/lib/thumb/v7-m/nofp/crt0.o
LOAD obj/stm32f10x-spi.o
LOAD obj/stm32f10x-gpio.o
LOAD obj/stm32f10x-delay.o
LOAD obj/stm32f10x-uart.o
LOAD obj/stm32f10x-i2c.o
LOAD obj/system_stm32f10x.o
LOAD obj/at24c02.o
LOAD obj/tmp112.o
LOAD obj/spi-gpio-core.o
LOAD obj/i2c-gpio-core.o
LOAD obj/main.o
LOAD obj/stm32f10x_startup.o
START GROUP
LOAD e:/nxp_mcu/ft1_mcu_make/toolschain/bin/../lib/gcc/arm-none-eabi/10.2.1/thumb/v7-m/nofp\libgcc.a
LOAD e:/nxp_mcu/ft1_mcu_make/toolschain/bin/../lib/gcc/arm-none-eabi/10.2.1/../../../../arm-none-eabi/lib/thumb/v7-m/nofp\libc_nano.a
END GROUP
START GROUP
LOAD e:/nxp_mcu/ft1_mcu_make/toolschain/bin/../lib/gcc/arm-none-eabi/10.2.1/thumb/v7-m/nofp\libgcc.a
LOAD e:/nxp_mcu/ft1_mcu_make/toolschain/bin/../lib/gcc/arm-none-eabi/10.2.1/../../../../arm-none-eabi/lib/thumb/v7-m/nofp\libc_nano.a
LOAD e:/nxp_mcu/ft1_mcu_make/toolschain/bin/../lib/gcc/arm-none-eabi/10.2.1/../../../../arm-none-eabi/lib/thumb/v7-m/nofp\libnosys.a
END GROUP
START GROUP
LOAD e:/nxp_mcu/ft1_mcu_make/toolschain/bin/../lib/gcc/arm-none-eabi/10.2.1/thumb/v7-m/nofp\libgcc.a
LOAD e:/nxp_mcu/ft1_mcu_make/toolschain/bin/../lib/gcc/arm-none-eabi/10.2.1/../../../../arm-none-eabi/lib/thumb/v7-m/nofp\libc_nano.a
LOAD e:/nxp_mcu/ft1_mcu_make/toolschain/bin/../lib/gcc/arm-none-eabi/10.2.1/../../../../arm-none-eabi/lib/thumb/v7-m/nofp\libnosys.a
END GROUP
LOAD e:/nxp_mcu/ft1_mcu_make/toolschain/bin/../lib/gcc/arm-none-eabi/10.2.1/thumb/v7-m/nofp/crtend.o
LOAD e:/nxp_mcu/ft1_mcu_make/toolschain/bin/../lib/gcc/arm-none-eabi/10.2.1/thumb/v7-m/nofp/crtn.o
                0x20005000                _estack = 0x20005000
                0x00000000                _Min_Heap_Size = 0x0
                0x00000200                _Min_Stack_Size = 0x200

.isr_vector     0x08000000      0x10c
                0x08000000                . = ALIGN (0x4)
 *(.isr_vector)
 .isr_vector    0x08000000      0x10c obj/stm32f10x_startup.o
                0x08000000                g_pfnVectors
                0x0800010c                . = ALIGN (0x4)

.eh_frame       0x0800010c        0x0
 .eh_frame      0x0800010c        0x0 e:/nxp_mcu/ft1_mcu_make/toolschain/bin/../lib/gcc/arm-none-eabi/10.2.1/thumb/v7-m/nofp/crtbegin.o

.text           0x0800010c      0xb94
                0x0800010c                . = ALIGN (0x4)
 *(.text)
 .text          0x0800010c       0x40 e:/nxp_mcu/ft1_mcu_make/toolschain/bin/../lib/gcc/arm-none-eabi/10.2.1/thumb/v7-m/nofp/crtbegin.o
 .text          0x0800014c      0x21c e:/nxp_mcu/ft1_mcu_make/toolschain/bin/../lib/gcc/arm-none-eabi/10.2.1/thumb/v7-m/nofp\libgcc.a(_arm_addsubsf3.o)
                0x0800014c                __aeabi_frsub
                0x08000154                __subsf3
                0x08000154                __aeabi_fsub
                0x08000158                __aeabi_fadd
                0x08000158                __addsf3
                0x080002b8                __aeabi_ui2f
                0x080002b8                __floatunsisf
                0x080002c0                __aeabi_i2f
                0x080002c0                __floatsisf
                0x080002dc                __aeabi_ul2f
                0x080002dc                __floatundisf
                0x080002ec                __aeabi_l2f
                0x080002ec                __floatdisf
 .text          0x08000368       0x40 e:/nxp_mcu/ft1_mcu_make/toolschain/bin/../lib/gcc/arm-none-eabi/10.2.1/thumb/v7-m/nofp\libgcc.a(_arm_fixunssfsi.o)
                0x08000368                __fixunssfsi
                0x08000368                __aeabi_f2uiz
 *(.text*)
 .text.stm32f103_probe
                0x080003a8       0x30 obj/stm32f10x-delay.o
 .text.stm32f10x_udelay
                0x080003d8       0x14 obj/stm32f10x-delay.o
 .text.stm32f10x_mdelay
                0x080003ec       0x20 obj/stm32f10x-delay.o
 .text.stm32f10x_sdelay
                0x0800040c       0x28 obj/stm32f10x-delay.o
 .text.SysTick_Handler
                0x08000434        0x4 obj/stm32f10x-delay.o
                0x08000434                SysTick_Handler
 .text.stm32f10x_uart_probe
                0x08000438      0x3d4 obj/stm32f10x-uart.o
 .text.stm32f10x_uart_remove
                0x0800080c        0x4 obj/stm32f10x-uart.o
 .text.stm32f10x_uart_set_baud_rate
                0x08000810       0x8c obj/stm32f10x-uart.o
 .text.stm32f10x_uart_poll_read
                0x0800089c        0x4 obj/stm32f10x-uart.o
 .text.stm32f10x_uart_poll_write
                0x080008a0      0x10c obj/stm32f10x-uart.o
 .text.stm32f10x_uart_set_handler
                0x080009ac       0x10 obj/stm32f10x-uart.o
 .text.USART1_IRQHandler
                0x080009bc        0xc obj/stm32f10x-uart.o
                0x080009bc                USART1_IRQHandler
 .text.USART2_IRQHandler
                0x080009c8        0xc obj/stm32f10x-uart.o
                0x080009c8                USART2_IRQHandler
 .text.USART3_IRQHandler
                0x080009d4        0xc obj/stm32f10x-uart.o
                0x080009d4                USART3_IRQHandler
 .text.SystemInit
                0x080009e0      0x100 obj/system_stm32f10x.o
                0x080009e0                SystemInit
 .text.startup.main
                0x08000ae0       0xa0 obj/main.o
                0x08000ae0                main
 .text.Reset_Handler
                0x08000b80       0x48 obj/stm32f10x_startup.o
                0x08000b80                Reset_Handler
 .text.Default_Handler
                0x08000bc8        0x2 obj/stm32f10x_startup.o
                0x08000bc8                EXTI2_IRQHandler
                0x08000bc8                DebugMon_Handler
                0x08000bc8                TIM1_CC_IRQHandler
                0x08000bc8                HardFault_Handler
                0x08000bc8                PVD_IRQHandler
                0x08000bc8                PendSV_Handler
                0x08000bc8                NMI_Handler
                0x08000bc8                EXTI3_IRQHandler
                0x08000bc8                EXTI0_IRQHandler
                0x08000bc8                I2C2_EV_IRQHandler
                0x08000bc8                UsageFault_Handler
                0x08000bc8                ADC1_2_IRQHandler
                0x08000bc8                SPI1_IRQHandler
                0x08000bc8                TAMPER_IRQHandler
                0x08000bc8                DMA1_Channel4_IRQHandler
                0x08000bc8                RTC_IRQHandler
                0x08000bc8                DMA1_Channel7_IRQHandler
                0x08000bc8                CAN1_RX1_IRQHandler
                0x08000bc8                TIM4_IRQHandler
                0x08000bc8                I2C1_EV_IRQHandler
                0x08000bc8                DMA1_Channel6_IRQHandler
                0x08000bc8                TIM3_IRQHandler
                0x08000bc8                RCC_IRQHandler
                0x08000bc8                TIM1_TRG_COM_IRQHandler
                0x08000bc8                DMA1_Channel1_IRQHandler
                0x08000bc8                Default_Handler
                0x08000bc8                EXTI15_10_IRQHandler
                0x08000bc8                EXTI9_5_IRQHandler
                0x08000bc8                SPI2_IRQHandler
                0x08000bc8                MemManage_Handler
                0x08000bc8                SVC_Handler
                0x08000bc8                DMA1_Channel5_IRQHandler
                0x08000bc8                EXTI4_IRQHandler
                0x08000bc8                USB_LP_CAN1_RX0_IRQHandler
                0x08000bc8                USB_HP_CAN1_TX_IRQHandler
                0x08000bc8                DMA1_Channel3_IRQHandler
                0x08000bc8                TIM1_UP_IRQHandler
                0x08000bc8                WWDG_IRQHandler
                0x08000bc8                TIM2_IRQHandler
                0x08000bc8                TIM1_BRK_IRQHandler
                0x08000bc8                EXTI1_IRQHandler
                0x08000bc8                RTCAlarm_IRQHandler
                0x08000bc8                I2C2_ER_IRQHandler
                0x08000bc8                DMA1_Channel2_IRQHandler
                0x08000bc8                CAN1_SCE_IRQHandler
                0x08000bc8                FLASH_IRQHandler
                0x08000bc8                BusFault_Handler
                0x08000bc8                I2C1_ER_IRQHandler
                0x08000bc8                USBWakeUp_IRQHandler
 *fill*         0x08000bca        0x2 
 .text.__libc_init_array
                0x08000bcc       0x48 e:/nxp_mcu/ft1_mcu_make/toolschain/bin/../lib/gcc/arm-none-eabi/10.2.1/../../../../arm-none-eabi/lib/thumb/v7-m/nofp\libc_nano.a(lib_a-init.o)
                0x08000bcc                __libc_init_array
 .text.memset   0x08000c14       0x10 e:/nxp_mcu/ft1_mcu_make/toolschain/bin/../lib/gcc/arm-none-eabi/10.2.1/../../../../arm-none-eabi/lib/thumb/v7-m/nofp\libc_nano.a(lib_a-memset.o)
                0x08000c14                memset
 *(.rodata)
 .rodata        0x08000c24       0x64 obj/main.o
 *(.rodata*)
 *(.glue_7)
 .glue_7        0x08000c88        0x0 linker stubs
 *(.glue_7t)
 .glue_7t       0x08000c88        0x0 linker stubs
 *(.init)
 .init          0x08000c88        0x4 e:/nxp_mcu/ft1_mcu_make/toolschain/bin/../lib/gcc/arm-none-eabi/10.2.1/thumb/v7-m/nofp/crti.o
                0x08000c88                _init
 .init          0x08000c8c        0x8 e:/nxp_mcu/ft1_mcu_make/toolschain/bin/../lib/gcc/arm-none-eabi/10.2.1/thumb/v7-m/nofp/crtn.o
 *(.fini)
 .fini          0x08000c94        0x4 e:/nxp_mcu/ft1_mcu_make/toolschain/bin/../lib/gcc/arm-none-eabi/10.2.1/thumb/v7-m/nofp/crti.o
                0x08000c94                _fini
 .fini          0x08000c98        0x8 e:/nxp_mcu/ft1_mcu_make/toolschain/bin/../lib/gcc/arm-none-eabi/10.2.1/thumb/v7-m/nofp/crtn.o
                0x08000ca0                . = ALIGN (0x4)
                0x08000ca0                _etext = .

.vfp11_veneer   0x08000ca0        0x0
 .vfp11_veneer  0x08000ca0        0x0 linker stubs

.v4_bx          0x08000ca0        0x0
 .v4_bx         0x08000ca0        0x0 linker stubs

.iplt           0x08000ca0        0x0
 .iplt          0x08000ca0        0x0 e:/nxp_mcu/ft1_mcu_make/toolschain/bin/../lib/gcc/arm-none-eabi/10.2.1/thumb/v7-m/nofp/crtbegin.o

.rel.dyn        0x08000ca0        0x0
 .rel.iplt      0x08000ca0        0x0 e:/nxp_mcu/ft1_mcu_make/toolschain/bin/../lib/gcc/arm-none-eabi/10.2.1/thumb/v7-m/nofp/crtbegin.o

.ARM.extab
 *(.ARM.extab* .gnu.linkonce.armextab.*)

.ARM            0x08000ca0        0x0
                0x08000ca0                __exidx_start = .
 *(.ARM.exidx*)
                0x08000ca0                __exidx_end = .

.ARM.attributes
                0x08000ca0       0x2b
 *(.ARM.attributes)
 .ARM.attributes
                0x08000ca0       0x1d e:/nxp_mcu/ft1_mcu_make/toolschain/bin/../lib/gcc/arm-none-eabi/10.2.1/thumb/v7-m/nofp/crti.o
 .ARM.attributes
                0x08000cbd       0x2d e:/nxp_mcu/ft1_mcu_make/toolschain/bin/../lib/gcc/arm-none-eabi/10.2.1/thumb/v7-m/nofp/crtbegin.o
 .ARM.attributes
                0x08000cea       0x2d obj/stm32f10x-delay.o
 .ARM.attributes
                0x08000d17       0x2d obj/stm32f10x-uart.o
 .ARM.attributes
                0x08000d44       0x2d obj/system_stm32f10x.o
 .ARM.attributes
                0x08000d71       0x2d obj/main.o
 .ARM.attributes
                0x08000d9e       0x21 obj/stm32f10x_startup.o
 .ARM.attributes
                0x08000dbf       0x1d e:/nxp_mcu/ft1_mcu_make/toolschain/bin/../lib/gcc/arm-none-eabi/10.2.1/thumb/v7-m/nofp\libgcc.a(_arm_addsubsf3.o)
 .ARM.attributes
                0x08000ddc       0x1d e:/nxp_mcu/ft1_mcu_make/toolschain/bin/../lib/gcc/arm-none-eabi/10.2.1/thumb/v7-m/nofp\libgcc.a(_arm_fixunssfsi.o)
 .ARM.attributes
                0x08000df9       0x2d e:/nxp_mcu/ft1_mcu_make/toolschain/bin/../lib/gcc/arm-none-eabi/10.2.1/../../../../arm-none-eabi/lib/thumb/v7-m/nofp\libc_nano.a(lib_a-init.o)
 .ARM.attributes
                0x08000e26       0x2d e:/nxp_mcu/ft1_mcu_make/toolschain/bin/../lib/gcc/arm-none-eabi/10.2.1/../../../../arm-none-eabi/lib/thumb/v7-m/nofp\libc_nano.a(lib_a-memset.o)
 .ARM.attributes
                0x08000e53       0x1d e:/nxp_mcu/ft1_mcu_make/toolschain/bin/../lib/gcc/arm-none-eabi/10.2.1/thumb/v7-m/nofp/crtn.o

.preinit_array  0x08000ca0        0x0
                0x08000ca0                PROVIDE (__preinit_array_start = .)
 *(.preinit_array*)
                0x08000ca0                PROVIDE (__preinit_array_end = .)

.init_array     0x08000ca0        0x4
                0x08000ca0                PROVIDE (__init_array_start = .)
 *(SORT_BY_NAME(.init_array.*))
 *(.init_array*)
 .init_array    0x08000ca0        0x4 e:/nxp_mcu/ft1_mcu_make/toolschain/bin/../lib/gcc/arm-none-eabi/10.2.1/thumb/v7-m/nofp/crtbegin.o
                0x08000ca4                PROVIDE (__init_array_end = .)

.fini_array     0x08000ca4        0x4
                [!provide]                PROVIDE (__fini_array_start = .)
 *(.fini_array*)
 .fini_array    0x08000ca4        0x4 e:/nxp_mcu/ft1_mcu_make/toolschain/bin/../lib/gcc/arm-none-eabi/10.2.1/thumb/v7-m/nofp/crtbegin.o
 *(SORT_BY_NAME(.fini_array.*))
                [!provide]                PROVIDE (__fini_array_end = .)
                0x08000ca8                _sidata = .

.data           0x20000000       0x44 load address 0x08000ca8
                0x20000000                . = ALIGN (0x4)
                0x20000000                _sdata = .
 *(.data)
 *(.data*)
 .data.led      0x20000000        0x8 obj/main.o
                0x20000000                led
 .data.tty0     0x20000008        0xc obj/main.o
                0x20000008                tty0
                0x20000018                . = ALIGN (0x8)
 *fill*         0x20000014        0x4 
                0x20000018                PROVIDE (__gpio_core_init = .)
 *(.__gpio_core_init)
                [!provide]                PROVIDE (__spi_core_init = .)
 *(.__spi_core_init)
                [!provide]                PROVIDE (__i2c_core_init = .)
 *(.__i2c_core_init)
                0x20000018                PROVIDE (__uart_core_init = .)
 *(.__uart_core_init)
 .__uart_core_init
                0x20000018       0x1c obj/stm32f10x-uart.o
                0x20000018                stm32f10x_uart_controller
                [!provide]                PROVIDE (__timer_core_init = .)
 *(.__timer_core_init)
                0x20000034                PROVIDE (__delay_core_init = .)
 *(.__delay_core_init)
 .__delay_core_init
                0x20000034       0x10 obj/stm32f10x-delay.o
                0x20000034                stm32f10x_delay
                0x20000044                . = ALIGN (0x4)
                0x20000044                _edata = .

.igot.plt       0x20000044        0x0 load address 0x08000cec
 .igot.plt      0x20000044        0x0 e:/nxp_mcu/ft1_mcu_make/toolschain/bin/../lib/gcc/arm-none-eabi/10.2.1/thumb/v7-m/nofp/crtbegin.o
                0x20000044                . = ALIGN (0x4)

.bss            0x20000044       0x30 load address 0x08000cec
                0x20000044                _sbss = .
                0x20000044                __bss_start__ = _sbss
 *(.bss)
 .bss           0x20000044       0x1c e:/nxp_mcu/ft1_mcu_make/toolschain/bin/../lib/gcc/arm-none-eabi/10.2.1/thumb/v7-m/nofp/crtbegin.o
 *(.bss*)
 .bss.uart_handler
                0x20000060       0x14 obj/stm32f10x-uart.o
 *(COMMON)
                0x20000074                . = ALIGN (0x4)
                0x20000074                _ebss = .
                0x20000074                __bss_end__ = _ebss
                [!provide]                PROVIDE (end = _ebss)
                [!provide]                PROVIDE (_end = _ebss)

._user_heap_stack
                0x20000074      0x200 load address 0x08000d1c
                0x20000074                . = ALIGN (0x4)
                0x20000074                . = (. + _Min_Heap_Size)
                0x20000274                . = (. + _Min_Stack_Size)
 *fill*         0x20000074      0x200 
                0x20000274                . = ALIGN (0x4)

.memory_b1_text
 *(.mb1text)
 *(.mb1text*)
 *(.mb1rodata)
 *(.mb1rodata*)

/DISCARD/
 libc.a(*)
 libm.a(*)
 libgcc.a(*)
OUTPUT(obj/stm32f10x.elf elf32-littlearm)
LOAD linker stubs
LOAD e:/nxp_mcu/ft1_mcu_make/toolschain/bin/../lib/gcc/arm-none-eabi/10.2.1/../../../../arm-none-eabi/lib/thumb/v7-m/nofp\libc.a
LOAD e:/nxp_mcu/ft1_mcu_make/toolschain/bin/../lib/gcc/arm-none-eabi/10.2.1/../../../../arm-none-eabi/lib/thumb/v7-m/nofp\libm.a
LOAD e:/nxp_mcu/ft1_mcu_make/toolschain/bin/../lib/gcc/arm-none-eabi/10.2.1/thumb/v7-m/nofp\libgcc.a

.debug_info     0x00000000     0x20a9
 .debug_info    0x00000000      0x2e5 obj/stm32f10x-delay.o
 .debug_info    0x000002e5     0x1057 obj/stm32f10x-uart.o
 .debug_info    0x0000133c      0x507 obj/system_stm32f10x.o
 .debug_info    0x00001843      0x844 obj/main.o
 .debug_info    0x00002087       0x22 obj/stm32f10x_startup.o

.debug_abbrev   0x00000000      0x89c
 .debug_abbrev  0x00000000      0x1d1 obj/stm32f10x-delay.o
 .debug_abbrev  0x000001d1      0x2c3 obj/stm32f10x-uart.o
 .debug_abbrev  0x00000494      0x1db obj/system_stm32f10x.o
 .debug_abbrev  0x0000066f      0x21b obj/main.o
 .debug_abbrev  0x0000088a       0x12 obj/stm32f10x_startup.o

.debug_loc      0x00000000      0xc0e
 .debug_loc     0x00000000      0x1e3 obj/stm32f10x-delay.o
 .debug_loc     0x000001e3      0x799 obj/stm32f10x-uart.o
 .debug_loc     0x0000097c      0x126 obj/system_stm32f10x.o
 .debug_loc     0x00000aa2      0x16c obj/main.o

.debug_aranges  0x00000000      0x120
 .debug_aranges
                0x00000000       0x40 obj/stm32f10x-delay.o
 .debug_aranges
                0x00000040       0x70 obj/stm32f10x-uart.o
 .debug_aranges
                0x000000b0       0x28 obj/system_stm32f10x.o
 .debug_aranges
                0x000000d8       0x20 obj/main.o
 .debug_aranges
                0x000000f8       0x28 obj/stm32f10x_startup.o

.debug_ranges   0x00000000      0x400
 .debug_ranges  0x00000000       0xb8 obj/stm32f10x-delay.o
 .debug_ranges  0x000000b8      0x260 obj/stm32f10x-uart.o
 .debug_ranges  0x00000318       0x60 obj/system_stm32f10x.o
 .debug_ranges  0x00000378       0x68 obj/main.o
 .debug_ranges  0x000003e0       0x20 obj/stm32f10x_startup.o

.debug_line     0x00000000     0x150a
 .debug_line    0x00000000      0x27d obj/stm32f10x-delay.o
 .debug_line    0x0000027d      0xc1d obj/stm32f10x-uart.o
 .debug_line    0x00000e9a      0x32b obj/system_stm32f10x.o
 .debug_line    0x000011c5      0x2b1 obj/main.o
 .debug_line    0x00001476       0x94 obj/stm32f10x_startup.o

.debug_str      0x00000000      0xc2d
 .debug_str     0x00000000      0x219 obj/stm32f10x-delay.o
                                0x27c (size before relaxing)
 .debug_str     0x00000219      0x789 obj/stm32f10x-uart.o
                                0x99e (size before relaxing)
 .debug_str     0x000009a2       0xe2 obj/system_stm32f10x.o
                                0x32c (size before relaxing)
 .debug_str     0x00000a84      0x163 obj/main.o
                                0x454 (size before relaxing)
 .debug_str     0x00000be7       0x46 obj/stm32f10x_startup.o
                                 0x72 (size before relaxing)

.comment        0x00000000       0x4d
 .comment       0x00000000       0x4d obj/stm32f10x-delay.o
                                 0x4e (size before relaxing)
 .comment       0x0000004d       0x4e obj/stm32f10x-uart.o
 .comment       0x0000004d       0x4e obj/system_stm32f10x.o
 .comment       0x0000004d       0x4e obj/main.o

.debug_frame    0x00000000      0x2a0
 .debug_frame   0x00000000       0x60 obj/stm32f10x-delay.o
 .debug_frame   0x00000060      0x114 obj/stm32f10x-uart.o
 .debug_frame   0x00000174       0x44 obj/system_stm32f10x.o
 .debug_frame   0x000001b8       0x2c obj/main.o
 .debug_frame   0x000001e4       0x4c e:/nxp_mcu/ft1_mcu_make/toolschain/bin/../lib/gcc/arm-none-eabi/10.2.1/thumb/v7-m/nofp\libgcc.a(_arm_addsubsf3.o)
 .debug_frame   0x00000230       0x24 e:/nxp_mcu/ft1_mcu_make/toolschain/bin/../lib/gcc/arm-none-eabi/10.2.1/thumb/v7-m/nofp\libgcc.a(_arm_fixunssfsi.o)
 .debug_frame   0x00000254       0x2c e:/nxp_mcu/ft1_mcu_make/toolschain/bin/../lib/gcc/arm-none-eabi/10.2.1/../../../../arm-none-eabi/lib/thumb/v7-m/nofp\libc_nano.a(lib_a-init.o)
 .debug_frame   0x00000280       0x20 e:/nxp_mcu/ft1_mcu_make/toolschain/bin/../lib/gcc/arm-none-eabi/10.2.1/../../../../arm-none-eabi/lib/thumb/v7-m/nofp\libc_nano.a(lib_a-memset.o)

Cross Reference Table

Symbol                                            File
ADC1_2_IRQHandler                                 obj/stm32f10x_startup.o
AHBPrescTable                                     obj/system_stm32f10x.o
BusFault_Handler                                  obj/stm32f10x_startup.o
CAN1_RX1_IRQHandler                               obj/stm32f10x_startup.o
CAN1_SCE_IRQHandler                               obj/stm32f10x_startup.o
DMA1_Channel1_IRQHandler                          obj/stm32f10x_startup.o
DMA1_Channel2_IRQHandler                          obj/stm32f10x_startup.o
DMA1_Channel3_IRQHandler                          obj/stm32f10x_startup.o
DMA1_Channel4_IRQHandler                          obj/stm32f10x_startup.o
DMA1_Channel5_IRQHandler                          obj/stm32f10x_startup.o
DMA1_Channel6_IRQHandler                          obj/stm32f10x_startup.o
DMA1_Channel7_IRQHandler                          obj/stm32f10x_startup.o
DebugMon_Handler                                  obj/stm32f10x_startup.o
Default_Handler                                   obj/stm32f10x_startup.o
EXTI0_IRQHandler                                  obj/stm32f10x_startup.o
EXTI15_10_IRQHandler                              obj/stm32f10x_startup.o
EXTI1_IRQHandler                                  obj/stm32f10x_startup.o
EXTI2_IRQHandler                                  obj/stm32f10x_startup.o
EXTI3_IRQHandler                                  obj/stm32f10x_startup.o
EXTI4_IRQHandler                                  obj/stm32f10x_startup.o
EXTI9_5_IRQHandler                                obj/stm32f10x_startup.o
FLASH_IRQHandler                                  obj/stm32f10x_startup.o
HardFault_Handler                                 obj/stm32f10x_startup.o
I2C1_ER_IRQHandler                                obj/stm32f10x_startup.o
I2C1_EV_IRQHandler                                obj/stm32f10x_startup.o
I2C2_ER_IRQHandler                                obj/stm32f10x_startup.o
I2C2_EV_IRQHandler                                obj/stm32f10x_startup.o
MemManage_Handler                                 obj/stm32f10x_startup.o
NMI_Handler                                       obj/stm32f10x_startup.o
PVD_IRQHandler                                    obj/stm32f10x_startup.o
PendSV_Handler                                    obj/stm32f10x_startup.o
RCC_IRQHandler                                    obj/stm32f10x_startup.o
RTCAlarm_IRQHandler                               obj/stm32f10x_startup.o
RTC_IRQHandler                                    obj/stm32f10x_startup.o
Reset_Handler                                     obj/stm32f10x_startup.o
SPI1_IRQHandler                                   obj/stm32f10x_startup.o
SPI2_IRQHandler                                   obj/stm32f10x_startup.o
SVC_Handler                                       obj/stm32f10x_startup.o
SysTick_Handler                                   obj/stm32f10x-delay.o
SystemCoreClock                                   obj/system_stm32f10x.o
SystemCoreClockUpdate                             obj/system_stm32f10x.o
SystemInit                                        obj/system_stm32f10x.o
                                                  obj/stm32f10x_startup.o
TAMPER_IRQHandler                                 obj/stm32f10x_startup.o
TIM1_BRK_IRQHandler                               obj/stm32f10x_startup.o
TIM1_CC_IRQHandler                                obj/stm32f10x_startup.o
TIM1_TRG_COM_IRQHandler                           obj/stm32f10x_startup.o
TIM1_UP_IRQHandler                                obj/stm32f10x_startup.o
TIM2_IRQHandler                                   obj/stm32f10x_startup.o
TIM3_IRQHandler                                   obj/stm32f10x_startup.o
TIM4_IRQHandler                                   obj/stm32f10x_startup.o
USART1_IRQHandler                                 obj/stm32f10x-uart.o
USART2_IRQHandler                                 obj/stm32f10x-uart.o
USART3_IRQHandler                                 obj/stm32f10x-uart.o
USART4_IRQHandler                                 obj/stm32f10x-uart.o
USART5_IRQHandler                                 obj/stm32f10x-uart.o
USBWakeUp_IRQHandler                              obj/stm32f10x_startup.o
USB_HP_CAN1_TX_IRQHandler                         obj/stm32f10x_startup.o
USB_LP_CAN1_RX0_IRQHandler                        obj/stm32f10x_startup.o
UsageFault_Handler                                obj/stm32f10x_startup.o
WWDG_IRQHandler                                   obj/stm32f10x_startup.o
__addsf3                                          e:/nxp_mcu/ft1_mcu_make/toolschain/bin/../lib/gcc/arm-none-eabi/10.2.1/thumb/v7-m/nofp\libgcc.a(_arm_addsubsf3.o)
__aeabi_f2uiz                                     e:/nxp_mcu/ft1_mcu_make/toolschain/bin/../lib/gcc/arm-none-eabi/10.2.1/thumb/v7-m/nofp\libgcc.a(_arm_fixunssfsi.o)
                                                  obj/stm32f10x-uart.o
__aeabi_fadd                                      e:/nxp_mcu/ft1_mcu_make/toolschain/bin/../lib/gcc/arm-none-eabi/10.2.1/thumb/v7-m/nofp\libgcc.a(_arm_addsubsf3.o)
__aeabi_frsub                                     e:/nxp_mcu/ft1_mcu_make/toolschain/bin/../lib/gcc/arm-none-eabi/10.2.1/thumb/v7-m/nofp\libgcc.a(_arm_addsubsf3.o)
__aeabi_fsub                                      e:/nxp_mcu/ft1_mcu_make/toolschain/bin/../lib/gcc/arm-none-eabi/10.2.1/thumb/v7-m/nofp\libgcc.a(_arm_addsubsf3.o)
                                                  obj/stm32f10x-uart.o
__aeabi_i2f                                       e:/nxp_mcu/ft1_mcu_make/toolschain/bin/../lib/gcc/arm-none-eabi/10.2.1/thumb/v7-m/nofp\libgcc.a(_arm_addsubsf3.o)
__aeabi_l2f                                       e:/nxp_mcu/ft1_mcu_make/toolschain/bin/../lib/gcc/arm-none-eabi/10.2.1/thumb/v7-m/nofp\libgcc.a(_arm_addsubsf3.o)
__aeabi_ui2f                                      e:/nxp_mcu/ft1_mcu_make/toolschain/bin/../lib/gcc/arm-none-eabi/10.2.1/thumb/v7-m/nofp\libgcc.a(_arm_addsubsf3.o)
                                                  obj/stm32f10x-uart.o
__aeabi_ul2f                                      e:/nxp_mcu/ft1_mcu_make/toolschain/bin/../lib/gcc/arm-none-eabi/10.2.1/thumb/v7-m/nofp\libgcc.a(_arm_addsubsf3.o)
__bss_end__                                       e:/nxp_mcu/ft1_mcu_make/toolschain/bin/../lib/gcc/arm-none-eabi/10.2.1/../../../../arm-none-eabi/lib/thumb/v7-m/nofp/crt0.o
__bss_start__                                     e:/nxp_mcu/ft1_mcu_make/toolschain/bin/../lib/gcc/arm-none-eabi/10.2.1/../../../../arm-none-eabi/lib/thumb/v7-m/nofp/crt0.o
__call_exitprocs                                  e:/nxp_mcu/ft1_mcu_make/toolschain/bin/../lib/gcc/arm-none-eabi/10.2.1/../../../../arm-none-eabi/lib/thumb/v7-m/nofp\libc_nano.a(lib_a-exit.o)
__delay_core_init                                 obj/main.o
__deregister_frame_info                           e:/nxp_mcu/ft1_mcu_make/toolschain/bin/../lib/gcc/arm-none-eabi/10.2.1/thumb/v7-m/nofp/crtbegin.o
__dso_handle                                      e:/nxp_mcu/ft1_mcu_make/toolschain/bin/../lib/gcc/arm-none-eabi/10.2.1/thumb/v7-m/nofp/crtbegin.o
__fixunssfsi                                      e:/nxp_mcu/ft1_mcu_make/toolschain/bin/../lib/gcc/arm-none-eabi/10.2.1/thumb/v7-m/nofp\libgcc.a(_arm_fixunssfsi.o)
__floatdisf                                       e:/nxp_mcu/ft1_mcu_make/toolschain/bin/../lib/gcc/arm-none-eabi/10.2.1/thumb/v7-m/nofp\libgcc.a(_arm_addsubsf3.o)
__floatsisf                                       e:/nxp_mcu/ft1_mcu_make/toolschain/bin/../lib/gcc/arm-none-eabi/10.2.1/thumb/v7-m/nofp\libgcc.a(_arm_addsubsf3.o)
__floatundisf                                     e:/nxp_mcu/ft1_mcu_make/toolschain/bin/../lib/gcc/arm-none-eabi/10.2.1/thumb/v7-m/nofp\libgcc.a(_arm_addsubsf3.o)
__floatunsisf                                     e:/nxp_mcu/ft1_mcu_make/toolschain/bin/../lib/gcc/arm-none-eabi/10.2.1/thumb/v7-m/nofp\libgcc.a(_arm_addsubsf3.o)
__gpio_core_init                                  obj/main.o
                                                  obj/i2c-gpio-core.o
                                                  obj/spi-gpio-core.o
__init_array_end                                  e:/nxp_mcu/ft1_mcu_make/toolschain/bin/../lib/gcc/arm-none-eabi/10.2.1/../../../../arm-none-eabi/lib/thumb/v7-m/nofp\libc_nano.a(lib_a-init.o)
__init_array_start                                e:/nxp_mcu/ft1_mcu_make/toolschain/bin/../lib/gcc/arm-none-eabi/10.2.1/../../../../arm-none-eabi/lib/thumb/v7-m/nofp\libc_nano.a(lib_a-init.o)
__libc_fini_array                                 e:/nxp_mcu/ft1_mcu_make/toolschain/bin/../lib/gcc/arm-none-eabi/10.2.1/../../../../arm-none-eabi/lib/thumb/v7-m/nofp/crt0.o
__libc_init_array                                 e:/nxp_mcu/ft1_mcu_make/toolschain/bin/../lib/gcc/arm-none-eabi/10.2.1/../../../../arm-none-eabi/lib/thumb/v7-m/nofp\libc_nano.a(lib_a-init.o)
                                                  obj/stm32f10x_startup.o
                                                  e:/nxp_mcu/ft1_mcu_make/toolschain/bin/../lib/gcc/arm-none-eabi/10.2.1/../../../../arm-none-eabi/lib/thumb/v7-m/nofp/crt0.o
__preinit_array_end                               e:/nxp_mcu/ft1_mcu_make/toolschain/bin/../lib/gcc/arm-none-eabi/10.2.1/../../../../arm-none-eabi/lib/thumb/v7-m/nofp\libc_nano.a(lib_a-init.o)
__preinit_array_start                             e:/nxp_mcu/ft1_mcu_make/toolschain/bin/../lib/gcc/arm-none-eabi/10.2.1/../../../../arm-none-eabi/lib/thumb/v7-m/nofp\libc_nano.a(lib_a-init.o)
__register_frame_info                             e:/nxp_mcu/ft1_mcu_make/toolschain/bin/../lib/gcc/arm-none-eabi/10.2.1/thumb/v7-m/nofp/crtbegin.o
__sf_fake_stderr                                  e:/nxp_mcu/ft1_mcu_make/toolschain/bin/../lib/gcc/arm-none-eabi/10.2.1/../../../../arm-none-eabi/lib/thumb/v7-m/nofp\libc_nano.a(lib_a-impure.o)
__sf_fake_stdin                                   e:/nxp_mcu/ft1_mcu_make/toolschain/bin/../lib/gcc/arm-none-eabi/10.2.1/../../../../arm-none-eabi/lib/thumb/v7-m/nofp\libc_nano.a(lib_a-impure.o)
__sf_fake_stdout                                  e:/nxp_mcu/ft1_mcu_make/toolschain/bin/../lib/gcc/arm-none-eabi/10.2.1/../../../../arm-none-eabi/lib/thumb/v7-m/nofp\libc_nano.a(lib_a-impure.o)
__stack                                           e:/nxp_mcu/ft1_mcu_make/toolschain/bin/../lib/gcc/arm-none-eabi/10.2.1/../../../../arm-none-eabi/lib/thumb/v7-m/nofp/crt0.o
__subsf3                                          e:/nxp_mcu/ft1_mcu_make/toolschain/bin/../lib/gcc/arm-none-eabi/10.2.1/thumb/v7-m/nofp\libgcc.a(_arm_addsubsf3.o)
__uart_core_init                                  obj/main.o
_ebss                                             obj/stm32f10x_startup.o
_edata                                            obj/stm32f10x_startup.o
_estack                                           obj/stm32f10x_startup.o
_exit                                             e:/nxp_mcu/ft1_mcu_make/toolschain/bin/../lib/gcc/arm-none-eabi/10.2.1/../../../../arm-none-eabi/lib/thumb/v7-m/nofp\libnosys.a(_exit.o)
                                                  e:/nxp_mcu/ft1_mcu_make/toolschain/bin/../lib/gcc/arm-none-eabi/10.2.1/../../../../arm-none-eabi/lib/thumb/v7-m/nofp\libc_nano.a(lib_a-exit.o)
_fini                                             e:/nxp_mcu/ft1_mcu_make/toolschain/bin/../lib/gcc/arm-none-eabi/10.2.1/thumb/v7-m/nofp/crti.o
_global_impure_ptr                                e:/nxp_mcu/ft1_mcu_make/toolschain/bin/../lib/gcc/arm-none-eabi/10.2.1/../../../../arm-none-eabi/lib/thumb/v7-m/nofp\libc_nano.a(lib_a-impure.o)
                                                  e:/nxp_mcu/ft1_mcu_make/toolschain/bin/../lib/gcc/arm-none-eabi/10.2.1/../../../../arm-none-eabi/lib/thumb/v7-m/nofp\libc_nano.a(lib_a-exit.o)
_impure_ptr                                       e:/nxp_mcu/ft1_mcu_make/toolschain/bin/../lib/gcc/arm-none-eabi/10.2.1/../../../../arm-none-eabi/lib/thumb/v7-m/nofp\libc_nano.a(lib_a-impure.o)
_init                                             e:/nxp_mcu/ft1_mcu_make/toolschain/bin/../lib/gcc/arm-none-eabi/10.2.1/thumb/v7-m/nofp/crti.o
                                                  e:/nxp_mcu/ft1_mcu_make/toolschain/bin/../lib/gcc/arm-none-eabi/10.2.1/../../../../arm-none-eabi/lib/thumb/v7-m/nofp\libc_nano.a(lib_a-init.o)
_mainCRTStartup                                   e:/nxp_mcu/ft1_mcu_make/toolschain/bin/../lib/gcc/arm-none-eabi/10.2.1/../../../../arm-none-eabi/lib/thumb/v7-m/nofp/crt0.o
_sbss                                             obj/stm32f10x_startup.o
_sdata                                            obj/stm32f10x_startup.o
_sidata                                           obj/stm32f10x_startup.o
_stack_init                                       e:/nxp_mcu/ft1_mcu_make/toolschain/bin/../lib/gcc/arm-none-eabi/10.2.1/../../../../arm-none-eabi/lib/thumb/v7-m/nofp/crt0.o
_start                                            e:/nxp_mcu/ft1_mcu_make/toolschain/bin/../lib/gcc/arm-none-eabi/10.2.1/../../../../arm-none-eabi/lib/thumb/v7-m/nofp/crt0.o
atexit                                            e:/nxp_mcu/ft1_mcu_make/toolschain/bin/../lib/gcc/arm-none-eabi/10.2.1/../../../../arm-none-eabi/lib/thumb/v7-m/nofp/crt0.o
exit                                              e:/nxp_mcu/ft1_mcu_make/toolschain/bin/../lib/gcc/arm-none-eabi/10.2.1/../../../../arm-none-eabi/lib/thumb/v7-m/nofp\libc_nano.a(lib_a-exit.o)
                                                  e:/nxp_mcu/ft1_mcu_make/toolschain/bin/../lib/gcc/arm-none-eabi/10.2.1/../../../../arm-none-eabi/lib/thumb/v7-m/nofp/crt0.o
g_pfnVectors                                      obj/stm32f10x_startup.o
hardware_init_hook                                e:/nxp_mcu/ft1_mcu_make/toolschain/bin/../lib/gcc/arm-none-eabi/10.2.1/../../../../arm-none-eabi/lib/thumb/v7-m/nofp/crt0.o
i2c_gpio_cmd_read                                 obj/i2c-gpio-core.o
i2c_gpio_cmd_write                                obj/i2c-gpio-core.o
i2c_gpio_probe                                    obj/i2c-gpio-core.o
i2c_gpio_read                                     obj/i2c-gpio-core.o
i2c_gpio_remove                                   obj/i2c-gpio-core.o
i2c_gpio_set_speed                                obj/i2c-gpio-core.o
i2c_gpio_write                                    obj/i2c-gpio-core.o
led                                               obj/main.o
main                                              obj/main.o
                                                  obj/stm32f10x_startup.o
                                                  e:/nxp_mcu/ft1_mcu_make/toolschain/bin/../lib/gcc/arm-none-eabi/10.2.1/../../../../arm-none-eabi/lib/thumb/v7-m/nofp/crt0.o
memset                                            e:/nxp_mcu/ft1_mcu_make/toolschain/bin/../lib/gcc/arm-none-eabi/10.2.1/../../../../arm-none-eabi/lib/thumb/v7-m/nofp\libc_nano.a(lib_a-memset.o)
                                                  obj/main.o
                                                  e:/nxp_mcu/ft1_mcu_make/toolschain/bin/../lib/gcc/arm-none-eabi/10.2.1/../../../../arm-none-eabi/lib/thumb/v7-m/nofp/crt0.o
software_init_hook                                e:/nxp_mcu/ft1_mcu_make/toolschain/bin/../lib/gcc/arm-none-eabi/10.2.1/../../../../arm-none-eabi/lib/thumb/v7-m/nofp/crt0.o
spi_gpio_probe                                    obj/spi-gpio-core.o
spi_gpio_read                                     obj/spi-gpio-core.o
spi_gpio_remove                                   obj/spi-gpio-core.o
spi_gpio_set_speed                                obj/spi-gpio-core.o
spi_gpio_transfer                                 obj/spi-gpio-core.o
spi_gpio_write                                    obj/spi-gpio-core.o
stm32f10x_delay                                   obj/stm32f10x-delay.o
stm32f10x_uart_controller                         obj/stm32f10x-uart.o
tmp1122                                           obj/tmp112.o
tty0                                              obj/main.o
