GAS LISTING C:\Users\test\AppData\Local\Temp\ccCveaze.s 			page 1


   1              		.file	"gd32vf103_wwdgt.c"
   2              		.option nopic
   3              		.text
   4              	.Ltext0:
   5              		.cfi_sections	.debug_frame
   6              		.section	.text.wwdgt_deinit,"ax",@progbits
   7              		.align	1
   8              		.globl	wwdgt_deinit
  10              	wwdgt_deinit:
  11              	.LFB2:
  12              		.file 1 "arch/riscv/mach-gd32vf10x/bsp/gd32vf103_wwdgt.c"
   1:arch/riscv/mach-gd32vf10x/bsp/gd32vf103_wwdgt.c **** /*!
   2:arch/riscv/mach-gd32vf10x/bsp/gd32vf103_wwdgt.c ****     \file  gd32vf103_wwdgt.c
   3:arch/riscv/mach-gd32vf10x/bsp/gd32vf103_wwdgt.c ****     \brief WWDGT driver
   4:arch/riscv/mach-gd32vf10x/bsp/gd32vf103_wwdgt.c ****     
   5:arch/riscv/mach-gd32vf10x/bsp/gd32vf103_wwdgt.c ****     \version 2019-6-5, V1.0.0, firmware for GD32VF103
   6:arch/riscv/mach-gd32vf10x/bsp/gd32vf103_wwdgt.c **** */
   7:arch/riscv/mach-gd32vf10x/bsp/gd32vf103_wwdgt.c **** 
   8:arch/riscv/mach-gd32vf10x/bsp/gd32vf103_wwdgt.c **** /*
   9:arch/riscv/mach-gd32vf10x/bsp/gd32vf103_wwdgt.c ****     Copyright (c) 2019, GigaDevice Semiconductor Inc.
  10:arch/riscv/mach-gd32vf10x/bsp/gd32vf103_wwdgt.c **** 
  11:arch/riscv/mach-gd32vf10x/bsp/gd32vf103_wwdgt.c ****     Redistribution and use in source and binary forms, with or without modification, 
  12:arch/riscv/mach-gd32vf10x/bsp/gd32vf103_wwdgt.c **** are permitted provided that the following conditions are met:
  13:arch/riscv/mach-gd32vf10x/bsp/gd32vf103_wwdgt.c **** 
  14:arch/riscv/mach-gd32vf10x/bsp/gd32vf103_wwdgt.c ****     1. Redistributions of source code must retain the above copyright notice, this 
  15:arch/riscv/mach-gd32vf10x/bsp/gd32vf103_wwdgt.c ****        list of conditions and the following disclaimer.
  16:arch/riscv/mach-gd32vf10x/bsp/gd32vf103_wwdgt.c ****     2. Redistributions in binary form must reproduce the above copyright notice, 
  17:arch/riscv/mach-gd32vf10x/bsp/gd32vf103_wwdgt.c ****        this list of conditions and the following disclaimer in the documentation 
  18:arch/riscv/mach-gd32vf10x/bsp/gd32vf103_wwdgt.c ****        and/or other materials provided with the distribution.
  19:arch/riscv/mach-gd32vf10x/bsp/gd32vf103_wwdgt.c ****     3. Neither the name of the copyright holder nor the names of its contributors 
  20:arch/riscv/mach-gd32vf10x/bsp/gd32vf103_wwdgt.c ****        may be used to endorse or promote products derived from this software without 
  21:arch/riscv/mach-gd32vf10x/bsp/gd32vf103_wwdgt.c ****        specific prior written permission.
  22:arch/riscv/mach-gd32vf10x/bsp/gd32vf103_wwdgt.c **** 
  23:arch/riscv/mach-gd32vf10x/bsp/gd32vf103_wwdgt.c ****     THIS SOFTWARE IS PROVIDED BY THE COPYRIGHT HOLDERS AND CONTRIBUTORS "AS IS" 
  24:arch/riscv/mach-gd32vf10x/bsp/gd32vf103_wwdgt.c **** AND ANY EXPRESS OR IMPLIED WARRANTIES, INCLUDING, BUT NOT LIMITED TO, THE IMPLIED 
  25:arch/riscv/mach-gd32vf10x/bsp/gd32vf103_wwdgt.c **** WARRANTIES OF MERCHANTABILITY AND FITNESS FOR A PARTICULAR PURPOSE ARE DISCLAIMED. 
  26:arch/riscv/mach-gd32vf10x/bsp/gd32vf103_wwdgt.c **** IN NO EVENT SHALL THE COPYRIGHT HOLDER OR CONTRIBUTORS BE LIABLE FOR ANY DIRECT, 
  27:arch/riscv/mach-gd32vf10x/bsp/gd32vf103_wwdgt.c **** INDIRECT, INCIDENTAL, SPECIAL, EXEMPLARY, OR CONSEQUENTIAL DAMAGES (INCLUDING, BUT 
  28:arch/riscv/mach-gd32vf10x/bsp/gd32vf103_wwdgt.c **** NOT LIMITED TO, PROCUREMENT OF SUBSTITUTE GOODS OR SERVICES; LOSS OF USE, DATA, OR 
  29:arch/riscv/mach-gd32vf10x/bsp/gd32vf103_wwdgt.c **** PROFITS; OR BUSINESS INTERRUPTION) HOWEVER CAUSED AND ON ANY THEORY OF LIABILITY, 
  30:arch/riscv/mach-gd32vf10x/bsp/gd32vf103_wwdgt.c **** WHETHER IN CONTRACT, STRICT LIABILITY, OR TORT (INCLUDING NEGLIGENCE OR OTHERWISE) 
  31:arch/riscv/mach-gd32vf10x/bsp/gd32vf103_wwdgt.c **** ARISING IN ANY WAY OUT OF THE USE OF THIS SOFTWARE, EVEN IF ADVISED OF THE POSSIBILITY 
  32:arch/riscv/mach-gd32vf10x/bsp/gd32vf103_wwdgt.c **** OF SUCH DAMAGE.
  33:arch/riscv/mach-gd32vf10x/bsp/gd32vf103_wwdgt.c **** */
  34:arch/riscv/mach-gd32vf10x/bsp/gd32vf103_wwdgt.c **** 
  35:arch/riscv/mach-gd32vf10x/bsp/gd32vf103_wwdgt.c **** #include "gd32vf103_wwdgt.h"
  36:arch/riscv/mach-gd32vf10x/bsp/gd32vf103_wwdgt.c **** 
  37:arch/riscv/mach-gd32vf10x/bsp/gd32vf103_wwdgt.c **** /* write value to WWDGT_CTL_CNT bit field */
  38:arch/riscv/mach-gd32vf10x/bsp/gd32vf103_wwdgt.c **** #define CTL_CNT(regval)             (BITS(0,6) & ((uint32_t)(regval) << 0))
  39:arch/riscv/mach-gd32vf10x/bsp/gd32vf103_wwdgt.c **** /* write value to WWDGT_CFG_WIN bit field */
  40:arch/riscv/mach-gd32vf10x/bsp/gd32vf103_wwdgt.c **** #define CFG_WIN(regval)             (BITS(0,6) & ((uint32_t)(regval) << 0))
  41:arch/riscv/mach-gd32vf10x/bsp/gd32vf103_wwdgt.c **** 
  42:arch/riscv/mach-gd32vf10x/bsp/gd32vf103_wwdgt.c **** /*!
  43:arch/riscv/mach-gd32vf10x/bsp/gd32vf103_wwdgt.c ****     \brief      reset the window watchdog timer configuration
  44:arch/riscv/mach-gd32vf10x/bsp/gd32vf103_wwdgt.c ****     \param[in]  none
  45:arch/riscv/mach-gd32vf10x/bsp/gd32vf103_wwdgt.c ****     \param[out] none
  46:arch/riscv/mach-gd32vf10x/bsp/gd32vf103_wwdgt.c ****     \retval     none
GAS LISTING C:\Users\test\AppData\Local\Temp\ccCveaze.s 			page 2


  47:arch/riscv/mach-gd32vf10x/bsp/gd32vf103_wwdgt.c **** */
  48:arch/riscv/mach-gd32vf10x/bsp/gd32vf103_wwdgt.c **** void wwdgt_deinit(void)
  49:arch/riscv/mach-gd32vf10x/bsp/gd32vf103_wwdgt.c **** {
  13              		.loc 1 49 1
  14              		.cfi_startproc
  50:arch/riscv/mach-gd32vf10x/bsp/gd32vf103_wwdgt.c ****     rcu_periph_reset_enable(RCU_WWDGTRST);
  15              		.loc 1 50 5
  49:arch/riscv/mach-gd32vf10x/bsp/gd32vf103_wwdgt.c ****     rcu_periph_reset_enable(RCU_WWDGTRST);
  16              		.loc 1 49 1 is_stmt 0
  17 0000 4111     		addi	sp,sp,-16
  18              	.LCFI0:
  19              		.cfi_def_cfa_offset 16
  20              		.loc 1 50 5
  21 0002 1305B040 		li	a0,1035
  49:arch/riscv/mach-gd32vf10x/bsp/gd32vf103_wwdgt.c ****     rcu_periph_reset_enable(RCU_WWDGTRST);
  22              		.loc 1 49 1
  23 0006 06C6     		sw	ra,12(sp)
  24              		.cfi_offset 1, -4
  25              		.loc 1 50 5
  26 0008 97000000 		call	rcu_periph_reset_enable
  26      E7800000 
  27              	.LVL0:
  51:arch/riscv/mach-gd32vf10x/bsp/gd32vf103_wwdgt.c ****     rcu_periph_reset_disable(RCU_WWDGTRST);
  28              		.loc 1 51 5 is_stmt 1
  52:arch/riscv/mach-gd32vf10x/bsp/gd32vf103_wwdgt.c **** }
  29              		.loc 1 52 1 is_stmt 0
  30 0010 B240     		lw	ra,12(sp)
  31              		.cfi_restore 1
  51:arch/riscv/mach-gd32vf10x/bsp/gd32vf103_wwdgt.c ****     rcu_periph_reset_disable(RCU_WWDGTRST);
  32              		.loc 1 51 5
  33 0012 1305B040 		li	a0,1035
  34              		.loc 1 52 1
  35 0016 4101     		addi	sp,sp,16
  36              	.LCFI1:
  37              		.cfi_def_cfa_offset 0
  51:arch/riscv/mach-gd32vf10x/bsp/gd32vf103_wwdgt.c ****     rcu_periph_reset_disable(RCU_WWDGTRST);
  38              		.loc 1 51 5
  39 0018 17030000 		tail	rcu_periph_reset_disable
  39      67000300 
  40              	.LVL1:
  41              		.cfi_endproc
  42              	.LFE2:
  44              		.section	.text.wwdgt_enable,"ax",@progbits
  45              		.align	1
  46              		.globl	wwdgt_enable
  48              	wwdgt_enable:
  49              	.LFB3:
  53:arch/riscv/mach-gd32vf10x/bsp/gd32vf103_wwdgt.c **** 
  54:arch/riscv/mach-gd32vf10x/bsp/gd32vf103_wwdgt.c **** /*!
  55:arch/riscv/mach-gd32vf10x/bsp/gd32vf103_wwdgt.c ****     \brief      start the window watchdog timer counter
  56:arch/riscv/mach-gd32vf10x/bsp/gd32vf103_wwdgt.c ****     \param[in]  none
  57:arch/riscv/mach-gd32vf10x/bsp/gd32vf103_wwdgt.c ****     \param[out] none
  58:arch/riscv/mach-gd32vf10x/bsp/gd32vf103_wwdgt.c ****     \retval     none
  59:arch/riscv/mach-gd32vf10x/bsp/gd32vf103_wwdgt.c **** */
  60:arch/riscv/mach-gd32vf10x/bsp/gd32vf103_wwdgt.c **** void wwdgt_enable(void)
  61:arch/riscv/mach-gd32vf10x/bsp/gd32vf103_wwdgt.c **** {
  50              		.loc 1 61 1 is_stmt 1
GAS LISTING C:\Users\test\AppData\Local\Temp\ccCveaze.s 			page 3


  51              		.cfi_startproc
  62:arch/riscv/mach-gd32vf10x/bsp/gd32vf103_wwdgt.c ****     WWDGT_CTL |= WWDGT_CTL_WDGTEN;
  52              		.loc 1 62 5
  53              		.loc 1 62 15 is_stmt 0
  54 0000 37370040 		li	a4,1073754112
  55 0004 832707C0 		lw	a5,-1024(a4)
  56 0008 93E70708 		ori	a5,a5,128
  57 000c 2320F7C0 		sw	a5,-1024(a4)
  63:arch/riscv/mach-gd32vf10x/bsp/gd32vf103_wwdgt.c **** }
  58              		.loc 1 63 1
  59 0010 8280     		ret
  60              		.cfi_endproc
  61              	.LFE3:
  63              		.section	.text.wwdgt_counter_update,"ax",@progbits
  64              		.align	1
  65              		.globl	wwdgt_counter_update
  67              	wwdgt_counter_update:
  68              	.LFB4:
  64:arch/riscv/mach-gd32vf10x/bsp/gd32vf103_wwdgt.c **** 
  65:arch/riscv/mach-gd32vf10x/bsp/gd32vf103_wwdgt.c **** /*!
  66:arch/riscv/mach-gd32vf10x/bsp/gd32vf103_wwdgt.c ****     \brief      configure the window watchdog timer counter value
  67:arch/riscv/mach-gd32vf10x/bsp/gd32vf103_wwdgt.c ****     \param[in]  counter_value: 0x00 - 0x7F
  68:arch/riscv/mach-gd32vf10x/bsp/gd32vf103_wwdgt.c ****     \param[out] none
  69:arch/riscv/mach-gd32vf10x/bsp/gd32vf103_wwdgt.c ****     \retval     none
  70:arch/riscv/mach-gd32vf10x/bsp/gd32vf103_wwdgt.c **** */
  71:arch/riscv/mach-gd32vf10x/bsp/gd32vf103_wwdgt.c **** void wwdgt_counter_update(uint16_t counter_value)
  72:arch/riscv/mach-gd32vf10x/bsp/gd32vf103_wwdgt.c **** {
  69              		.loc 1 72 1 is_stmt 1
  70              		.cfi_startproc
  71              	.LVL2:
  73:arch/riscv/mach-gd32vf10x/bsp/gd32vf103_wwdgt.c ****     uint32_t reg = 0U;
  72              		.loc 1 73 5
  74:arch/riscv/mach-gd32vf10x/bsp/gd32vf103_wwdgt.c ****     
  75:arch/riscv/mach-gd32vf10x/bsp/gd32vf103_wwdgt.c ****     reg = (WWDGT_CTL & (~WWDGT_CTL_CNT));
  73              		.loc 1 75 5
  74              		.loc 1 75 12 is_stmt 0
  75 0000 37370040 		li	a4,1073754112
  76 0004 832707C0 		lw	a5,-1024(a4)
  76:arch/riscv/mach-gd32vf10x/bsp/gd32vf103_wwdgt.c ****     reg |= CTL_CNT(counter_value);
  77              		.loc 1 76 12
  78 0008 1375F507 		andi	a0,a0,127
  79              	.LVL3:
  75:arch/riscv/mach-gd32vf10x/bsp/gd32vf103_wwdgt.c ****     reg |= CTL_CNT(counter_value);
  80              		.loc 1 75 9
  81 000c 93F707F8 		andi	a5,a5,-128
  82              	.LVL4:
  83              		.loc 1 76 5 is_stmt 1
  84              		.loc 1 76 9 is_stmt 0
  85 0010 5D8D     		or	a0,a0,a5
  86              	.LVL5:
  77:arch/riscv/mach-gd32vf10x/bsp/gd32vf103_wwdgt.c ****     
  78:arch/riscv/mach-gd32vf10x/bsp/gd32vf103_wwdgt.c ****     WWDGT_CTL = reg;
  87              		.loc 1 78 5 is_stmt 1
  88              		.loc 1 78 15 is_stmt 0
  89 0012 2320A7C0 		sw	a0,-1024(a4)
  79:arch/riscv/mach-gd32vf10x/bsp/gd32vf103_wwdgt.c **** }
  90              		.loc 1 79 1
GAS LISTING C:\Users\test\AppData\Local\Temp\ccCveaze.s 			page 4


  91 0016 8280     		ret
  92              		.cfi_endproc
  93              	.LFE4:
  95              		.section	.text.wwdgt_config,"ax",@progbits
  96              		.align	1
  97              		.globl	wwdgt_config
  99              	wwdgt_config:
 100              	.LFB5:
  80:arch/riscv/mach-gd32vf10x/bsp/gd32vf103_wwdgt.c **** 
  81:arch/riscv/mach-gd32vf10x/bsp/gd32vf103_wwdgt.c **** /*!
  82:arch/riscv/mach-gd32vf10x/bsp/gd32vf103_wwdgt.c ****     \brief      configure counter value, window value, and prescaler divider value  
  83:arch/riscv/mach-gd32vf10x/bsp/gd32vf103_wwdgt.c ****     \param[in]  counter: 0x00 - 0x7F   
  84:arch/riscv/mach-gd32vf10x/bsp/gd32vf103_wwdgt.c ****     \param[in]  window: 0x00 - 0x7F
  85:arch/riscv/mach-gd32vf10x/bsp/gd32vf103_wwdgt.c ****     \param[in]  prescaler: wwdgt prescaler value
  86:arch/riscv/mach-gd32vf10x/bsp/gd32vf103_wwdgt.c ****                 only one parameter can be selected which is shown as below:
  87:arch/riscv/mach-gd32vf10x/bsp/gd32vf103_wwdgt.c ****       \arg        WWDGT_CFG_PSC_DIV1: the time base of window watchdog counter = (PCLK1/4096)/1
  88:arch/riscv/mach-gd32vf10x/bsp/gd32vf103_wwdgt.c ****       \arg        WWDGT_CFG_PSC_DIV2: the time base of window watchdog counter = (PCLK1/4096)/2
  89:arch/riscv/mach-gd32vf10x/bsp/gd32vf103_wwdgt.c ****       \arg        WWDGT_CFG_PSC_DIV4: the time base of window watchdog counter = (PCLK1/4096)/4
  90:arch/riscv/mach-gd32vf10x/bsp/gd32vf103_wwdgt.c ****       \arg        WWDGT_CFG_PSC_DIV8: the time base of window watchdog counter = (PCLK1/4096)/8
  91:arch/riscv/mach-gd32vf10x/bsp/gd32vf103_wwdgt.c ****     \param[out] none
  92:arch/riscv/mach-gd32vf10x/bsp/gd32vf103_wwdgt.c ****     \retval     none
  93:arch/riscv/mach-gd32vf10x/bsp/gd32vf103_wwdgt.c **** */
  94:arch/riscv/mach-gd32vf10x/bsp/gd32vf103_wwdgt.c **** void wwdgt_config(uint16_t counter, uint16_t window, uint32_t prescaler)
  95:arch/riscv/mach-gd32vf10x/bsp/gd32vf103_wwdgt.c **** {
 101              		.loc 1 95 1 is_stmt 1
 102              		.cfi_startproc
 103              	.LVL6:
  96:arch/riscv/mach-gd32vf10x/bsp/gd32vf103_wwdgt.c ****     uint32_t reg_cfg = 0U, reg_ctl = 0U;
 104              		.loc 1 96 5
  97:arch/riscv/mach-gd32vf10x/bsp/gd32vf103_wwdgt.c **** 
  98:arch/riscv/mach-gd32vf10x/bsp/gd32vf103_wwdgt.c ****     /* clear WIN and PSC bits, clear CNT bit */
  99:arch/riscv/mach-gd32vf10x/bsp/gd32vf103_wwdgt.c ****     reg_cfg = (WWDGT_CFG &(~(WWDGT_CFG_WIN|WWDGT_CFG_PSC)));
 105              		.loc 1 99 5
 106              		.loc 1 99 16 is_stmt 0
 107 0000 37370040 		li	a4,1073754112
 108 0004 832747C0 		lw	a5,-1020(a4)
 109              	.LVL7:
 100:arch/riscv/mach-gd32vf10x/bsp/gd32vf103_wwdgt.c ****     reg_ctl = (WWDGT_CTL &(~WWDGT_CTL_CNT));
 110              		.loc 1 100 5 is_stmt 1
 111              		.loc 1 100 16 is_stmt 0
 112 0008 832607C0 		lw	a3,-1024(a4)
 101:arch/riscv/mach-gd32vf10x/bsp/gd32vf103_wwdgt.c ****   
 102:arch/riscv/mach-gd32vf10x/bsp/gd32vf103_wwdgt.c ****     /* configure WIN and PSC bits, configure CNT bit */
 103:arch/riscv/mach-gd32vf10x/bsp/gd32vf103_wwdgt.c ****     reg_cfg |= CFG_WIN(window);
 104:arch/riscv/mach-gd32vf10x/bsp/gd32vf103_wwdgt.c ****     reg_cfg |= prescaler;
 105:arch/riscv/mach-gd32vf10x/bsp/gd32vf103_wwdgt.c ****     reg_ctl |= CTL_CNT(counter);
 113              		.loc 1 105 16
 114 000c 1375F507 		andi	a0,a0,127
 115              	.LVL8:
  99:arch/riscv/mach-gd32vf10x/bsp/gd32vf103_wwdgt.c ****     reg_ctl = (WWDGT_CTL &(~WWDGT_CTL_CNT));
 116              		.loc 1 99 13
 117 0010 93F707E0 		andi	a5,a5,-512
 118              	.LVL9:
 100:arch/riscv/mach-gd32vf10x/bsp/gd32vf103_wwdgt.c ****     reg_ctl = (WWDGT_CTL &(~WWDGT_CTL_CNT));
 119              		.loc 1 100 13
 120 0014 93F606F8 		andi	a3,a3,-128
 121              	.LVL10:
GAS LISTING C:\Users\test\AppData\Local\Temp\ccCveaze.s 			page 5


 103:arch/riscv/mach-gd32vf10x/bsp/gd32vf103_wwdgt.c ****     reg_cfg |= prescaler;
 122              		.loc 1 103 5 is_stmt 1
 123 0018 D18F     		or	a5,a5,a2
 124              	.LVL11:
 104:arch/riscv/mach-gd32vf10x/bsp/gd32vf103_wwdgt.c ****     reg_ctl |= CTL_CNT(counter);
 125              		.loc 1 104 5
 103:arch/riscv/mach-gd32vf10x/bsp/gd32vf103_wwdgt.c ****     reg_cfg |= prescaler;
 126              		.loc 1 103 16 is_stmt 0
 127 001a 93F5F507 		andi	a1,a1,127
 128              	.LVL12:
 129              		.loc 1 105 13
 130 001e 558D     		or	a0,a0,a3
 104:arch/riscv/mach-gd32vf10x/bsp/gd32vf103_wwdgt.c ****     reg_ctl |= CTL_CNT(counter);
 131              		.loc 1 104 13
 132 0020 CD8F     		or	a5,a1,a5
 133              	.LVL13:
 134              		.loc 1 105 5 is_stmt 1
 106:arch/riscv/mach-gd32vf10x/bsp/gd32vf103_wwdgt.c ****     
 107:arch/riscv/mach-gd32vf10x/bsp/gd32vf103_wwdgt.c ****     WWDGT_CTL = reg_ctl;
 135              		.loc 1 107 5
 136              		.loc 1 107 15 is_stmt 0
 137 0022 2320A7C0 		sw	a0,-1024(a4)
 108:arch/riscv/mach-gd32vf10x/bsp/gd32vf103_wwdgt.c ****     WWDGT_CFG = reg_cfg;
 138              		.loc 1 108 5 is_stmt 1
 139              		.loc 1 108 15 is_stmt 0
 140 0026 2322F7C0 		sw	a5,-1020(a4)
 109:arch/riscv/mach-gd32vf10x/bsp/gd32vf103_wwdgt.c **** }
 141              		.loc 1 109 1
 142 002a 8280     		ret
 143              		.cfi_endproc
 144              	.LFE5:
 146              		.section	.text.wwdgt_interrupt_enable,"ax",@progbits
 147              		.align	1
 148              		.globl	wwdgt_interrupt_enable
 150              	wwdgt_interrupt_enable:
 151              	.LFB6:
 110:arch/riscv/mach-gd32vf10x/bsp/gd32vf103_wwdgt.c **** 
 111:arch/riscv/mach-gd32vf10x/bsp/gd32vf103_wwdgt.c **** /*!
 112:arch/riscv/mach-gd32vf10x/bsp/gd32vf103_wwdgt.c ****     \brief      enable early wakeup interrupt of WWDGT
 113:arch/riscv/mach-gd32vf10x/bsp/gd32vf103_wwdgt.c ****     \param[in]  none
 114:arch/riscv/mach-gd32vf10x/bsp/gd32vf103_wwdgt.c ****     \param[out] none
 115:arch/riscv/mach-gd32vf10x/bsp/gd32vf103_wwdgt.c ****     \retval     none
 116:arch/riscv/mach-gd32vf10x/bsp/gd32vf103_wwdgt.c **** */
 117:arch/riscv/mach-gd32vf10x/bsp/gd32vf103_wwdgt.c **** void wwdgt_interrupt_enable(void)
 118:arch/riscv/mach-gd32vf10x/bsp/gd32vf103_wwdgt.c **** {
 152              		.loc 1 118 1 is_stmt 1
 153              		.cfi_startproc
 119:arch/riscv/mach-gd32vf10x/bsp/gd32vf103_wwdgt.c ****     WWDGT_CFG |= WWDGT_CFG_EWIE;
 154              		.loc 1 119 5
 155              		.loc 1 119 15 is_stmt 0
 156 0000 37370040 		li	a4,1073754112
 157 0004 832747C0 		lw	a5,-1020(a4)
 158 0008 93E70720 		ori	a5,a5,512
 159 000c 2322F7C0 		sw	a5,-1020(a4)
 120:arch/riscv/mach-gd32vf10x/bsp/gd32vf103_wwdgt.c **** }
 160              		.loc 1 120 1
 161 0010 8280     		ret
GAS LISTING C:\Users\test\AppData\Local\Temp\ccCveaze.s 			page 6


 162              		.cfi_endproc
 163              	.LFE6:
 165              		.section	.text.wwdgt_flag_get,"ax",@progbits
 166              		.align	1
 167              		.globl	wwdgt_flag_get
 169              	wwdgt_flag_get:
 170              	.LFB7:
 121:arch/riscv/mach-gd32vf10x/bsp/gd32vf103_wwdgt.c **** 
 122:arch/riscv/mach-gd32vf10x/bsp/gd32vf103_wwdgt.c **** /*!
 123:arch/riscv/mach-gd32vf10x/bsp/gd32vf103_wwdgt.c ****     \brief      check early wakeup interrupt state of WWDGT
 124:arch/riscv/mach-gd32vf10x/bsp/gd32vf103_wwdgt.c ****     \param[in]  none
 125:arch/riscv/mach-gd32vf10x/bsp/gd32vf103_wwdgt.c ****     \param[out] none
 126:arch/riscv/mach-gd32vf10x/bsp/gd32vf103_wwdgt.c ****     \retval     FlagStatus: SET or RESET
 127:arch/riscv/mach-gd32vf10x/bsp/gd32vf103_wwdgt.c **** */
 128:arch/riscv/mach-gd32vf10x/bsp/gd32vf103_wwdgt.c **** FlagStatus wwdgt_flag_get(void)
 129:arch/riscv/mach-gd32vf10x/bsp/gd32vf103_wwdgt.c **** {
 171              		.loc 1 129 1 is_stmt 1
 172              		.cfi_startproc
 130:arch/riscv/mach-gd32vf10x/bsp/gd32vf103_wwdgt.c ****     if(WWDGT_STAT & WWDGT_STAT_EWIF){
 173              		.loc 1 130 5
 174              		.loc 1 130 8 is_stmt 0
 175 0000 B7370040 		li	a5,1073754112
 176 0004 03A587C0 		lw	a0,-1016(a5)
 131:arch/riscv/mach-gd32vf10x/bsp/gd32vf103_wwdgt.c ****         return SET;
 132:arch/riscv/mach-gd32vf10x/bsp/gd32vf103_wwdgt.c ****     }
 133:arch/riscv/mach-gd32vf10x/bsp/gd32vf103_wwdgt.c **** 
 134:arch/riscv/mach-gd32vf10x/bsp/gd32vf103_wwdgt.c ****     return RESET;
 135:arch/riscv/mach-gd32vf10x/bsp/gd32vf103_wwdgt.c **** }
 177              		.loc 1 135 1
 178 0008 0589     		andi	a0,a0,1
 179 000a 8280     		ret
 180              		.cfi_endproc
 181              	.LFE7:
 183              		.section	.text.wwdgt_flag_clear,"ax",@progbits
 184              		.align	1
 185              		.globl	wwdgt_flag_clear
 187              	wwdgt_flag_clear:
 188              	.LFB8:
 136:arch/riscv/mach-gd32vf10x/bsp/gd32vf103_wwdgt.c **** 
 137:arch/riscv/mach-gd32vf10x/bsp/gd32vf103_wwdgt.c **** /*!
 138:arch/riscv/mach-gd32vf10x/bsp/gd32vf103_wwdgt.c ****     \brief      clear early wakeup interrupt state of WWDGT
 139:arch/riscv/mach-gd32vf10x/bsp/gd32vf103_wwdgt.c ****     \param[in]  none
 140:arch/riscv/mach-gd32vf10x/bsp/gd32vf103_wwdgt.c ****     \param[out] none
 141:arch/riscv/mach-gd32vf10x/bsp/gd32vf103_wwdgt.c ****     \retval     none
 142:arch/riscv/mach-gd32vf10x/bsp/gd32vf103_wwdgt.c **** */
 143:arch/riscv/mach-gd32vf10x/bsp/gd32vf103_wwdgt.c **** void wwdgt_flag_clear(void)
 144:arch/riscv/mach-gd32vf10x/bsp/gd32vf103_wwdgt.c **** {
 189              		.loc 1 144 1 is_stmt 1
 190              		.cfi_startproc
 145:arch/riscv/mach-gd32vf10x/bsp/gd32vf103_wwdgt.c ****     WWDGT_STAT &= (~WWDGT_STAT_EWIF);
 191              		.loc 1 145 5
 192              		.loc 1 145 16 is_stmt 0
 193 0000 37370040 		li	a4,1073754112
 194 0004 832787C0 		lw	a5,-1016(a4)
 195 0008 F99B     		andi	a5,a5,-2
 196 000a 2324F7C0 		sw	a5,-1016(a4)
 146:arch/riscv/mach-gd32vf10x/bsp/gd32vf103_wwdgt.c **** }
GAS LISTING C:\Users\test\AppData\Local\Temp\ccCveaze.s 			page 7


 197              		.loc 1 146 1
 198 000e 8280     		ret
 199              		.cfi_endproc
 200              	.LFE8:
 202              		.text
 203              	.Letext0:
 204              		.file 2 "d:\\risc_v_gcc\\riscv-none-embed\\include\\machine\\_default_types.h"
 205              		.file 3 "d:\\risc_v_gcc\\riscv-none-embed\\include\\sys\\_stdint.h"
 206              		.file 4 "arch/riscv/mach-gd32vf10x/system/gd32vf103.h"
 207              		.file 5 "arch/riscv/mach-gd32vf10x/bsp/gd32vf103_rcu.h"
 208              		.file 6 "arch/riscv/mach-gd32vf10x/system/system_gd32vf103.h"
GAS LISTING C:\Users\test\AppData\Local\Temp\ccCveaze.s 			page 8


DEFINED SYMBOLS
                            *ABS*:0000000000000000 gd32vf103_wwdgt.c
C:\Users\test\AppData\Local\Temp\ccCveaze.s:10     .text.wwdgt_deinit:0000000000000000 wwdgt_deinit
C:\Users\test\AppData\Local\Temp\ccCveaze.s:14     .text.wwdgt_deinit:0000000000000000 .L0 
C:\Users\test\AppData\Local\Temp\ccCveaze.s:15     .text.wwdgt_deinit:0000000000000000 .L0 
C:\Users\test\AppData\Local\Temp\ccCveaze.s:16     .text.wwdgt_deinit:0000000000000000 .L0 
C:\Users\test\AppData\Local\Temp\ccCveaze.s:17     .text.wwdgt_deinit:0000000000000000 .L0 
C:\Users\test\AppData\Local\Temp\ccCveaze.s:19     .text.wwdgt_deinit:0000000000000002 .L0 
C:\Users\test\AppData\Local\Temp\ccCveaze.s:21     .text.wwdgt_deinit:0000000000000002 .L0 
C:\Users\test\AppData\Local\Temp\ccCveaze.s:23     .text.wwdgt_deinit:0000000000000006 .L0 
C:\Users\test\AppData\Local\Temp\ccCveaze.s:24     .text.wwdgt_deinit:0000000000000008 .L0 
C:\Users\test\AppData\Local\Temp\ccCveaze.s:26     .text.wwdgt_deinit:0000000000000008 .L0 
C:\Users\test\AppData\Local\Temp\ccCveaze.s:29     .text.wwdgt_deinit:0000000000000010 .L0 
C:\Users\test\AppData\Local\Temp\ccCveaze.s:30     .text.wwdgt_deinit:0000000000000010 .L0 
C:\Users\test\AppData\Local\Temp\ccCveaze.s:31     .text.wwdgt_deinit:0000000000000012 .L0 
C:\Users\test\AppData\Local\Temp\ccCveaze.s:33     .text.wwdgt_deinit:0000000000000012 .L0 
C:\Users\test\AppData\Local\Temp\ccCveaze.s:35     .text.wwdgt_deinit:0000000000000016 .L0 
C:\Users\test\AppData\Local\Temp\ccCveaze.s:37     .text.wwdgt_deinit:0000000000000018 .L0 
C:\Users\test\AppData\Local\Temp\ccCveaze.s:39     .text.wwdgt_deinit:0000000000000018 .L0 
C:\Users\test\AppData\Local\Temp\ccCveaze.s:41     .text.wwdgt_deinit:0000000000000020 .L0 
C:\Users\test\AppData\Local\Temp\ccCveaze.s:48     .text.wwdgt_enable:0000000000000000 wwdgt_enable
C:\Users\test\AppData\Local\Temp\ccCveaze.s:51     .text.wwdgt_enable:0000000000000000 .L0 
C:\Users\test\AppData\Local\Temp\ccCveaze.s:52     .text.wwdgt_enable:0000000000000000 .L0 
C:\Users\test\AppData\Local\Temp\ccCveaze.s:53     .text.wwdgt_enable:0000000000000000 .L0 
C:\Users\test\AppData\Local\Temp\ccCveaze.s:54     .text.wwdgt_enable:0000000000000000 .L0 
C:\Users\test\AppData\Local\Temp\ccCveaze.s:59     .text.wwdgt_enable:0000000000000010 .L0 
C:\Users\test\AppData\Local\Temp\ccCveaze.s:60     .text.wwdgt_enable:0000000000000012 .L0 
C:\Users\test\AppData\Local\Temp\ccCveaze.s:67     .text.wwdgt_counter_update:0000000000000000 wwdgt_counter_update
C:\Users\test\AppData\Local\Temp\ccCveaze.s:70     .text.wwdgt_counter_update:0000000000000000 .L0 
C:\Users\test\AppData\Local\Temp\ccCveaze.s:72     .text.wwdgt_counter_update:0000000000000000 .L0 
C:\Users\test\AppData\Local\Temp\ccCveaze.s:73     .text.wwdgt_counter_update:0000000000000000 .L0 
C:\Users\test\AppData\Local\Temp\ccCveaze.s:74     .text.wwdgt_counter_update:0000000000000000 .L0 
C:\Users\test\AppData\Local\Temp\ccCveaze.s:75     .text.wwdgt_counter_update:0000000000000000 .L0 
C:\Users\test\AppData\Local\Temp\ccCveaze.s:78     .text.wwdgt_counter_update:0000000000000008 .L0 
C:\Users\test\AppData\Local\Temp\ccCveaze.s:81     .text.wwdgt_counter_update:000000000000000c .L0 
C:\Users\test\AppData\Local\Temp\ccCveaze.s:84     .text.wwdgt_counter_update:0000000000000010 .L0 
C:\Users\test\AppData\Local\Temp\ccCveaze.s:85     .text.wwdgt_counter_update:0000000000000010 .L0 
C:\Users\test\AppData\Local\Temp\ccCveaze.s:88     .text.wwdgt_counter_update:0000000000000012 .L0 
C:\Users\test\AppData\Local\Temp\ccCveaze.s:89     .text.wwdgt_counter_update:0000000000000012 .L0 
C:\Users\test\AppData\Local\Temp\ccCveaze.s:91     .text.wwdgt_counter_update:0000000000000016 .L0 
C:\Users\test\AppData\Local\Temp\ccCveaze.s:92     .text.wwdgt_counter_update:0000000000000018 .L0 
C:\Users\test\AppData\Local\Temp\ccCveaze.s:99     .text.wwdgt_config:0000000000000000 wwdgt_config
C:\Users\test\AppData\Local\Temp\ccCveaze.s:102    .text.wwdgt_config:0000000000000000 .L0 
C:\Users\test\AppData\Local\Temp\ccCveaze.s:104    .text.wwdgt_config:0000000000000000 .L0 
C:\Users\test\AppData\Local\Temp\ccCveaze.s:105    .text.wwdgt_config:0000000000000000 .L0 
C:\Users\test\AppData\Local\Temp\ccCveaze.s:106    .text.wwdgt_config:0000000000000000 .L0 
C:\Users\test\AppData\Local\Temp\ccCveaze.s:107    .text.wwdgt_config:0000000000000000 .L0 
C:\Users\test\AppData\Local\Temp\ccCveaze.s:111    .text.wwdgt_config:0000000000000008 .L0 
C:\Users\test\AppData\Local\Temp\ccCveaze.s:112    .text.wwdgt_config:0000000000000008 .L0 
C:\Users\test\AppData\Local\Temp\ccCveaze.s:114    .text.wwdgt_config:000000000000000c .L0 
C:\Users\test\AppData\Local\Temp\ccCveaze.s:117    .text.wwdgt_config:0000000000000010 .L0 
C:\Users\test\AppData\Local\Temp\ccCveaze.s:120    .text.wwdgt_config:0000000000000014 .L0 
C:\Users\test\AppData\Local\Temp\ccCveaze.s:123    .text.wwdgt_config:0000000000000018 .L0 
C:\Users\test\AppData\Local\Temp\ccCveaze.s:126    .text.wwdgt_config:000000000000001a .L0 
C:\Users\test\AppData\Local\Temp\ccCveaze.s:127    .text.wwdgt_config:000000000000001a .L0 
C:\Users\test\AppData\Local\Temp\ccCveaze.s:130    .text.wwdgt_config:000000000000001e .L0 
C:\Users\test\AppData\Local\Temp\ccCveaze.s:132    .text.wwdgt_config:0000000000000020 .L0 
GAS LISTING C:\Users\test\AppData\Local\Temp\ccCveaze.s 			page 9


C:\Users\test\AppData\Local\Temp\ccCveaze.s:135    .text.wwdgt_config:0000000000000022 .L0 
C:\Users\test\AppData\Local\Temp\ccCveaze.s:136    .text.wwdgt_config:0000000000000022 .L0 
C:\Users\test\AppData\Local\Temp\ccCveaze.s:137    .text.wwdgt_config:0000000000000022 .L0 
C:\Users\test\AppData\Local\Temp\ccCveaze.s:139    .text.wwdgt_config:0000000000000026 .L0 
C:\Users\test\AppData\Local\Temp\ccCveaze.s:140    .text.wwdgt_config:0000000000000026 .L0 
C:\Users\test\AppData\Local\Temp\ccCveaze.s:142    .text.wwdgt_config:000000000000002a .L0 
C:\Users\test\AppData\Local\Temp\ccCveaze.s:143    .text.wwdgt_config:000000000000002c .L0 
C:\Users\test\AppData\Local\Temp\ccCveaze.s:150    .text.wwdgt_interrupt_enable:0000000000000000 wwdgt_interrupt_enable
C:\Users\test\AppData\Local\Temp\ccCveaze.s:153    .text.wwdgt_interrupt_enable:0000000000000000 .L0 
C:\Users\test\AppData\Local\Temp\ccCveaze.s:154    .text.wwdgt_interrupt_enable:0000000000000000 .L0 
C:\Users\test\AppData\Local\Temp\ccCveaze.s:155    .text.wwdgt_interrupt_enable:0000000000000000 .L0 
C:\Users\test\AppData\Local\Temp\ccCveaze.s:156    .text.wwdgt_interrupt_enable:0000000000000000 .L0 
C:\Users\test\AppData\Local\Temp\ccCveaze.s:161    .text.wwdgt_interrupt_enable:0000000000000010 .L0 
C:\Users\test\AppData\Local\Temp\ccCveaze.s:162    .text.wwdgt_interrupt_enable:0000000000000012 .L0 
C:\Users\test\AppData\Local\Temp\ccCveaze.s:169    .text.wwdgt_flag_get:0000000000000000 wwdgt_flag_get
C:\Users\test\AppData\Local\Temp\ccCveaze.s:172    .text.wwdgt_flag_get:0000000000000000 .L0 
C:\Users\test\AppData\Local\Temp\ccCveaze.s:173    .text.wwdgt_flag_get:0000000000000000 .L0 
C:\Users\test\AppData\Local\Temp\ccCveaze.s:174    .text.wwdgt_flag_get:0000000000000000 .L0 
C:\Users\test\AppData\Local\Temp\ccCveaze.s:175    .text.wwdgt_flag_get:0000000000000000 .L0 
C:\Users\test\AppData\Local\Temp\ccCveaze.s:178    .text.wwdgt_flag_get:0000000000000008 .L0 
C:\Users\test\AppData\Local\Temp\ccCveaze.s:180    .text.wwdgt_flag_get:000000000000000c .L0 
C:\Users\test\AppData\Local\Temp\ccCveaze.s:187    .text.wwdgt_flag_clear:0000000000000000 wwdgt_flag_clear
C:\Users\test\AppData\Local\Temp\ccCveaze.s:190    .text.wwdgt_flag_clear:0000000000000000 .L0 
C:\Users\test\AppData\Local\Temp\ccCveaze.s:191    .text.wwdgt_flag_clear:0000000000000000 .L0 
C:\Users\test\AppData\Local\Temp\ccCveaze.s:192    .text.wwdgt_flag_clear:0000000000000000 .L0 
C:\Users\test\AppData\Local\Temp\ccCveaze.s:193    .text.wwdgt_flag_clear:0000000000000000 .L0 
C:\Users\test\AppData\Local\Temp\ccCveaze.s:198    .text.wwdgt_flag_clear:000000000000000e .L0 
C:\Users\test\AppData\Local\Temp\ccCveaze.s:199    .text.wwdgt_flag_clear:0000000000000010 .L0 
C:\Users\test\AppData\Local\Temp\ccCveaze.s:44     .text.wwdgt_deinit:0000000000000020 .L0 
C:\Users\test\AppData\Local\Temp\ccCveaze.s:63     .text.wwdgt_enable:0000000000000012 .L0 
C:\Users\test\AppData\Local\Temp\ccCveaze.s:95     .text.wwdgt_counter_update:0000000000000018 .L0 
C:\Users\test\AppData\Local\Temp\ccCveaze.s:146    .text.wwdgt_config:000000000000002c .L0 
C:\Users\test\AppData\Local\Temp\ccCveaze.s:165    .text.wwdgt_interrupt_enable:0000000000000012 .L0 
C:\Users\test\AppData\Local\Temp\ccCveaze.s:183    .text.wwdgt_flag_get:000000000000000c .L0 
C:\Users\test\AppData\Local\Temp\ccCveaze.s:202    .text.wwdgt_flag_clear:0000000000000010 .L0 
                     .debug_frame:0000000000000000 .L0 
C:\Users\test\AppData\Local\Temp\ccCveaze.s:611    .debug_abbrev:0000000000000000 .Ldebug_abbrev0
C:\Users\test\AppData\Local\Temp\ccCveaze.s:1210   .debug_str:00000000000001c2 .LASF61
C:\Users\test\AppData\Local\Temp\ccCveaze.s:1202   .debug_str:0000000000000172 .LASF62
C:\Users\test\AppData\Local\Temp\ccCveaze.s:1186   .debug_str:00000000000000ee .LASF63
C:\Users\test\AppData\Local\Temp\ccCveaze.s:1132   .debug_ranges:0000000000000000 .Ldebug_ranges0
C:\Users\test\AppData\Local\Temp\ccCveaze.s:1150   .debug_line:0000000000000000 .Ldebug_line0
C:\Users\test\AppData\Local\Temp\ccCveaze.s:1222   .debug_str:0000000000000280 .LASF0
C:\Users\test\AppData\Local\Temp\ccCveaze.s:1212   .debug_str:000000000000023c .LASF1
C:\Users\test\AppData\Local\Temp\ccCveaze.s:1204   .debug_str:00000000000001a2 .LASF2
C:\Users\test\AppData\Local\Temp\ccCveaze.s:1182   .debug_str:00000000000000cf .LASF3
C:\Users\test\AppData\Local\Temp\ccCveaze.s:1178   .debug_str:00000000000000ad .LASF6
C:\Users\test\AppData\Local\Temp\ccCveaze.s:1232   .debug_str:00000000000002b9 .LASF4
C:\Users\test\AppData\Local\Temp\ccCveaze.s:1194   .debug_str:0000000000000141 .LASF5
C:\Users\test\AppData\Local\Temp\ccCveaze.s:1174   .debug_str:0000000000000094 .LASF7
C:\Users\test\AppData\Local\Temp\ccCveaze.s:1246   .debug_str:0000000000000326 .LASF8
C:\Users\test\AppData\Local\Temp\ccCveaze.s:1192   .debug_str:0000000000000133 .LASF9
C:\Users\test\AppData\Local\Temp\ccCveaze.s:1216   .debug_str:0000000000000253 .LASF10
C:\Users\test\AppData\Local\Temp\ccCveaze.s:1224   .debug_str:000000000000028d .LASF11
C:\Users\test\AppData\Local\Temp\ccCveaze.s:1220   .debug_str:0000000000000277 .LASF12
C:\Users\test\AppData\Local\Temp\ccCveaze.s:1240   .debug_str:00000000000002f9 .LASF64
C:\Users\test\AppData\Local\Temp\ccCveaze.s:1256   .debug_str:0000000000000369 .LASF13
GAS LISTING C:\Users\test\AppData\Local\Temp\ccCveaze.s 			page 10


C:\Users\test\AppData\Local\Temp\ccCveaze.s:1276   .debug_str:00000000000003e5 .LASF14
C:\Users\test\AppData\Local\Temp\ccCveaze.s:1156   .debug_str:000000000000001b .LASF15
C:\Users\test\AppData\Local\Temp\ccCveaze.s:1236   .debug_str:00000000000002dd .LASF16
C:\Users\test\AppData\Local\Temp\ccCveaze.s:1268   .debug_str:00000000000003a3 .LASF17
C:\Users\test\AppData\Local\Temp\ccCveaze.s:1176   .debug_str:000000000000009f .LASF18
C:\Users\test\AppData\Local\Temp\ccCveaze.s:1198   .debug_str:0000000000000156 .LASF19
C:\Users\test\AppData\Local\Temp\ccCveaze.s:1238   .debug_str:00000000000002eb .LASF20
C:\Users\test\AppData\Local\Temp\ccCveaze.s:1272   .debug_str:00000000000003c9 .LASF21
C:\Users\test\AppData\Local\Temp\ccCveaze.s:1282   .debug_str:000000000000040a .LASF22
C:\Users\test\AppData\Local\Temp\ccCveaze.s:1170   .debug_str:000000000000006f .LASF23
C:\Users\test\AppData\Local\Temp\ccCveaze.s:1196   .debug_str:000000000000014a .LASF24
C:\Users\test\AppData\Local\Temp\ccCveaze.s:1244   .debug_str:0000000000000318 .LASF25
C:\Users\test\AppData\Local\Temp\ccCveaze.s:1280   .debug_str:00000000000003fc .LASF26
C:\Users\test\AppData\Local\Temp\ccCveaze.s:1248   .debug_str:0000000000000338 .LASF27
C:\Users\test\AppData\Local\Temp\ccCveaze.s:1158   .debug_str:0000000000000028 .LASF28
C:\Users\test\AppData\Local\Temp\ccCveaze.s:1278   .debug_str:00000000000003f0 .LASF29
C:\Users\test\AppData\Local\Temp\ccCveaze.s:1252   .debug_str:0000000000000352 .LASF30
C:\Users\test\AppData\Local\Temp\ccCveaze.s:1164   .debug_str:000000000000004f .LASF31
C:\Users\test\AppData\Local\Temp\ccCveaze.s:1190   .debug_str:0000000000000127 .LASF32
C:\Users\test\AppData\Local\Temp\ccCveaze.s:1168   .debug_str:0000000000000063 .LASF33
C:\Users\test\AppData\Local\Temp\ccCveaze.s:1254   .debug_str:000000000000035e .LASF34
C:\Users\test\AppData\Local\Temp\ccCveaze.s:1214   .debug_str:0000000000000248 .LASF35
C:\Users\test\AppData\Local\Temp\ccCveaze.s:1206   .debug_str:00000000000001b0 .LASF36
C:\Users\test\AppData\Local\Temp\ccCveaze.s:1218   .debug_str:000000000000026a .LASF37
C:\Users\test\AppData\Local\Temp\ccCveaze.s:1250   .debug_str:0000000000000345 .LASF38
C:\Users\test\AppData\Local\Temp\ccCveaze.s:1162   .debug_str:0000000000000042 .LASF39
C:\Users\test\AppData\Local\Temp\ccCveaze.s:1188   .debug_str:000000000000011a .LASF40
C:\Users\test\AppData\Local\Temp\ccCveaze.s:1226   .debug_str:0000000000000296 .LASF41
C:\Users\test\AppData\Local\Temp\ccCveaze.s:1228   .debug_str:00000000000002a3 .LASF42
C:\Users\test\AppData\Local\Temp\ccCveaze.s:1260   .debug_str:000000000000037c .LASF43
C:\Users\test\AppData\Local\Temp\ccCveaze.s:1152   .debug_str:0000000000000000 .LASF44
C:\Users\test\AppData\Local\Temp\ccCveaze.s:1266   .debug_str:0000000000000397 .LASF45
C:\Users\test\AppData\Local\Temp\ccCveaze.s:1200   .debug_str:0000000000000164 .LASF46
C:\Users\test\AppData\Local\Temp\ccCveaze.s:1234   .debug_str:00000000000002cc .LASF47
C:\Users\test\AppData\Local\Temp\ccCveaze.s:188    .text.wwdgt_flag_clear:0000000000000000 .LFB8
C:\Users\test\AppData\Local\Temp\ccCveaze.s:200    .text.wwdgt_flag_clear:0000000000000010 .LFE8
C:\Users\test\AppData\Local\Temp\ccCveaze.s:1242   .debug_str:0000000000000309 .LASF65
C:\Users\test\AppData\Local\Temp\ccCveaze.s:170    .text.wwdgt_flag_get:0000000000000000 .LFB7
C:\Users\test\AppData\Local\Temp\ccCveaze.s:181    .text.wwdgt_flag_get:000000000000000c .LFE7
C:\Users\test\AppData\Local\Temp\ccCveaze.s:1180   .debug_str:00000000000000b8 .LASF48
C:\Users\test\AppData\Local\Temp\ccCveaze.s:151    .text.wwdgt_interrupt_enable:0000000000000000 .LFB6
C:\Users\test\AppData\Local\Temp\ccCveaze.s:163    .text.wwdgt_interrupt_enable:0000000000000012 .LFE6
C:\Users\test\AppData\Local\Temp\ccCveaze.s:1154   .debug_str:000000000000000e .LASF54
C:\Users\test\AppData\Local\Temp\ccCveaze.s:100    .text.wwdgt_config:0000000000000000 .LFB5
C:\Users\test\AppData\Local\Temp\ccCveaze.s:144    .text.wwdgt_config:000000000000002c .LFE5
C:\Users\test\AppData\Local\Temp\ccCveaze.s:1208   .debug_str:00000000000001ba .LASF49
C:\Users\test\AppData\Local\Temp\ccCveaze.s:990    .debug_loc:0000000000000000 .LLST3
C:\Users\test\AppData\Local\Temp\ccCveaze.s:1264   .debug_str:0000000000000390 .LASF50
C:\Users\test\AppData\Local\Temp\ccCveaze.s:1004   .debug_loc:0000000000000021 .LLST4
C:\Users\test\AppData\Local\Temp\ccCveaze.s:1230   .debug_str:00000000000002af .LASF51
C:\Users\test\AppData\Local\Temp\ccCveaze.s:1166   .debug_str:000000000000005b .LASF52
C:\Users\test\AppData\Local\Temp\ccCveaze.s:1018   .debug_loc:0000000000000042 .LLST5
C:\Users\test\AppData\Local\Temp\ccCveaze.s:1262   .debug_str:0000000000000388 .LASF53
C:\Users\test\AppData\Local\Temp\ccCveaze.s:1043   .debug_loc:000000000000007d .LLST6
C:\Users\test\AppData\Local\Temp\ccCveaze.s:1184   .debug_str:00000000000000d9 .LASF55
C:\Users\test\AppData\Local\Temp\ccCveaze.s:68     .text.wwdgt_counter_update:0000000000000000 .LFB4
C:\Users\test\AppData\Local\Temp\ccCveaze.s:93     .text.wwdgt_counter_update:0000000000000018 .LFE4
GAS LISTING C:\Users\test\AppData\Local\Temp\ccCveaze.s 			page 11


C:\Users\test\AppData\Local\Temp\ccCveaze.s:1274   .debug_str:00000000000003d7 .LASF56
C:\Users\test\AppData\Local\Temp\ccCveaze.s:1059   .debug_loc:00000000000000a7 .LLST1
C:\Users\test\AppData\Local\Temp\ccCveaze.s:1073   .debug_loc:00000000000000c8 .LLST2
C:\Users\test\AppData\Local\Temp\ccCveaze.s:1160   .debug_str:0000000000000035 .LASF57
C:\Users\test\AppData\Local\Temp\ccCveaze.s:49     .text.wwdgt_enable:0000000000000000 .LFB3
C:\Users\test\AppData\Local\Temp\ccCveaze.s:61     .text.wwdgt_enable:0000000000000012 .LFE3
C:\Users\test\AppData\Local\Temp\ccCveaze.s:1258   .debug_str:000000000000036f .LASF58
C:\Users\test\AppData\Local\Temp\ccCveaze.s:11     .text.wwdgt_deinit:0000000000000000 .LFB2
C:\Users\test\AppData\Local\Temp\ccCveaze.s:42     .text.wwdgt_deinit:0000000000000020 .LFE2
C:\Users\test\AppData\Local\Temp\ccCveaze.s:1089   .debug_loc:00000000000000f2 .LLST0
C:\Users\test\AppData\Local\Temp\ccCveaze.s:27     .text.wwdgt_deinit:0000000000000010 .LVL0
C:\Users\test\AppData\Local\Temp\ccCveaze.s:40     .text.wwdgt_deinit:0000000000000020 .LVL1
C:\Users\test\AppData\Local\Temp\ccCveaze.s:1270   .debug_str:00000000000003b1 .LASF59
C:\Users\test\AppData\Local\Temp\ccCveaze.s:1172   .debug_str:000000000000007b .LASF60
C:\Users\test\AppData\Local\Temp\ccCveaze.s:103    .text.wwdgt_config:0000000000000000 .LVL6
C:\Users\test\AppData\Local\Temp\ccCveaze.s:115    .text.wwdgt_config:0000000000000010 .LVL8
C:\Users\test\AppData\Local\Temp\ccCveaze.s:128    .text.wwdgt_config:000000000000001e .LVL12
C:\Users\test\AppData\Local\Temp\ccCveaze.s:109    .text.wwdgt_config:0000000000000008 .LVL7
C:\Users\test\AppData\Local\Temp\ccCveaze.s:118    .text.wwdgt_config:0000000000000014 .LVL9
C:\Users\test\AppData\Local\Temp\ccCveaze.s:124    .text.wwdgt_config:000000000000001a .LVL11
C:\Users\test\AppData\Local\Temp\ccCveaze.s:133    .text.wwdgt_config:0000000000000022 .LVL13
C:\Users\test\AppData\Local\Temp\ccCveaze.s:121    .text.wwdgt_config:0000000000000018 .LVL10
C:\Users\test\AppData\Local\Temp\ccCveaze.s:71     .text.wwdgt_counter_update:0000000000000000 .LVL2
C:\Users\test\AppData\Local\Temp\ccCveaze.s:79     .text.wwdgt_counter_update:000000000000000c .LVL3
C:\Users\test\AppData\Local\Temp\ccCveaze.s:82     .text.wwdgt_counter_update:0000000000000010 .LVL4
C:\Users\test\AppData\Local\Temp\ccCveaze.s:86     .text.wwdgt_counter_update:0000000000000012 .LVL5
C:\Users\test\AppData\Local\Temp\ccCveaze.s:18     .text.wwdgt_deinit:0000000000000002 .LCFI0
C:\Users\test\AppData\Local\Temp\ccCveaze.s:36     .text.wwdgt_deinit:0000000000000018 .LCFI1
C:\Users\test\AppData\Local\Temp\ccCveaze.s:210    .debug_info:0000000000000000 .Ldebug_info0

UNDEFINED SYMBOLS
rcu_periph_reset_enable
rcu_periph_reset_disable
