GAS LISTING C:\Users\test\AppData\Local\Temp\ccx4kfGR.s 			page 1


   1              		.file	"gd32vf103_pmu.c"
   2              		.option nopic
   3              		.text
   4              	.Ltext0:
   5              		.cfi_sections	.debug_frame
   6              		.section	.text.pmu_deinit,"ax",@progbits
   7              		.align	1
   8              		.globl	pmu_deinit
  10              	pmu_deinit:
  11              	.LFB2:
  12              		.file 1 "arch/riscv/mach-gd32vf10x/bsp/gd32vf103_pmu.c"
   1:arch/riscv/mach-gd32vf10x/bsp/gd32vf103_pmu.c **** /*!
   2:arch/riscv/mach-gd32vf10x/bsp/gd32vf103_pmu.c ****     \file    gd32vf103_pmu.c
   3:arch/riscv/mach-gd32vf10x/bsp/gd32vf103_pmu.c ****     \brief   PMU driver
   4:arch/riscv/mach-gd32vf10x/bsp/gd32vf103_pmu.c **** 
   5:arch/riscv/mach-gd32vf10x/bsp/gd32vf103_pmu.c ****     \version 2019-6-5, V1.0.0, firmware for GD32VF103
   6:arch/riscv/mach-gd32vf10x/bsp/gd32vf103_pmu.c **** */
   7:arch/riscv/mach-gd32vf10x/bsp/gd32vf103_pmu.c **** 
   8:arch/riscv/mach-gd32vf10x/bsp/gd32vf103_pmu.c **** /*
   9:arch/riscv/mach-gd32vf10x/bsp/gd32vf103_pmu.c ****     Copyright (c) 2019, GigaDevice Semiconductor Inc.
  10:arch/riscv/mach-gd32vf10x/bsp/gd32vf103_pmu.c **** 
  11:arch/riscv/mach-gd32vf10x/bsp/gd32vf103_pmu.c ****     Redistribution and use in source and binary forms, with or without modification,
  12:arch/riscv/mach-gd32vf10x/bsp/gd32vf103_pmu.c **** are permitted provided that the following conditions are met:
  13:arch/riscv/mach-gd32vf10x/bsp/gd32vf103_pmu.c **** 
  14:arch/riscv/mach-gd32vf10x/bsp/gd32vf103_pmu.c ****     1. Redistributions of source code must retain the above copyright notice, this
  15:arch/riscv/mach-gd32vf10x/bsp/gd32vf103_pmu.c ****        list of conditions and the following disclaimer.
  16:arch/riscv/mach-gd32vf10x/bsp/gd32vf103_pmu.c ****     2. Redistributions in binary form must reproduce the above copyright notice,
  17:arch/riscv/mach-gd32vf10x/bsp/gd32vf103_pmu.c ****        this list of conditions and the following disclaimer in the documentation
  18:arch/riscv/mach-gd32vf10x/bsp/gd32vf103_pmu.c ****        and/or other materials provided with the distribution.
  19:arch/riscv/mach-gd32vf10x/bsp/gd32vf103_pmu.c ****     3. Neither the name of the copyright holder nor the names of its contributors
  20:arch/riscv/mach-gd32vf10x/bsp/gd32vf103_pmu.c ****        may be used to endorse or promote products derived from this software without
  21:arch/riscv/mach-gd32vf10x/bsp/gd32vf103_pmu.c ****        specific prior written permission.
  22:arch/riscv/mach-gd32vf10x/bsp/gd32vf103_pmu.c **** 
  23:arch/riscv/mach-gd32vf10x/bsp/gd32vf103_pmu.c ****     THIS SOFTWARE IS PROVIDED BY THE COPYRIGHT HOLDERS AND CONTRIBUTORS "AS IS"
  24:arch/riscv/mach-gd32vf10x/bsp/gd32vf103_pmu.c **** AND ANY EXPRESS OR IMPLIED WARRANTIES, INCLUDING, BUT NOT LIMITED TO, THE IMPLIED
  25:arch/riscv/mach-gd32vf10x/bsp/gd32vf103_pmu.c **** WARRANTIES OF MERCHANTABILITY AND FITNESS FOR A PARTICULAR PURPOSE ARE DISCLAIMED.
  26:arch/riscv/mach-gd32vf10x/bsp/gd32vf103_pmu.c **** IN NO EVENT SHALL THE COPYRIGHT HOLDER OR CONTRIBUTORS BE LIABLE FOR ANY DIRECT,
  27:arch/riscv/mach-gd32vf10x/bsp/gd32vf103_pmu.c **** INDIRECT, INCIDENTAL, SPECIAL, EXEMPLARY, OR CONSEQUENTIAL DAMAGES (INCLUDING, BUT
  28:arch/riscv/mach-gd32vf10x/bsp/gd32vf103_pmu.c **** NOT LIMITED TO, PROCUREMENT OF SUBSTITUTE GOODS OR SERVICES; LOSS OF USE, DATA, OR
  29:arch/riscv/mach-gd32vf10x/bsp/gd32vf103_pmu.c **** PROFITS; OR BUSINESS INTERRUPTION) HOWEVER CAUSED AND ON ANY THEORY OF LIABILITY,
  30:arch/riscv/mach-gd32vf10x/bsp/gd32vf103_pmu.c **** WHETHER IN CONTRACT, STRICT LIABILITY, OR TORT (INCLUDING NEGLIGENCE OR OTHERWISE)
  31:arch/riscv/mach-gd32vf10x/bsp/gd32vf103_pmu.c **** ARISING IN ANY WAY OUT OF THE USE OF THIS SOFTWARE, EVEN IF ADVISED OF THE POSSIBILITY
  32:arch/riscv/mach-gd32vf10x/bsp/gd32vf103_pmu.c **** OF SUCH DAMAGE.
  33:arch/riscv/mach-gd32vf10x/bsp/gd32vf103_pmu.c **** */
  34:arch/riscv/mach-gd32vf10x/bsp/gd32vf103_pmu.c **** 
  35:arch/riscv/mach-gd32vf10x/bsp/gd32vf103_pmu.c **** #include "gd32vf103_pmu.h"
  36:arch/riscv/mach-gd32vf10x/bsp/gd32vf103_pmu.c **** #include "riscv_encoding.h"
  37:arch/riscv/mach-gd32vf10x/bsp/gd32vf103_pmu.c **** 
  38:arch/riscv/mach-gd32vf10x/bsp/gd32vf103_pmu.c **** /*!
  39:arch/riscv/mach-gd32vf10x/bsp/gd32vf103_pmu.c ****     \brief      reset PMU register
  40:arch/riscv/mach-gd32vf10x/bsp/gd32vf103_pmu.c ****     \param[in]  none
  41:arch/riscv/mach-gd32vf10x/bsp/gd32vf103_pmu.c ****     \param[out] none
  42:arch/riscv/mach-gd32vf10x/bsp/gd32vf103_pmu.c ****     \retval     none
  43:arch/riscv/mach-gd32vf10x/bsp/gd32vf103_pmu.c **** */
  44:arch/riscv/mach-gd32vf10x/bsp/gd32vf103_pmu.c **** void pmu_deinit(void)
  45:arch/riscv/mach-gd32vf10x/bsp/gd32vf103_pmu.c **** {
  13              		.loc 1 45 1
GAS LISTING C:\Users\test\AppData\Local\Temp\ccx4kfGR.s 			page 2


  14              		.cfi_startproc
  46:arch/riscv/mach-gd32vf10x/bsp/gd32vf103_pmu.c ****     /* reset PMU */
  47:arch/riscv/mach-gd32vf10x/bsp/gd32vf103_pmu.c ****     rcu_periph_reset_enable(RCU_PMURST);
  15              		.loc 1 47 5
  45:arch/riscv/mach-gd32vf10x/bsp/gd32vf103_pmu.c ****     /* reset PMU */
  16              		.loc 1 45 1 is_stmt 0
  17 0000 4111     		addi	sp,sp,-16
  18              	.LCFI0:
  19              		.cfi_def_cfa_offset 16
  20              		.loc 1 47 5
  21 0002 1305C041 		li	a0,1052
  45:arch/riscv/mach-gd32vf10x/bsp/gd32vf103_pmu.c ****     /* reset PMU */
  22              		.loc 1 45 1
  23 0006 06C6     		sw	ra,12(sp)
  24              		.cfi_offset 1, -4
  25              		.loc 1 47 5
  26 0008 97000000 		call	rcu_periph_reset_enable
  26      E7800000 
  27              	.LVL0:
  48:arch/riscv/mach-gd32vf10x/bsp/gd32vf103_pmu.c ****     rcu_periph_reset_disable(RCU_PMURST);
  28              		.loc 1 48 5 is_stmt 1
  49:arch/riscv/mach-gd32vf10x/bsp/gd32vf103_pmu.c **** }
  29              		.loc 1 49 1 is_stmt 0
  30 0010 B240     		lw	ra,12(sp)
  31              		.cfi_restore 1
  48:arch/riscv/mach-gd32vf10x/bsp/gd32vf103_pmu.c ****     rcu_periph_reset_disable(RCU_PMURST);
  32              		.loc 1 48 5
  33 0012 1305C041 		li	a0,1052
  34              		.loc 1 49 1
  35 0016 4101     		addi	sp,sp,16
  36              	.LCFI1:
  37              		.cfi_def_cfa_offset 0
  48:arch/riscv/mach-gd32vf10x/bsp/gd32vf103_pmu.c ****     rcu_periph_reset_disable(RCU_PMURST);
  38              		.loc 1 48 5
  39 0018 17030000 		tail	rcu_periph_reset_disable
  39      67000300 
  40              	.LVL1:
  41              		.cfi_endproc
  42              	.LFE2:
  44              		.section	.text.pmu_lvd_select,"ax",@progbits
  45              		.align	1
  46              		.globl	pmu_lvd_select
  48              	pmu_lvd_select:
  49              	.LFB3:
  50:arch/riscv/mach-gd32vf10x/bsp/gd32vf103_pmu.c **** 
  51:arch/riscv/mach-gd32vf10x/bsp/gd32vf103_pmu.c **** /*!
  52:arch/riscv/mach-gd32vf10x/bsp/gd32vf103_pmu.c ****     \brief      select low voltage detector threshold
  53:arch/riscv/mach-gd32vf10x/bsp/gd32vf103_pmu.c ****     \param[in]  lvdt_n:
  54:arch/riscv/mach-gd32vf10x/bsp/gd32vf103_pmu.c ****                 only one parameter can be selected which is shown as below:
  55:arch/riscv/mach-gd32vf10x/bsp/gd32vf103_pmu.c ****       \arg        PMU_LVDT_0: voltage threshold is 2.2V
  56:arch/riscv/mach-gd32vf10x/bsp/gd32vf103_pmu.c ****       \arg        PMU_LVDT_1: voltage threshold is 2.3V
  57:arch/riscv/mach-gd32vf10x/bsp/gd32vf103_pmu.c ****       \arg        PMU_LVDT_2: voltage threshold is 2.4V
  58:arch/riscv/mach-gd32vf10x/bsp/gd32vf103_pmu.c ****       \arg        PMU_LVDT_3: voltage threshold is 2.5V
  59:arch/riscv/mach-gd32vf10x/bsp/gd32vf103_pmu.c ****       \arg        PMU_LVDT_4: voltage threshold is 2.6V
  60:arch/riscv/mach-gd32vf10x/bsp/gd32vf103_pmu.c ****       \arg        PMU_LVDT_5: voltage threshold is 2.7V
  61:arch/riscv/mach-gd32vf10x/bsp/gd32vf103_pmu.c ****       \arg        PMU_LVDT_6: voltage threshold is 2.8V
  62:arch/riscv/mach-gd32vf10x/bsp/gd32vf103_pmu.c ****       \arg        PMU_LVDT_7: voltage threshold is 2.9V
GAS LISTING C:\Users\test\AppData\Local\Temp\ccx4kfGR.s 			page 3


  63:arch/riscv/mach-gd32vf10x/bsp/gd32vf103_pmu.c ****     \param[out] none
  64:arch/riscv/mach-gd32vf10x/bsp/gd32vf103_pmu.c ****     \retval     none
  65:arch/riscv/mach-gd32vf10x/bsp/gd32vf103_pmu.c **** */
  66:arch/riscv/mach-gd32vf10x/bsp/gd32vf103_pmu.c **** void pmu_lvd_select(uint32_t lvdt_n)
  67:arch/riscv/mach-gd32vf10x/bsp/gd32vf103_pmu.c **** {
  50              		.loc 1 67 1 is_stmt 1
  51              		.cfi_startproc
  52              	.LVL2:
  68:arch/riscv/mach-gd32vf10x/bsp/gd32vf103_pmu.c ****     /* disable LVD */
  69:arch/riscv/mach-gd32vf10x/bsp/gd32vf103_pmu.c ****     PMU_CTL &= ~PMU_CTL_LVDEN;
  53              		.loc 1 69 5
  54              		.loc 1 69 13 is_stmt 0
  55 0000 B7770040 		li	a5,1073770496
  56 0004 9843     		lw	a4,0(a5)
  57 0006 3D9B     		andi	a4,a4,-17
  58 0008 98C3     		sw	a4,0(a5)
  70:arch/riscv/mach-gd32vf10x/bsp/gd32vf103_pmu.c ****     /* clear LVDT bits */
  71:arch/riscv/mach-gd32vf10x/bsp/gd32vf103_pmu.c ****     PMU_CTL &= ~PMU_CTL_LVDT;
  59              		.loc 1 71 5 is_stmt 1
  60              		.loc 1 71 13 is_stmt 0
  61 000a 9843     		lw	a4,0(a5)
  62 000c 1377F7F1 		andi	a4,a4,-225
  63 0010 98C3     		sw	a4,0(a5)
  72:arch/riscv/mach-gd32vf10x/bsp/gd32vf103_pmu.c ****     /* set LVDT bits according to lvdt_n */
  73:arch/riscv/mach-gd32vf10x/bsp/gd32vf103_pmu.c ****     PMU_CTL |= lvdt_n;
  64              		.loc 1 73 5 is_stmt 1
  65              		.loc 1 73 13 is_stmt 0
  66 0012 9843     		lw	a4,0(a5)
  67 0014 598D     		or	a0,a4,a0
  68              	.LVL3:
  69 0016 88C3     		sw	a0,0(a5)
  74:arch/riscv/mach-gd32vf10x/bsp/gd32vf103_pmu.c ****     /* enable LVD */
  75:arch/riscv/mach-gd32vf10x/bsp/gd32vf103_pmu.c ****     PMU_CTL |= PMU_CTL_LVDEN;
  70              		.loc 1 75 5 is_stmt 1
  71              		.loc 1 75 13 is_stmt 0
  72 0018 9843     		lw	a4,0(a5)
  73 001a 13670701 		ori	a4,a4,16
  74 001e 98C3     		sw	a4,0(a5)
  76:arch/riscv/mach-gd32vf10x/bsp/gd32vf103_pmu.c **** }
  75              		.loc 1 76 1
  76 0020 8280     		ret
  77              		.cfi_endproc
  78              	.LFE3:
  80              		.section	.text.pmu_lvd_disable,"ax",@progbits
  81              		.align	1
  82              		.globl	pmu_lvd_disable
  84              	pmu_lvd_disable:
  85              	.LFB4:
  77:arch/riscv/mach-gd32vf10x/bsp/gd32vf103_pmu.c **** 
  78:arch/riscv/mach-gd32vf10x/bsp/gd32vf103_pmu.c **** /*!
  79:arch/riscv/mach-gd32vf10x/bsp/gd32vf103_pmu.c ****     \brief      disable PMU lvd
  80:arch/riscv/mach-gd32vf10x/bsp/gd32vf103_pmu.c ****     \param[in]  none
  81:arch/riscv/mach-gd32vf10x/bsp/gd32vf103_pmu.c ****     \param[out] none
  82:arch/riscv/mach-gd32vf10x/bsp/gd32vf103_pmu.c ****     \retval     none
  83:arch/riscv/mach-gd32vf10x/bsp/gd32vf103_pmu.c **** */
  84:arch/riscv/mach-gd32vf10x/bsp/gd32vf103_pmu.c **** void pmu_lvd_disable(void)
  85:arch/riscv/mach-gd32vf10x/bsp/gd32vf103_pmu.c **** {
GAS LISTING C:\Users\test\AppData\Local\Temp\ccx4kfGR.s 			page 4


  86              		.loc 1 85 1 is_stmt 1
  87              		.cfi_startproc
  86:arch/riscv/mach-gd32vf10x/bsp/gd32vf103_pmu.c ****     /* disable LVD */
  87:arch/riscv/mach-gd32vf10x/bsp/gd32vf103_pmu.c ****     PMU_CTL &= ~PMU_CTL_LVDEN;
  88              		.loc 1 87 5
  89              		.loc 1 87 13 is_stmt 0
  90 0000 37770040 		li	a4,1073770496
  91 0004 1C43     		lw	a5,0(a4)
  92 0006 BD9B     		andi	a5,a5,-17
  93 0008 1CC3     		sw	a5,0(a4)
  88:arch/riscv/mach-gd32vf10x/bsp/gd32vf103_pmu.c **** }
  94              		.loc 1 88 1
  95 000a 8280     		ret
  96              		.cfi_endproc
  97              	.LFE4:
  99              		.section	.text.pmu_to_sleepmode,"ax",@progbits
 100              		.align	1
 101              		.globl	pmu_to_sleepmode
 103              	pmu_to_sleepmode:
 104              	.LFB5:
  89:arch/riscv/mach-gd32vf10x/bsp/gd32vf103_pmu.c **** 
  90:arch/riscv/mach-gd32vf10x/bsp/gd32vf103_pmu.c **** /*!
  91:arch/riscv/mach-gd32vf10x/bsp/gd32vf103_pmu.c ****     \brief      PMU work at sleep mode
  92:arch/riscv/mach-gd32vf10x/bsp/gd32vf103_pmu.c ****     \param[in]  sleepmodecmd:
  93:arch/riscv/mach-gd32vf10x/bsp/gd32vf103_pmu.c ****                 only one parameter can be selected which is shown as below:
  94:arch/riscv/mach-gd32vf10x/bsp/gd32vf103_pmu.c ****       \arg        WFI_CMD: use WFI command
  95:arch/riscv/mach-gd32vf10x/bsp/gd32vf103_pmu.c ****       \arg        WFE_CMD: use WFE command
  96:arch/riscv/mach-gd32vf10x/bsp/gd32vf103_pmu.c ****     \param[out] none
  97:arch/riscv/mach-gd32vf10x/bsp/gd32vf103_pmu.c ****     \retval     none
  98:arch/riscv/mach-gd32vf10x/bsp/gd32vf103_pmu.c **** */
  99:arch/riscv/mach-gd32vf10x/bsp/gd32vf103_pmu.c **** void pmu_to_sleepmode(uint8_t sleepmodecmd)
 100:arch/riscv/mach-gd32vf10x/bsp/gd32vf103_pmu.c **** {
 105              		.loc 1 100 1 is_stmt 1
 106              		.cfi_startproc
 107              	.LVL4:
 101:arch/riscv/mach-gd32vf10x/bsp/gd32vf103_pmu.c ****     /* clear sleepdeep bit of RISC-V system control register */
 102:arch/riscv/mach-gd32vf10x/bsp/gd32vf103_pmu.c ****     clear_csr(0x811, 0x1);
 108              		.loc 1 102 5
 109              	.LBB31:
 110              		.loc 1 102 5
 111              		.loc 1 102 5
 112              		.loc 1 102 5
 113              	 #APP
 114              	# 102 "arch/riscv/mach-gd32vf10x/bsp/gd32vf103_pmu.c" 1
 103              	
 115              		csrrc a5, 0x811, 1
 116              	# 0 "" 2
 117              	.LVL5:
 102:arch/riscv/mach-gd32vf10x/bsp/gd32vf103_pmu.c ****     clear_csr(0x811, 0x1);
 118              		.loc 1 102 5
 119              	 #NO_APP
 120              	.LBE31:
 104:arch/riscv/mach-gd32vf10x/bsp/gd32vf103_pmu.c ****     /* select WFI or WFE command to enter sleep mode */
 105:arch/riscv/mach-gd32vf10x/bsp/gd32vf103_pmu.c ****     if(WFI_CMD == sleepmodecmd){
 121              		.loc 1 105 5
 122              		.loc 1 105 7 is_stmt 0
 123 0004 01E5     		bne	a0,zero,.L7
GAS LISTING C:\Users\test\AppData\Local\Temp\ccx4kfGR.s 			page 5


 106:arch/riscv/mach-gd32vf10x/bsp/gd32vf103_pmu.c ****         __WFI();
 124              		.loc 1 106 9 is_stmt 1
 125              	.LBB32:
 126              	.LBB33:
 127              		.file 2 "arch/riscv/mach-gd32vf10x/system/n200_func.h"
   1:arch/riscv/mach-gd32vf10x/system/n200_func.h **** // See LICENSE file for licence details
   2:arch/riscv/mach-gd32vf10x/system/n200_func.h **** 
   3:arch/riscv/mach-gd32vf10x/system/n200_func.h **** #ifndef N200_FUNC_H
   4:arch/riscv/mach-gd32vf10x/system/n200_func.h **** #define N200_FUNC_H
   5:arch/riscv/mach-gd32vf10x/system/n200_func.h **** 
   6:arch/riscv/mach-gd32vf10x/system/n200_func.h **** 
   7:arch/riscv/mach-gd32vf10x/system/n200_func.h **** #include "n200_timer.h"
   8:arch/riscv/mach-gd32vf10x/system/n200_func.h **** #include "n200_eclic.h"
   9:arch/riscv/mach-gd32vf10x/system/n200_func.h **** 
  10:arch/riscv/mach-gd32vf10x/system/n200_func.h **** #define	ECLIC_GROUP_LEVEL0_PRIO4	0
  11:arch/riscv/mach-gd32vf10x/system/n200_func.h **** #define	ECLIC_GROUP_LEVEL1_PRIO3	1
  12:arch/riscv/mach-gd32vf10x/system/n200_func.h **** #define	ECLIC_GROUP_LEVEL2_PRIO2	2
  13:arch/riscv/mach-gd32vf10x/system/n200_func.h **** #define	ECLIC_GROUP_LEVEL3_PRIO1	3
  14:arch/riscv/mach-gd32vf10x/system/n200_func.h **** #define	ECLIC_GROUP_LEVEL4_PRIO0	4
  15:arch/riscv/mach-gd32vf10x/system/n200_func.h **** 
  16:arch/riscv/mach-gd32vf10x/system/n200_func.h **** void pmp_open_all_space();
  17:arch/riscv/mach-gd32vf10x/system/n200_func.h **** 
  18:arch/riscv/mach-gd32vf10x/system/n200_func.h **** void switch_m2u_mode();
  19:arch/riscv/mach-gd32vf10x/system/n200_func.h **** 
  20:arch/riscv/mach-gd32vf10x/system/n200_func.h **** unsigned int get_mtime_freq();
  21:arch/riscv/mach-gd32vf10x/system/n200_func.h **** 
  22:arch/riscv/mach-gd32vf10x/system/n200_func.h **** unsigned int mtime_lo(void);
  23:arch/riscv/mach-gd32vf10x/system/n200_func.h **** 
  24:arch/riscv/mach-gd32vf10x/system/n200_func.h **** unsigned int mtime_hi(void);
  25:arch/riscv/mach-gd32vf10x/system/n200_func.h **** 
  26:arch/riscv/mach-gd32vf10x/system/n200_func.h **** unsigned long long get_mtime_value();
  27:arch/riscv/mach-gd32vf10x/system/n200_func.h **** 
  28:arch/riscv/mach-gd32vf10x/system/n200_func.h **** unsigned long long get_instret_value();
  29:arch/riscv/mach-gd32vf10x/system/n200_func.h **** 
  30:arch/riscv/mach-gd32vf10x/system/n200_func.h **** unsigned long long get_cycle_value();
  31:arch/riscv/mach-gd32vf10x/system/n200_func.h **** 
  32:arch/riscv/mach-gd32vf10x/system/n200_func.h **** unsigned int get_cpu_freq();
  33:arch/riscv/mach-gd32vf10x/system/n200_func.h **** 
  34:arch/riscv/mach-gd32vf10x/system/n200_func.h **** unsigned int __attribute__((noinline)) measure_cpu_freq(unsigned int n);
  35:arch/riscv/mach-gd32vf10x/system/n200_func.h **** 
  36:arch/riscv/mach-gd32vf10x/system/n200_func.h **** 
  37:arch/riscv/mach-gd32vf10x/system/n200_func.h **** ///////////////////////////////////////////////////////////////////
  38:arch/riscv/mach-gd32vf10x/system/n200_func.h **** /////// ECLIC relevant functions
  39:arch/riscv/mach-gd32vf10x/system/n200_func.h **** ///////
  40:arch/riscv/mach-gd32vf10x/system/n200_func.h **** void eclic_init ( unsigned int num_irq );
  41:arch/riscv/mach-gd32vf10x/system/n200_func.h **** unsigned long long get_timer_value();
  42:arch/riscv/mach-gd32vf10x/system/n200_func.h **** void eclic_enable_interrupt (unsigned int source);
  43:arch/riscv/mach-gd32vf10x/system/n200_func.h **** void eclic_disable_interrupt (unsigned int source);
  44:arch/riscv/mach-gd32vf10x/system/n200_func.h **** 
  45:arch/riscv/mach-gd32vf10x/system/n200_func.h **** void eclic_set_pending(unsigned int source);
  46:arch/riscv/mach-gd32vf10x/system/n200_func.h **** void eclic_clear_pending(unsigned int source);
  47:arch/riscv/mach-gd32vf10x/system/n200_func.h **** 
  48:arch/riscv/mach-gd32vf10x/system/n200_func.h **** void eclic_set_intctrl (unsigned int source, unsigned char intctrl);
  49:arch/riscv/mach-gd32vf10x/system/n200_func.h **** unsigned char eclic_get_intctrl  (unsigned int source);
  50:arch/riscv/mach-gd32vf10x/system/n200_func.h **** 
  51:arch/riscv/mach-gd32vf10x/system/n200_func.h **** void eclic_set_intattr (unsigned int source, unsigned char intattr);
  52:arch/riscv/mach-gd32vf10x/system/n200_func.h **** unsigned char eclic_get_intattr  (unsigned int source);
GAS LISTING C:\Users\test\AppData\Local\Temp\ccx4kfGR.s 			page 6


  53:arch/riscv/mach-gd32vf10x/system/n200_func.h **** 
  54:arch/riscv/mach-gd32vf10x/system/n200_func.h **** void eclic_set_cliccfg (unsigned char cliccfg);
  55:arch/riscv/mach-gd32vf10x/system/n200_func.h **** unsigned char eclic_get_cliccfg ();
  56:arch/riscv/mach-gd32vf10x/system/n200_func.h **** 
  57:arch/riscv/mach-gd32vf10x/system/n200_func.h **** void eclic_set_mth (unsigned char mth);
  58:arch/riscv/mach-gd32vf10x/system/n200_func.h **** unsigned char eclic_get_mth();
  59:arch/riscv/mach-gd32vf10x/system/n200_func.h **** 
  60:arch/riscv/mach-gd32vf10x/system/n200_func.h **** //sets nlbits 
  61:arch/riscv/mach-gd32vf10x/system/n200_func.h **** void eclic_set_nlbits(unsigned char nlbits);
  62:arch/riscv/mach-gd32vf10x/system/n200_func.h **** 
  63:arch/riscv/mach-gd32vf10x/system/n200_func.h **** 
  64:arch/riscv/mach-gd32vf10x/system/n200_func.h **** //get nlbits 
  65:arch/riscv/mach-gd32vf10x/system/n200_func.h **** unsigned char eclic_get_nlbits();
  66:arch/riscv/mach-gd32vf10x/system/n200_func.h **** 
  67:arch/riscv/mach-gd32vf10x/system/n200_func.h **** void eclic_set_irq_lvl(unsigned int source, unsigned char lvl);
  68:arch/riscv/mach-gd32vf10x/system/n200_func.h **** unsigned char eclic_get_irq_lvl(unsigned int source);
  69:arch/riscv/mach-gd32vf10x/system/n200_func.h **** 
  70:arch/riscv/mach-gd32vf10x/system/n200_func.h **** void eclic_set_irq_lvl_abs(unsigned int source, unsigned char lvl_abs);
  71:arch/riscv/mach-gd32vf10x/system/n200_func.h **** unsigned char eclic_get_irq_lvl_abs(unsigned int source);
  72:arch/riscv/mach-gd32vf10x/system/n200_func.h **** 
  73:arch/riscv/mach-gd32vf10x/system/n200_func.h **** unsigned char eclic_set_irq_priority(unsigned int source, unsigned char priority);
  74:arch/riscv/mach-gd32vf10x/system/n200_func.h **** unsigned char eclic_get_irq_priority(unsigned int source);
  75:arch/riscv/mach-gd32vf10x/system/n200_func.h **** 
  76:arch/riscv/mach-gd32vf10x/system/n200_func.h **** void eclic_mode_enable();
  77:arch/riscv/mach-gd32vf10x/system/n200_func.h **** 
  78:arch/riscv/mach-gd32vf10x/system/n200_func.h **** void eclic_set_vmode(unsigned int source);
  79:arch/riscv/mach-gd32vf10x/system/n200_func.h **** void eclic_set_nonvmode(unsigned int source);
  80:arch/riscv/mach-gd32vf10x/system/n200_func.h **** 
  81:arch/riscv/mach-gd32vf10x/system/n200_func.h **** void eclic_set_level_trig(unsigned int source);
  82:arch/riscv/mach-gd32vf10x/system/n200_func.h **** void eclic_set_posedge_trig(unsigned int source);
  83:arch/riscv/mach-gd32vf10x/system/n200_func.h **** void eclic_set_negedge_trig(unsigned int source);
  84:arch/riscv/mach-gd32vf10x/system/n200_func.h **** 
  85:arch/riscv/mach-gd32vf10x/system/n200_func.h **** 
  86:arch/riscv/mach-gd32vf10x/system/n200_func.h **** ///** \brief  Wait For Interrupt
  87:arch/riscv/mach-gd32vf10x/system/n200_func.h **** //
  88:arch/riscv/mach-gd32vf10x/system/n200_func.h **** //    Wait For Interrupt is a hint instruction that suspends execution
  89:arch/riscv/mach-gd32vf10x/system/n200_func.h **** //    until one of a number of events occurs.
  90:arch/riscv/mach-gd32vf10x/system/n200_func.h **** // */
  91:arch/riscv/mach-gd32vf10x/system/n200_func.h **** __attribute__( ( always_inline ) ) static inline void __WFI(void) {
  92:arch/riscv/mach-gd32vf10x/system/n200_func.h **** 	__asm volatile ("wfi");
 128              		.loc 2 92 2
 129              	 #APP
 130              	# 92 "arch/riscv/mach-gd32vf10x/system/n200_func.h" 1
  93              	}
 131              		wfi
 132              	# 0 "" 2
 133              	 #NO_APP
 134 000a 8280     		ret
 135              	.L7:
 136              	.LBE33:
 137              	.LBE32:
 107:arch/riscv/mach-gd32vf10x/bsp/gd32vf103_pmu.c ****     }else{
 108:arch/riscv/mach-gd32vf10x/bsp/gd32vf103_pmu.c ****         clear_csr(mstatus, MSTATUS_MIE);
 138              		.loc 1 108 9 discriminator 1
 139              	.LBB34:
 140              		.loc 1 108 9 discriminator 1
 141              		.loc 1 108 9 discriminator 1
GAS LISTING C:\Users\test\AppData\Local\Temp\ccx4kfGR.s 			page 7


 142              		.loc 1 108 9 discriminator 1
 143              	 #APP
 144              	# 108 "arch/riscv/mach-gd32vf10x/bsp/gd32vf103_pmu.c" 1
 109              	        set_csr(0x810, 0x1);
 145              		csrrc a5, mstatus, 8
 146              	# 0 "" 2
 147              	.LVL6:
 108:arch/riscv/mach-gd32vf10x/bsp/gd32vf103_pmu.c ****         clear_csr(mstatus, MSTATUS_MIE);
 148              		.loc 1 108 9 discriminator 1
 149              	 #NO_APP
 150              	.LBE34:
 151              		.loc 1 109 9 discriminator 1
 152              	.LBB35:
 153              		.loc 1 109 9 discriminator 1
 154              		.loc 1 109 9 discriminator 1
 155              		.loc 1 109 9 discriminator 1
 156              	 #APP
 157              	# 109 "arch/riscv/mach-gd32vf10x/bsp/gd32vf103_pmu.c" 1
 110              	        __WFI();
 158              		csrrs a5, 0x810, 1
 159              	# 0 "" 2
 160              	.LVL7:
 109:arch/riscv/mach-gd32vf10x/bsp/gd32vf103_pmu.c ****         __WFI();
 161              		.loc 1 109 9 discriminator 1
 162              	 #NO_APP
 163              	.LBE35:
 164              		.loc 1 110 9 discriminator 1
 165              	.LBB36:
 166              	.LBB37:
  92:arch/riscv/mach-gd32vf10x/system/n200_func.h **** }
 167              		.loc 2 92 2 discriminator 1
 168              	 #APP
 169              	# 92 "arch/riscv/mach-gd32vf10x/system/n200_func.h" 1
 170              		wfi
 171              	# 0 "" 2
 172              	 #NO_APP
 173              	.LBE37:
 174              	.LBE36:
 111:arch/riscv/mach-gd32vf10x/bsp/gd32vf103_pmu.c ****         clear_csr(0x810, 0x1);
 175              		.loc 1 111 9 discriminator 1
 176              	.LBB38:
 177              		.loc 1 111 9 discriminator 1
 178              		.loc 1 111 9 discriminator 1
 179              		.loc 1 111 9 discriminator 1
 180              	 #APP
 181              	# 111 "arch/riscv/mach-gd32vf10x/bsp/gd32vf103_pmu.c" 1
 112              	        set_csr(mstatus, MSTATUS_MIE);
 182              		csrrc a5, 0x810, 1
 183              	# 0 "" 2
 184              	.LVL8:
 111:arch/riscv/mach-gd32vf10x/bsp/gd32vf103_pmu.c ****         clear_csr(0x810, 0x1);
 185              		.loc 1 111 9 discriminator 1
 186              	 #NO_APP
 187              	.LBE38:
 188              		.loc 1 112 9 discriminator 1
 189              	.LBB39:
 190              		.loc 1 112 9 discriminator 1
GAS LISTING C:\Users\test\AppData\Local\Temp\ccx4kfGR.s 			page 8


 191              		.loc 1 112 9 discriminator 1
 192              		.loc 1 112 9 discriminator 1
 193              	 #APP
 194              	# 112 "arch/riscv/mach-gd32vf10x/bsp/gd32vf103_pmu.c" 1
 113              	    }
 195              		csrrs a5, mstatus, 8
 196              	# 0 "" 2
 197              	.LVL9:
 112:arch/riscv/mach-gd32vf10x/bsp/gd32vf103_pmu.c ****     }
 198              		.loc 1 112 9 discriminator 1
 199              	 #NO_APP
 200              	.LBE39:
 114:arch/riscv/mach-gd32vf10x/bsp/gd32vf103_pmu.c **** }
 201              		.loc 1 114 1 is_stmt 0 discriminator 1
 202 0020 8280     		ret
 203              		.cfi_endproc
 204              	.LFE5:
 206              		.section	.text.pmu_to_deepsleepmode,"ax",@progbits
 207              		.align	1
 208              		.globl	pmu_to_deepsleepmode
 210              	pmu_to_deepsleepmode:
 211              	.LFB6:
 115:arch/riscv/mach-gd32vf10x/bsp/gd32vf103_pmu.c **** 
 116:arch/riscv/mach-gd32vf10x/bsp/gd32vf103_pmu.c **** /*!
 117:arch/riscv/mach-gd32vf10x/bsp/gd32vf103_pmu.c ****     \brief      PMU work at deepsleep mode
 118:arch/riscv/mach-gd32vf10x/bsp/gd32vf103_pmu.c ****     \param[in]  ldo:
 119:arch/riscv/mach-gd32vf10x/bsp/gd32vf103_pmu.c ****                 only one parameter can be selected which is shown as below:
 120:arch/riscv/mach-gd32vf10x/bsp/gd32vf103_pmu.c ****       \arg        PMU_LDO_NORMAL: LDO work at normal power mode when pmu enter deepsleep mode
 121:arch/riscv/mach-gd32vf10x/bsp/gd32vf103_pmu.c ****       \arg        PMU_LDO_LOWPOWER: LDO work at low power mode when pmu enter deepsleep mode
 122:arch/riscv/mach-gd32vf10x/bsp/gd32vf103_pmu.c ****     \param[in]  deepsleepmodecmd:
 123:arch/riscv/mach-gd32vf10x/bsp/gd32vf103_pmu.c ****                 only one parameter can be selected which is shown as below:
 124:arch/riscv/mach-gd32vf10x/bsp/gd32vf103_pmu.c ****       \arg        WFI_CMD: use WFI command
 125:arch/riscv/mach-gd32vf10x/bsp/gd32vf103_pmu.c ****       \arg        WFE_CMD: use WFE command
 126:arch/riscv/mach-gd32vf10x/bsp/gd32vf103_pmu.c ****     \param[out] none
 127:arch/riscv/mach-gd32vf10x/bsp/gd32vf103_pmu.c ****     \retval     none
 128:arch/riscv/mach-gd32vf10x/bsp/gd32vf103_pmu.c **** */
 129:arch/riscv/mach-gd32vf10x/bsp/gd32vf103_pmu.c **** void pmu_to_deepsleepmode(uint32_t ldo,uint8_t deepsleepmodecmd)
 130:arch/riscv/mach-gd32vf10x/bsp/gd32vf103_pmu.c **** {
 212              		.loc 1 130 1 is_stmt 1
 213              		.cfi_startproc
 214              	.LVL10:
 131:arch/riscv/mach-gd32vf10x/bsp/gd32vf103_pmu.c ****     /* clear stbmod and ldolp bits */
 132:arch/riscv/mach-gd32vf10x/bsp/gd32vf103_pmu.c ****     PMU_CTL &= ~((uint32_t)(PMU_CTL_STBMOD | PMU_CTL_LDOLP));
 215              		.loc 1 132 5
 216              		.loc 1 132 13 is_stmt 0
 217 0000 B7770040 		li	a5,1073770496
 218 0004 9843     		lw	a4,0(a5)
 219 0006 719B     		andi	a4,a4,-4
 220 0008 98C3     		sw	a4,0(a5)
 133:arch/riscv/mach-gd32vf10x/bsp/gd32vf103_pmu.c ****     /* set ldolp bit according to pmu_ldo */
 134:arch/riscv/mach-gd32vf10x/bsp/gd32vf103_pmu.c ****     PMU_CTL |= ldo;
 221              		.loc 1 134 5 is_stmt 1
 222              		.loc 1 134 13 is_stmt 0
 223 000a 9843     		lw	a4,0(a5)
 224 000c 598D     		or	a0,a4,a0
 225              	.LVL11:
 226 000e 88C3     		sw	a0,0(a5)
GAS LISTING C:\Users\test\AppData\Local\Temp\ccx4kfGR.s 			page 9


 135:arch/riscv/mach-gd32vf10x/bsp/gd32vf103_pmu.c ****     /* set CSR_SLEEPVALUE bit of RISC-V system control register */
 136:arch/riscv/mach-gd32vf10x/bsp/gd32vf103_pmu.c ****     set_csr(0x811, 0x1);
 227              		.loc 1 136 5 is_stmt 1
 228              	.LBB40:
 229              		.loc 1 136 5
 230              		.loc 1 136 5
 231              		.loc 1 136 5
 232              	 #APP
 233              	# 136 "arch/riscv/mach-gd32vf10x/bsp/gd32vf103_pmu.c" 1
 137              	    /* select WFI or WFE command to enter deepsleep mode */
 234              		csrrs a5, 0x811, 1
 235              	# 0 "" 2
 236              	.LVL12:
 136:arch/riscv/mach-gd32vf10x/bsp/gd32vf103_pmu.c ****     set_csr(0x811, 0x1);
 237              		.loc 1 136 5
 238              	 #NO_APP
 239              	.LBE40:
 138:arch/riscv/mach-gd32vf10x/bsp/gd32vf103_pmu.c ****     if(WFI_CMD == deepsleepmodecmd){
 240              		.loc 1 138 5
 241              		.loc 1 138 7 is_stmt 0
 242 0014 91E5     		bne	a1,zero,.L10
 139:arch/riscv/mach-gd32vf10x/bsp/gd32vf103_pmu.c ****         __WFI();
 243              		.loc 1 139 9 is_stmt 1
 244              	.LBB41:
 245              	.LBB42:
  92:arch/riscv/mach-gd32vf10x/system/n200_func.h **** }
 246              		.loc 2 92 2
 247              	 #APP
 248              	# 92 "arch/riscv/mach-gd32vf10x/system/n200_func.h" 1
 249              		wfi
 250              	# 0 "" 2
 251              	 #NO_APP
 252              	.LBE42:
 253              	.LBE41:
 140:arch/riscv/mach-gd32vf10x/bsp/gd32vf103_pmu.c ****     }else{
 141:arch/riscv/mach-gd32vf10x/bsp/gd32vf103_pmu.c ****         clear_csr(mstatus, MSTATUS_MIE);
 142:arch/riscv/mach-gd32vf10x/bsp/gd32vf103_pmu.c ****         set_csr(0x810, 0x1);
 143:arch/riscv/mach-gd32vf10x/bsp/gd32vf103_pmu.c ****         __WFI();
 144:arch/riscv/mach-gd32vf10x/bsp/gd32vf103_pmu.c ****         clear_csr(0x810, 0x1);
 145:arch/riscv/mach-gd32vf10x/bsp/gd32vf103_pmu.c ****         set_csr(mstatus, MSTATUS_MIE);
 146:arch/riscv/mach-gd32vf10x/bsp/gd32vf103_pmu.c ****     }
 147:arch/riscv/mach-gd32vf10x/bsp/gd32vf103_pmu.c ****     /* reset sleepdeep bit of RISC-V system control register */
 148:arch/riscv/mach-gd32vf10x/bsp/gd32vf103_pmu.c ****     clear_csr(0x811, 0x1);
 254              		.loc 1 148 5
 255              	.LBB43:
 256              		.loc 1 148 5
 257              		.loc 1 148 5
 258              		.loc 1 148 5
 259              	 #APP
 260              	# 148 "arch/riscv/mach-gd32vf10x/bsp/gd32vf103_pmu.c" 1
 149              	}
 261              		csrrc a5, 0x811, 1
 262              	# 0 "" 2
 263              	.LVL13:
 148:arch/riscv/mach-gd32vf10x/bsp/gd32vf103_pmu.c ****     clear_csr(0x811, 0x1);
 264              		.loc 1 148 5
 265              	 #NO_APP
GAS LISTING C:\Users\test\AppData\Local\Temp\ccx4kfGR.s 			page 10


 266              	.LBE43:
 267              		.loc 1 149 1 is_stmt 0
 268 001e 8280     		ret
 269              	.L10:
 141:arch/riscv/mach-gd32vf10x/bsp/gd32vf103_pmu.c ****         set_csr(0x810, 0x1);
 270              		.loc 1 141 9 is_stmt 1 discriminator 1
 271              	.LBB44:
 141:arch/riscv/mach-gd32vf10x/bsp/gd32vf103_pmu.c ****         set_csr(0x810, 0x1);
 272              		.loc 1 141 9 discriminator 1
 141:arch/riscv/mach-gd32vf10x/bsp/gd32vf103_pmu.c ****         set_csr(0x810, 0x1);
 273              		.loc 1 141 9 discriminator 1
 141:arch/riscv/mach-gd32vf10x/bsp/gd32vf103_pmu.c ****         set_csr(0x810, 0x1);
 274              		.loc 1 141 9 discriminator 1
 275              	 #APP
 276              	# 141 "arch/riscv/mach-gd32vf10x/bsp/gd32vf103_pmu.c" 1
 277              		csrrc a5, mstatus, 8
 278              	# 0 "" 2
 279              	.LVL14:
 141:arch/riscv/mach-gd32vf10x/bsp/gd32vf103_pmu.c ****         set_csr(0x810, 0x1);
 280              		.loc 1 141 9 discriminator 1
 281              	 #NO_APP
 282              	.LBE44:
 142:arch/riscv/mach-gd32vf10x/bsp/gd32vf103_pmu.c ****         __WFI();
 283              		.loc 1 142 9 discriminator 1
 284              	.LBB45:
 142:arch/riscv/mach-gd32vf10x/bsp/gd32vf103_pmu.c ****         __WFI();
 285              		.loc 1 142 9 discriminator 1
 142:arch/riscv/mach-gd32vf10x/bsp/gd32vf103_pmu.c ****         __WFI();
 286              		.loc 1 142 9 discriminator 1
 142:arch/riscv/mach-gd32vf10x/bsp/gd32vf103_pmu.c ****         __WFI();
 287              		.loc 1 142 9 discriminator 1
 288              	 #APP
 289              	# 142 "arch/riscv/mach-gd32vf10x/bsp/gd32vf103_pmu.c" 1
 290              		csrrs a5, 0x810, 1
 291              	# 0 "" 2
 292              	.LVL15:
 142:arch/riscv/mach-gd32vf10x/bsp/gd32vf103_pmu.c ****         __WFI();
 293              		.loc 1 142 9 discriminator 1
 294              	 #NO_APP
 295              	.LBE45:
 143:arch/riscv/mach-gd32vf10x/bsp/gd32vf103_pmu.c ****         clear_csr(0x810, 0x1);
 296              		.loc 1 143 9 discriminator 1
 297              	.LBB46:
 298              	.LBB47:
  92:arch/riscv/mach-gd32vf10x/system/n200_func.h **** }
 299              		.loc 2 92 2 discriminator 1
 300              	 #APP
 301              	# 92 "arch/riscv/mach-gd32vf10x/system/n200_func.h" 1
 302              		wfi
 303              	# 0 "" 2
 304              	 #NO_APP
 305              	.LBE47:
 306              	.LBE46:
 144:arch/riscv/mach-gd32vf10x/bsp/gd32vf103_pmu.c ****         set_csr(mstatus, MSTATUS_MIE);
 307              		.loc 1 144 9 discriminator 1
 308              	.LBB48:
 144:arch/riscv/mach-gd32vf10x/bsp/gd32vf103_pmu.c ****         set_csr(mstatus, MSTATUS_MIE);
GAS LISTING C:\Users\test\AppData\Local\Temp\ccx4kfGR.s 			page 11


 309              		.loc 1 144 9 discriminator 1
 144:arch/riscv/mach-gd32vf10x/bsp/gd32vf103_pmu.c ****         set_csr(mstatus, MSTATUS_MIE);
 310              		.loc 1 144 9 discriminator 1
 144:arch/riscv/mach-gd32vf10x/bsp/gd32vf103_pmu.c ****         set_csr(mstatus, MSTATUS_MIE);
 311              		.loc 1 144 9 discriminator 1
 312              	 #APP
 313              	# 144 "arch/riscv/mach-gd32vf10x/bsp/gd32vf103_pmu.c" 1
 314              		csrrc a5, 0x810, 1
 315              	# 0 "" 2
 316              	.LVL16:
 144:arch/riscv/mach-gd32vf10x/bsp/gd32vf103_pmu.c ****         set_csr(mstatus, MSTATUS_MIE);
 317              		.loc 1 144 9 discriminator 1
 318              	 #NO_APP
 319              	.LBE48:
 145:arch/riscv/mach-gd32vf10x/bsp/gd32vf103_pmu.c ****     }
 320              		.loc 1 145 9 discriminator 1
 321              	.LBB49:
 145:arch/riscv/mach-gd32vf10x/bsp/gd32vf103_pmu.c ****     }
 322              		.loc 1 145 9 discriminator 1
 145:arch/riscv/mach-gd32vf10x/bsp/gd32vf103_pmu.c ****     }
 323              		.loc 1 145 9 discriminator 1
 145:arch/riscv/mach-gd32vf10x/bsp/gd32vf103_pmu.c ****     }
 324              		.loc 1 145 9 discriminator 1
 325              	 #APP
 326              	# 145 "arch/riscv/mach-gd32vf10x/bsp/gd32vf103_pmu.c" 1
 327              		csrrs a5, mstatus, 8
 328              	# 0 "" 2
 329              	.LVL17:
 145:arch/riscv/mach-gd32vf10x/bsp/gd32vf103_pmu.c ****     }
 330              		.loc 1 145 9 discriminator 1
 331              	 #NO_APP
 332              	.LBE49:
 148:arch/riscv/mach-gd32vf10x/bsp/gd32vf103_pmu.c **** }
 333              		.loc 1 148 5 discriminator 1
 334              	.LBB50:
 148:arch/riscv/mach-gd32vf10x/bsp/gd32vf103_pmu.c **** }
 335              		.loc 1 148 5 discriminator 1
 148:arch/riscv/mach-gd32vf10x/bsp/gd32vf103_pmu.c **** }
 336              		.loc 1 148 5 discriminator 1
 148:arch/riscv/mach-gd32vf10x/bsp/gd32vf103_pmu.c **** }
 337              		.loc 1 148 5 discriminator 1
 338              	 #APP
 339              	# 148 "arch/riscv/mach-gd32vf10x/bsp/gd32vf103_pmu.c" 1
 148:arch/riscv/mach-gd32vf10x/bsp/gd32vf103_pmu.c **** }
 340              		csrrc a5, 0x811, 1
 341              	# 0 "" 2
 342              		.loc 1 148 5 discriminator 1
 343              	 #NO_APP
 344              	.LBE50:
 345              		.loc 1 149 1 is_stmt 0 discriminator 1
 346 0038 8280     		ret
 347              		.cfi_endproc
 348              	.LFE6:
 350              		.section	.text.pmu_to_standbymode,"ax",@progbits
 351              		.align	1
 352              		.globl	pmu_to_standbymode
 354              	pmu_to_standbymode:
GAS LISTING C:\Users\test\AppData\Local\Temp\ccx4kfGR.s 			page 12


 355              	.LFB7:
 150:arch/riscv/mach-gd32vf10x/bsp/gd32vf103_pmu.c **** 
 151:arch/riscv/mach-gd32vf10x/bsp/gd32vf103_pmu.c **** /*!
 152:arch/riscv/mach-gd32vf10x/bsp/gd32vf103_pmu.c ****     \brief      pmu work at standby mode
 153:arch/riscv/mach-gd32vf10x/bsp/gd32vf103_pmu.c ****     \param[in]  standbymodecmd:
 154:arch/riscv/mach-gd32vf10x/bsp/gd32vf103_pmu.c ****                 only one parameter can be selected which is shown as below:
 155:arch/riscv/mach-gd32vf10x/bsp/gd32vf103_pmu.c ****       \arg        WFI_CMD: use WFI command
 156:arch/riscv/mach-gd32vf10x/bsp/gd32vf103_pmu.c ****       \arg        WFE_CMD: use WFE command
 157:arch/riscv/mach-gd32vf10x/bsp/gd32vf103_pmu.c ****     \param[out] none
 158:arch/riscv/mach-gd32vf10x/bsp/gd32vf103_pmu.c ****     \retval     none
 159:arch/riscv/mach-gd32vf10x/bsp/gd32vf103_pmu.c **** */
 160:arch/riscv/mach-gd32vf10x/bsp/gd32vf103_pmu.c **** void pmu_to_standbymode(uint8_t standbymodecmd)
 161:arch/riscv/mach-gd32vf10x/bsp/gd32vf103_pmu.c **** {
 356              		.loc 1 161 1 is_stmt 1
 357              		.cfi_startproc
 358              	.LVL18:
 162:arch/riscv/mach-gd32vf10x/bsp/gd32vf103_pmu.c ****     /* set CSR_SLEEPVALUE bit of RISC-V system control register */
 163:arch/riscv/mach-gd32vf10x/bsp/gd32vf103_pmu.c ****     set_csr(0x811, 0x1);
 359              		.loc 1 163 5
 360              	.LBB51:
 361              		.loc 1 163 5
 362              		.loc 1 163 5
 363              		.loc 1 163 5
 364              	 #APP
 365              	# 163 "arch/riscv/mach-gd32vf10x/bsp/gd32vf103_pmu.c" 1
 164              	
 366              		csrrs a5, 0x811, 1
 367              	# 0 "" 2
 368              	.LVL19:
 163:arch/riscv/mach-gd32vf10x/bsp/gd32vf103_pmu.c ****     set_csr(0x811, 0x1);
 369              		.loc 1 163 5
 370              	 #NO_APP
 371              	.LBE51:
 165:arch/riscv/mach-gd32vf10x/bsp/gd32vf103_pmu.c ****     /* set stbmod bit */
 166:arch/riscv/mach-gd32vf10x/bsp/gd32vf103_pmu.c ****     PMU_CTL |= PMU_CTL_STBMOD;
 372              		.loc 1 166 5
 373              		.loc 1 166 13 is_stmt 0
 374 0004 B7770040 		li	a5,1073770496
 375 0008 9843     		lw	a4,0(a5)
 376 000a 13672700 		ori	a4,a4,2
 377 000e 98C3     		sw	a4,0(a5)
 167:arch/riscv/mach-gd32vf10x/bsp/gd32vf103_pmu.c **** 
 168:arch/riscv/mach-gd32vf10x/bsp/gd32vf103_pmu.c ****     /* reset wakeup flag */
 169:arch/riscv/mach-gd32vf10x/bsp/gd32vf103_pmu.c ****     PMU_CTL |= PMU_CTL_WURST;
 378              		.loc 1 169 5 is_stmt 1
 379              		.loc 1 169 13 is_stmt 0
 380 0010 9843     		lw	a4,0(a5)
 381 0012 13674700 		ori	a4,a4,4
 382 0016 98C3     		sw	a4,0(a5)
 170:arch/riscv/mach-gd32vf10x/bsp/gd32vf103_pmu.c **** 
 171:arch/riscv/mach-gd32vf10x/bsp/gd32vf103_pmu.c ****     /* select WFI or WFE command to enter standby mode */
 172:arch/riscv/mach-gd32vf10x/bsp/gd32vf103_pmu.c ****     if(WFI_CMD == standbymodecmd){
 383              		.loc 1 172 5 is_stmt 1
 384              		.loc 1 172 7 is_stmt 0
 385 0018 11E5     		bne	a0,zero,.L13
 173:arch/riscv/mach-gd32vf10x/bsp/gd32vf103_pmu.c ****         __WFI();
 386              		.loc 1 173 9 is_stmt 1
GAS LISTING C:\Users\test\AppData\Local\Temp\ccx4kfGR.s 			page 13


 387              	.LBB52:
 388              	.LBB53:
  92:arch/riscv/mach-gd32vf10x/system/n200_func.h **** }
 389              		.loc 2 92 2
 390              	 #APP
 391              	# 92 "arch/riscv/mach-gd32vf10x/system/n200_func.h" 1
 392              		wfi
 393              	# 0 "" 2
 394              	 #NO_APP
 395              	.LBE53:
 396              	.LBE52:
 174:arch/riscv/mach-gd32vf10x/bsp/gd32vf103_pmu.c ****     }else{
 175:arch/riscv/mach-gd32vf10x/bsp/gd32vf103_pmu.c ****         clear_csr(mstatus, MSTATUS_MIE);
 176:arch/riscv/mach-gd32vf10x/bsp/gd32vf103_pmu.c ****         set_csr(0x810, 0x1);
 177:arch/riscv/mach-gd32vf10x/bsp/gd32vf103_pmu.c ****         __WFI();
 178:arch/riscv/mach-gd32vf10x/bsp/gd32vf103_pmu.c ****         clear_csr(0x810, 0x1);
 179:arch/riscv/mach-gd32vf10x/bsp/gd32vf103_pmu.c ****         set_csr(mstatus, MSTATUS_MIE);
 180:arch/riscv/mach-gd32vf10x/bsp/gd32vf103_pmu.c ****     }
 181:arch/riscv/mach-gd32vf10x/bsp/gd32vf103_pmu.c ****     clear_csr(0x811, 0x1);
 397              		.loc 1 181 5
 398              	.LBB54:
 399              		.loc 1 181 5
 400              		.loc 1 181 5
 401              		.loc 1 181 5
 402              	 #APP
 403              	# 181 "arch/riscv/mach-gd32vf10x/bsp/gd32vf103_pmu.c" 1
 182              	}
 404              		csrrc a5, 0x811, 1
 405              	# 0 "" 2
 406              	.LVL20:
 181:arch/riscv/mach-gd32vf10x/bsp/gd32vf103_pmu.c ****     clear_csr(0x811, 0x1);
 407              		.loc 1 181 5
 408              	 #NO_APP
 409              	.LBE54:
 410              		.loc 1 182 1 is_stmt 0
 411 0022 8280     		ret
 412              	.L13:
 175:arch/riscv/mach-gd32vf10x/bsp/gd32vf103_pmu.c ****         set_csr(0x810, 0x1);
 413              		.loc 1 175 9 is_stmt 1 discriminator 1
 414              	.LBB55:
 175:arch/riscv/mach-gd32vf10x/bsp/gd32vf103_pmu.c ****         set_csr(0x810, 0x1);
 415              		.loc 1 175 9 discriminator 1
 175:arch/riscv/mach-gd32vf10x/bsp/gd32vf103_pmu.c ****         set_csr(0x810, 0x1);
 416              		.loc 1 175 9 discriminator 1
 175:arch/riscv/mach-gd32vf10x/bsp/gd32vf103_pmu.c ****         set_csr(0x810, 0x1);
 417              		.loc 1 175 9 discriminator 1
 418              	 #APP
 419              	# 175 "arch/riscv/mach-gd32vf10x/bsp/gd32vf103_pmu.c" 1
 420              		csrrc a5, mstatus, 8
 421              	# 0 "" 2
 422              	.LVL21:
 175:arch/riscv/mach-gd32vf10x/bsp/gd32vf103_pmu.c ****         set_csr(0x810, 0x1);
 423              		.loc 1 175 9 discriminator 1
 424              	 #NO_APP
 425              	.LBE55:
 176:arch/riscv/mach-gd32vf10x/bsp/gd32vf103_pmu.c ****         __WFI();
 426              		.loc 1 176 9 discriminator 1
GAS LISTING C:\Users\test\AppData\Local\Temp\ccx4kfGR.s 			page 14


 427              	.LBB56:
 176:arch/riscv/mach-gd32vf10x/bsp/gd32vf103_pmu.c ****         __WFI();
 428              		.loc 1 176 9 discriminator 1
 176:arch/riscv/mach-gd32vf10x/bsp/gd32vf103_pmu.c ****         __WFI();
 429              		.loc 1 176 9 discriminator 1
 176:arch/riscv/mach-gd32vf10x/bsp/gd32vf103_pmu.c ****         __WFI();
 430              		.loc 1 176 9 discriminator 1
 431              	 #APP
 432              	# 176 "arch/riscv/mach-gd32vf10x/bsp/gd32vf103_pmu.c" 1
 433              		csrrs a5, 0x810, 1
 434              	# 0 "" 2
 435              	.LVL22:
 176:arch/riscv/mach-gd32vf10x/bsp/gd32vf103_pmu.c ****         __WFI();
 436              		.loc 1 176 9 discriminator 1
 437              	 #NO_APP
 438              	.LBE56:
 177:arch/riscv/mach-gd32vf10x/bsp/gd32vf103_pmu.c ****         clear_csr(0x810, 0x1);
 439              		.loc 1 177 9 discriminator 1
 440              	.LBB57:
 441              	.LBB58:
  92:arch/riscv/mach-gd32vf10x/system/n200_func.h **** }
 442              		.loc 2 92 2 discriminator 1
 443              	 #APP
 444              	# 92 "arch/riscv/mach-gd32vf10x/system/n200_func.h" 1
 445              		wfi
 446              	# 0 "" 2
 447              	 #NO_APP
 448              	.LBE58:
 449              	.LBE57:
 178:arch/riscv/mach-gd32vf10x/bsp/gd32vf103_pmu.c ****         set_csr(mstatus, MSTATUS_MIE);
 450              		.loc 1 178 9 discriminator 1
 451              	.LBB59:
 178:arch/riscv/mach-gd32vf10x/bsp/gd32vf103_pmu.c ****         set_csr(mstatus, MSTATUS_MIE);
 452              		.loc 1 178 9 discriminator 1
 178:arch/riscv/mach-gd32vf10x/bsp/gd32vf103_pmu.c ****         set_csr(mstatus, MSTATUS_MIE);
 453              		.loc 1 178 9 discriminator 1
 178:arch/riscv/mach-gd32vf10x/bsp/gd32vf103_pmu.c ****         set_csr(mstatus, MSTATUS_MIE);
 454              		.loc 1 178 9 discriminator 1
 455              	 #APP
 456              	# 178 "arch/riscv/mach-gd32vf10x/bsp/gd32vf103_pmu.c" 1
 457              		csrrc a5, 0x810, 1
 458              	# 0 "" 2
 459              	.LVL23:
 178:arch/riscv/mach-gd32vf10x/bsp/gd32vf103_pmu.c ****         set_csr(mstatus, MSTATUS_MIE);
 460              		.loc 1 178 9 discriminator 1
 461              	 #NO_APP
 462              	.LBE59:
 179:arch/riscv/mach-gd32vf10x/bsp/gd32vf103_pmu.c ****     }
 463              		.loc 1 179 9 discriminator 1
 464              	.LBB60:
 179:arch/riscv/mach-gd32vf10x/bsp/gd32vf103_pmu.c ****     }
 465              		.loc 1 179 9 discriminator 1
 179:arch/riscv/mach-gd32vf10x/bsp/gd32vf103_pmu.c ****     }
 466              		.loc 1 179 9 discriminator 1
 179:arch/riscv/mach-gd32vf10x/bsp/gd32vf103_pmu.c ****     }
 467              		.loc 1 179 9 discriminator 1
 468              	 #APP
GAS LISTING C:\Users\test\AppData\Local\Temp\ccx4kfGR.s 			page 15


 469              	# 179 "arch/riscv/mach-gd32vf10x/bsp/gd32vf103_pmu.c" 1
 470              		csrrs a5, mstatus, 8
 471              	# 0 "" 2
 472              	.LVL24:
 179:arch/riscv/mach-gd32vf10x/bsp/gd32vf103_pmu.c ****     }
 473              		.loc 1 179 9 discriminator 1
 474              	 #NO_APP
 475              	.LBE60:
 181:arch/riscv/mach-gd32vf10x/bsp/gd32vf103_pmu.c **** }
 476              		.loc 1 181 5 discriminator 1
 477              	.LBB61:
 181:arch/riscv/mach-gd32vf10x/bsp/gd32vf103_pmu.c **** }
 478              		.loc 1 181 5 discriminator 1
 181:arch/riscv/mach-gd32vf10x/bsp/gd32vf103_pmu.c **** }
 479              		.loc 1 181 5 discriminator 1
 181:arch/riscv/mach-gd32vf10x/bsp/gd32vf103_pmu.c **** }
 480              		.loc 1 181 5 discriminator 1
 481              	 #APP
 482              	# 181 "arch/riscv/mach-gd32vf10x/bsp/gd32vf103_pmu.c" 1
 181:arch/riscv/mach-gd32vf10x/bsp/gd32vf103_pmu.c **** }
 483              		csrrc a5, 0x811, 1
 484              	# 0 "" 2
 485              		.loc 1 181 5 discriminator 1
 486              	 #NO_APP
 487              	.LBE61:
 488              		.loc 1 182 1 is_stmt 0 discriminator 1
 489 003c 8280     		ret
 490              		.cfi_endproc
 491              	.LFE7:
 493              		.section	.text.pmu_wakeup_pin_enable,"ax",@progbits
 494              		.align	1
 495              		.globl	pmu_wakeup_pin_enable
 497              	pmu_wakeup_pin_enable:
 498              	.LFB8:
 183:arch/riscv/mach-gd32vf10x/bsp/gd32vf103_pmu.c **** 
 184:arch/riscv/mach-gd32vf10x/bsp/gd32vf103_pmu.c **** /*!
 185:arch/riscv/mach-gd32vf10x/bsp/gd32vf103_pmu.c ****     \brief      enable wakeup pin
 186:arch/riscv/mach-gd32vf10x/bsp/gd32vf103_pmu.c ****     \param[in]  none
 187:arch/riscv/mach-gd32vf10x/bsp/gd32vf103_pmu.c ****     \param[out] none
 188:arch/riscv/mach-gd32vf10x/bsp/gd32vf103_pmu.c ****     \retval     none
 189:arch/riscv/mach-gd32vf10x/bsp/gd32vf103_pmu.c **** */
 190:arch/riscv/mach-gd32vf10x/bsp/gd32vf103_pmu.c **** void pmu_wakeup_pin_enable(void)
 191:arch/riscv/mach-gd32vf10x/bsp/gd32vf103_pmu.c **** {
 499              		.loc 1 191 1 is_stmt 1
 500              		.cfi_startproc
 192:arch/riscv/mach-gd32vf10x/bsp/gd32vf103_pmu.c ****     PMU_CS |= PMU_CS_WUPEN;
 501              		.loc 1 192 5
 502              		.loc 1 192 12 is_stmt 0
 503 0000 37770040 		li	a4,1073770496
 504 0004 5C43     		lw	a5,4(a4)
 505 0006 93E70710 		ori	a5,a5,256
 506 000a 5CC3     		sw	a5,4(a4)
 193:arch/riscv/mach-gd32vf10x/bsp/gd32vf103_pmu.c **** }
 507              		.loc 1 193 1
 508 000c 8280     		ret
 509              		.cfi_endproc
 510              	.LFE8:
GAS LISTING C:\Users\test\AppData\Local\Temp\ccx4kfGR.s 			page 16


 512              		.section	.text.pmu_wakeup_pin_disable,"ax",@progbits
 513              		.align	1
 514              		.globl	pmu_wakeup_pin_disable
 516              	pmu_wakeup_pin_disable:
 517              	.LFB9:
 194:arch/riscv/mach-gd32vf10x/bsp/gd32vf103_pmu.c **** 
 195:arch/riscv/mach-gd32vf10x/bsp/gd32vf103_pmu.c **** /*!
 196:arch/riscv/mach-gd32vf10x/bsp/gd32vf103_pmu.c ****     \brief      disable wakeup pin
 197:arch/riscv/mach-gd32vf10x/bsp/gd32vf103_pmu.c ****     \param[in]  none
 198:arch/riscv/mach-gd32vf10x/bsp/gd32vf103_pmu.c ****     \param[out] none
 199:arch/riscv/mach-gd32vf10x/bsp/gd32vf103_pmu.c ****     \retval     none
 200:arch/riscv/mach-gd32vf10x/bsp/gd32vf103_pmu.c **** */
 201:arch/riscv/mach-gd32vf10x/bsp/gd32vf103_pmu.c **** void pmu_wakeup_pin_disable(void)
 202:arch/riscv/mach-gd32vf10x/bsp/gd32vf103_pmu.c **** {
 518              		.loc 1 202 1 is_stmt 1
 519              		.cfi_startproc
 203:arch/riscv/mach-gd32vf10x/bsp/gd32vf103_pmu.c ****     PMU_CS &= ~PMU_CS_WUPEN;
 520              		.loc 1 203 5
 521              		.loc 1 203 12 is_stmt 0
 522 0000 37770040 		li	a4,1073770496
 523 0004 5C43     		lw	a5,4(a4)
 524 0006 93F7F7EF 		andi	a5,a5,-257
 525 000a 5CC3     		sw	a5,4(a4)
 204:arch/riscv/mach-gd32vf10x/bsp/gd32vf103_pmu.c **** }
 526              		.loc 1 204 1
 527 000c 8280     		ret
 528              		.cfi_endproc
 529              	.LFE9:
 531              		.section	.text.pmu_backup_write_enable,"ax",@progbits
 532              		.align	1
 533              		.globl	pmu_backup_write_enable
 535              	pmu_backup_write_enable:
 536              	.LFB10:
 205:arch/riscv/mach-gd32vf10x/bsp/gd32vf103_pmu.c **** 
 206:arch/riscv/mach-gd32vf10x/bsp/gd32vf103_pmu.c **** /*!
 207:arch/riscv/mach-gd32vf10x/bsp/gd32vf103_pmu.c ****     \brief      enable write access to the registers in backup domain
 208:arch/riscv/mach-gd32vf10x/bsp/gd32vf103_pmu.c ****     \param[in]  none
 209:arch/riscv/mach-gd32vf10x/bsp/gd32vf103_pmu.c ****     \param[out] none
 210:arch/riscv/mach-gd32vf10x/bsp/gd32vf103_pmu.c ****     \retval     none
 211:arch/riscv/mach-gd32vf10x/bsp/gd32vf103_pmu.c **** */
 212:arch/riscv/mach-gd32vf10x/bsp/gd32vf103_pmu.c **** void pmu_backup_write_enable(void)
 213:arch/riscv/mach-gd32vf10x/bsp/gd32vf103_pmu.c **** {
 537              		.loc 1 213 1 is_stmt 1
 538              		.cfi_startproc
 214:arch/riscv/mach-gd32vf10x/bsp/gd32vf103_pmu.c ****     PMU_CTL |= PMU_CTL_BKPWEN;
 539              		.loc 1 214 5
 540              		.loc 1 214 13 is_stmt 0
 541 0000 37770040 		li	a4,1073770496
 542 0004 1C43     		lw	a5,0(a4)
 543 0006 93E70710 		ori	a5,a5,256
 544 000a 1CC3     		sw	a5,0(a4)
 215:arch/riscv/mach-gd32vf10x/bsp/gd32vf103_pmu.c **** }
 545              		.loc 1 215 1
 546 000c 8280     		ret
 547              		.cfi_endproc
 548              	.LFE10:
 550              		.section	.text.pmu_backup_write_disable,"ax",@progbits
GAS LISTING C:\Users\test\AppData\Local\Temp\ccx4kfGR.s 			page 17


 551              		.align	1
 552              		.globl	pmu_backup_write_disable
 554              	pmu_backup_write_disable:
 555              	.LFB11:
 216:arch/riscv/mach-gd32vf10x/bsp/gd32vf103_pmu.c **** 
 217:arch/riscv/mach-gd32vf10x/bsp/gd32vf103_pmu.c **** /*!
 218:arch/riscv/mach-gd32vf10x/bsp/gd32vf103_pmu.c ****     \brief      disable write access to the registers in backup domain
 219:arch/riscv/mach-gd32vf10x/bsp/gd32vf103_pmu.c ****     \param[in]  none
 220:arch/riscv/mach-gd32vf10x/bsp/gd32vf103_pmu.c ****     \param[out] none
 221:arch/riscv/mach-gd32vf10x/bsp/gd32vf103_pmu.c ****     \retval     none
 222:arch/riscv/mach-gd32vf10x/bsp/gd32vf103_pmu.c **** */
 223:arch/riscv/mach-gd32vf10x/bsp/gd32vf103_pmu.c **** void pmu_backup_write_disable(void)
 224:arch/riscv/mach-gd32vf10x/bsp/gd32vf103_pmu.c **** {
 556              		.loc 1 224 1 is_stmt 1
 557              		.cfi_startproc
 225:arch/riscv/mach-gd32vf10x/bsp/gd32vf103_pmu.c ****     PMU_CTL &= ~PMU_CTL_BKPWEN;
 558              		.loc 1 225 5
 559              		.loc 1 225 13 is_stmt 0
 560 0000 37770040 		li	a4,1073770496
 561 0004 1C43     		lw	a5,0(a4)
 562 0006 93F7F7EF 		andi	a5,a5,-257
 563 000a 1CC3     		sw	a5,0(a4)
 226:arch/riscv/mach-gd32vf10x/bsp/gd32vf103_pmu.c **** }
 564              		.loc 1 226 1
 565 000c 8280     		ret
 566              		.cfi_endproc
 567              	.LFE11:
 569              		.section	.text.pmu_flag_get,"ax",@progbits
 570              		.align	1
 571              		.globl	pmu_flag_get
 573              	pmu_flag_get:
 574              	.LFB12:
 227:arch/riscv/mach-gd32vf10x/bsp/gd32vf103_pmu.c **** 
 228:arch/riscv/mach-gd32vf10x/bsp/gd32vf103_pmu.c **** /*!
 229:arch/riscv/mach-gd32vf10x/bsp/gd32vf103_pmu.c ****     \brief      get flag state
 230:arch/riscv/mach-gd32vf10x/bsp/gd32vf103_pmu.c ****     \param[in]  flag:
 231:arch/riscv/mach-gd32vf10x/bsp/gd32vf103_pmu.c ****                 only one parameter can be selected which is shown as below:
 232:arch/riscv/mach-gd32vf10x/bsp/gd32vf103_pmu.c ****       \arg        PMU_FLAG_WAKEUP: wakeup flag
 233:arch/riscv/mach-gd32vf10x/bsp/gd32vf103_pmu.c ****       \arg        PMU_FLAG_STANDBY: standby flag
 234:arch/riscv/mach-gd32vf10x/bsp/gd32vf103_pmu.c ****       \arg        PMU_FLAG_LVD: lvd flag
 235:arch/riscv/mach-gd32vf10x/bsp/gd32vf103_pmu.c ****     \param[out] none
 236:arch/riscv/mach-gd32vf10x/bsp/gd32vf103_pmu.c ****     \retval     FlagStatus SET or RESET
 237:arch/riscv/mach-gd32vf10x/bsp/gd32vf103_pmu.c **** */
 238:arch/riscv/mach-gd32vf10x/bsp/gd32vf103_pmu.c **** FlagStatus pmu_flag_get(uint32_t flag)
 239:arch/riscv/mach-gd32vf10x/bsp/gd32vf103_pmu.c **** {
 575              		.loc 1 239 1 is_stmt 1
 576              		.cfi_startproc
 577              	.LVL25:
 240:arch/riscv/mach-gd32vf10x/bsp/gd32vf103_pmu.c ****     if(PMU_CS & flag){
 578              		.loc 1 240 5
 579              		.loc 1 240 8 is_stmt 0
 580 0000 B7770040 		li	a5,1073770496
 581 0004 DC43     		lw	a5,4(a5)
 582              		.loc 1 240 15
 583 0006 7D8D     		and	a0,a5,a0
 584              	.LVL26:
 241:arch/riscv/mach-gd32vf10x/bsp/gd32vf103_pmu.c ****         return  SET;
GAS LISTING C:\Users\test\AppData\Local\Temp\ccx4kfGR.s 			page 18


 242:arch/riscv/mach-gd32vf10x/bsp/gd32vf103_pmu.c ****     }else{
 243:arch/riscv/mach-gd32vf10x/bsp/gd32vf103_pmu.c ****         return  RESET;
 244:arch/riscv/mach-gd32vf10x/bsp/gd32vf103_pmu.c ****     }
 245:arch/riscv/mach-gd32vf10x/bsp/gd32vf103_pmu.c **** }
 585              		.loc 1 245 1
 586 0008 3335A000 		snez	a0,a0
 587 000c 8280     		ret
 588              		.cfi_endproc
 589              	.LFE12:
 591              		.section	.text.pmu_flag_clear,"ax",@progbits
 592              		.align	1
 593              		.globl	pmu_flag_clear
 595              	pmu_flag_clear:
 596              	.LFB13:
 246:arch/riscv/mach-gd32vf10x/bsp/gd32vf103_pmu.c **** 
 247:arch/riscv/mach-gd32vf10x/bsp/gd32vf103_pmu.c **** /*!
 248:arch/riscv/mach-gd32vf10x/bsp/gd32vf103_pmu.c ****     \brief      clear flag bit
 249:arch/riscv/mach-gd32vf10x/bsp/gd32vf103_pmu.c ****     \param[in]  flag_reset:
 250:arch/riscv/mach-gd32vf10x/bsp/gd32vf103_pmu.c ****                 only one parameter can be selected which is shown as below:
 251:arch/riscv/mach-gd32vf10x/bsp/gd32vf103_pmu.c ****       \arg        PMU_FLAG_RESET_WAKEUP: reset wakeup flag
 252:arch/riscv/mach-gd32vf10x/bsp/gd32vf103_pmu.c ****       \arg        PMU_FLAG_RESET_STANDBY: reset standby flag
 253:arch/riscv/mach-gd32vf10x/bsp/gd32vf103_pmu.c ****     \param[out] none
 254:arch/riscv/mach-gd32vf10x/bsp/gd32vf103_pmu.c ****     \retval     none
 255:arch/riscv/mach-gd32vf10x/bsp/gd32vf103_pmu.c **** */
 256:arch/riscv/mach-gd32vf10x/bsp/gd32vf103_pmu.c **** void pmu_flag_clear(uint32_t flag_reset)
 257:arch/riscv/mach-gd32vf10x/bsp/gd32vf103_pmu.c **** {
 597              		.loc 1 257 1 is_stmt 1
 598              		.cfi_startproc
 599              	.LVL27:
 258:arch/riscv/mach-gd32vf10x/bsp/gd32vf103_pmu.c ****     switch(flag_reset){
 600              		.loc 1 258 5
 601 0000 01CD     		beq	a0,zero,.L21
 602 0002 8547     		li	a5,1
 603 0004 6319F500 		bne	a0,a5,.L24
 259:arch/riscv/mach-gd32vf10x/bsp/gd32vf103_pmu.c ****     case PMU_FLAG_RESET_WAKEUP:
 260:arch/riscv/mach-gd32vf10x/bsp/gd32vf103_pmu.c ****         /* reset wakeup flag */
 261:arch/riscv/mach-gd32vf10x/bsp/gd32vf103_pmu.c ****         PMU_CTL |= PMU_CTL_WURST;
 262:arch/riscv/mach-gd32vf10x/bsp/gd32vf103_pmu.c ****         break;
 263:arch/riscv/mach-gd32vf10x/bsp/gd32vf103_pmu.c ****     case PMU_FLAG_RESET_STANDBY:
 264:arch/riscv/mach-gd32vf10x/bsp/gd32vf103_pmu.c ****         /* reset standby flag */
 265:arch/riscv/mach-gd32vf10x/bsp/gd32vf103_pmu.c ****         PMU_CTL |= PMU_CTL_STBRST;
 604              		.loc 1 265 9
 605              		.loc 1 265 17 is_stmt 0
 606 0008 37770040 		li	a4,1073770496
 607 000c 1C43     		lw	a5,0(a4)
 608 000e 93E78700 		ori	a5,a5,8
 609 0012 1CC3     		sw	a5,0(a4)
 266:arch/riscv/mach-gd32vf10x/bsp/gd32vf103_pmu.c ****         break;
 610              		.loc 1 266 9 is_stmt 1
 267:arch/riscv/mach-gd32vf10x/bsp/gd32vf103_pmu.c ****     default :
 268:arch/riscv/mach-gd32vf10x/bsp/gd32vf103_pmu.c ****         break;
 269:arch/riscv/mach-gd32vf10x/bsp/gd32vf103_pmu.c ****     }
 270:arch/riscv/mach-gd32vf10x/bsp/gd32vf103_pmu.c **** }
 611              		.loc 1 270 1 is_stmt 0
 612 0014 8280     		ret
 613              	.L24:
 614 0016 8280     		ret
GAS LISTING C:\Users\test\AppData\Local\Temp\ccx4kfGR.s 			page 19


 615              	.L21:
 261:arch/riscv/mach-gd32vf10x/bsp/gd32vf103_pmu.c ****         break;
 616              		.loc 1 261 9 is_stmt 1
 261:arch/riscv/mach-gd32vf10x/bsp/gd32vf103_pmu.c ****         break;
 617              		.loc 1 261 17 is_stmt 0
 618 0018 37770040 		li	a4,1073770496
 619 001c 1C43     		lw	a5,0(a4)
 620 001e 93E74700 		ori	a5,a5,4
 621 0022 1CC3     		sw	a5,0(a4)
 262:arch/riscv/mach-gd32vf10x/bsp/gd32vf103_pmu.c ****     case PMU_FLAG_RESET_STANDBY:
 622              		.loc 1 262 9 is_stmt 1
 623 0024 8280     		ret
 624              		.cfi_endproc
 625              	.LFE13:
 627              		.text
 628              	.Letext0:
 629              		.file 3 "d:\\risc_v_gcc\\riscv-none-embed\\include\\machine\\_default_types.h"
 630              		.file 4 "d:\\risc_v_gcc\\riscv-none-embed\\include\\sys\\_stdint.h"
 631              		.file 5 "arch/riscv/mach-gd32vf10x/system/gd32vf103.h"
 632              		.file 6 "arch/riscv/mach-gd32vf10x/bsp/gd32vf103_rcu.h"
 633              		.file 7 "arch/riscv/mach-gd32vf10x/system/system_gd32vf103.h"
GAS LISTING C:\Users\test\AppData\Local\Temp\ccx4kfGR.s 			page 20


DEFINED SYMBOLS
                            *ABS*:0000000000000000 gd32vf103_pmu.c
C:\Users\test\AppData\Local\Temp\ccx4kfGR.s:10     .text.pmu_deinit:0000000000000000 pmu_deinit
C:\Users\test\AppData\Local\Temp\ccx4kfGR.s:14     .text.pmu_deinit:0000000000000000 .L0 
C:\Users\test\AppData\Local\Temp\ccx4kfGR.s:15     .text.pmu_deinit:0000000000000000 .L0 
C:\Users\test\AppData\Local\Temp\ccx4kfGR.s:16     .text.pmu_deinit:0000000000000000 .L0 
C:\Users\test\AppData\Local\Temp\ccx4kfGR.s:17     .text.pmu_deinit:0000000000000000 .L0 
C:\Users\test\AppData\Local\Temp\ccx4kfGR.s:19     .text.pmu_deinit:0000000000000002 .L0 
C:\Users\test\AppData\Local\Temp\ccx4kfGR.s:21     .text.pmu_deinit:0000000000000002 .L0 
C:\Users\test\AppData\Local\Temp\ccx4kfGR.s:23     .text.pmu_deinit:0000000000000006 .L0 
C:\Users\test\AppData\Local\Temp\ccx4kfGR.s:24     .text.pmu_deinit:0000000000000008 .L0 
C:\Users\test\AppData\Local\Temp\ccx4kfGR.s:26     .text.pmu_deinit:0000000000000008 .L0 
C:\Users\test\AppData\Local\Temp\ccx4kfGR.s:29     .text.pmu_deinit:0000000000000010 .L0 
C:\Users\test\AppData\Local\Temp\ccx4kfGR.s:30     .text.pmu_deinit:0000000000000010 .L0 
C:\Users\test\AppData\Local\Temp\ccx4kfGR.s:31     .text.pmu_deinit:0000000000000012 .L0 
C:\Users\test\AppData\Local\Temp\ccx4kfGR.s:33     .text.pmu_deinit:0000000000000012 .L0 
C:\Users\test\AppData\Local\Temp\ccx4kfGR.s:35     .text.pmu_deinit:0000000000000016 .L0 
C:\Users\test\AppData\Local\Temp\ccx4kfGR.s:37     .text.pmu_deinit:0000000000000018 .L0 
C:\Users\test\AppData\Local\Temp\ccx4kfGR.s:39     .text.pmu_deinit:0000000000000018 .L0 
C:\Users\test\AppData\Local\Temp\ccx4kfGR.s:41     .text.pmu_deinit:0000000000000020 .L0 
C:\Users\test\AppData\Local\Temp\ccx4kfGR.s:48     .text.pmu_lvd_select:0000000000000000 pmu_lvd_select
C:\Users\test\AppData\Local\Temp\ccx4kfGR.s:51     .text.pmu_lvd_select:0000000000000000 .L0 
C:\Users\test\AppData\Local\Temp\ccx4kfGR.s:53     .text.pmu_lvd_select:0000000000000000 .L0 
C:\Users\test\AppData\Local\Temp\ccx4kfGR.s:54     .text.pmu_lvd_select:0000000000000000 .L0 
C:\Users\test\AppData\Local\Temp\ccx4kfGR.s:55     .text.pmu_lvd_select:0000000000000000 .L0 
C:\Users\test\AppData\Local\Temp\ccx4kfGR.s:60     .text.pmu_lvd_select:000000000000000a .L0 
C:\Users\test\AppData\Local\Temp\ccx4kfGR.s:61     .text.pmu_lvd_select:000000000000000a .L0 
C:\Users\test\AppData\Local\Temp\ccx4kfGR.s:65     .text.pmu_lvd_select:0000000000000012 .L0 
C:\Users\test\AppData\Local\Temp\ccx4kfGR.s:66     .text.pmu_lvd_select:0000000000000012 .L0 
C:\Users\test\AppData\Local\Temp\ccx4kfGR.s:71     .text.pmu_lvd_select:0000000000000018 .L0 
C:\Users\test\AppData\Local\Temp\ccx4kfGR.s:72     .text.pmu_lvd_select:0000000000000018 .L0 
C:\Users\test\AppData\Local\Temp\ccx4kfGR.s:76     .text.pmu_lvd_select:0000000000000020 .L0 
C:\Users\test\AppData\Local\Temp\ccx4kfGR.s:77     .text.pmu_lvd_select:0000000000000022 .L0 
C:\Users\test\AppData\Local\Temp\ccx4kfGR.s:84     .text.pmu_lvd_disable:0000000000000000 pmu_lvd_disable
C:\Users\test\AppData\Local\Temp\ccx4kfGR.s:87     .text.pmu_lvd_disable:0000000000000000 .L0 
C:\Users\test\AppData\Local\Temp\ccx4kfGR.s:88     .text.pmu_lvd_disable:0000000000000000 .L0 
C:\Users\test\AppData\Local\Temp\ccx4kfGR.s:89     .text.pmu_lvd_disable:0000000000000000 .L0 
C:\Users\test\AppData\Local\Temp\ccx4kfGR.s:90     .text.pmu_lvd_disable:0000000000000000 .L0 
C:\Users\test\AppData\Local\Temp\ccx4kfGR.s:95     .text.pmu_lvd_disable:000000000000000a .L0 
C:\Users\test\AppData\Local\Temp\ccx4kfGR.s:96     .text.pmu_lvd_disable:000000000000000c .L0 
C:\Users\test\AppData\Local\Temp\ccx4kfGR.s:103    .text.pmu_to_sleepmode:0000000000000000 pmu_to_sleepmode
C:\Users\test\AppData\Local\Temp\ccx4kfGR.s:106    .text.pmu_to_sleepmode:0000000000000000 .L0 
C:\Users\test\AppData\Local\Temp\ccx4kfGR.s:108    .text.pmu_to_sleepmode:0000000000000000 .L0 
C:\Users\test\AppData\Local\Temp\ccx4kfGR.s:110    .text.pmu_to_sleepmode:0000000000000000 .L0 
C:\Users\test\AppData\Local\Temp\ccx4kfGR.s:111    .text.pmu_to_sleepmode:0000000000000000 .L0 
C:\Users\test\AppData\Local\Temp\ccx4kfGR.s:112    .text.pmu_to_sleepmode:0000000000000000 .L0 
arch/riscv/mach-gd32vf10x/bsp/gd32vf103_pmu.c:102    .text.pmu_to_sleepmode:0000000000000000 .L0 
C:\Users\test\AppData\Local\Temp\ccx4kfGR.s:121    .text.pmu_to_sleepmode:0000000000000004 .L0 
C:\Users\test\AppData\Local\Temp\ccx4kfGR.s:122    .text.pmu_to_sleepmode:0000000000000004 .L0 
C:\Users\test\AppData\Local\Temp\ccx4kfGR.s:123    .text.pmu_to_sleepmode:0000000000000004 .L0 
C:\Users\test\AppData\Local\Temp\ccx4kfGR.s:128    .text.pmu_to_sleepmode:0000000000000006 .L0 
arch/riscv/mach-gd32vf10x/system/n200_func.h:92     .text.pmu_to_sleepmode:0000000000000006 .L0 
C:\Users\test\AppData\Local\Temp\ccx4kfGR.s:140    .text.pmu_to_sleepmode:000000000000000c .L0 
C:\Users\test\AppData\Local\Temp\ccx4kfGR.s:141    .text.pmu_to_sleepmode:000000000000000c .L0 
C:\Users\test\AppData\Local\Temp\ccx4kfGR.s:142    .text.pmu_to_sleepmode:000000000000000c .L0 
arch/riscv/mach-gd32vf10x/bsp/gd32vf103_pmu.c:108    .text.pmu_to_sleepmode:000000000000000c .L0 
C:\Users\test\AppData\Local\Temp\ccx4kfGR.s:151    .text.pmu_to_sleepmode:0000000000000010 .L0 
GAS LISTING C:\Users\test\AppData\Local\Temp\ccx4kfGR.s 			page 21


C:\Users\test\AppData\Local\Temp\ccx4kfGR.s:153    .text.pmu_to_sleepmode:0000000000000010 .L0 
C:\Users\test\AppData\Local\Temp\ccx4kfGR.s:154    .text.pmu_to_sleepmode:0000000000000010 .L0 
C:\Users\test\AppData\Local\Temp\ccx4kfGR.s:155    .text.pmu_to_sleepmode:0000000000000010 .L0 
arch/riscv/mach-gd32vf10x/bsp/gd32vf103_pmu.c:109    .text.pmu_to_sleepmode:0000000000000010 .L0 
C:\Users\test\AppData\Local\Temp\ccx4kfGR.s:164    .text.pmu_to_sleepmode:0000000000000014 .L0 
C:\Users\test\AppData\Local\Temp\ccx4kfGR.s:167    .text.pmu_to_sleepmode:0000000000000014 .L0 
arch/riscv/mach-gd32vf10x/system/n200_func.h:92     .text.pmu_to_sleepmode:0000000000000014 .L0 
C:\Users\test\AppData\Local\Temp\ccx4kfGR.s:177    .text.pmu_to_sleepmode:0000000000000018 .L0 
C:\Users\test\AppData\Local\Temp\ccx4kfGR.s:178    .text.pmu_to_sleepmode:0000000000000018 .L0 
C:\Users\test\AppData\Local\Temp\ccx4kfGR.s:179    .text.pmu_to_sleepmode:0000000000000018 .L0 
arch/riscv/mach-gd32vf10x/bsp/gd32vf103_pmu.c:111    .text.pmu_to_sleepmode:0000000000000018 .L0 
C:\Users\test\AppData\Local\Temp\ccx4kfGR.s:188    .text.pmu_to_sleepmode:000000000000001c .L0 
C:\Users\test\AppData\Local\Temp\ccx4kfGR.s:190    .text.pmu_to_sleepmode:000000000000001c .L0 
C:\Users\test\AppData\Local\Temp\ccx4kfGR.s:191    .text.pmu_to_sleepmode:000000000000001c .L0 
C:\Users\test\AppData\Local\Temp\ccx4kfGR.s:192    .text.pmu_to_sleepmode:000000000000001c .L0 
arch/riscv/mach-gd32vf10x/bsp/gd32vf103_pmu.c:112    .text.pmu_to_sleepmode:000000000000001c .L0 
C:\Users\test\AppData\Local\Temp\ccx4kfGR.s:201    .text.pmu_to_sleepmode:0000000000000020 .L0 
C:\Users\test\AppData\Local\Temp\ccx4kfGR.s:202    .text.pmu_to_sleepmode:0000000000000020 .L0 
C:\Users\test\AppData\Local\Temp\ccx4kfGR.s:203    .text.pmu_to_sleepmode:0000000000000022 .L0 
C:\Users\test\AppData\Local\Temp\ccx4kfGR.s:210    .text.pmu_to_deepsleepmode:0000000000000000 pmu_to_deepsleepmode
C:\Users\test\AppData\Local\Temp\ccx4kfGR.s:213    .text.pmu_to_deepsleepmode:0000000000000000 .L0 
C:\Users\test\AppData\Local\Temp\ccx4kfGR.s:215    .text.pmu_to_deepsleepmode:0000000000000000 .L0 
C:\Users\test\AppData\Local\Temp\ccx4kfGR.s:216    .text.pmu_to_deepsleepmode:0000000000000000 .L0 
C:\Users\test\AppData\Local\Temp\ccx4kfGR.s:217    .text.pmu_to_deepsleepmode:0000000000000000 .L0 
C:\Users\test\AppData\Local\Temp\ccx4kfGR.s:222    .text.pmu_to_deepsleepmode:000000000000000a .L0 
C:\Users\test\AppData\Local\Temp\ccx4kfGR.s:223    .text.pmu_to_deepsleepmode:000000000000000a .L0 
C:\Users\test\AppData\Local\Temp\ccx4kfGR.s:229    .text.pmu_to_deepsleepmode:0000000000000010 .L0 
C:\Users\test\AppData\Local\Temp\ccx4kfGR.s:230    .text.pmu_to_deepsleepmode:0000000000000010 .L0 
C:\Users\test\AppData\Local\Temp\ccx4kfGR.s:231    .text.pmu_to_deepsleepmode:0000000000000010 .L0 
arch/riscv/mach-gd32vf10x/bsp/gd32vf103_pmu.c:136    .text.pmu_to_deepsleepmode:0000000000000010 .L0 
C:\Users\test\AppData\Local\Temp\ccx4kfGR.s:240    .text.pmu_to_deepsleepmode:0000000000000014 .L0 
C:\Users\test\AppData\Local\Temp\ccx4kfGR.s:241    .text.pmu_to_deepsleepmode:0000000000000014 .L0 
C:\Users\test\AppData\Local\Temp\ccx4kfGR.s:242    .text.pmu_to_deepsleepmode:0000000000000014 .L0 
C:\Users\test\AppData\Local\Temp\ccx4kfGR.s:246    .text.pmu_to_deepsleepmode:0000000000000016 .L0 
arch/riscv/mach-gd32vf10x/system/n200_func.h:92     .text.pmu_to_deepsleepmode:0000000000000016 .L0 
C:\Users\test\AppData\Local\Temp\ccx4kfGR.s:256    .text.pmu_to_deepsleepmode:000000000000001a .L0 
C:\Users\test\AppData\Local\Temp\ccx4kfGR.s:257    .text.pmu_to_deepsleepmode:000000000000001a .L0 
C:\Users\test\AppData\Local\Temp\ccx4kfGR.s:258    .text.pmu_to_deepsleepmode:000000000000001a .L0 
arch/riscv/mach-gd32vf10x/bsp/gd32vf103_pmu.c:148    .text.pmu_to_deepsleepmode:000000000000001a .L0 
C:\Users\test\AppData\Local\Temp\ccx4kfGR.s:267    .text.pmu_to_deepsleepmode:000000000000001e .L0 
C:\Users\test\AppData\Local\Temp\ccx4kfGR.s:268    .text.pmu_to_deepsleepmode:000000000000001e .L0 
C:\Users\test\AppData\Local\Temp\ccx4kfGR.s:272    .text.pmu_to_deepsleepmode:0000000000000020 .L0 
C:\Users\test\AppData\Local\Temp\ccx4kfGR.s:273    .text.pmu_to_deepsleepmode:0000000000000020 .L0 
C:\Users\test\AppData\Local\Temp\ccx4kfGR.s:274    .text.pmu_to_deepsleepmode:0000000000000020 .L0 
arch/riscv/mach-gd32vf10x/bsp/gd32vf103_pmu.c:141    .text.pmu_to_deepsleepmode:0000000000000020 .L0 
C:\Users\test\AppData\Local\Temp\ccx4kfGR.s:283    .text.pmu_to_deepsleepmode:0000000000000024 .L0 
C:\Users\test\AppData\Local\Temp\ccx4kfGR.s:285    .text.pmu_to_deepsleepmode:0000000000000024 .L0 
C:\Users\test\AppData\Local\Temp\ccx4kfGR.s:286    .text.pmu_to_deepsleepmode:0000000000000024 .L0 
C:\Users\test\AppData\Local\Temp\ccx4kfGR.s:287    .text.pmu_to_deepsleepmode:0000000000000024 .L0 
arch/riscv/mach-gd32vf10x/bsp/gd32vf103_pmu.c:142    .text.pmu_to_deepsleepmode:0000000000000024 .L0 
C:\Users\test\AppData\Local\Temp\ccx4kfGR.s:296    .text.pmu_to_deepsleepmode:0000000000000028 .L0 
C:\Users\test\AppData\Local\Temp\ccx4kfGR.s:299    .text.pmu_to_deepsleepmode:0000000000000028 .L0 
arch/riscv/mach-gd32vf10x/system/n200_func.h:92     .text.pmu_to_deepsleepmode:0000000000000028 .L0 
C:\Users\test\AppData\Local\Temp\ccx4kfGR.s:309    .text.pmu_to_deepsleepmode:000000000000002c .L0 
C:\Users\test\AppData\Local\Temp\ccx4kfGR.s:310    .text.pmu_to_deepsleepmode:000000000000002c .L0 
C:\Users\test\AppData\Local\Temp\ccx4kfGR.s:311    .text.pmu_to_deepsleepmode:000000000000002c .L0 
arch/riscv/mach-gd32vf10x/bsp/gd32vf103_pmu.c:144    .text.pmu_to_deepsleepmode:000000000000002c .L0 
GAS LISTING C:\Users\test\AppData\Local\Temp\ccx4kfGR.s 			page 22


C:\Users\test\AppData\Local\Temp\ccx4kfGR.s:320    .text.pmu_to_deepsleepmode:0000000000000030 .L0 
C:\Users\test\AppData\Local\Temp\ccx4kfGR.s:322    .text.pmu_to_deepsleepmode:0000000000000030 .L0 
C:\Users\test\AppData\Local\Temp\ccx4kfGR.s:323    .text.pmu_to_deepsleepmode:0000000000000030 .L0 
C:\Users\test\AppData\Local\Temp\ccx4kfGR.s:324    .text.pmu_to_deepsleepmode:0000000000000030 .L0 
arch/riscv/mach-gd32vf10x/bsp/gd32vf103_pmu.c:145    .text.pmu_to_deepsleepmode:0000000000000030 .L0 
C:\Users\test\AppData\Local\Temp\ccx4kfGR.s:333    .text.pmu_to_deepsleepmode:0000000000000034 .L0 
C:\Users\test\AppData\Local\Temp\ccx4kfGR.s:335    .text.pmu_to_deepsleepmode:0000000000000034 .L0 
C:\Users\test\AppData\Local\Temp\ccx4kfGR.s:336    .text.pmu_to_deepsleepmode:0000000000000034 .L0 
C:\Users\test\AppData\Local\Temp\ccx4kfGR.s:337    .text.pmu_to_deepsleepmode:0000000000000034 .L0 
arch/riscv/mach-gd32vf10x/bsp/gd32vf103_pmu.c:148    .text.pmu_to_deepsleepmode:0000000000000034 .L0 
C:\Users\test\AppData\Local\Temp\ccx4kfGR.s:345    .text.pmu_to_deepsleepmode:0000000000000038 .L0 
C:\Users\test\AppData\Local\Temp\ccx4kfGR.s:346    .text.pmu_to_deepsleepmode:0000000000000038 .L0 
C:\Users\test\AppData\Local\Temp\ccx4kfGR.s:347    .text.pmu_to_deepsleepmode:000000000000003a .L0 
C:\Users\test\AppData\Local\Temp\ccx4kfGR.s:354    .text.pmu_to_standbymode:0000000000000000 pmu_to_standbymode
C:\Users\test\AppData\Local\Temp\ccx4kfGR.s:357    .text.pmu_to_standbymode:0000000000000000 .L0 
C:\Users\test\AppData\Local\Temp\ccx4kfGR.s:359    .text.pmu_to_standbymode:0000000000000000 .L0 
C:\Users\test\AppData\Local\Temp\ccx4kfGR.s:361    .text.pmu_to_standbymode:0000000000000000 .L0 
C:\Users\test\AppData\Local\Temp\ccx4kfGR.s:362    .text.pmu_to_standbymode:0000000000000000 .L0 
C:\Users\test\AppData\Local\Temp\ccx4kfGR.s:363    .text.pmu_to_standbymode:0000000000000000 .L0 
arch/riscv/mach-gd32vf10x/bsp/gd32vf103_pmu.c:163    .text.pmu_to_standbymode:0000000000000000 .L0 
C:\Users\test\AppData\Local\Temp\ccx4kfGR.s:372    .text.pmu_to_standbymode:0000000000000004 .L0 
C:\Users\test\AppData\Local\Temp\ccx4kfGR.s:373    .text.pmu_to_standbymode:0000000000000004 .L0 
C:\Users\test\AppData\Local\Temp\ccx4kfGR.s:374    .text.pmu_to_standbymode:0000000000000004 .L0 
C:\Users\test\AppData\Local\Temp\ccx4kfGR.s:379    .text.pmu_to_standbymode:0000000000000010 .L0 
C:\Users\test\AppData\Local\Temp\ccx4kfGR.s:380    .text.pmu_to_standbymode:0000000000000010 .L0 
C:\Users\test\AppData\Local\Temp\ccx4kfGR.s:384    .text.pmu_to_standbymode:0000000000000018 .L0 
C:\Users\test\AppData\Local\Temp\ccx4kfGR.s:385    .text.pmu_to_standbymode:0000000000000018 .L0 
C:\Users\test\AppData\Local\Temp\ccx4kfGR.s:389    .text.pmu_to_standbymode:000000000000001a .L0 
arch/riscv/mach-gd32vf10x/system/n200_func.h:92     .text.pmu_to_standbymode:000000000000001a .L0 
C:\Users\test\AppData\Local\Temp\ccx4kfGR.s:399    .text.pmu_to_standbymode:000000000000001e .L0 
C:\Users\test\AppData\Local\Temp\ccx4kfGR.s:400    .text.pmu_to_standbymode:000000000000001e .L0 
C:\Users\test\AppData\Local\Temp\ccx4kfGR.s:401    .text.pmu_to_standbymode:000000000000001e .L0 
arch/riscv/mach-gd32vf10x/bsp/gd32vf103_pmu.c:181    .text.pmu_to_standbymode:000000000000001e .L0 
C:\Users\test\AppData\Local\Temp\ccx4kfGR.s:410    .text.pmu_to_standbymode:0000000000000022 .L0 
C:\Users\test\AppData\Local\Temp\ccx4kfGR.s:411    .text.pmu_to_standbymode:0000000000000022 .L0 
C:\Users\test\AppData\Local\Temp\ccx4kfGR.s:415    .text.pmu_to_standbymode:0000000000000024 .L0 
C:\Users\test\AppData\Local\Temp\ccx4kfGR.s:416    .text.pmu_to_standbymode:0000000000000024 .L0 
C:\Users\test\AppData\Local\Temp\ccx4kfGR.s:417    .text.pmu_to_standbymode:0000000000000024 .L0 
arch/riscv/mach-gd32vf10x/bsp/gd32vf103_pmu.c:175    .text.pmu_to_standbymode:0000000000000024 .L0 
C:\Users\test\AppData\Local\Temp\ccx4kfGR.s:426    .text.pmu_to_standbymode:0000000000000028 .L0 
C:\Users\test\AppData\Local\Temp\ccx4kfGR.s:428    .text.pmu_to_standbymode:0000000000000028 .L0 
C:\Users\test\AppData\Local\Temp\ccx4kfGR.s:429    .text.pmu_to_standbymode:0000000000000028 .L0 
C:\Users\test\AppData\Local\Temp\ccx4kfGR.s:430    .text.pmu_to_standbymode:0000000000000028 .L0 
arch/riscv/mach-gd32vf10x/bsp/gd32vf103_pmu.c:176    .text.pmu_to_standbymode:0000000000000028 .L0 
C:\Users\test\AppData\Local\Temp\ccx4kfGR.s:439    .text.pmu_to_standbymode:000000000000002c .L0 
C:\Users\test\AppData\Local\Temp\ccx4kfGR.s:442    .text.pmu_to_standbymode:000000000000002c .L0 
arch/riscv/mach-gd32vf10x/system/n200_func.h:92     .text.pmu_to_standbymode:000000000000002c .L0 
C:\Users\test\AppData\Local\Temp\ccx4kfGR.s:452    .text.pmu_to_standbymode:0000000000000030 .L0 
C:\Users\test\AppData\Local\Temp\ccx4kfGR.s:453    .text.pmu_to_standbymode:0000000000000030 .L0 
C:\Users\test\AppData\Local\Temp\ccx4kfGR.s:454    .text.pmu_to_standbymode:0000000000000030 .L0 
arch/riscv/mach-gd32vf10x/bsp/gd32vf103_pmu.c:178    .text.pmu_to_standbymode:0000000000000030 .L0 
C:\Users\test\AppData\Local\Temp\ccx4kfGR.s:463    .text.pmu_to_standbymode:0000000000000034 .L0 
C:\Users\test\AppData\Local\Temp\ccx4kfGR.s:465    .text.pmu_to_standbymode:0000000000000034 .L0 
C:\Users\test\AppData\Local\Temp\ccx4kfGR.s:466    .text.pmu_to_standbymode:0000000000000034 .L0 
C:\Users\test\AppData\Local\Temp\ccx4kfGR.s:467    .text.pmu_to_standbymode:0000000000000034 .L0 
arch/riscv/mach-gd32vf10x/bsp/gd32vf103_pmu.c:179    .text.pmu_to_standbymode:0000000000000034 .L0 
C:\Users\test\AppData\Local\Temp\ccx4kfGR.s:476    .text.pmu_to_standbymode:0000000000000038 .L0 
GAS LISTING C:\Users\test\AppData\Local\Temp\ccx4kfGR.s 			page 23


C:\Users\test\AppData\Local\Temp\ccx4kfGR.s:478    .text.pmu_to_standbymode:0000000000000038 .L0 
C:\Users\test\AppData\Local\Temp\ccx4kfGR.s:479    .text.pmu_to_standbymode:0000000000000038 .L0 
C:\Users\test\AppData\Local\Temp\ccx4kfGR.s:480    .text.pmu_to_standbymode:0000000000000038 .L0 
arch/riscv/mach-gd32vf10x/bsp/gd32vf103_pmu.c:181    .text.pmu_to_standbymode:0000000000000038 .L0 
C:\Users\test\AppData\Local\Temp\ccx4kfGR.s:488    .text.pmu_to_standbymode:000000000000003c .L0 
C:\Users\test\AppData\Local\Temp\ccx4kfGR.s:489    .text.pmu_to_standbymode:000000000000003c .L0 
C:\Users\test\AppData\Local\Temp\ccx4kfGR.s:490    .text.pmu_to_standbymode:000000000000003e .L0 
C:\Users\test\AppData\Local\Temp\ccx4kfGR.s:497    .text.pmu_wakeup_pin_enable:0000000000000000 pmu_wakeup_pin_enable
C:\Users\test\AppData\Local\Temp\ccx4kfGR.s:500    .text.pmu_wakeup_pin_enable:0000000000000000 .L0 
C:\Users\test\AppData\Local\Temp\ccx4kfGR.s:501    .text.pmu_wakeup_pin_enable:0000000000000000 .L0 
C:\Users\test\AppData\Local\Temp\ccx4kfGR.s:502    .text.pmu_wakeup_pin_enable:0000000000000000 .L0 
C:\Users\test\AppData\Local\Temp\ccx4kfGR.s:503    .text.pmu_wakeup_pin_enable:0000000000000000 .L0 
C:\Users\test\AppData\Local\Temp\ccx4kfGR.s:508    .text.pmu_wakeup_pin_enable:000000000000000c .L0 
C:\Users\test\AppData\Local\Temp\ccx4kfGR.s:509    .text.pmu_wakeup_pin_enable:000000000000000e .L0 
C:\Users\test\AppData\Local\Temp\ccx4kfGR.s:516    .text.pmu_wakeup_pin_disable:0000000000000000 pmu_wakeup_pin_disable
C:\Users\test\AppData\Local\Temp\ccx4kfGR.s:519    .text.pmu_wakeup_pin_disable:0000000000000000 .L0 
C:\Users\test\AppData\Local\Temp\ccx4kfGR.s:520    .text.pmu_wakeup_pin_disable:0000000000000000 .L0 
C:\Users\test\AppData\Local\Temp\ccx4kfGR.s:521    .text.pmu_wakeup_pin_disable:0000000000000000 .L0 
C:\Users\test\AppData\Local\Temp\ccx4kfGR.s:522    .text.pmu_wakeup_pin_disable:0000000000000000 .L0 
C:\Users\test\AppData\Local\Temp\ccx4kfGR.s:527    .text.pmu_wakeup_pin_disable:000000000000000c .L0 
C:\Users\test\AppData\Local\Temp\ccx4kfGR.s:528    .text.pmu_wakeup_pin_disable:000000000000000e .L0 
C:\Users\test\AppData\Local\Temp\ccx4kfGR.s:535    .text.pmu_backup_write_enable:0000000000000000 pmu_backup_write_enable
C:\Users\test\AppData\Local\Temp\ccx4kfGR.s:538    .text.pmu_backup_write_enable:0000000000000000 .L0 
C:\Users\test\AppData\Local\Temp\ccx4kfGR.s:539    .text.pmu_backup_write_enable:0000000000000000 .L0 
C:\Users\test\AppData\Local\Temp\ccx4kfGR.s:540    .text.pmu_backup_write_enable:0000000000000000 .L0 
C:\Users\test\AppData\Local\Temp\ccx4kfGR.s:541    .text.pmu_backup_write_enable:0000000000000000 .L0 
C:\Users\test\AppData\Local\Temp\ccx4kfGR.s:546    .text.pmu_backup_write_enable:000000000000000c .L0 
C:\Users\test\AppData\Local\Temp\ccx4kfGR.s:547    .text.pmu_backup_write_enable:000000000000000e .L0 
C:\Users\test\AppData\Local\Temp\ccx4kfGR.s:554    .text.pmu_backup_write_disable:0000000000000000 pmu_backup_write_disable
C:\Users\test\AppData\Local\Temp\ccx4kfGR.s:557    .text.pmu_backup_write_disable:0000000000000000 .L0 
C:\Users\test\AppData\Local\Temp\ccx4kfGR.s:558    .text.pmu_backup_write_disable:0000000000000000 .L0 
C:\Users\test\AppData\Local\Temp\ccx4kfGR.s:559    .text.pmu_backup_write_disable:0000000000000000 .L0 
C:\Users\test\AppData\Local\Temp\ccx4kfGR.s:560    .text.pmu_backup_write_disable:0000000000000000 .L0 
C:\Users\test\AppData\Local\Temp\ccx4kfGR.s:565    .text.pmu_backup_write_disable:000000000000000c .L0 
C:\Users\test\AppData\Local\Temp\ccx4kfGR.s:566    .text.pmu_backup_write_disable:000000000000000e .L0 
C:\Users\test\AppData\Local\Temp\ccx4kfGR.s:573    .text.pmu_flag_get:0000000000000000 pmu_flag_get
C:\Users\test\AppData\Local\Temp\ccx4kfGR.s:576    .text.pmu_flag_get:0000000000000000 .L0 
C:\Users\test\AppData\Local\Temp\ccx4kfGR.s:578    .text.pmu_flag_get:0000000000000000 .L0 
C:\Users\test\AppData\Local\Temp\ccx4kfGR.s:579    .text.pmu_flag_get:0000000000000000 .L0 
C:\Users\test\AppData\Local\Temp\ccx4kfGR.s:580    .text.pmu_flag_get:0000000000000000 .L0 
C:\Users\test\AppData\Local\Temp\ccx4kfGR.s:583    .text.pmu_flag_get:0000000000000006 .L0 
C:\Users\test\AppData\Local\Temp\ccx4kfGR.s:586    .text.pmu_flag_get:0000000000000008 .L0 
C:\Users\test\AppData\Local\Temp\ccx4kfGR.s:588    .text.pmu_flag_get:000000000000000e .L0 
C:\Users\test\AppData\Local\Temp\ccx4kfGR.s:595    .text.pmu_flag_clear:0000000000000000 pmu_flag_clear
C:\Users\test\AppData\Local\Temp\ccx4kfGR.s:598    .text.pmu_flag_clear:0000000000000000 .L0 
C:\Users\test\AppData\Local\Temp\ccx4kfGR.s:600    .text.pmu_flag_clear:0000000000000000 .L0 
C:\Users\test\AppData\Local\Temp\ccx4kfGR.s:601    .text.pmu_flag_clear:0000000000000000 .L0 
C:\Users\test\AppData\Local\Temp\ccx4kfGR.s:605    .text.pmu_flag_clear:0000000000000008 .L0 
C:\Users\test\AppData\Local\Temp\ccx4kfGR.s:606    .text.pmu_flag_clear:0000000000000008 .L0 
C:\Users\test\AppData\Local\Temp\ccx4kfGR.s:611    .text.pmu_flag_clear:0000000000000014 .L0 
C:\Users\test\AppData\Local\Temp\ccx4kfGR.s:612    .text.pmu_flag_clear:0000000000000014 .L0 
C:\Users\test\AppData\Local\Temp\ccx4kfGR.s:617    .text.pmu_flag_clear:0000000000000018 .L0 
C:\Users\test\AppData\Local\Temp\ccx4kfGR.s:618    .text.pmu_flag_clear:0000000000000018 .L0 
C:\Users\test\AppData\Local\Temp\ccx4kfGR.s:623    .text.pmu_flag_clear:0000000000000024 .L0 
C:\Users\test\AppData\Local\Temp\ccx4kfGR.s:624    .text.pmu_flag_clear:0000000000000026 .L0 
C:\Users\test\AppData\Local\Temp\ccx4kfGR.s:44     .text.pmu_deinit:0000000000000020 .L0 
C:\Users\test\AppData\Local\Temp\ccx4kfGR.s:80     .text.pmu_lvd_select:0000000000000022 .L0 
GAS LISTING C:\Users\test\AppData\Local\Temp\ccx4kfGR.s 			page 24


C:\Users\test\AppData\Local\Temp\ccx4kfGR.s:99     .text.pmu_lvd_disable:000000000000000c .L0 
C:\Users\test\AppData\Local\Temp\ccx4kfGR.s:206    .text.pmu_to_sleepmode:0000000000000022 .L0 
C:\Users\test\AppData\Local\Temp\ccx4kfGR.s:350    .text.pmu_to_deepsleepmode:000000000000003a .L0 
C:\Users\test\AppData\Local\Temp\ccx4kfGR.s:493    .text.pmu_to_standbymode:000000000000003e .L0 
C:\Users\test\AppData\Local\Temp\ccx4kfGR.s:512    .text.pmu_wakeup_pin_enable:000000000000000e .L0 
C:\Users\test\AppData\Local\Temp\ccx4kfGR.s:531    .text.pmu_wakeup_pin_disable:000000000000000e .L0 
C:\Users\test\AppData\Local\Temp\ccx4kfGR.s:550    .text.pmu_backup_write_enable:000000000000000e .L0 
C:\Users\test\AppData\Local\Temp\ccx4kfGR.s:569    .text.pmu_backup_write_disable:000000000000000e .L0 
C:\Users\test\AppData\Local\Temp\ccx4kfGR.s:591    .text.pmu_flag_get:000000000000000e .L0 
C:\Users\test\AppData\Local\Temp\ccx4kfGR.s:627    .text.pmu_flag_clear:0000000000000026 .L0 
                     .debug_frame:0000000000000000 .L0 
C:\Users\test\AppData\Local\Temp\ccx4kfGR.s:135    .text.pmu_to_sleepmode:000000000000000c .L7
C:\Users\test\AppData\Local\Temp\ccx4kfGR.s:269    .text.pmu_to_deepsleepmode:0000000000000020 .L10
C:\Users\test\AppData\Local\Temp\ccx4kfGR.s:412    .text.pmu_to_standbymode:0000000000000024 .L13
C:\Users\test\AppData\Local\Temp\ccx4kfGR.s:615    .text.pmu_flag_clear:0000000000000018 .L21
C:\Users\test\AppData\Local\Temp\ccx4kfGR.s:613    .text.pmu_flag_clear:0000000000000016 .L24
C:\Users\test\AppData\Local\Temp\ccx4kfGR.s:1346   .debug_abbrev:0000000000000000 .Ldebug_abbrev0
C:\Users\test\AppData\Local\Temp\ccx4kfGR.s:2030   .debug_str:0000000000000220 .LASF67
C:\Users\test\AppData\Local\Temp\ccx4kfGR.s:2020   .debug_str:00000000000001b9 .LASF68
C:\Users\test\AppData\Local\Temp\ccx4kfGR.s:1998   .debug_str:000000000000010e .LASF69
C:\Users\test\AppData\Local\Temp\ccx4kfGR.s:1918   .debug_ranges:0000000000000000 .Ldebug_ranges0
C:\Users\test\AppData\Local\Temp\ccx4kfGR.s:1958   .debug_line:0000000000000000 .Ldebug_line0
C:\Users\test\AppData\Local\Temp\ccx4kfGR.s:2042   .debug_str:00000000000002de .LASF0
C:\Users\test\AppData\Local\Temp\ccx4kfGR.s:2032   .debug_str:000000000000029a .LASF1
C:\Users\test\AppData\Local\Temp\ccx4kfGR.s:2014   .debug_str:0000000000000196 .LASF6
C:\Users\test\AppData\Local\Temp\ccx4kfGR.s:2024   .debug_str:00000000000001f5 .LASF2
C:\Users\test\AppData\Local\Temp\ccx4kfGR.s:1988   .debug_str:00000000000000c4 .LASF3
C:\Users\test\AppData\Local\Temp\ccx4kfGR.s:2048   .debug_str:0000000000000304 .LASF4
C:\Users\test\AppData\Local\Temp\ccx4kfGR.s:2008   .debug_str:000000000000016f .LASF5
C:\Users\test\AppData\Local\Temp\ccx4kfGR.s:1984   .debug_str:00000000000000ab .LASF7
C:\Users\test\AppData\Local\Temp\ccx4kfGR.s:2010   .debug_str:0000000000000178 .LASF8
C:\Users\test\AppData\Local\Temp\ccx4kfGR.s:2006   .debug_str:0000000000000161 .LASF9
C:\Users\test\AppData\Local\Temp\ccx4kfGR.s:2036   .debug_str:00000000000002b1 .LASF10
C:\Users\test\AppData\Local\Temp\ccx4kfGR.s:1994   .debug_str:00000000000000f0 .LASF11
C:\Users\test\AppData\Local\Temp\ccx4kfGR.s:2040   .debug_str:00000000000002d5 .LASF12
C:\Users\test\AppData\Local\Temp\ccx4kfGR.s:2056   .debug_str:0000000000000340 .LASF70
C:\Users\test\AppData\Local\Temp\ccx4kfGR.s:2076   .debug_str:00000000000003ce .LASF13
C:\Users\test\AppData\Local\Temp\ccx4kfGR.s:2096   .debug_str:0000000000000455 .LASF14
C:\Users\test\AppData\Local\Temp\ccx4kfGR.s:1966   .debug_str:0000000000000036 .LASF15
C:\Users\test\AppData\Local\Temp\ccx4kfGR.s:2052   .debug_str:0000000000000324 .LASF16
C:\Users\test\AppData\Local\Temp\ccx4kfGR.s:2000   .debug_str:000000000000013a .LASF17
C:\Users\test\AppData\Local\Temp\ccx4kfGR.s:1986   .debug_str:00000000000000b6 .LASF18
C:\Users\test\AppData\Local\Temp\ccx4kfGR.s:2018   .debug_str:00000000000001ab .LASF19
C:\Users\test\AppData\Local\Temp\ccx4kfGR.s:2054   .debug_str:0000000000000332 .LASF20
C:\Users\test\AppData\Local\Temp\ccx4kfGR.s:2094   .debug_str:0000000000000447 .LASF21
C:\Users\test\AppData\Local\Temp\ccx4kfGR.s:2104   .debug_str:0000000000000489 .LASF22
C:\Users\test\AppData\Local\Temp\ccx4kfGR.s:1980   .debug_str:0000000000000086 .LASF23
C:\Users\test\AppData\Local\Temp\ccx4kfGR.s:2012   .debug_str:000000000000018a .LASF24
C:\Users\test\AppData\Local\Temp\ccx4kfGR.s:2062   .debug_str:0000000000000377 .LASF25
C:\Users\test\AppData\Local\Temp\ccx4kfGR.s:2102   .debug_str:000000000000047b .LASF26
C:\Users\test\AppData\Local\Temp\ccx4kfGR.s:2066   .debug_str:000000000000038c .LASF27
C:\Users\test\AppData\Local\Temp\ccx4kfGR.s:1968   .debug_str:0000000000000043 .LASF28
C:\Users\test\AppData\Local\Temp\ccx4kfGR.s:2100   .debug_str:000000000000046f .LASF29
C:\Users\test\AppData\Local\Temp\ccx4kfGR.s:2070   .debug_str:00000000000003a6 .LASF30
C:\Users\test\AppData\Local\Temp\ccx4kfGR.s:1972   .debug_str:000000000000005d .LASF31
C:\Users\test\AppData\Local\Temp\ccx4kfGR.s:2004   .debug_str:0000000000000155 .LASF32
C:\Users\test\AppData\Local\Temp\ccx4kfGR.s:1978   .debug_str:000000000000007a .LASF33
GAS LISTING C:\Users\test\AppData\Local\Temp\ccx4kfGR.s 			page 25


C:\Users\test\AppData\Local\Temp\ccx4kfGR.s:2072   .debug_str:00000000000003b2 .LASF34
C:\Users\test\AppData\Local\Temp\ccx4kfGR.s:2034   .debug_str:00000000000002a6 .LASF35
C:\Users\test\AppData\Local\Temp\ccx4kfGR.s:2026   .debug_str:0000000000000203 .LASF36
C:\Users\test\AppData\Local\Temp\ccx4kfGR.s:2038   .debug_str:00000000000002c8 .LASF37
C:\Users\test\AppData\Local\Temp\ccx4kfGR.s:2068   .debug_str:0000000000000399 .LASF38
C:\Users\test\AppData\Local\Temp\ccx4kfGR.s:1970   .debug_str:0000000000000050 .LASF39
C:\Users\test\AppData\Local\Temp\ccx4kfGR.s:2002   .debug_str:0000000000000148 .LASF40
C:\Users\test\AppData\Local\Temp\ccx4kfGR.s:2044   .debug_str:00000000000002eb .LASF41
C:\Users\test\AppData\Local\Temp\ccx4kfGR.s:2046   .debug_str:00000000000002f8 .LASF42
C:\Users\test\AppData\Local\Temp\ccx4kfGR.s:2078   .debug_str:00000000000003d4 .LASF43
C:\Users\test\AppData\Local\Temp\ccx4kfGR.s:1962   .debug_str:0000000000000019 .LASF44
C:\Users\test\AppData\Local\Temp\ccx4kfGR.s:2082   .debug_str:00000000000003f8 .LASF45
C:\Users\test\AppData\Local\Temp\ccx4kfGR.s:2022   .debug_str:00000000000001e7 .LASF46
C:\Users\test\AppData\Local\Temp\ccx4kfGR.s:2098   .debug_str:0000000000000460 .LASF53
C:\Users\test\AppData\Local\Temp\ccx4kfGR.s:596    .text.pmu_flag_clear:0000000000000000 .LFB13
C:\Users\test\AppData\Local\Temp\ccx4kfGR.s:625    .text.pmu_flag_clear:0000000000000026 .LFE13
C:\Users\test\AppData\Local\Temp\ccx4kfGR.s:2016   .debug_str:00000000000001a0 .LASF47
C:\Users\test\AppData\Local\Temp\ccx4kfGR.s:1990   .debug_str:00000000000000ce .LASF71
C:\Users\test\AppData\Local\Temp\ccx4kfGR.s:574    .text.pmu_flag_get:0000000000000000 .LFB12
C:\Users\test\AppData\Local\Temp\ccx4kfGR.s:589    .text.pmu_flag_get:000000000000000e .LFE12
C:\Users\test\AppData\Local\Temp\ccx4kfGR.s:2088   .debug_str:000000000000041b .LASF48
C:\Users\test\AppData\Local\Temp\ccx4kfGR.s:1823   .debug_loc:0000000000000000 .LLST3
C:\Users\test\AppData\Local\Temp\ccx4kfGR.s:1960   .debug_str:0000000000000000 .LASF49
C:\Users\test\AppData\Local\Temp\ccx4kfGR.s:555    .text.pmu_backup_write_disable:0000000000000000 .LFB11
C:\Users\test\AppData\Local\Temp\ccx4kfGR.s:567    .text.pmu_backup_write_disable:000000000000000e .LFE11
C:\Users\test\AppData\Local\Temp\ccx4kfGR.s:2080   .debug_str:00000000000003e0 .LASF50
C:\Users\test\AppData\Local\Temp\ccx4kfGR.s:536    .text.pmu_backup_write_enable:0000000000000000 .LFB10
C:\Users\test\AppData\Local\Temp\ccx4kfGR.s:548    .text.pmu_backup_write_enable:000000000000000e .LFE10
C:\Users\test\AppData\Local\Temp\ccx4kfGR.s:2058   .debug_str:0000000000000350 .LASF51
C:\Users\test\AppData\Local\Temp\ccx4kfGR.s:517    .text.pmu_wakeup_pin_disable:0000000000000000 .LFB9
C:\Users\test\AppData\Local\Temp\ccx4kfGR.s:529    .text.pmu_wakeup_pin_disable:000000000000000e .LFE9
C:\Users\test\AppData\Local\Temp\ccx4kfGR.s:1996   .debug_str:00000000000000f8 .LASF52
C:\Users\test\AppData\Local\Temp\ccx4kfGR.s:498    .text.pmu_wakeup_pin_enable:0000000000000000 .LFB8
C:\Users\test\AppData\Local\Temp\ccx4kfGR.s:510    .text.pmu_wakeup_pin_enable:000000000000000e .LFE8
C:\Users\test\AppData\Local\Temp\ccx4kfGR.s:2028   .debug_str:000000000000020d .LASF54
C:\Users\test\AppData\Local\Temp\ccx4kfGR.s:355    .text.pmu_to_standbymode:0000000000000000 .LFB7
C:\Users\test\AppData\Local\Temp\ccx4kfGR.s:491    .text.pmu_to_standbymode:000000000000003e .LFE7
C:\Users\test\AppData\Local\Temp\ccx4kfGR.s:2090   .debug_str:0000000000000420 .LASF55
C:\Users\test\AppData\Local\Temp\ccx4kfGR.s:360    .text.pmu_to_standbymode:0000000000000000 .LBB51
C:\Users\test\AppData\Local\Temp\ccx4kfGR.s:371    .text.pmu_to_standbymode:0000000000000004 .LBE51
C:\Users\test\AppData\Local\Temp\ccx4kfGR.s:1976   .debug_str:0000000000000074 .LASF56
C:\Users\test\AppData\Local\Temp\ccx4kfGR.s:414    .text.pmu_to_standbymode:0000000000000024 .LBB55
C:\Users\test\AppData\Local\Temp\ccx4kfGR.s:425    .text.pmu_to_standbymode:0000000000000028 .LBE55
C:\Users\test\AppData\Local\Temp\ccx4kfGR.s:427    .text.pmu_to_standbymode:0000000000000028 .LBB56
C:\Users\test\AppData\Local\Temp\ccx4kfGR.s:438    .text.pmu_to_standbymode:000000000000002c .LBE56
C:\Users\test\AppData\Local\Temp\ccx4kfGR.s:451    .text.pmu_to_standbymode:0000000000000030 .LBB59
C:\Users\test\AppData\Local\Temp\ccx4kfGR.s:462    .text.pmu_to_standbymode:0000000000000034 .LBE59
C:\Users\test\AppData\Local\Temp\ccx4kfGR.s:464    .text.pmu_to_standbymode:0000000000000034 .LBB60
C:\Users\test\AppData\Local\Temp\ccx4kfGR.s:475    .text.pmu_to_standbymode:0000000000000038 .LBE60
C:\Users\test\AppData\Local\Temp\ccx4kfGR.s:387    .text.pmu_to_standbymode:000000000000001a .LBB52
C:\Users\test\AppData\Local\Temp\ccx4kfGR.s:396    .text.pmu_to_standbymode:000000000000001e .LBE52
C:\Users\test\AppData\Local\Temp\ccx4kfGR.s:440    .text.pmu_to_standbymode:000000000000002c .LBB57
C:\Users\test\AppData\Local\Temp\ccx4kfGR.s:449    .text.pmu_to_standbymode:0000000000000030 .LBE57
C:\Users\test\AppData\Local\Temp\ccx4kfGR.s:1992   .debug_str:00000000000000db .LASF57
C:\Users\test\AppData\Local\Temp\ccx4kfGR.s:211    .text.pmu_to_deepsleepmode:0000000000000000 .LFB6
C:\Users\test\AppData\Local\Temp\ccx4kfGR.s:348    .text.pmu_to_deepsleepmode:000000000000003a .LFE6
C:\Users\test\AppData\Local\Temp\ccx4kfGR.s:1837   .debug_loc:0000000000000021 .LLST2
GAS LISTING C:\Users\test\AppData\Local\Temp\ccx4kfGR.s 			page 26


C:\Users\test\AppData\Local\Temp\ccx4kfGR.s:2084   .debug_str:0000000000000404 .LASF58
C:\Users\test\AppData\Local\Temp\ccx4kfGR.s:228    .text.pmu_to_deepsleepmode:0000000000000010 .LBB40
C:\Users\test\AppData\Local\Temp\ccx4kfGR.s:239    .text.pmu_to_deepsleepmode:0000000000000014 .LBE40
C:\Users\test\AppData\Local\Temp\ccx4kfGR.s:271    .text.pmu_to_deepsleepmode:0000000000000020 .LBB44
C:\Users\test\AppData\Local\Temp\ccx4kfGR.s:282    .text.pmu_to_deepsleepmode:0000000000000024 .LBE44
C:\Users\test\AppData\Local\Temp\ccx4kfGR.s:284    .text.pmu_to_deepsleepmode:0000000000000024 .LBB45
C:\Users\test\AppData\Local\Temp\ccx4kfGR.s:295    .text.pmu_to_deepsleepmode:0000000000000028 .LBE45
C:\Users\test\AppData\Local\Temp\ccx4kfGR.s:308    .text.pmu_to_deepsleepmode:000000000000002c .LBB48
C:\Users\test\AppData\Local\Temp\ccx4kfGR.s:319    .text.pmu_to_deepsleepmode:0000000000000030 .LBE48
C:\Users\test\AppData\Local\Temp\ccx4kfGR.s:321    .text.pmu_to_deepsleepmode:0000000000000030 .LBB49
C:\Users\test\AppData\Local\Temp\ccx4kfGR.s:332    .text.pmu_to_deepsleepmode:0000000000000034 .LBE49
C:\Users\test\AppData\Local\Temp\ccx4kfGR.s:244    .text.pmu_to_deepsleepmode:0000000000000016 .LBB41
C:\Users\test\AppData\Local\Temp\ccx4kfGR.s:253    .text.pmu_to_deepsleepmode:000000000000001a .LBE41
C:\Users\test\AppData\Local\Temp\ccx4kfGR.s:297    .text.pmu_to_deepsleepmode:0000000000000028 .LBB46
C:\Users\test\AppData\Local\Temp\ccx4kfGR.s:306    .text.pmu_to_deepsleepmode:000000000000002c .LBE46
C:\Users\test\AppData\Local\Temp\ccx4kfGR.s:2074   .debug_str:00000000000003bd .LASF59
C:\Users\test\AppData\Local\Temp\ccx4kfGR.s:104    .text.pmu_to_sleepmode:0000000000000000 .LFB5
C:\Users\test\AppData\Local\Temp\ccx4kfGR.s:204    .text.pmu_to_sleepmode:0000000000000022 .LFE5
C:\Users\test\AppData\Local\Temp\ccx4kfGR.s:2050   .debug_str:0000000000000317 .LASF60
C:\Users\test\AppData\Local\Temp\ccx4kfGR.s:109    .text.pmu_to_sleepmode:0000000000000000 .LBB31
C:\Users\test\AppData\Local\Temp\ccx4kfGR.s:120    .text.pmu_to_sleepmode:0000000000000004 .LBE31
C:\Users\test\AppData\Local\Temp\ccx4kfGR.s:139    .text.pmu_to_sleepmode:000000000000000c .LBB34
C:\Users\test\AppData\Local\Temp\ccx4kfGR.s:150    .text.pmu_to_sleepmode:0000000000000010 .LBE34
C:\Users\test\AppData\Local\Temp\ccx4kfGR.s:152    .text.pmu_to_sleepmode:0000000000000010 .LBB35
C:\Users\test\AppData\Local\Temp\ccx4kfGR.s:163    .text.pmu_to_sleepmode:0000000000000014 .LBE35
C:\Users\test\AppData\Local\Temp\ccx4kfGR.s:176    .text.pmu_to_sleepmode:0000000000000018 .LBB38
C:\Users\test\AppData\Local\Temp\ccx4kfGR.s:187    .text.pmu_to_sleepmode:000000000000001c .LBE38
C:\Users\test\AppData\Local\Temp\ccx4kfGR.s:189    .text.pmu_to_sleepmode:000000000000001c .LBB39
C:\Users\test\AppData\Local\Temp\ccx4kfGR.s:200    .text.pmu_to_sleepmode:0000000000000020 .LBE39
C:\Users\test\AppData\Local\Temp\ccx4kfGR.s:125    .text.pmu_to_sleepmode:0000000000000006 .LBB32
C:\Users\test\AppData\Local\Temp\ccx4kfGR.s:137    .text.pmu_to_sleepmode:000000000000000c .LBE32
C:\Users\test\AppData\Local\Temp\ccx4kfGR.s:165    .text.pmu_to_sleepmode:0000000000000014 .LBB36
C:\Users\test\AppData\Local\Temp\ccx4kfGR.s:174    .text.pmu_to_sleepmode:0000000000000018 .LBE36
C:\Users\test\AppData\Local\Temp\ccx4kfGR.s:2060   .debug_str:0000000000000367 .LASF61
C:\Users\test\AppData\Local\Temp\ccx4kfGR.s:85     .text.pmu_lvd_disable:0000000000000000 .LFB4
C:\Users\test\AppData\Local\Temp\ccx4kfGR.s:97     .text.pmu_lvd_disable:000000000000000c .LFE4
C:\Users\test\AppData\Local\Temp\ccx4kfGR.s:1964   .debug_str:0000000000000027 .LASF62
C:\Users\test\AppData\Local\Temp\ccx4kfGR.s:49     .text.pmu_lvd_select:0000000000000000 .LFB3
C:\Users\test\AppData\Local\Temp\ccx4kfGR.s:78     .text.pmu_lvd_select:0000000000000022 .LFE3
C:\Users\test\AppData\Local\Temp\ccx4kfGR.s:2064   .debug_str:0000000000000385 .LASF63
C:\Users\test\AppData\Local\Temp\ccx4kfGR.s:1851   .debug_loc:0000000000000042 .LLST1
C:\Users\test\AppData\Local\Temp\ccx4kfGR.s:1974   .debug_str:0000000000000069 .LASF64
C:\Users\test\AppData\Local\Temp\ccx4kfGR.s:11     .text.pmu_deinit:0000000000000000 .LFB2
C:\Users\test\AppData\Local\Temp\ccx4kfGR.s:42     .text.pmu_deinit:0000000000000020 .LFE2
C:\Users\test\AppData\Local\Temp\ccx4kfGR.s:1865   .debug_loc:0000000000000063 .LLST0
C:\Users\test\AppData\Local\Temp\ccx4kfGR.s:27     .text.pmu_deinit:0000000000000010 .LVL0
C:\Users\test\AppData\Local\Temp\ccx4kfGR.s:40     .text.pmu_deinit:0000000000000020 .LVL1
C:\Users\test\AppData\Local\Temp\ccx4kfGR.s:2086   .debug_str:0000000000000415 .LASF72
C:\Users\test\AppData\Local\Temp\ccx4kfGR.s:2092   .debug_str:000000000000042f .LASF65
C:\Users\test\AppData\Local\Temp\ccx4kfGR.s:1982   .debug_str:0000000000000092 .LASF66
C:\Users\test\AppData\Local\Temp\ccx4kfGR.s:577    .text.pmu_flag_get:0000000000000000 .LVL25
C:\Users\test\AppData\Local\Temp\ccx4kfGR.s:584    .text.pmu_flag_get:0000000000000008 .LVL26
C:\Users\test\AppData\Local\Temp\ccx4kfGR.s:214    .text.pmu_to_deepsleepmode:0000000000000000 .LVL10
C:\Users\test\AppData\Local\Temp\ccx4kfGR.s:225    .text.pmu_to_deepsleepmode:000000000000000e .LVL11
C:\Users\test\AppData\Local\Temp\ccx4kfGR.s:52     .text.pmu_lvd_select:0000000000000000 .LVL2
C:\Users\test\AppData\Local\Temp\ccx4kfGR.s:68     .text.pmu_lvd_select:0000000000000016 .LVL3
C:\Users\test\AppData\Local\Temp\ccx4kfGR.s:18     .text.pmu_deinit:0000000000000002 .LCFI0
GAS LISTING C:\Users\test\AppData\Local\Temp\ccx4kfGR.s 			page 27


C:\Users\test\AppData\Local\Temp\ccx4kfGR.s:36     .text.pmu_deinit:0000000000000018 .LCFI1
C:\Users\test\AppData\Local\Temp\ccx4kfGR.s:635    .debug_info:0000000000000000 .Ldebug_info0
C:\Users\test\AppData\Local\Temp\ccx4kfGR.s:255    .text.pmu_to_deepsleepmode:000000000000001a .LBB43
C:\Users\test\AppData\Local\Temp\ccx4kfGR.s:266    .text.pmu_to_deepsleepmode:000000000000001e .LBE43
C:\Users\test\AppData\Local\Temp\ccx4kfGR.s:334    .text.pmu_to_deepsleepmode:0000000000000034 .LBB50
C:\Users\test\AppData\Local\Temp\ccx4kfGR.s:344    .text.pmu_to_deepsleepmode:0000000000000038 .LBE50
C:\Users\test\AppData\Local\Temp\ccx4kfGR.s:398    .text.pmu_to_standbymode:000000000000001e .LBB54
C:\Users\test\AppData\Local\Temp\ccx4kfGR.s:409    .text.pmu_to_standbymode:0000000000000022 .LBE54
C:\Users\test\AppData\Local\Temp\ccx4kfGR.s:477    .text.pmu_to_standbymode:0000000000000038 .LBB61
C:\Users\test\AppData\Local\Temp\ccx4kfGR.s:487    .text.pmu_to_standbymode:000000000000003c .LBE61

UNDEFINED SYMBOLS
rcu_periph_reset_enable
rcu_periph_reset_disable
