GAS LISTING C:\Users\test\AppData\Local\Temp\ccF0WSt9.s 			page 1


   1              		.file	"gd32vf103_adc.c"
   2              		.option nopic
   3              		.text
   4              	.Ltext0:
   5              		.cfi_sections	.debug_frame
   6              		.section	.text.adc_deinit,"ax",@progbits
   7              		.align	1
   8              		.globl	adc_deinit
  10              	adc_deinit:
  11              	.LFB2:
  12              		.file 1 "arch/riscv/mach-gd32vf10x/bsp/gd32vf103_adc.c"
   1:arch/riscv/mach-gd32vf10x/bsp/gd32vf103_adc.c **** /*!
   2:arch/riscv/mach-gd32vf10x/bsp/gd32vf103_adc.c ****     \file  gd32vf103_adc.c
   3:arch/riscv/mach-gd32vf10x/bsp/gd32vf103_adc.c ****     \brief ADC driver
   4:arch/riscv/mach-gd32vf10x/bsp/gd32vf103_adc.c **** 
   5:arch/riscv/mach-gd32vf10x/bsp/gd32vf103_adc.c ****     \version 2019-6-5, V1.0.0, firmware for GD32VF103
   6:arch/riscv/mach-gd32vf10x/bsp/gd32vf103_adc.c **** */
   7:arch/riscv/mach-gd32vf10x/bsp/gd32vf103_adc.c **** 
   8:arch/riscv/mach-gd32vf10x/bsp/gd32vf103_adc.c **** /*
   9:arch/riscv/mach-gd32vf10x/bsp/gd32vf103_adc.c ****     Copyright (c) 2019, GigaDevice Semiconductor Inc.
  10:arch/riscv/mach-gd32vf10x/bsp/gd32vf103_adc.c **** 
  11:arch/riscv/mach-gd32vf10x/bsp/gd32vf103_adc.c ****     Redistribution and use in source and binary forms, with or without modification, 
  12:arch/riscv/mach-gd32vf10x/bsp/gd32vf103_adc.c **** are permitted provided that the following conditions are met:
  13:arch/riscv/mach-gd32vf10x/bsp/gd32vf103_adc.c **** 
  14:arch/riscv/mach-gd32vf10x/bsp/gd32vf103_adc.c ****     1. Redistributions of source code must retain the above copyright notice, this 
  15:arch/riscv/mach-gd32vf10x/bsp/gd32vf103_adc.c ****        list of conditions and the following disclaimer.
  16:arch/riscv/mach-gd32vf10x/bsp/gd32vf103_adc.c ****     2. Redistributions in binary form must reproduce the above copyright notice, 
  17:arch/riscv/mach-gd32vf10x/bsp/gd32vf103_adc.c ****        this list of conditions and the following disclaimer in the documentation 
  18:arch/riscv/mach-gd32vf10x/bsp/gd32vf103_adc.c ****        and/or other materials provided with the distribution.
  19:arch/riscv/mach-gd32vf10x/bsp/gd32vf103_adc.c ****     3. Neither the name of the copyright holder nor the names of its contributors 
  20:arch/riscv/mach-gd32vf10x/bsp/gd32vf103_adc.c ****        may be used to endorse or promote products derived from this software without 
  21:arch/riscv/mach-gd32vf10x/bsp/gd32vf103_adc.c ****        specific prior written permission.
  22:arch/riscv/mach-gd32vf10x/bsp/gd32vf103_adc.c **** 
  23:arch/riscv/mach-gd32vf10x/bsp/gd32vf103_adc.c ****     THIS SOFTWARE IS PROVIDED BY THE COPYRIGHT HOLDERS AND CONTRIBUTORS "AS IS" 
  24:arch/riscv/mach-gd32vf10x/bsp/gd32vf103_adc.c **** AND ANY EXPRESS OR IMPLIED WARRANTIES, INCLUDING, BUT NOT LIMITED TO, THE IMPLIED 
  25:arch/riscv/mach-gd32vf10x/bsp/gd32vf103_adc.c **** WARRANTIES OF MERCHANTABILITY AND FITNESS FOR A PARTICULAR PURPOSE ARE DISCLAIMED. 
  26:arch/riscv/mach-gd32vf10x/bsp/gd32vf103_adc.c **** IN NO EVENT SHALL THE COPYRIGHT HOLDER OR CONTRIBUTORS BE LIABLE FOR ANY DIRECT, 
  27:arch/riscv/mach-gd32vf10x/bsp/gd32vf103_adc.c **** INDIRECT, INCIDENTAL, SPECIAL, EXEMPLARY, OR CONSEQUENTIAL DAMAGES (INCLUDING, BUT 
  28:arch/riscv/mach-gd32vf10x/bsp/gd32vf103_adc.c **** NOT LIMITED TO, PROCUREMENT OF SUBSTITUTE GOODS OR SERVICES; LOSS OF USE, DATA, OR 
  29:arch/riscv/mach-gd32vf10x/bsp/gd32vf103_adc.c **** PROFITS; OR BUSINESS INTERRUPTION) HOWEVER CAUSED AND ON ANY THEORY OF LIABILITY, 
  30:arch/riscv/mach-gd32vf10x/bsp/gd32vf103_adc.c **** WHETHER IN CONTRACT, STRICT LIABILITY, OR TORT (INCLUDING NEGLIGENCE OR OTHERWISE) 
  31:arch/riscv/mach-gd32vf10x/bsp/gd32vf103_adc.c **** ARISING IN ANY WAY OUT OF THE USE OF THIS SOFTWARE, EVEN IF ADVISED OF THE POSSIBILITY 
  32:arch/riscv/mach-gd32vf10x/bsp/gd32vf103_adc.c **** OF SUCH DAMAGE.
  33:arch/riscv/mach-gd32vf10x/bsp/gd32vf103_adc.c **** */
  34:arch/riscv/mach-gd32vf10x/bsp/gd32vf103_adc.c **** 
  35:arch/riscv/mach-gd32vf10x/bsp/gd32vf103_adc.c **** #include "gd32vf103_adc.h"
  36:arch/riscv/mach-gd32vf10x/bsp/gd32vf103_adc.c **** 
  37:arch/riscv/mach-gd32vf10x/bsp/gd32vf103_adc.c **** /* discontinuous mode macro*/
  38:arch/riscv/mach-gd32vf10x/bsp/gd32vf103_adc.c **** #define  ADC_CHANNEL_LENGTH_SUBTRACT_ONE            ((uint8_t)1U)
  39:arch/riscv/mach-gd32vf10x/bsp/gd32vf103_adc.c **** 
  40:arch/riscv/mach-gd32vf10x/bsp/gd32vf103_adc.c **** /* ADC regular channel macro */
  41:arch/riscv/mach-gd32vf10x/bsp/gd32vf103_adc.c **** #define  ADC_REGULAR_CHANNEL_RANK_SIX               ((uint8_t)6U)
  42:arch/riscv/mach-gd32vf10x/bsp/gd32vf103_adc.c **** #define  ADC_REGULAR_CHANNEL_RANK_TWELVE            ((uint8_t)12U)
  43:arch/riscv/mach-gd32vf10x/bsp/gd32vf103_adc.c **** #define  ADC_REGULAR_CHANNEL_RANK_SIXTEEN           ((uint8_t)16U)
  44:arch/riscv/mach-gd32vf10x/bsp/gd32vf103_adc.c **** #define  ADC_REGULAR_CHANNEL_RANK_LENGTH            ((uint8_t)5U)
  45:arch/riscv/mach-gd32vf10x/bsp/gd32vf103_adc.c **** 
  46:arch/riscv/mach-gd32vf10x/bsp/gd32vf103_adc.c **** /* ADC sampling time macro */
GAS LISTING C:\Users\test\AppData\Local\Temp\ccF0WSt9.s 			page 2


  47:arch/riscv/mach-gd32vf10x/bsp/gd32vf103_adc.c **** #define  ADC_CHANNEL_SAMPLE_TEN                     ((uint8_t)10U)
  48:arch/riscv/mach-gd32vf10x/bsp/gd32vf103_adc.c **** #define  ADC_CHANNEL_SAMPLE_EIGHTEEN                ((uint8_t)18U)
  49:arch/riscv/mach-gd32vf10x/bsp/gd32vf103_adc.c **** #define  ADC_CHANNEL_SAMPLE_LENGTH                  ((uint8_t)3U)
  50:arch/riscv/mach-gd32vf10x/bsp/gd32vf103_adc.c **** 
  51:arch/riscv/mach-gd32vf10x/bsp/gd32vf103_adc.c **** /* ADC inserted channel macro */
  52:arch/riscv/mach-gd32vf10x/bsp/gd32vf103_adc.c **** #define  ADC_INSERTED_CHANNEL_RANK_LENGTH           ((uint8_t)5U)
  53:arch/riscv/mach-gd32vf10x/bsp/gd32vf103_adc.c **** #define  ADC_INSERTED_CHANNEL_SHIFT_LENGTH          ((uint8_t)15U)
  54:arch/riscv/mach-gd32vf10x/bsp/gd32vf103_adc.c **** 
  55:arch/riscv/mach-gd32vf10x/bsp/gd32vf103_adc.c **** /* ADC inserted channel offset macro */
  56:arch/riscv/mach-gd32vf10x/bsp/gd32vf103_adc.c **** #define  ADC_OFFSET_LENGTH                          ((uint8_t)3U)
  57:arch/riscv/mach-gd32vf10x/bsp/gd32vf103_adc.c **** #define  ADC_OFFSET_SHIFT_LENGTH                    ((uint8_t)4U)
  58:arch/riscv/mach-gd32vf10x/bsp/gd32vf103_adc.c **** 
  59:arch/riscv/mach-gd32vf10x/bsp/gd32vf103_adc.c **** /*!
  60:arch/riscv/mach-gd32vf10x/bsp/gd32vf103_adc.c ****     \brief      reset ADC 
  61:arch/riscv/mach-gd32vf10x/bsp/gd32vf103_adc.c ****     \param[in]  adc_periph: ADCx, x=0,1
  62:arch/riscv/mach-gd32vf10x/bsp/gd32vf103_adc.c ****     \param[out] none
  63:arch/riscv/mach-gd32vf10x/bsp/gd32vf103_adc.c ****     \retval     none
  64:arch/riscv/mach-gd32vf10x/bsp/gd32vf103_adc.c **** */
  65:arch/riscv/mach-gd32vf10x/bsp/gd32vf103_adc.c **** void adc_deinit(uint32_t adc_periph)
  66:arch/riscv/mach-gd32vf10x/bsp/gd32vf103_adc.c **** {
  13              		.loc 1 66 1
  14              		.cfi_startproc
  15              	.LVL0:
  67:arch/riscv/mach-gd32vf10x/bsp/gd32vf103_adc.c ****     switch(adc_periph){
  16              		.loc 1 67 5
  66:arch/riscv/mach-gd32vf10x/bsp/gd32vf103_adc.c ****     switch(adc_periph){
  17              		.loc 1 66 1 is_stmt 0
  18 0000 4111     		addi	sp,sp,-16
  19              	.LCFI0:
  20              		.cfi_def_cfa_offset 16
  21              		.loc 1 67 5
  22 0002 B7270140 		li	a5,1073815552
  66:arch/riscv/mach-gd32vf10x/bsp/gd32vf103_adc.c ****     switch(adc_periph){
  23              		.loc 1 66 1
  24 0006 06C6     		sw	ra,12(sp)
  25              		.cfi_offset 1, -4
  26              		.loc 1 67 5
  27 0008 93870740 		addi	a5,a5,1024
  28 000c 630BF500 		beq	a0,a5,.L2
  29 0010 B7370140 		li	a5,1073819648
  30 0014 93870780 		addi	a5,a5,-2048
  31 0018 6303F502 		beq	a0,a5,.L3
  68:arch/riscv/mach-gd32vf10x/bsp/gd32vf103_adc.c ****     case ADC0:
  69:arch/riscv/mach-gd32vf10x/bsp/gd32vf103_adc.c ****         /* reset ADC0 */
  70:arch/riscv/mach-gd32vf10x/bsp/gd32vf103_adc.c ****         rcu_periph_reset_enable(RCU_ADC0RST);
  71:arch/riscv/mach-gd32vf10x/bsp/gd32vf103_adc.c ****         rcu_periph_reset_disable(RCU_ADC0RST);
  72:arch/riscv/mach-gd32vf10x/bsp/gd32vf103_adc.c ****         break;
  73:arch/riscv/mach-gd32vf10x/bsp/gd32vf103_adc.c ****     case ADC1:
  74:arch/riscv/mach-gd32vf10x/bsp/gd32vf103_adc.c ****         /* reset ADC1 */
  75:arch/riscv/mach-gd32vf10x/bsp/gd32vf103_adc.c ****         rcu_periph_reset_enable(RCU_ADC1RST);
  76:arch/riscv/mach-gd32vf10x/bsp/gd32vf103_adc.c ****         rcu_periph_reset_disable(RCU_ADC1RST);
  77:arch/riscv/mach-gd32vf10x/bsp/gd32vf103_adc.c ****         break;
  78:arch/riscv/mach-gd32vf10x/bsp/gd32vf103_adc.c ****     default:
  79:arch/riscv/mach-gd32vf10x/bsp/gd32vf103_adc.c ****         break;
  80:arch/riscv/mach-gd32vf10x/bsp/gd32vf103_adc.c ****     }
  81:arch/riscv/mach-gd32vf10x/bsp/gd32vf103_adc.c **** }
  32              		.loc 1 81 1
GAS LISTING C:\Users\test\AppData\Local\Temp\ccF0WSt9.s 			page 3


  33 001c B240     		lw	ra,12(sp)
  34              		.cfi_remember_state
  35              		.cfi_restore 1
  36 001e 4101     		addi	sp,sp,16
  37              	.LCFI1:
  38              		.cfi_def_cfa_offset 0
  39 0020 8280     		jr	ra
  40              	.L2:
  41              	.LCFI2:
  42              		.cfi_restore_state
  70:arch/riscv/mach-gd32vf10x/bsp/gd32vf103_adc.c ****         rcu_periph_reset_disable(RCU_ADC0RST);
  43              		.loc 1 70 9 is_stmt 1
  44 0022 13059030 		li	a0,777
  45              	.LVL1:
  46 0026 97000000 		call	rcu_periph_reset_enable
  46      E7800000 
  47              	.LVL2:
  71:arch/riscv/mach-gd32vf10x/bsp/gd32vf103_adc.c ****         break;
  48              		.loc 1 71 9
  49              		.loc 1 81 1 is_stmt 0
  50 002e B240     		lw	ra,12(sp)
  51              		.cfi_remember_state
  52              		.cfi_restore 1
  71:arch/riscv/mach-gd32vf10x/bsp/gd32vf103_adc.c ****         break;
  53              		.loc 1 71 9
  54 0030 13059030 		li	a0,777
  55              		.loc 1 81 1
  56 0034 4101     		addi	sp,sp,16
  57              	.LCFI3:
  58              		.cfi_def_cfa_offset 0
  71:arch/riscv/mach-gd32vf10x/bsp/gd32vf103_adc.c ****         break;
  59              		.loc 1 71 9
  60 0036 17030000 		tail	rcu_periph_reset_disable
  60      67000300 
  61              	.LVL3:
  62              	.L3:
  63              	.LCFI4:
  64              		.cfi_restore_state
  75:arch/riscv/mach-gd32vf10x/bsp/gd32vf103_adc.c ****         rcu_periph_reset_disable(RCU_ADC1RST);
  65              		.loc 1 75 9 is_stmt 1
  66 003e 1305A030 		li	a0,778
  67              	.LVL4:
  68 0042 97000000 		call	rcu_periph_reset_enable
  68      E7800000 
  69              	.LVL5:
  76:arch/riscv/mach-gd32vf10x/bsp/gd32vf103_adc.c ****         break;
  70              		.loc 1 76 9
  71              		.loc 1 81 1 is_stmt 0
  72 004a B240     		lw	ra,12(sp)
  73              		.cfi_restore 1
  76:arch/riscv/mach-gd32vf10x/bsp/gd32vf103_adc.c ****         break;
  74              		.loc 1 76 9
  75 004c 1305A030 		li	a0,778
  76              		.loc 1 81 1
  77 0050 4101     		addi	sp,sp,16
  78              	.LCFI5:
  79              		.cfi_def_cfa_offset 0
GAS LISTING C:\Users\test\AppData\Local\Temp\ccF0WSt9.s 			page 4


  76:arch/riscv/mach-gd32vf10x/bsp/gd32vf103_adc.c ****         break;
  80              		.loc 1 76 9
  81 0052 17030000 		tail	rcu_periph_reset_disable
  81      67000300 
  82              	.LVL6:
  83              		.cfi_endproc
  84              	.LFE2:
  86              		.section	.text.adc_mode_config,"ax",@progbits
  87              		.align	1
  88              		.globl	adc_mode_config
  90              	adc_mode_config:
  91              	.LFB3:
  82:arch/riscv/mach-gd32vf10x/bsp/gd32vf103_adc.c **** 
  83:arch/riscv/mach-gd32vf10x/bsp/gd32vf103_adc.c **** /*!
  84:arch/riscv/mach-gd32vf10x/bsp/gd32vf103_adc.c ****     \brief      configure the ADC sync mode
  85:arch/riscv/mach-gd32vf10x/bsp/gd32vf103_adc.c ****     \param[in]  mode: ADC mode
  86:arch/riscv/mach-gd32vf10x/bsp/gd32vf103_adc.c ****                 only one parameter can be selected which is shown as below:
  87:arch/riscv/mach-gd32vf10x/bsp/gd32vf103_adc.c ****       \arg        ADC_MODE_FREE: all the ADCs work independently
  88:arch/riscv/mach-gd32vf10x/bsp/gd32vf103_adc.c ****       \arg        ADC_DAUL_REGULAL_PARALLEL_INSERTED_PARALLEL: ADC0 and ADC1 work in combined regul
  89:arch/riscv/mach-gd32vf10x/bsp/gd32vf103_adc.c ****       \arg        ADC_DAUL_REGULAL_PARALLEL_INSERTED_ROTATION: ADC0 and ADC1 work in combined regul
  90:arch/riscv/mach-gd32vf10x/bsp/gd32vf103_adc.c ****       \arg        ADC_DAUL_INSERTED_PARALLEL_REGULAL_FOLLOWUP_FAST: ADC0 and ADC1 work in combined 
  91:arch/riscv/mach-gd32vf10x/bsp/gd32vf103_adc.c ****       \arg        ADC_DAUL_INSERTED_PARALLEL_REGULAL_FOLLOWUP_SLOW: ADC0 and ADC1 work in combined 
  92:arch/riscv/mach-gd32vf10x/bsp/gd32vf103_adc.c ****       \arg        ADC_DAUL_INSERTED_PARALLEL: ADC0 and ADC1 work in inserted parallel mode only
  93:arch/riscv/mach-gd32vf10x/bsp/gd32vf103_adc.c ****       \arg        ADC_DAUL_REGULAL_PARALLEL: ADC0 and ADC1 work in regular parallel mode only
  94:arch/riscv/mach-gd32vf10x/bsp/gd32vf103_adc.c ****       \arg        ADC_DAUL_REGULAL_FOLLOWUP_FAST: ADC0 and ADC1 work in follow-up fast mode only
  95:arch/riscv/mach-gd32vf10x/bsp/gd32vf103_adc.c ****       \arg        ADC_DAUL_REGULAL_FOLLOWUP_SLOW: ADC0 and ADC1 work in follow-up slow mode only
  96:arch/riscv/mach-gd32vf10x/bsp/gd32vf103_adc.c ****       \arg        ADC_DAUL_INSERTED_TRIGGER_ROTATION: ADC0 and ADC1 work in trigger rotation mode o
  97:arch/riscv/mach-gd32vf10x/bsp/gd32vf103_adc.c ****     \param[out] none
  98:arch/riscv/mach-gd32vf10x/bsp/gd32vf103_adc.c ****     \retval     none
  99:arch/riscv/mach-gd32vf10x/bsp/gd32vf103_adc.c **** */
 100:arch/riscv/mach-gd32vf10x/bsp/gd32vf103_adc.c **** void adc_mode_config(uint32_t mode)
 101:arch/riscv/mach-gd32vf10x/bsp/gd32vf103_adc.c **** {
  92              		.loc 1 101 1 is_stmt 1
  93              		.cfi_startproc
  94              	.LVL7:
 102:arch/riscv/mach-gd32vf10x/bsp/gd32vf103_adc.c ****     ADC_CTL0(ADC0) &= ~(ADC_CTL0_SYNCM);
  95              		.loc 1 102 5
  96              		.loc 1 102 20 is_stmt 0
  97 0000 B7270140 		li	a5,1073815552
  98 0004 03A74740 		lw	a4,1028(a5)
  99 0008 B706F1FF 		li	a3,-983040
 100 000c FD16     		addi	a3,a3,-1
 101 000e 758F     		and	a4,a4,a3
 102 0010 23A2E740 		sw	a4,1028(a5)
 103:arch/riscv/mach-gd32vf10x/bsp/gd32vf103_adc.c ****     ADC_CTL0(ADC0) |= mode;
 103              		.loc 1 103 5 is_stmt 1
 104              		.loc 1 103 20 is_stmt 0
 105 0014 03A74740 		lw	a4,1028(a5)
 106 0018 598D     		or	a0,a4,a0
 107              	.LVL8:
 108 001a 23A2A740 		sw	a0,1028(a5)
 104:arch/riscv/mach-gd32vf10x/bsp/gd32vf103_adc.c **** }
 109              		.loc 1 104 1
 110 001e 8280     		ret
 111              		.cfi_endproc
 112              	.LFE3:
 114              		.section	.text.adc_special_function_config,"ax",@progbits
GAS LISTING C:\Users\test\AppData\Local\Temp\ccF0WSt9.s 			page 5


 115              		.align	1
 116              		.globl	adc_special_function_config
 118              	adc_special_function_config:
 119              	.LFB4:
 105:arch/riscv/mach-gd32vf10x/bsp/gd32vf103_adc.c **** 
 106:arch/riscv/mach-gd32vf10x/bsp/gd32vf103_adc.c **** /*!
 107:arch/riscv/mach-gd32vf10x/bsp/gd32vf103_adc.c ****     \brief      enable or disable ADC special function
 108:arch/riscv/mach-gd32vf10x/bsp/gd32vf103_adc.c ****     \param[in]  adc_periph: ADCx, x=0,1
 109:arch/riscv/mach-gd32vf10x/bsp/gd32vf103_adc.c ****     \param[in]  function: the function to config
 110:arch/riscv/mach-gd32vf10x/bsp/gd32vf103_adc.c ****                 only one parameter can be selected which is shown as below:
 111:arch/riscv/mach-gd32vf10x/bsp/gd32vf103_adc.c ****       \arg        ADC_SCAN_MODE: scan mode select
 112:arch/riscv/mach-gd32vf10x/bsp/gd32vf103_adc.c ****       \arg        ADC_INSERTED_CHANNEL_AUTO: inserted channel group convert automatically
 113:arch/riscv/mach-gd32vf10x/bsp/gd32vf103_adc.c ****       \arg        ADC_CONTINUOUS_MODE: continuous mode select
 114:arch/riscv/mach-gd32vf10x/bsp/gd32vf103_adc.c ****     \param[in]  newvalue: ENABLE or DISABLE
 115:arch/riscv/mach-gd32vf10x/bsp/gd32vf103_adc.c ****     \param[out] none
 116:arch/riscv/mach-gd32vf10x/bsp/gd32vf103_adc.c ****     \retval     none
 117:arch/riscv/mach-gd32vf10x/bsp/gd32vf103_adc.c **** */
 118:arch/riscv/mach-gd32vf10x/bsp/gd32vf103_adc.c **** void adc_special_function_config(uint32_t adc_periph, uint32_t function, ControlStatus newvalue)
 119:arch/riscv/mach-gd32vf10x/bsp/gd32vf103_adc.c **** {
 120              		.loc 1 119 1 is_stmt 1
 121              		.cfi_startproc
 122              	.LVL9:
 120:arch/riscv/mach-gd32vf10x/bsp/gd32vf103_adc.c ****     if(newvalue){
 123              		.loc 1 120 5
 124 0000 93F70510 		andi	a5,a1,256
 125              		.loc 1 120 7 is_stmt 0
 126 0004 0DC6     		beq	a2,zero,.L10
 121:arch/riscv/mach-gd32vf10x/bsp/gd32vf103_adc.c ****         if(0U != (function & ADC_SCAN_MODE)){
 127              		.loc 1 121 9 is_stmt 1
 128              		.loc 1 121 11 is_stmt 0
 129 0006 99EF     		bne	a5,zero,.L33
 130              	.L11:
 122:arch/riscv/mach-gd32vf10x/bsp/gd32vf103_adc.c ****             /* enable scan mode */
 123:arch/riscv/mach-gd32vf10x/bsp/gd32vf103_adc.c ****             ADC_CTL0(adc_periph) |= ADC_SCAN_MODE;
 124:arch/riscv/mach-gd32vf10x/bsp/gd32vf103_adc.c ****         }
 125:arch/riscv/mach-gd32vf10x/bsp/gd32vf103_adc.c ****         if(0U != (function & ADC_INSERTED_CHANNEL_AUTO)){
 131              		.loc 1 125 9 is_stmt 1
 132              		.loc 1 125 28 is_stmt 0
 133 0008 93F70540 		andi	a5,a1,1024
 134              		.loc 1 125 11
 135 000c 89C7     		beq	a5,zero,.L12
 126:arch/riscv/mach-gd32vf10x/bsp/gd32vf103_adc.c ****             /* enable inserted channel group convert automatically */
 127:arch/riscv/mach-gd32vf10x/bsp/gd32vf103_adc.c ****             ADC_CTL0(adc_periph) |= ADC_INSERTED_CHANNEL_AUTO;
 136              		.loc 1 127 13 is_stmt 1
 137              		.loc 1 127 34 is_stmt 0
 138 000e 5C41     		lw	a5,4(a0)
 139 0010 93E70740 		ori	a5,a5,1024
 140 0014 5CC1     		sw	a5,4(a0)
 141              	.L12:
 128:arch/riscv/mach-gd32vf10x/bsp/gd32vf103_adc.c ****         } 
 129:arch/riscv/mach-gd32vf10x/bsp/gd32vf103_adc.c ****         if(0U != (function & ADC_CONTINUOUS_MODE)){
 142              		.loc 1 129 9 is_stmt 1
 143              		.loc 1 129 28 is_stmt 0
 144 0016 8989     		andi	a1,a1,2
 145              	.LVL10:
 146              		.loc 1 129 11
 147 0018 85CD     		beq	a1,zero,.L9
GAS LISTING C:\Users\test\AppData\Local\Temp\ccF0WSt9.s 			page 6


 130:arch/riscv/mach-gd32vf10x/bsp/gd32vf103_adc.c ****             /* enable continuous mode */
 131:arch/riscv/mach-gd32vf10x/bsp/gd32vf103_adc.c ****             ADC_CTL1(adc_periph) |= ADC_CONTINUOUS_MODE;
 148              		.loc 1 131 13 is_stmt 1
 149              		.loc 1 131 34 is_stmt 0
 150 001a 1C45     		lw	a5,8(a0)
 151 001c 93E72700 		ori	a5,a5,2
 152 0020 1CC5     		sw	a5,8(a0)
 153 0022 8280     		ret
 154              	.LVL11:
 155              	.L33:
 123:arch/riscv/mach-gd32vf10x/bsp/gd32vf103_adc.c ****         }
 156              		.loc 1 123 13 is_stmt 1
 123:arch/riscv/mach-gd32vf10x/bsp/gd32vf103_adc.c ****         }
 157              		.loc 1 123 34 is_stmt 0
 158 0024 5C41     		lw	a5,4(a0)
 159 0026 93E70710 		ori	a5,a5,256
 160 002a 5CC1     		sw	a5,4(a0)
 161 002c F1BF     		j	.L11
 162              	.L10:
 132:arch/riscv/mach-gd32vf10x/bsp/gd32vf103_adc.c ****         }        
 133:arch/riscv/mach-gd32vf10x/bsp/gd32vf103_adc.c ****     }else{
 134:arch/riscv/mach-gd32vf10x/bsp/gd32vf103_adc.c ****         if(0U != (function & ADC_SCAN_MODE)){
 163              		.loc 1 134 9 is_stmt 1
 164              		.loc 1 134 11 is_stmt 0
 165 002e 89C7     		beq	a5,zero,.L15
 135:arch/riscv/mach-gd32vf10x/bsp/gd32vf103_adc.c ****             /* disable scan mode */
 136:arch/riscv/mach-gd32vf10x/bsp/gd32vf103_adc.c ****             ADC_CTL0(adc_periph) &= ~ADC_SCAN_MODE;
 166              		.loc 1 136 13 is_stmt 1
 167              		.loc 1 136 34 is_stmt 0
 168 0030 5C41     		lw	a5,4(a0)
 169 0032 93F7F7EF 		andi	a5,a5,-257
 170 0036 5CC1     		sw	a5,4(a0)
 171              	.L15:
 137:arch/riscv/mach-gd32vf10x/bsp/gd32vf103_adc.c ****         }
 138:arch/riscv/mach-gd32vf10x/bsp/gd32vf103_adc.c ****         if(0U != (function & ADC_INSERTED_CHANNEL_AUTO)){
 172              		.loc 1 138 9 is_stmt 1
 173              		.loc 1 138 28 is_stmt 0
 174 0038 93F70540 		andi	a5,a1,1024
 175              		.loc 1 138 11
 176 003c 89C7     		beq	a5,zero,.L16
 139:arch/riscv/mach-gd32vf10x/bsp/gd32vf103_adc.c ****             /* disable inserted channel group convert automatically */
 140:arch/riscv/mach-gd32vf10x/bsp/gd32vf103_adc.c ****             ADC_CTL0(adc_periph) &= ~ADC_INSERTED_CHANNEL_AUTO;
 177              		.loc 1 140 13 is_stmt 1
 178              		.loc 1 140 34 is_stmt 0
 179 003e 5C41     		lw	a5,4(a0)
 180 0040 93F7F7BF 		andi	a5,a5,-1025
 181 0044 5CC1     		sw	a5,4(a0)
 182              	.L16:
 141:arch/riscv/mach-gd32vf10x/bsp/gd32vf103_adc.c ****         } 
 142:arch/riscv/mach-gd32vf10x/bsp/gd32vf103_adc.c ****         if(0U != (function & ADC_CONTINUOUS_MODE)){
 183              		.loc 1 142 9 is_stmt 1
 184              		.loc 1 142 28 is_stmt 0
 185 0046 8989     		andi	a1,a1,2
 186              	.LVL12:
 187              		.loc 1 142 11
 188 0048 81C5     		beq	a1,zero,.L9
 143:arch/riscv/mach-gd32vf10x/bsp/gd32vf103_adc.c ****             /* disable continuous mode */
GAS LISTING C:\Users\test\AppData\Local\Temp\ccF0WSt9.s 			page 7


 144:arch/riscv/mach-gd32vf10x/bsp/gd32vf103_adc.c ****             ADC_CTL1(adc_periph) &= ~ADC_CONTINUOUS_MODE;
 189              		.loc 1 144 13 is_stmt 1
 190              		.loc 1 144 34 is_stmt 0
 191 004a 1C45     		lw	a5,8(a0)
 192 004c F59B     		andi	a5,a5,-3
 193 004e 1CC5     		sw	a5,8(a0)
 194              	.L9:
 145:arch/riscv/mach-gd32vf10x/bsp/gd32vf103_adc.c ****         }       
 146:arch/riscv/mach-gd32vf10x/bsp/gd32vf103_adc.c ****     }
 147:arch/riscv/mach-gd32vf10x/bsp/gd32vf103_adc.c **** }
 195              		.loc 1 147 1
 196 0050 8280     		ret
 197              		.cfi_endproc
 198              	.LFE4:
 200              		.section	.text.adc_data_alignment_config,"ax",@progbits
 201              		.align	1
 202              		.globl	adc_data_alignment_config
 204              	adc_data_alignment_config:
 205              	.LFB5:
 148:arch/riscv/mach-gd32vf10x/bsp/gd32vf103_adc.c **** 
 149:arch/riscv/mach-gd32vf10x/bsp/gd32vf103_adc.c **** /*!
 150:arch/riscv/mach-gd32vf10x/bsp/gd32vf103_adc.c ****     \brief      configure ADC data alignment 
 151:arch/riscv/mach-gd32vf10x/bsp/gd32vf103_adc.c ****     \param[in]  adc_periph: ADCx, x=0,1
 152:arch/riscv/mach-gd32vf10x/bsp/gd32vf103_adc.c ****     \param[in]  data_alignment: data alignment select
 153:arch/riscv/mach-gd32vf10x/bsp/gd32vf103_adc.c ****                 only one parameter can be selected which is shown as below:
 154:arch/riscv/mach-gd32vf10x/bsp/gd32vf103_adc.c ****       \arg        ADC_DATAALIGN_RIGHT: LSB alignment
 155:arch/riscv/mach-gd32vf10x/bsp/gd32vf103_adc.c ****       \arg        ADC_DATAALIGN_LEFT: MSB alignment
 156:arch/riscv/mach-gd32vf10x/bsp/gd32vf103_adc.c ****     \param[out] none
 157:arch/riscv/mach-gd32vf10x/bsp/gd32vf103_adc.c ****     \retval     none
 158:arch/riscv/mach-gd32vf10x/bsp/gd32vf103_adc.c **** */
 159:arch/riscv/mach-gd32vf10x/bsp/gd32vf103_adc.c **** void adc_data_alignment_config(uint32_t adc_periph, uint32_t data_alignment)
 160:arch/riscv/mach-gd32vf10x/bsp/gd32vf103_adc.c **** {
 206              		.loc 1 160 1 is_stmt 1
 207              		.cfi_startproc
 208              	.LVL13:
 161:arch/riscv/mach-gd32vf10x/bsp/gd32vf103_adc.c ****     if(ADC_DATAALIGN_RIGHT != data_alignment){
 209              		.loc 1 161 5
 162:arch/riscv/mach-gd32vf10x/bsp/gd32vf103_adc.c ****         /* MSB alignment */
 163:arch/riscv/mach-gd32vf10x/bsp/gd32vf103_adc.c ****         ADC_CTL1(adc_periph) |= ADC_CTL1_DAL;
 210              		.loc 1 163 30 is_stmt 0
 211 0000 1C45     		lw	a5,8(a0)
 161:arch/riscv/mach-gd32vf10x/bsp/gd32vf103_adc.c ****     if(ADC_DATAALIGN_RIGHT != data_alignment){
 212              		.loc 1 161 7
 213 0002 99C5     		beq	a1,zero,.L35
 214              		.loc 1 163 9 is_stmt 1
 215              		.loc 1 163 30 is_stmt 0
 216 0004 0567     		li	a4,4096
 217 0006 13070780 		addi	a4,a4,-2048
 218 000a D98F     		or	a5,a5,a4
 219 000c 1CC5     		sw	a5,8(a0)
 220 000e 8280     		ret
 221              	.L35:
 164:arch/riscv/mach-gd32vf10x/bsp/gd32vf103_adc.c ****     }else{
 165:arch/riscv/mach-gd32vf10x/bsp/gd32vf103_adc.c ****         /* LSB alignment */
 166:arch/riscv/mach-gd32vf10x/bsp/gd32vf103_adc.c ****         ADC_CTL1(adc_periph) &= ~((uint32_t)ADC_CTL1_DAL);
 222              		.loc 1 166 9 is_stmt 1
 223              		.loc 1 166 30 is_stmt 0
GAS LISTING C:\Users\test\AppData\Local\Temp\ccF0WSt9.s 			page 8


 224 0010 7D77     		li	a4,-4096
 225 0012 1307F77F 		addi	a4,a4,2047
 226 0016 F98F     		and	a5,a5,a4
 227 0018 1CC5     		sw	a5,8(a0)
 167:arch/riscv/mach-gd32vf10x/bsp/gd32vf103_adc.c ****     }
 168:arch/riscv/mach-gd32vf10x/bsp/gd32vf103_adc.c **** }
 228              		.loc 1 168 1
 229 001a 8280     		ret
 230              		.cfi_endproc
 231              	.LFE5:
 233              		.section	.text.adc_enable,"ax",@progbits
 234              		.align	1
 235              		.globl	adc_enable
 237              	adc_enable:
 238              	.LFB6:
 169:arch/riscv/mach-gd32vf10x/bsp/gd32vf103_adc.c **** 
 170:arch/riscv/mach-gd32vf10x/bsp/gd32vf103_adc.c **** /*!
 171:arch/riscv/mach-gd32vf10x/bsp/gd32vf103_adc.c ****     \brief      enable ADC interface
 172:arch/riscv/mach-gd32vf10x/bsp/gd32vf103_adc.c ****     \param[in]  adc_periph: ADCx, x=0,1
 173:arch/riscv/mach-gd32vf10x/bsp/gd32vf103_adc.c ****     \param[out] none
 174:arch/riscv/mach-gd32vf10x/bsp/gd32vf103_adc.c ****     \retval     none
 175:arch/riscv/mach-gd32vf10x/bsp/gd32vf103_adc.c **** */
 176:arch/riscv/mach-gd32vf10x/bsp/gd32vf103_adc.c **** void adc_enable(uint32_t adc_periph)
 177:arch/riscv/mach-gd32vf10x/bsp/gd32vf103_adc.c **** {
 239              		.loc 1 177 1 is_stmt 1
 240              		.cfi_startproc
 241              	.LVL14:
 178:arch/riscv/mach-gd32vf10x/bsp/gd32vf103_adc.c ****     if(RESET == (ADC_CTL1(adc_periph) & ADC_CTL1_ADCON)){
 242              		.loc 1 178 5
 243              		.loc 1 178 18 is_stmt 0
 244 0000 1C45     		lw	a5,8(a0)
 245              		.loc 1 178 39
 246 0002 858B     		andi	a5,a5,1
 247              		.loc 1 178 7
 248 0004 89E7     		bne	a5,zero,.L37
 179:arch/riscv/mach-gd32vf10x/bsp/gd32vf103_adc.c ****         /* enable ADC */
 180:arch/riscv/mach-gd32vf10x/bsp/gd32vf103_adc.c ****         ADC_CTL1(adc_periph) |= (uint32_t)ADC_CTL1_ADCON;
 249              		.loc 1 180 9 is_stmt 1
 250              		.loc 1 180 30 is_stmt 0
 251 0006 1C45     		lw	a5,8(a0)
 252 0008 93E71700 		ori	a5,a5,1
 253 000c 1CC5     		sw	a5,8(a0)
 254              	.L37:
 181:arch/riscv/mach-gd32vf10x/bsp/gd32vf103_adc.c ****     }       
 182:arch/riscv/mach-gd32vf10x/bsp/gd32vf103_adc.c **** }
 255              		.loc 1 182 1
 256 000e 8280     		ret
 257              		.cfi_endproc
 258              	.LFE6:
 260              		.section	.text.adc_disable,"ax",@progbits
 261              		.align	1
 262              		.globl	adc_disable
 264              	adc_disable:
 265              	.LFB7:
 183:arch/riscv/mach-gd32vf10x/bsp/gd32vf103_adc.c **** 
 184:arch/riscv/mach-gd32vf10x/bsp/gd32vf103_adc.c **** /*!
 185:arch/riscv/mach-gd32vf10x/bsp/gd32vf103_adc.c ****     \brief      disable ADC interface
GAS LISTING C:\Users\test\AppData\Local\Temp\ccF0WSt9.s 			page 9


 186:arch/riscv/mach-gd32vf10x/bsp/gd32vf103_adc.c ****     \param[in]  adc_periph: ADCx, x=0,1
 187:arch/riscv/mach-gd32vf10x/bsp/gd32vf103_adc.c ****     \param[out] none
 188:arch/riscv/mach-gd32vf10x/bsp/gd32vf103_adc.c ****     \retval     none
 189:arch/riscv/mach-gd32vf10x/bsp/gd32vf103_adc.c **** */
 190:arch/riscv/mach-gd32vf10x/bsp/gd32vf103_adc.c **** void adc_disable(uint32_t adc_periph)
 191:arch/riscv/mach-gd32vf10x/bsp/gd32vf103_adc.c **** {
 266              		.loc 1 191 1 is_stmt 1
 267              		.cfi_startproc
 268              	.LVL15:
 192:arch/riscv/mach-gd32vf10x/bsp/gd32vf103_adc.c ****     /* disable ADC */
 193:arch/riscv/mach-gd32vf10x/bsp/gd32vf103_adc.c ****     ADC_CTL1(adc_periph) &= ~((uint32_t)ADC_CTL1_ADCON);
 269              		.loc 1 193 5
 270              		.loc 1 193 26 is_stmt 0
 271 0000 1C45     		lw	a5,8(a0)
 272 0002 F99B     		andi	a5,a5,-2
 273 0004 1CC5     		sw	a5,8(a0)
 194:arch/riscv/mach-gd32vf10x/bsp/gd32vf103_adc.c **** }
 274              		.loc 1 194 1
 275 0006 8280     		ret
 276              		.cfi_endproc
 277              	.LFE7:
 279              		.section	.text.adc_calibration_enable,"ax",@progbits
 280              		.align	1
 281              		.globl	adc_calibration_enable
 283              	adc_calibration_enable:
 284              	.LFB8:
 195:arch/riscv/mach-gd32vf10x/bsp/gd32vf103_adc.c **** 
 196:arch/riscv/mach-gd32vf10x/bsp/gd32vf103_adc.c **** /*!
 197:arch/riscv/mach-gd32vf10x/bsp/gd32vf103_adc.c ****     \brief      ADC calibration and reset calibration
 198:arch/riscv/mach-gd32vf10x/bsp/gd32vf103_adc.c ****     \param[in]  adc_periph: ADCx, x=0,1
 199:arch/riscv/mach-gd32vf10x/bsp/gd32vf103_adc.c ****     \param[out] none
 200:arch/riscv/mach-gd32vf10x/bsp/gd32vf103_adc.c ****     \retval     none
 201:arch/riscv/mach-gd32vf10x/bsp/gd32vf103_adc.c **** */
 202:arch/riscv/mach-gd32vf10x/bsp/gd32vf103_adc.c **** void adc_calibration_enable(uint32_t adc_periph)
 203:arch/riscv/mach-gd32vf10x/bsp/gd32vf103_adc.c **** {
 285              		.loc 1 203 1 is_stmt 1
 286              		.cfi_startproc
 287              	.LVL16:
 204:arch/riscv/mach-gd32vf10x/bsp/gd32vf103_adc.c ****     /* reset the selected ADC1 calibration registers */
 205:arch/riscv/mach-gd32vf10x/bsp/gd32vf103_adc.c ****     ADC_CTL1(adc_periph) |= (uint32_t) ADC_CTL1_RSTCLB;
 288              		.loc 1 205 5
 289              		.loc 1 205 26 is_stmt 0
 290 0000 1C45     		lw	a5,8(a0)
 291 0002 13078500 		addi	a4,a0,8
 292 0006 93E78700 		ori	a5,a5,8
 293 000a 1CC5     		sw	a5,8(a0)
 206:arch/riscv/mach-gd32vf10x/bsp/gd32vf103_adc.c ****     /* check the RSTCLB bit state */
 207:arch/riscv/mach-gd32vf10x/bsp/gd32vf103_adc.c ****     while(RESET != (ADC_CTL1(adc_periph) & ADC_CTL1_RSTCLB)){
 294              		.loc 1 207 5 is_stmt 1
 295              	.L41:
 208:arch/riscv/mach-gd32vf10x/bsp/gd32vf103_adc.c ****     }
 296              		.loc 1 208 5 discriminator 1
 207:arch/riscv/mach-gd32vf10x/bsp/gd32vf103_adc.c ****     }
 297              		.loc 1 207 21 is_stmt 0 discriminator 1
 298 000c 1C43     		lw	a5,0(a4)
 207:arch/riscv/mach-gd32vf10x/bsp/gd32vf103_adc.c ****     }
 299              		.loc 1 207 42 discriminator 1
GAS LISTING C:\Users\test\AppData\Local\Temp\ccF0WSt9.s 			page 10


 300 000e A18B     		andi	a5,a5,8
 207:arch/riscv/mach-gd32vf10x/bsp/gd32vf103_adc.c ****     }
 301              		.loc 1 207 10 discriminator 1
 302 0010 F5FF     		bne	a5,zero,.L41
 209:arch/riscv/mach-gd32vf10x/bsp/gd32vf103_adc.c ****     /* enable ADC calibration process */
 210:arch/riscv/mach-gd32vf10x/bsp/gd32vf103_adc.c ****     ADC_CTL1(adc_periph) |= ADC_CTL1_CLB;
 303              		.loc 1 210 5 is_stmt 1
 304              		.loc 1 210 26 is_stmt 0
 305 0012 1C45     		lw	a5,8(a0)
 306 0014 93E74700 		ori	a5,a5,4
 307 0018 1CC5     		sw	a5,8(a0)
 211:arch/riscv/mach-gd32vf10x/bsp/gd32vf103_adc.c ****     /* check the CLB bit state */
 212:arch/riscv/mach-gd32vf10x/bsp/gd32vf103_adc.c ****     while(RESET != (ADC_CTL1(adc_periph) & ADC_CTL1_CLB)){
 308              		.loc 1 212 5 is_stmt 1
 309              	.L42:
 213:arch/riscv/mach-gd32vf10x/bsp/gd32vf103_adc.c ****     }
 310              		.loc 1 213 5 discriminator 1
 212:arch/riscv/mach-gd32vf10x/bsp/gd32vf103_adc.c ****     }
 311              		.loc 1 212 21 is_stmt 0 discriminator 1
 312 001a 1C43     		lw	a5,0(a4)
 212:arch/riscv/mach-gd32vf10x/bsp/gd32vf103_adc.c ****     }
 313              		.loc 1 212 42 discriminator 1
 314 001c 918B     		andi	a5,a5,4
 212:arch/riscv/mach-gd32vf10x/bsp/gd32vf103_adc.c ****     }
 315              		.loc 1 212 10 discriminator 1
 316 001e F5FF     		bne	a5,zero,.L42
 214:arch/riscv/mach-gd32vf10x/bsp/gd32vf103_adc.c **** }
 317              		.loc 1 214 1
 318 0020 8280     		ret
 319              		.cfi_endproc
 320              	.LFE8:
 322              		.section	.text.adc_tempsensor_vrefint_enable,"ax",@progbits
 323              		.align	1
 324              		.globl	adc_tempsensor_vrefint_enable
 326              	adc_tempsensor_vrefint_enable:
 327              	.LFB9:
 215:arch/riscv/mach-gd32vf10x/bsp/gd32vf103_adc.c **** 
 216:arch/riscv/mach-gd32vf10x/bsp/gd32vf103_adc.c **** /*!
 217:arch/riscv/mach-gd32vf10x/bsp/gd32vf103_adc.c ****     \brief      enable the temperature sensor and Vrefint channel
 218:arch/riscv/mach-gd32vf10x/bsp/gd32vf103_adc.c ****     \param[in]  none
 219:arch/riscv/mach-gd32vf10x/bsp/gd32vf103_adc.c ****     \param[out] none
 220:arch/riscv/mach-gd32vf10x/bsp/gd32vf103_adc.c ****     \retval     none
 221:arch/riscv/mach-gd32vf10x/bsp/gd32vf103_adc.c **** */
 222:arch/riscv/mach-gd32vf10x/bsp/gd32vf103_adc.c **** void adc_tempsensor_vrefint_enable(void)
 223:arch/riscv/mach-gd32vf10x/bsp/gd32vf103_adc.c **** {
 328              		.loc 1 223 1 is_stmt 1
 329              		.cfi_startproc
 224:arch/riscv/mach-gd32vf10x/bsp/gd32vf103_adc.c ****     /* enable the temperature sensor and Vrefint channel */
 225:arch/riscv/mach-gd32vf10x/bsp/gd32vf103_adc.c ****     ADC_CTL1(ADC0) |= ADC_CTL1_TSVREN;
 330              		.loc 1 225 5
 331              		.loc 1 225 20 is_stmt 0
 332 0000 37270140 		li	a4,1073815552
 333 0004 83278740 		lw	a5,1032(a4)
 334 0008 B7068000 		li	a3,8388608
 335 000c D58F     		or	a5,a5,a3
 336 000e 2324F740 		sw	a5,1032(a4)
 226:arch/riscv/mach-gd32vf10x/bsp/gd32vf103_adc.c **** }
GAS LISTING C:\Users\test\AppData\Local\Temp\ccF0WSt9.s 			page 11


 337              		.loc 1 226 1
 338 0012 8280     		ret
 339              		.cfi_endproc
 340              	.LFE9:
 342              		.section	.text.adc_tempsensor_vrefint_disable,"ax",@progbits
 343              		.align	1
 344              		.globl	adc_tempsensor_vrefint_disable
 346              	adc_tempsensor_vrefint_disable:
 347              	.LFB10:
 227:arch/riscv/mach-gd32vf10x/bsp/gd32vf103_adc.c **** 
 228:arch/riscv/mach-gd32vf10x/bsp/gd32vf103_adc.c **** /*!
 229:arch/riscv/mach-gd32vf10x/bsp/gd32vf103_adc.c ****     \brief      disable the temperature sensor and Vrefint channel
 230:arch/riscv/mach-gd32vf10x/bsp/gd32vf103_adc.c ****     \param[in]  none
 231:arch/riscv/mach-gd32vf10x/bsp/gd32vf103_adc.c ****     \param[out] none
 232:arch/riscv/mach-gd32vf10x/bsp/gd32vf103_adc.c ****     \retval     none
 233:arch/riscv/mach-gd32vf10x/bsp/gd32vf103_adc.c **** */
 234:arch/riscv/mach-gd32vf10x/bsp/gd32vf103_adc.c **** void adc_tempsensor_vrefint_disable(void)
 235:arch/riscv/mach-gd32vf10x/bsp/gd32vf103_adc.c **** {
 348              		.loc 1 235 1 is_stmt 1
 349              		.cfi_startproc
 236:arch/riscv/mach-gd32vf10x/bsp/gd32vf103_adc.c ****     /* disable the temperature sensor and Vrefint channel */
 237:arch/riscv/mach-gd32vf10x/bsp/gd32vf103_adc.c ****     ADC_CTL1(ADC0) &= ~ADC_CTL1_TSVREN;
 350              		.loc 1 237 5
 351              		.loc 1 237 20 is_stmt 0
 352 0000 B7260140 		li	a3,1073815552
 353 0004 83A78640 		lw	a5,1032(a3)
 354 0008 370780FF 		li	a4,-8388608
 355 000c 7D17     		addi	a4,a4,-1
 356 000e F98F     		and	a5,a5,a4
 357 0010 23A4F640 		sw	a5,1032(a3)
 238:arch/riscv/mach-gd32vf10x/bsp/gd32vf103_adc.c **** }
 358              		.loc 1 238 1
 359 0014 8280     		ret
 360              		.cfi_endproc
 361              	.LFE10:
 363              		.section	.text.adc_dma_mode_enable,"ax",@progbits
 364              		.align	1
 365              		.globl	adc_dma_mode_enable
 367              	adc_dma_mode_enable:
 368              	.LFB11:
 239:arch/riscv/mach-gd32vf10x/bsp/gd32vf103_adc.c **** 
 240:arch/riscv/mach-gd32vf10x/bsp/gd32vf103_adc.c **** /*!
 241:arch/riscv/mach-gd32vf10x/bsp/gd32vf103_adc.c ****     \brief      enable DMA request 
 242:arch/riscv/mach-gd32vf10x/bsp/gd32vf103_adc.c ****     \param[in]  adc_periph: ADCx, x=0,1
 243:arch/riscv/mach-gd32vf10x/bsp/gd32vf103_adc.c ****     \param[out] none
 244:arch/riscv/mach-gd32vf10x/bsp/gd32vf103_adc.c ****     \retval     none
 245:arch/riscv/mach-gd32vf10x/bsp/gd32vf103_adc.c **** */
 246:arch/riscv/mach-gd32vf10x/bsp/gd32vf103_adc.c **** void adc_dma_mode_enable(uint32_t adc_periph)
 247:arch/riscv/mach-gd32vf10x/bsp/gd32vf103_adc.c **** {
 369              		.loc 1 247 1 is_stmt 1
 370              		.cfi_startproc
 371              	.LVL17:
 248:arch/riscv/mach-gd32vf10x/bsp/gd32vf103_adc.c ****     /* enable DMA request */
 249:arch/riscv/mach-gd32vf10x/bsp/gd32vf103_adc.c ****     ADC_CTL1(adc_periph) |= (uint32_t)(ADC_CTL1_DMA);
 372              		.loc 1 249 5
 373              		.loc 1 249 26 is_stmt 0
 374 0000 1C45     		lw	a5,8(a0)
GAS LISTING C:\Users\test\AppData\Local\Temp\ccF0WSt9.s 			page 12


 375 0002 93E70710 		ori	a5,a5,256
 376 0006 1CC5     		sw	a5,8(a0)
 250:arch/riscv/mach-gd32vf10x/bsp/gd32vf103_adc.c **** }
 377              		.loc 1 250 1
 378 0008 8280     		ret
 379              		.cfi_endproc
 380              	.LFE11:
 382              		.section	.text.adc_dma_mode_disable,"ax",@progbits
 383              		.align	1
 384              		.globl	adc_dma_mode_disable
 386              	adc_dma_mode_disable:
 387              	.LFB12:
 251:arch/riscv/mach-gd32vf10x/bsp/gd32vf103_adc.c **** 
 252:arch/riscv/mach-gd32vf10x/bsp/gd32vf103_adc.c **** /*!
 253:arch/riscv/mach-gd32vf10x/bsp/gd32vf103_adc.c ****     \brief      disable DMA request 
 254:arch/riscv/mach-gd32vf10x/bsp/gd32vf103_adc.c ****     \param[in]  adc_periph: ADCx, x=0,1
 255:arch/riscv/mach-gd32vf10x/bsp/gd32vf103_adc.c ****     \param[out] none
 256:arch/riscv/mach-gd32vf10x/bsp/gd32vf103_adc.c ****     \retval     none
 257:arch/riscv/mach-gd32vf10x/bsp/gd32vf103_adc.c **** */
 258:arch/riscv/mach-gd32vf10x/bsp/gd32vf103_adc.c **** void adc_dma_mode_disable(uint32_t adc_periph)
 259:arch/riscv/mach-gd32vf10x/bsp/gd32vf103_adc.c **** {
 388              		.loc 1 259 1 is_stmt 1
 389              		.cfi_startproc
 390              	.LVL18:
 260:arch/riscv/mach-gd32vf10x/bsp/gd32vf103_adc.c ****     /* disable DMA request */
 261:arch/riscv/mach-gd32vf10x/bsp/gd32vf103_adc.c ****     ADC_CTL1(adc_periph) &= ~((uint32_t)ADC_CTL1_DMA);
 391              		.loc 1 261 5
 392              		.loc 1 261 26 is_stmt 0
 393 0000 1C45     		lw	a5,8(a0)
 394 0002 93F7F7EF 		andi	a5,a5,-257
 395 0006 1CC5     		sw	a5,8(a0)
 262:arch/riscv/mach-gd32vf10x/bsp/gd32vf103_adc.c **** }
 396              		.loc 1 262 1
 397 0008 8280     		ret
 398              		.cfi_endproc
 399              	.LFE12:
 401              		.section	.text.adc_discontinuous_mode_config,"ax",@progbits
 402              		.align	1
 403              		.globl	adc_discontinuous_mode_config
 405              	adc_discontinuous_mode_config:
 406              	.LFB13:
 263:arch/riscv/mach-gd32vf10x/bsp/gd32vf103_adc.c **** 
 264:arch/riscv/mach-gd32vf10x/bsp/gd32vf103_adc.c **** /*!
 265:arch/riscv/mach-gd32vf10x/bsp/gd32vf103_adc.c ****     \brief      configure ADC discontinuous mode 
 266:arch/riscv/mach-gd32vf10x/bsp/gd32vf103_adc.c ****     \param[in]  adc_periph: ADCx, x=0,1
 267:arch/riscv/mach-gd32vf10x/bsp/gd32vf103_adc.c ****     \param[in]  adc_channel_group: select the channel group
 268:arch/riscv/mach-gd32vf10x/bsp/gd32vf103_adc.c ****                 only one parameter can be selected which is shown as below:
 269:arch/riscv/mach-gd32vf10x/bsp/gd32vf103_adc.c ****       \arg        ADC_REGULAR_CHANNEL: regular channel group
 270:arch/riscv/mach-gd32vf10x/bsp/gd32vf103_adc.c ****       \arg        ADC_INSERTED_CHANNEL: inserted channel group
 271:arch/riscv/mach-gd32vf10x/bsp/gd32vf103_adc.c ****       \arg        ADC_CHANNEL_DISCON_DISABLE: disable discontinuous mode of regular & inserted chan
 272:arch/riscv/mach-gd32vf10x/bsp/gd32vf103_adc.c ****     \param[in]  length: number of conversions in discontinuous mode,the number can be 1..8
 273:arch/riscv/mach-gd32vf10x/bsp/gd32vf103_adc.c ****                         for regular channel, the number has no effect for inserted channel
 274:arch/riscv/mach-gd32vf10x/bsp/gd32vf103_adc.c ****     \param[out] none
 275:arch/riscv/mach-gd32vf10x/bsp/gd32vf103_adc.c ****     \retval     none
 276:arch/riscv/mach-gd32vf10x/bsp/gd32vf103_adc.c **** */
 277:arch/riscv/mach-gd32vf10x/bsp/gd32vf103_adc.c **** void adc_discontinuous_mode_config(uint32_t adc_periph, uint8_t adc_channel_group, uint8_t length)
 278:arch/riscv/mach-gd32vf10x/bsp/gd32vf103_adc.c **** {
GAS LISTING C:\Users\test\AppData\Local\Temp\ccF0WSt9.s 			page 13


 407              		.loc 1 278 1 is_stmt 1
 408              		.cfi_startproc
 409              	.LVL19:
 279:arch/riscv/mach-gd32vf10x/bsp/gd32vf103_adc.c ****     /* disable discontinuous mode of regular & inserted channel */
 280:arch/riscv/mach-gd32vf10x/bsp/gd32vf103_adc.c ****     ADC_CTL0(adc_periph) &= ~((uint32_t)(ADC_CTL0_DISRC | ADC_CTL0_DISIC));
 410              		.loc 1 280 5
 411              		.loc 1 280 26 is_stmt 0
 412 0000 5C41     		lw	a5,4(a0)
 413 0002 7977     		li	a4,-8192
 414 0004 1307F77F 		addi	a4,a4,2047
 415 0008 F98F     		and	a5,a5,a4
 416 000a 5CC1     		sw	a5,4(a0)
 281:arch/riscv/mach-gd32vf10x/bsp/gd32vf103_adc.c ****     switch(adc_channel_group){
 417              		.loc 1 281 5 is_stmt 1
 418 000c 8547     		li	a5,1
 419 000e 638BF500 		beq	a1,a5,.L50
 420 0012 8947     		li	a5,2
 421 0014 6397F500 		bne	a1,a5,.L53
 282:arch/riscv/mach-gd32vf10x/bsp/gd32vf103_adc.c ****     case ADC_REGULAR_CHANNEL:
 283:arch/riscv/mach-gd32vf10x/bsp/gd32vf103_adc.c ****         /* config the number of conversions in discontinuous mode */
 284:arch/riscv/mach-gd32vf10x/bsp/gd32vf103_adc.c ****         ADC_CTL0(adc_periph) &= ~((uint32_t)ADC_CTL0_DISNUM);
 285:arch/riscv/mach-gd32vf10x/bsp/gd32vf103_adc.c ****         ADC_CTL0(adc_periph) |= CTL0_DISNUM(((uint32_t)length - ADC_CHANNEL_LENGTH_SUBTRACT_ONE));
 286:arch/riscv/mach-gd32vf10x/bsp/gd32vf103_adc.c ****         /* enable regular channel group discontinuous mode */
 287:arch/riscv/mach-gd32vf10x/bsp/gd32vf103_adc.c ****         ADC_CTL0(adc_periph) |= (uint32_t)ADC_CTL0_DISRC;
 288:arch/riscv/mach-gd32vf10x/bsp/gd32vf103_adc.c ****         break;
 289:arch/riscv/mach-gd32vf10x/bsp/gd32vf103_adc.c ****     case ADC_INSERTED_CHANNEL:
 290:arch/riscv/mach-gd32vf10x/bsp/gd32vf103_adc.c ****         /* enable inserted channel group discontinuous mode */
 291:arch/riscv/mach-gd32vf10x/bsp/gd32vf103_adc.c ****         ADC_CTL0(adc_periph) |= (uint32_t)ADC_CTL0_DISIC;
 422              		.loc 1 291 9
 423              		.loc 1 291 30 is_stmt 0
 424 0018 5C41     		lw	a5,4(a0)
 425 001a 0567     		li	a4,4096
 426 001c D98F     		or	a5,a5,a4
 427 001e 5CC1     		sw	a5,4(a0)
 292:arch/riscv/mach-gd32vf10x/bsp/gd32vf103_adc.c ****         break;
 428              		.loc 1 292 9 is_stmt 1
 293:arch/riscv/mach-gd32vf10x/bsp/gd32vf103_adc.c ****     case ADC_CHANNEL_DISCON_DISABLE:
 294:arch/riscv/mach-gd32vf10x/bsp/gd32vf103_adc.c ****         /* disable discontinuous mode of regular & inserted channel */
 295:arch/riscv/mach-gd32vf10x/bsp/gd32vf103_adc.c ****     default:
 296:arch/riscv/mach-gd32vf10x/bsp/gd32vf103_adc.c ****         break;
 297:arch/riscv/mach-gd32vf10x/bsp/gd32vf103_adc.c ****     }
 298:arch/riscv/mach-gd32vf10x/bsp/gd32vf103_adc.c **** }
 429              		.loc 1 298 1 is_stmt 0
 430 0020 8280     		ret
 431              	.L53:
 432 0022 8280     		ret
 433              	.L50:
 284:arch/riscv/mach-gd32vf10x/bsp/gd32vf103_adc.c ****         ADC_CTL0(adc_periph) |= CTL0_DISNUM(((uint32_t)length - ADC_CHANNEL_LENGTH_SUBTRACT_ONE));
 434              		.loc 1 284 9 is_stmt 1
 284:arch/riscv/mach-gd32vf10x/bsp/gd32vf103_adc.c ****         ADC_CTL0(adc_periph) |= CTL0_DISNUM(((uint32_t)length - ADC_CHANNEL_LENGTH_SUBTRACT_ONE));
 435              		.loc 1 284 30 is_stmt 0
 436 0024 5C41     		lw	a5,4(a0)
 437 0026 4977     		li	a4,-57344
 438 0028 7D17     		addi	a4,a4,-1
 439 002a F98F     		and	a5,a5,a4
 440 002c 5CC1     		sw	a5,4(a0)
 285:arch/riscv/mach-gd32vf10x/bsp/gd32vf103_adc.c ****         /* enable regular channel group discontinuous mode */
GAS LISTING C:\Users\test\AppData\Local\Temp\ccF0WSt9.s 			page 14


 441              		.loc 1 285 9 is_stmt 1
 285:arch/riscv/mach-gd32vf10x/bsp/gd32vf103_adc.c ****         /* enable regular channel group discontinuous mode */
 442              		.loc 1 285 30 is_stmt 0
 443 002e 5C41     		lw	a5,4(a0)
 285:arch/riscv/mach-gd32vf10x/bsp/gd32vf103_adc.c ****         /* enable regular channel group discontinuous mode */
 444              		.loc 1 285 33
 445 0030 7D16     		addi	a2,a2,-1
 446              	.LVL20:
 447 0032 3967     		li	a4,57344
 448 0034 3606     		slli	a2,a2,13
 449 0036 798E     		and	a2,a2,a4
 285:arch/riscv/mach-gd32vf10x/bsp/gd32vf103_adc.c ****         /* enable regular channel group discontinuous mode */
 450              		.loc 1 285 30
 451 0038 5D8E     		or	a2,a2,a5
 452 003a 50C1     		sw	a2,4(a0)
 287:arch/riscv/mach-gd32vf10x/bsp/gd32vf103_adc.c ****         break;
 453              		.loc 1 287 9 is_stmt 1
 287:arch/riscv/mach-gd32vf10x/bsp/gd32vf103_adc.c ****         break;
 454              		.loc 1 287 30 is_stmt 0
 455 003c 5C41     		lw	a5,4(a0)
 456 003e 0567     		li	a4,4096
 457 0040 13070780 		addi	a4,a4,-2048
 458 0044 D98F     		or	a5,a5,a4
 459 0046 5CC1     		sw	a5,4(a0)
 288:arch/riscv/mach-gd32vf10x/bsp/gd32vf103_adc.c ****     case ADC_INSERTED_CHANNEL:
 460              		.loc 1 288 9 is_stmt 1
 461 0048 8280     		ret
 462              		.cfi_endproc
 463              	.LFE13:
 465              		.section	.text.adc_channel_length_config,"ax",@progbits
 466              		.align	1
 467              		.globl	adc_channel_length_config
 469              	adc_channel_length_config:
 470              	.LFB14:
 299:arch/riscv/mach-gd32vf10x/bsp/gd32vf103_adc.c **** 
 300:arch/riscv/mach-gd32vf10x/bsp/gd32vf103_adc.c **** /*!
 301:arch/riscv/mach-gd32vf10x/bsp/gd32vf103_adc.c ****     \brief      configure the length of regular channel group or inserted channel group
 302:arch/riscv/mach-gd32vf10x/bsp/gd32vf103_adc.c ****     \param[in]  adc_periph: ADCx, x=0,1
 303:arch/riscv/mach-gd32vf10x/bsp/gd32vf103_adc.c ****     \param[in]  adc_channel_group: select the channel group
 304:arch/riscv/mach-gd32vf10x/bsp/gd32vf103_adc.c ****                 only one parameter can be selected which is shown as below:
 305:arch/riscv/mach-gd32vf10x/bsp/gd32vf103_adc.c ****       \arg        ADC_REGULAR_CHANNEL: regular channel group
 306:arch/riscv/mach-gd32vf10x/bsp/gd32vf103_adc.c ****       \arg        ADC_INSERTED_CHANNEL: inserted channel group
 307:arch/riscv/mach-gd32vf10x/bsp/gd32vf103_adc.c ****     \param[in]  length: the length of the channel
 308:arch/riscv/mach-gd32vf10x/bsp/gd32vf103_adc.c ****                         regular channel 1-16
 309:arch/riscv/mach-gd32vf10x/bsp/gd32vf103_adc.c ****                         inserted channel 1-4
 310:arch/riscv/mach-gd32vf10x/bsp/gd32vf103_adc.c ****     \param[out] none
 311:arch/riscv/mach-gd32vf10x/bsp/gd32vf103_adc.c ****     \retval     none
 312:arch/riscv/mach-gd32vf10x/bsp/gd32vf103_adc.c **** */
 313:arch/riscv/mach-gd32vf10x/bsp/gd32vf103_adc.c **** void adc_channel_length_config(uint32_t adc_periph, uint8_t adc_channel_group, uint32_t length)
 314:arch/riscv/mach-gd32vf10x/bsp/gd32vf103_adc.c **** {
 471              		.loc 1 314 1
 472              		.cfi_startproc
 473              	.LVL21:
 315:arch/riscv/mach-gd32vf10x/bsp/gd32vf103_adc.c ****     switch(adc_channel_group){
 474              		.loc 1 315 5
 475 0000 8547     		li	a5,1
 476 0002 6385F502 		beq	a1,a5,.L55
GAS LISTING C:\Users\test\AppData\Local\Temp\ccF0WSt9.s 			page 15


 477 0006 8947     		li	a5,2
 478 0008 6391F502 		bne	a1,a5,.L58
 316:arch/riscv/mach-gd32vf10x/bsp/gd32vf103_adc.c ****     case ADC_REGULAR_CHANNEL:
 317:arch/riscv/mach-gd32vf10x/bsp/gd32vf103_adc.c ****         /* configure the length of regular channel group */
 318:arch/riscv/mach-gd32vf10x/bsp/gd32vf103_adc.c ****         ADC_RSQ0(adc_periph) &= ~((uint32_t)ADC_RSQ0_RL);
 319:arch/riscv/mach-gd32vf10x/bsp/gd32vf103_adc.c ****         ADC_RSQ0(adc_periph) |= RSQ0_RL((uint32_t)(length-ADC_CHANNEL_LENGTH_SUBTRACT_ONE));
 320:arch/riscv/mach-gd32vf10x/bsp/gd32vf103_adc.c ****         break;
 321:arch/riscv/mach-gd32vf10x/bsp/gd32vf103_adc.c ****     case ADC_INSERTED_CHANNEL:
 322:arch/riscv/mach-gd32vf10x/bsp/gd32vf103_adc.c ****         /* configure the length of inserted channel group */
 323:arch/riscv/mach-gd32vf10x/bsp/gd32vf103_adc.c ****         ADC_ISQ(adc_periph) &= ~((uint32_t)ADC_ISQ_IL);
 479              		.loc 1 323 9
 480              		.loc 1 323 29 is_stmt 0
 481 000c 1C5D     		lw	a5,56(a0)
 482 000e 3707D0FF 		li	a4,-3145728
 483 0012 7D17     		addi	a4,a4,-1
 484 0014 F98F     		and	a5,a5,a4
 485 0016 1CDD     		sw	a5,56(a0)
 324:arch/riscv/mach-gd32vf10x/bsp/gd32vf103_adc.c ****         ADC_ISQ(adc_periph) |= ISQ_IL((uint32_t)(length-ADC_CHANNEL_LENGTH_SUBTRACT_ONE));
 486              		.loc 1 324 9 is_stmt 1
 487              		.loc 1 324 29 is_stmt 0
 488 0018 1C5D     		lw	a5,56(a0)
 489              		.loc 1 324 32
 490 001a 7D16     		addi	a2,a2,-1
 491              	.LVL22:
 492 001c 5206     		slli	a2,a2,20
 493              	.LVL23:
 494 001e 37073000 		li	a4,3145728
 495 0022 798E     		and	a2,a2,a4
 496              		.loc 1 324 29
 497 0024 5D8E     		or	a2,a2,a5
 498 0026 10DD     		sw	a2,56(a0)
 325:arch/riscv/mach-gd32vf10x/bsp/gd32vf103_adc.c ****         break;
 499              		.loc 1 325 9 is_stmt 1
 326:arch/riscv/mach-gd32vf10x/bsp/gd32vf103_adc.c ****     default:
 327:arch/riscv/mach-gd32vf10x/bsp/gd32vf103_adc.c ****         break;
 328:arch/riscv/mach-gd32vf10x/bsp/gd32vf103_adc.c ****     }
 329:arch/riscv/mach-gd32vf10x/bsp/gd32vf103_adc.c **** }
 500              		.loc 1 329 1 is_stmt 0
 501 0028 8280     		ret
 502              	.LVL24:
 503              	.L58:
 504 002a 8280     		ret
 505              	.L55:
 318:arch/riscv/mach-gd32vf10x/bsp/gd32vf103_adc.c ****         ADC_RSQ0(adc_periph) |= RSQ0_RL((uint32_t)(length-ADC_CHANNEL_LENGTH_SUBTRACT_ONE));
 506              		.loc 1 318 9 is_stmt 1
 318:arch/riscv/mach-gd32vf10x/bsp/gd32vf103_adc.c ****         ADC_RSQ0(adc_periph) |= RSQ0_RL((uint32_t)(length-ADC_CHANNEL_LENGTH_SUBTRACT_ONE));
 507              		.loc 1 318 30 is_stmt 0
 508 002c 5C55     		lw	a5,44(a0)
 509 002e 370710FF 		li	a4,-15728640
 510 0032 7D17     		addi	a4,a4,-1
 511 0034 F98F     		and	a5,a5,a4
 512 0036 5CD5     		sw	a5,44(a0)
 319:arch/riscv/mach-gd32vf10x/bsp/gd32vf103_adc.c ****         break;
 513              		.loc 1 319 9 is_stmt 1
 319:arch/riscv/mach-gd32vf10x/bsp/gd32vf103_adc.c ****         break;
 514              		.loc 1 319 30 is_stmt 0
 515 0038 5C55     		lw	a5,44(a0)
GAS LISTING C:\Users\test\AppData\Local\Temp\ccF0WSt9.s 			page 16


 319:arch/riscv/mach-gd32vf10x/bsp/gd32vf103_adc.c ****         break;
 516              		.loc 1 319 33
 517 003a 7D16     		addi	a2,a2,-1
 518              	.LVL25:
 519 003c 5206     		slli	a2,a2,20
 520              	.LVL26:
 521 003e 3707F000 		li	a4,15728640
 522 0042 798E     		and	a2,a2,a4
 319:arch/riscv/mach-gd32vf10x/bsp/gd32vf103_adc.c ****         break;
 523              		.loc 1 319 30
 524 0044 5D8E     		or	a2,a2,a5
 525 0046 50D5     		sw	a2,44(a0)
 320:arch/riscv/mach-gd32vf10x/bsp/gd32vf103_adc.c ****     case ADC_INSERTED_CHANNEL:
 526              		.loc 1 320 9 is_stmt 1
 527 0048 8280     		ret
 528              		.cfi_endproc
 529              	.LFE14:
 531              		.section	.text.adc_regular_channel_config,"ax",@progbits
 532              		.align	1
 533              		.globl	adc_regular_channel_config
 535              	adc_regular_channel_config:
 536              	.LFB15:
 330:arch/riscv/mach-gd32vf10x/bsp/gd32vf103_adc.c **** 
 331:arch/riscv/mach-gd32vf10x/bsp/gd32vf103_adc.c **** /*!
 332:arch/riscv/mach-gd32vf10x/bsp/gd32vf103_adc.c ****     \brief      configure ADC regular channel 
 333:arch/riscv/mach-gd32vf10x/bsp/gd32vf103_adc.c ****     \param[in]  adc_periph: ADCx, x=0,1
 334:arch/riscv/mach-gd32vf10x/bsp/gd32vf103_adc.c ****     \param[in]  rank: the regular group sequence rank,this parameter must be between 0 to 15
 335:arch/riscv/mach-gd32vf10x/bsp/gd32vf103_adc.c ****     \param[in]  adc_channel: the selected ADC channel
 336:arch/riscv/mach-gd32vf10x/bsp/gd32vf103_adc.c ****                 only one parameter can be selected which is shown as below:
 337:arch/riscv/mach-gd32vf10x/bsp/gd32vf103_adc.c ****       \arg        ADC_CHANNEL_x(x=0..17)(x=16 and x=17 are only for ADC0): ADC Channelx 
 338:arch/riscv/mach-gd32vf10x/bsp/gd32vf103_adc.c ****     \param[in]  sample_time: the sample time value
 339:arch/riscv/mach-gd32vf10x/bsp/gd32vf103_adc.c ****                 only one parameter can be selected which is shown as below:
 340:arch/riscv/mach-gd32vf10x/bsp/gd32vf103_adc.c ****       \arg        ADC_SAMPLETIME_1POINT5: 1.5 cycles
 341:arch/riscv/mach-gd32vf10x/bsp/gd32vf103_adc.c ****       \arg        ADC_SAMPLETIME_7POINT5: 7.5 cycles
 342:arch/riscv/mach-gd32vf10x/bsp/gd32vf103_adc.c ****       \arg        ADC_SAMPLETIME_13POINT5: 13.5 cycles
 343:arch/riscv/mach-gd32vf10x/bsp/gd32vf103_adc.c ****       \arg        ADC_SAMPLETIME_28POINT5: 28.5 cycles
 344:arch/riscv/mach-gd32vf10x/bsp/gd32vf103_adc.c ****       \arg        ADC_SAMPLETIME_41POINT5: 41.5 cycles
 345:arch/riscv/mach-gd32vf10x/bsp/gd32vf103_adc.c ****       \arg        ADC_SAMPLETIME_55POINT5: 55.5 cycles
 346:arch/riscv/mach-gd32vf10x/bsp/gd32vf103_adc.c ****       \arg        ADC_SAMPLETIME_71POINT5: 71.5 cycles
 347:arch/riscv/mach-gd32vf10x/bsp/gd32vf103_adc.c ****       \arg        ADC_SAMPLETIME_239POINT5: 239.5 cycles
 348:arch/riscv/mach-gd32vf10x/bsp/gd32vf103_adc.c ****     \param[out] none
 349:arch/riscv/mach-gd32vf10x/bsp/gd32vf103_adc.c ****     \retval     none
 350:arch/riscv/mach-gd32vf10x/bsp/gd32vf103_adc.c **** */
 351:arch/riscv/mach-gd32vf10x/bsp/gd32vf103_adc.c **** void adc_regular_channel_config(uint32_t adc_periph, uint8_t rank, uint8_t adc_channel, uint32_t sa
 352:arch/riscv/mach-gd32vf10x/bsp/gd32vf103_adc.c **** {
 537              		.loc 1 352 1
 538              		.cfi_startproc
 539              	.LVL27:
 353:arch/riscv/mach-gd32vf10x/bsp/gd32vf103_adc.c ****     uint32_t rsq,sampt;
 540              		.loc 1 353 5
 354:arch/riscv/mach-gd32vf10x/bsp/gd32vf103_adc.c ****     
 355:arch/riscv/mach-gd32vf10x/bsp/gd32vf103_adc.c ****     /* ADC regular sequence config */
 356:arch/riscv/mach-gd32vf10x/bsp/gd32vf103_adc.c ****     if(rank < ADC_REGULAR_CHANNEL_RANK_SIX){
 541              		.loc 1 356 5
 542              		.loc 1 356 7 is_stmt 0
 543 0000 9547     		li	a5,5
 544 0002 63E2B704 		bgtu	a1,a5,.L60
GAS LISTING C:\Users\test\AppData\Local\Temp\ccF0WSt9.s 			page 17


 357:arch/riscv/mach-gd32vf10x/bsp/gd32vf103_adc.c ****         /* the regular group sequence rank is smaller than six */
 358:arch/riscv/mach-gd32vf10x/bsp/gd32vf103_adc.c ****         rsq = ADC_RSQ2(adc_periph);
 545              		.loc 1 358 9 is_stmt 1
 359:arch/riscv/mach-gd32vf10x/bsp/gd32vf103_adc.c ****         rsq &=  ~((uint32_t)(ADC_RSQX_RSQN << (ADC_REGULAR_CHANNEL_RANK_LENGTH*rank)));
 546              		.loc 1 359 79 is_stmt 0
 547 0006 93972500 		slli	a5,a1,2
 548 000a BE95     		add	a1,a5,a1
 549              	.LVL28:
 358:arch/riscv/mach-gd32vf10x/bsp/gd32vf103_adc.c ****         rsq &=  ~((uint32_t)(ADC_RSQX_RSQN << (ADC_REGULAR_CHANNEL_RANK_LENGTH*rank)));
 550              		.loc 1 358 13
 551 000c 5859     		lw	a4,52(a0)
 552              	.LVL29:
 553              		.loc 1 359 9 is_stmt 1
 554              		.loc 1 359 19 is_stmt 0
 555 000e FD47     		li	a5,31
 556 0010 B397B700 		sll	a5,a5,a1
 557              		.loc 1 359 17
 558 0014 93C7F7FF 		not	a5,a5
 559              		.loc 1 359 13
 560 0018 F98F     		and	a5,a5,a4
 561              	.LVL30:
 360:arch/riscv/mach-gd32vf10x/bsp/gd32vf103_adc.c ****         /* the channel number is written to these bits to select a channel as the nth conversion in
 361:arch/riscv/mach-gd32vf10x/bsp/gd32vf103_adc.c ****         rsq |= ((uint32_t)adc_channel << (ADC_REGULAR_CHANNEL_RANK_LENGTH*rank));
 562              		.loc 1 361 9 is_stmt 1
 563              		.loc 1 361 39 is_stmt 0
 564 001a B315B600 		sll	a1,a2,a1
 565              		.loc 1 361 13
 566 001e DD8D     		or	a1,a1,a5
 567              	.LVL31:
 362:arch/riscv/mach-gd32vf10x/bsp/gd32vf103_adc.c ****         ADC_RSQ2(adc_periph) = rsq;
 568              		.loc 1 362 9 is_stmt 1
 569              		.loc 1 362 30 is_stmt 0
 570 0020 4CD9     		sw	a1,52(a0)
 571              	.LVL32:
 572              	.L61:
 363:arch/riscv/mach-gd32vf10x/bsp/gd32vf103_adc.c ****     }else if(rank < ADC_REGULAR_CHANNEL_RANK_TWELVE){
 364:arch/riscv/mach-gd32vf10x/bsp/gd32vf103_adc.c ****         /* the regular group sequence rank is smaller than twelve */
 365:arch/riscv/mach-gd32vf10x/bsp/gd32vf103_adc.c ****         rsq = ADC_RSQ1(adc_periph);
 366:arch/riscv/mach-gd32vf10x/bsp/gd32vf103_adc.c ****         rsq &= ~((uint32_t)(ADC_RSQX_RSQN << (ADC_REGULAR_CHANNEL_RANK_LENGTH*(rank-ADC_REGULAR_CHA
 367:arch/riscv/mach-gd32vf10x/bsp/gd32vf103_adc.c ****         /* the channel number is written to these bits to select a channel as the nth conversion in
 368:arch/riscv/mach-gd32vf10x/bsp/gd32vf103_adc.c ****         rsq |= ((uint32_t)adc_channel << (ADC_REGULAR_CHANNEL_RANK_LENGTH*(rank-ADC_REGULAR_CHANNEL
 369:arch/riscv/mach-gd32vf10x/bsp/gd32vf103_adc.c ****         ADC_RSQ1(adc_periph) = rsq;
 370:arch/riscv/mach-gd32vf10x/bsp/gd32vf103_adc.c ****     }else if(rank < ADC_REGULAR_CHANNEL_RANK_SIXTEEN){
 371:arch/riscv/mach-gd32vf10x/bsp/gd32vf103_adc.c ****         /* the regular group sequence rank is smaller than sixteen */
 372:arch/riscv/mach-gd32vf10x/bsp/gd32vf103_adc.c ****         rsq = ADC_RSQ0(adc_periph);
 373:arch/riscv/mach-gd32vf10x/bsp/gd32vf103_adc.c ****         rsq &= ~((uint32_t)(ADC_RSQX_RSQN << (ADC_REGULAR_CHANNEL_RANK_LENGTH*(rank-ADC_REGULAR_CHA
 374:arch/riscv/mach-gd32vf10x/bsp/gd32vf103_adc.c ****         /* the channel number is written to these bits to select a channel as the nth conversion in
 375:arch/riscv/mach-gd32vf10x/bsp/gd32vf103_adc.c ****         rsq |= ((uint32_t)adc_channel << (ADC_REGULAR_CHANNEL_RANK_LENGTH*(rank-ADC_REGULAR_CHANNEL
 376:arch/riscv/mach-gd32vf10x/bsp/gd32vf103_adc.c ****         ADC_RSQ0(adc_periph) = rsq;
 377:arch/riscv/mach-gd32vf10x/bsp/gd32vf103_adc.c ****     }else{
 378:arch/riscv/mach-gd32vf10x/bsp/gd32vf103_adc.c ****     }
 573              		.loc 1 378 5 is_stmt 1
 379:arch/riscv/mach-gd32vf10x/bsp/gd32vf103_adc.c ****     
 380:arch/riscv/mach-gd32vf10x/bsp/gd32vf103_adc.c ****     /* ADC sampling time config */
 381:arch/riscv/mach-gd32vf10x/bsp/gd32vf103_adc.c ****     if(adc_channel < ADC_CHANNEL_SAMPLE_TEN){
 574              		.loc 1 381 5
 575              		.loc 1 381 7 is_stmt 0
GAS LISTING C:\Users\test\AppData\Local\Temp\ccF0WSt9.s 			page 18


 576 0022 A547     		li	a5,9
 577 0024 63E6C704 		bgtu	a2,a5,.L63
 578              	.L65:
 382:arch/riscv/mach-gd32vf10x/bsp/gd32vf103_adc.c ****         /* the regular group sequence rank is smaller than ten */
 383:arch/riscv/mach-gd32vf10x/bsp/gd32vf103_adc.c ****         sampt = ADC_SAMPT1(adc_periph);
 579              		.loc 1 383 9 is_stmt 1
 384:arch/riscv/mach-gd32vf10x/bsp/gd32vf103_adc.c ****         sampt &= ~((uint32_t)(ADC_SAMPTX_SPTN << (ADC_CHANNEL_SAMPLE_LENGTH*adc_channel)));
 580              		.loc 1 384 76 is_stmt 0
 581 0028 93171600 		slli	a5,a2,1
 582 002c 3E96     		add	a2,a5,a2
 583              	.LVL33:
 383:arch/riscv/mach-gd32vf10x/bsp/gd32vf103_adc.c ****         sampt &= ~((uint32_t)(ADC_SAMPTX_SPTN << (ADC_CHANNEL_SAMPLE_LENGTH*adc_channel)));
 584              		.loc 1 383 15
 585 002e 1849     		lw	a4,16(a0)
 586              	.LVL34:
 587              		.loc 1 384 9 is_stmt 1
 588              		.loc 1 384 20 is_stmt 0
 589 0030 9D47     		li	a5,7
 590 0032 B397C700 		sll	a5,a5,a2
 591              		.loc 1 384 18
 592 0036 93C7F7FF 		not	a5,a5
 593              		.loc 1 384 15
 594 003a F98F     		and	a5,a5,a4
 595              	.LVL35:
 385:arch/riscv/mach-gd32vf10x/bsp/gd32vf103_adc.c ****         /* channel sample time set*/
 386:arch/riscv/mach-gd32vf10x/bsp/gd32vf103_adc.c ****         sampt |= (uint32_t)(sample_time << (ADC_CHANNEL_SAMPLE_LENGTH*adc_channel));
 596              		.loc 1 386 9 is_stmt 1
 597              		.loc 1 386 41 is_stmt 0
 598 003c 3396C600 		sll	a2,a3,a2
 599              		.loc 1 386 15
 600 0040 5D8E     		or	a2,a2,a5
 601              	.LVL36:
 387:arch/riscv/mach-gd32vf10x/bsp/gd32vf103_adc.c ****         ADC_SAMPT1(adc_periph) = sampt;
 602              		.loc 1 387 9 is_stmt 1
 603              		.loc 1 387 32 is_stmt 0
 604 0042 10C9     		sw	a2,16(a0)
 605 0044 8280     		ret
 606              	.LVL37:
 607              	.L60:
 363:arch/riscv/mach-gd32vf10x/bsp/gd32vf103_adc.c ****         /* the regular group sequence rank is smaller than twelve */
 608              		.loc 1 363 11 is_stmt 1
 363:arch/riscv/mach-gd32vf10x/bsp/gd32vf103_adc.c ****         /* the regular group sequence rank is smaller than twelve */
 609              		.loc 1 363 13 is_stmt 0
 610 0046 AD47     		li	a5,11
 611 0048 63E7B704 		bgtu	a1,a5,.L62
 365:arch/riscv/mach-gd32vf10x/bsp/gd32vf103_adc.c ****         rsq &= ~((uint32_t)(ADC_RSQX_RSQN << (ADC_REGULAR_CHANNEL_RANK_LENGTH*(rank-ADC_REGULAR_CHA
 612              		.loc 1 365 9 is_stmt 1
 366:arch/riscv/mach-gd32vf10x/bsp/gd32vf103_adc.c ****         /* the channel number is written to these bits to select a channel as the nth conversion in
 613              		.loc 1 366 84 is_stmt 0
 614 004c E915     		addi	a1,a1,-6
 615              	.LVL38:
 366:arch/riscv/mach-gd32vf10x/bsp/gd32vf103_adc.c ****         /* the channel number is written to these bits to select a channel as the nth conversion in
 616              		.loc 1 366 78
 617 004e 93972500 		slli	a5,a1,2
 618 0052 BE95     		add	a1,a5,a1
 365:arch/riscv/mach-gd32vf10x/bsp/gd32vf103_adc.c ****         rsq &= ~((uint32_t)(ADC_RSQX_RSQN << (ADC_REGULAR_CHANNEL_RANK_LENGTH*(rank-ADC_REGULAR_CHA
 619              		.loc 1 365 13
GAS LISTING C:\Users\test\AppData\Local\Temp\ccF0WSt9.s 			page 19


 620 0054 1859     		lw	a4,48(a0)
 621              	.LVL39:
 366:arch/riscv/mach-gd32vf10x/bsp/gd32vf103_adc.c ****         /* the channel number is written to these bits to select a channel as the nth conversion in
 622              		.loc 1 366 9 is_stmt 1
 366:arch/riscv/mach-gd32vf10x/bsp/gd32vf103_adc.c ****         /* the channel number is written to these bits to select a channel as the nth conversion in
 623              		.loc 1 366 18 is_stmt 0
 624 0056 FD47     		li	a5,31
 625 0058 B397B700 		sll	a5,a5,a1
 366:arch/riscv/mach-gd32vf10x/bsp/gd32vf103_adc.c ****         /* the channel number is written to these bits to select a channel as the nth conversion in
 626              		.loc 1 366 16
 627 005c 93C7F7FF 		not	a5,a5
 366:arch/riscv/mach-gd32vf10x/bsp/gd32vf103_adc.c ****         /* the channel number is written to these bits to select a channel as the nth conversion in
 628              		.loc 1 366 13
 629 0060 F98F     		and	a5,a5,a4
 630              	.LVL40:
 368:arch/riscv/mach-gd32vf10x/bsp/gd32vf103_adc.c ****         ADC_RSQ1(adc_periph) = rsq;
 631              		.loc 1 368 9 is_stmt 1
 368:arch/riscv/mach-gd32vf10x/bsp/gd32vf103_adc.c ****         ADC_RSQ1(adc_periph) = rsq;
 632              		.loc 1 368 39 is_stmt 0
 633 0062 B315B600 		sll	a1,a2,a1
 368:arch/riscv/mach-gd32vf10x/bsp/gd32vf103_adc.c ****         ADC_RSQ1(adc_periph) = rsq;
 634              		.loc 1 368 13
 635 0066 DD8D     		or	a1,a1,a5
 636              	.LVL41:
 369:arch/riscv/mach-gd32vf10x/bsp/gd32vf103_adc.c ****     }else if(rank < ADC_REGULAR_CHANNEL_RANK_SIXTEEN){
 637              		.loc 1 369 9 is_stmt 1
 369:arch/riscv/mach-gd32vf10x/bsp/gd32vf103_adc.c ****     }else if(rank < ADC_REGULAR_CHANNEL_RANK_SIXTEEN){
 638              		.loc 1 369 30 is_stmt 0
 639 0068 0CD9     		sw	a1,48(a0)
 378:arch/riscv/mach-gd32vf10x/bsp/gd32vf103_adc.c ****     
 640              		.loc 1 378 5 is_stmt 1
 381:arch/riscv/mach-gd32vf10x/bsp/gd32vf103_adc.c ****         /* the regular group sequence rank is smaller than ten */
 641              		.loc 1 381 5
 381:arch/riscv/mach-gd32vf10x/bsp/gd32vf103_adc.c ****         /* the regular group sequence rank is smaller than ten */
 642              		.loc 1 381 7 is_stmt 0
 643 006a A547     		li	a5,9
 644 006c E3FEC7FA 		bleu	a2,a5,.L65
 645              	.LVL42:
 646              	.L63:
 388:arch/riscv/mach-gd32vf10x/bsp/gd32vf103_adc.c ****     }else if(adc_channel < ADC_CHANNEL_SAMPLE_EIGHTEEN){
 647              		.loc 1 388 11 is_stmt 1
 648              		.loc 1 388 13 is_stmt 0
 649 0070 C547     		li	a5,17
 650 0072 63E1C702 		bgtu	a2,a5,.L59
 389:arch/riscv/mach-gd32vf10x/bsp/gd32vf103_adc.c ****         /* the regular group sequence rank is smaller than eighteen */
 390:arch/riscv/mach-gd32vf10x/bsp/gd32vf103_adc.c ****         sampt = ADC_SAMPT0(adc_periph);
 651              		.loc 1 390 9 is_stmt 1
 391:arch/riscv/mach-gd32vf10x/bsp/gd32vf103_adc.c ****         sampt &= ~((uint32_t)(ADC_SAMPTX_SPTN << (ADC_CHANNEL_SAMPLE_LENGTH*(adc_channel-ADC_CHANNE
 652              		.loc 1 391 89 is_stmt 0
 653 0076 5916     		addi	a2,a2,-10
 654              	.LVL43:
 655              		.loc 1 391 76
 656 0078 13171600 		slli	a4,a2,1
 390:arch/riscv/mach-gd32vf10x/bsp/gd32vf103_adc.c ****         sampt &= ~((uint32_t)(ADC_SAMPTX_SPTN << (ADC_CHANNEL_SAMPLE_LENGTH*(adc_channel-ADC_CHANNE
 657              		.loc 1 390 15
 658 007c 4C45     		lw	a1,12(a0)
 659              	.LVL44:
GAS LISTING C:\Users\test\AppData\Local\Temp\ccF0WSt9.s 			page 20


 660              		.loc 1 391 9 is_stmt 1
 661              		.loc 1 391 76 is_stmt 0
 662 007e 3A96     		add	a2,a4,a2
 663              		.loc 1 391 20
 664 0080 9D47     		li	a5,7
 665 0082 B397C700 		sll	a5,a5,a2
 666              		.loc 1 391 18
 667 0086 93C7F7FF 		not	a5,a5
 668              		.loc 1 391 15
 669 008a ED8F     		and	a5,a5,a1
 670              	.LVL45:
 392:arch/riscv/mach-gd32vf10x/bsp/gd32vf103_adc.c ****         /* channel sample time set*/
 393:arch/riscv/mach-gd32vf10x/bsp/gd32vf103_adc.c ****         sampt |= (uint32_t)(sample_time << (ADC_CHANNEL_SAMPLE_LENGTH*(adc_channel-ADC_CHANNEL_SAMP
 671              		.loc 1 393 9 is_stmt 1
 672              		.loc 1 393 41 is_stmt 0
 673 008c 3396C600 		sll	a2,a3,a2
 674              		.loc 1 393 15
 675 0090 5D8E     		or	a2,a2,a5
 676              	.LVL46:
 394:arch/riscv/mach-gd32vf10x/bsp/gd32vf103_adc.c ****         ADC_SAMPT0(adc_periph) = sampt;
 677              		.loc 1 394 9 is_stmt 1
 678              		.loc 1 394 32 is_stmt 0
 679 0092 50C5     		sw	a2,12(a0)
 395:arch/riscv/mach-gd32vf10x/bsp/gd32vf103_adc.c ****     }else{
 396:arch/riscv/mach-gd32vf10x/bsp/gd32vf103_adc.c ****     }
 680              		.loc 1 396 5 is_stmt 1
 681              	.LVL47:
 682              	.L59:
 397:arch/riscv/mach-gd32vf10x/bsp/gd32vf103_adc.c **** }
 683              		.loc 1 397 1 is_stmt 0
 684 0094 8280     		ret
 685              	.LVL48:
 686              	.L62:
 370:arch/riscv/mach-gd32vf10x/bsp/gd32vf103_adc.c ****         /* the regular group sequence rank is smaller than sixteen */
 687              		.loc 1 370 11 is_stmt 1
 370:arch/riscv/mach-gd32vf10x/bsp/gd32vf103_adc.c ****         /* the regular group sequence rank is smaller than sixteen */
 688              		.loc 1 370 13 is_stmt 0
 689 0096 BD47     		li	a5,15
 690 0098 E3E5B7F8 		bgtu	a1,a5,.L61
 372:arch/riscv/mach-gd32vf10x/bsp/gd32vf103_adc.c ****         rsq &= ~((uint32_t)(ADC_RSQX_RSQN << (ADC_REGULAR_CHANNEL_RANK_LENGTH*(rank-ADC_REGULAR_CHA
 691              		.loc 1 372 9 is_stmt 1
 373:arch/riscv/mach-gd32vf10x/bsp/gd32vf103_adc.c ****         /* the channel number is written to these bits to select a channel as the nth conversion in
 692              		.loc 1 373 84 is_stmt 0
 693 009c D115     		addi	a1,a1,-12
 694              	.LVL49:
 373:arch/riscv/mach-gd32vf10x/bsp/gd32vf103_adc.c ****         /* the channel number is written to these bits to select a channel as the nth conversion in
 695              		.loc 1 373 78
 696 009e 93972500 		slli	a5,a1,2
 697 00a2 BE95     		add	a1,a5,a1
 372:arch/riscv/mach-gd32vf10x/bsp/gd32vf103_adc.c ****         rsq &= ~((uint32_t)(ADC_RSQX_RSQN << (ADC_REGULAR_CHANNEL_RANK_LENGTH*(rank-ADC_REGULAR_CHA
 698              		.loc 1 372 13
 699 00a4 5855     		lw	a4,44(a0)
 700              	.LVL50:
 373:arch/riscv/mach-gd32vf10x/bsp/gd32vf103_adc.c ****         /* the channel number is written to these bits to select a channel as the nth conversion in
 701              		.loc 1 373 9 is_stmt 1
 373:arch/riscv/mach-gd32vf10x/bsp/gd32vf103_adc.c ****         /* the channel number is written to these bits to select a channel as the nth conversion in
 702              		.loc 1 373 18 is_stmt 0
GAS LISTING C:\Users\test\AppData\Local\Temp\ccF0WSt9.s 			page 21


 703 00a6 FD47     		li	a5,31
 704 00a8 B397B700 		sll	a5,a5,a1
 373:arch/riscv/mach-gd32vf10x/bsp/gd32vf103_adc.c ****         /* the channel number is written to these bits to select a channel as the nth conversion in
 705              		.loc 1 373 16
 706 00ac 93C7F7FF 		not	a5,a5
 373:arch/riscv/mach-gd32vf10x/bsp/gd32vf103_adc.c ****         /* the channel number is written to these bits to select a channel as the nth conversion in
 707              		.loc 1 373 13
 708 00b0 F98F     		and	a5,a5,a4
 709              	.LVL51:
 375:arch/riscv/mach-gd32vf10x/bsp/gd32vf103_adc.c ****         ADC_RSQ0(adc_periph) = rsq;
 710              		.loc 1 375 9 is_stmt 1
 375:arch/riscv/mach-gd32vf10x/bsp/gd32vf103_adc.c ****         ADC_RSQ0(adc_periph) = rsq;
 711              		.loc 1 375 39 is_stmt 0
 712 00b2 B315B600 		sll	a1,a2,a1
 375:arch/riscv/mach-gd32vf10x/bsp/gd32vf103_adc.c ****         ADC_RSQ0(adc_periph) = rsq;
 713              		.loc 1 375 13
 714 00b6 DD8D     		or	a1,a1,a5
 715              	.LVL52:
 376:arch/riscv/mach-gd32vf10x/bsp/gd32vf103_adc.c ****     }else{
 716              		.loc 1 376 9 is_stmt 1
 376:arch/riscv/mach-gd32vf10x/bsp/gd32vf103_adc.c ****     }else{
 717              		.loc 1 376 30 is_stmt 0
 718 00b8 4CD5     		sw	a1,44(a0)
 719 00ba A5B7     		j	.L61
 720              		.cfi_endproc
 721              	.LFE15:
 723              		.section	.text.adc_inserted_channel_config,"ax",@progbits
 724              		.align	1
 725              		.globl	adc_inserted_channel_config
 727              	adc_inserted_channel_config:
 728              	.LFB16:
 398:arch/riscv/mach-gd32vf10x/bsp/gd32vf103_adc.c **** 
 399:arch/riscv/mach-gd32vf10x/bsp/gd32vf103_adc.c **** /*!
 400:arch/riscv/mach-gd32vf10x/bsp/gd32vf103_adc.c ****     \brief      configure ADC inserted channel 
 401:arch/riscv/mach-gd32vf10x/bsp/gd32vf103_adc.c ****     \param[in]  adc_periph: ADCx, x=0,1
 402:arch/riscv/mach-gd32vf10x/bsp/gd32vf103_adc.c ****     \param[in]  rank: the inserted group sequencer rank,this parameter must be between 0 to 3
 403:arch/riscv/mach-gd32vf10x/bsp/gd32vf103_adc.c ****     \param[in]  adc_channel: the selected ADC channel
 404:arch/riscv/mach-gd32vf10x/bsp/gd32vf103_adc.c ****                 only one parameter can be selected which is shown as below:
 405:arch/riscv/mach-gd32vf10x/bsp/gd32vf103_adc.c ****       \arg        ADC_CHANNEL_x(x=0..17)(x=16 and x=17 are only for ADC0): ADC Channelx
 406:arch/riscv/mach-gd32vf10x/bsp/gd32vf103_adc.c ****     \param[in]  sample_time: The sample time value
 407:arch/riscv/mach-gd32vf10x/bsp/gd32vf103_adc.c ****                 only one parameter can be selected which is shown as below:
 408:arch/riscv/mach-gd32vf10x/bsp/gd32vf103_adc.c ****       \arg        ADC_SAMPLETIME_1POINT5: 1.5 cycles
 409:arch/riscv/mach-gd32vf10x/bsp/gd32vf103_adc.c ****       \arg        ADC_SAMPLETIME_7POINT5: 7.5 cycles
 410:arch/riscv/mach-gd32vf10x/bsp/gd32vf103_adc.c ****       \arg        ADC_SAMPLETIME_13POINT5: 13.5 cycles
 411:arch/riscv/mach-gd32vf10x/bsp/gd32vf103_adc.c ****       \arg        ADC_SAMPLETIME_28POINT5: 28.5 cycles
 412:arch/riscv/mach-gd32vf10x/bsp/gd32vf103_adc.c ****       \arg        ADC_SAMPLETIME_41POINT5: 41.5 cycles
 413:arch/riscv/mach-gd32vf10x/bsp/gd32vf103_adc.c ****       \arg        ADC_SAMPLETIME_55POINT5: 55.5 cycles
 414:arch/riscv/mach-gd32vf10x/bsp/gd32vf103_adc.c ****       \arg        ADC_SAMPLETIME_71POINT5: 71.5 cycles
 415:arch/riscv/mach-gd32vf10x/bsp/gd32vf103_adc.c ****       \arg        ADC_SAMPLETIME_239POINT5: 239.5 cycles
 416:arch/riscv/mach-gd32vf10x/bsp/gd32vf103_adc.c ****     \param[out] none
 417:arch/riscv/mach-gd32vf10x/bsp/gd32vf103_adc.c ****     \retval     none
 418:arch/riscv/mach-gd32vf10x/bsp/gd32vf103_adc.c **** */
 419:arch/riscv/mach-gd32vf10x/bsp/gd32vf103_adc.c **** void adc_inserted_channel_config(uint32_t adc_periph, uint8_t rank, uint8_t adc_channel, uint32_t s
 420:arch/riscv/mach-gd32vf10x/bsp/gd32vf103_adc.c **** {
 729              		.loc 1 420 1 is_stmt 1
 730              		.cfi_startproc
 731              	.LVL53:
GAS LISTING C:\Users\test\AppData\Local\Temp\ccF0WSt9.s 			page 22


 421:arch/riscv/mach-gd32vf10x/bsp/gd32vf103_adc.c ****     uint8_t inserted_length;
 732              		.loc 1 421 5
 422:arch/riscv/mach-gd32vf10x/bsp/gd32vf103_adc.c ****     uint32_t isq,sampt;
 733              		.loc 1 422 5
 423:arch/riscv/mach-gd32vf10x/bsp/gd32vf103_adc.c ****     /* get inserted channel group length */
 424:arch/riscv/mach-gd32vf10x/bsp/gd32vf103_adc.c ****     inserted_length = (uint8_t)GET_BITS(ADC_ISQ(adc_periph) , 20U , 21U);
 734              		.loc 1 424 5
 735              		.loc 1 424 32 is_stmt 0
 736 0000 1C5D     		lw	a5,56(a0)
 737              	.LVL54:
 425:arch/riscv/mach-gd32vf10x/bsp/gd32vf103_adc.c ****     /* the channel number is written to these bits to select a channel as the nth conversion in the
 426:arch/riscv/mach-gd32vf10x/bsp/gd32vf103_adc.c ****     isq = ADC_ISQ(adc_periph);
 738              		.loc 1 426 5 is_stmt 1
 739              		.loc 1 426 9 is_stmt 0
 740 0002 185D     		lw	a4,56(a0)
 741              	.LVL55:
 427:arch/riscv/mach-gd32vf10x/bsp/gd32vf103_adc.c ****     isq &= ~((uint32_t)(ADC_ISQ_ISQN << (ADC_INSERTED_CHANNEL_SHIFT_LENGTH-(inserted_length-rank)*A
 742              		.loc 1 427 5 is_stmt 1
 424:arch/riscv/mach-gd32vf10x/bsp/gd32vf103_adc.c ****     /* the channel number is written to these bits to select a channel as the nth conversion in the
 743              		.loc 1 424 32 is_stmt 0
 744 0004 D183     		srli	a5,a5,20
 745              	.LVL56:
 746              		.loc 1 427 92
 747 0006 8D8B     		andi	a5,a5,3
 748 0008 B385B740 		sub	a1,a5,a1
 749              	.LVL57:
 750              		.loc 1 427 98
 751 000c 93972500 		slli	a5,a1,2
 752 0010 BE95     		add	a1,a5,a1
 753 0012 B305B040 		neg	a1,a1
 754              		.loc 1 427 75
 755 0016 BD05     		addi	a1,a1,15
 756              		.loc 1 427 14
 757 0018 FD47     		li	a5,31
 758 001a B397B700 		sll	a5,a5,a1
 759              		.loc 1 427 12
 760 001e 93C7F7FF 		not	a5,a5
 761              		.loc 1 427 9
 762 0022 F98F     		and	a5,a5,a4
 763              	.LVL58:
 428:arch/riscv/mach-gd32vf10x/bsp/gd32vf103_adc.c ****     isq |= ((uint32_t)adc_channel << (ADC_INSERTED_CHANNEL_SHIFT_LENGTH-(inserted_length-rank)*ADC_
 764              		.loc 1 428 5 is_stmt 1
 765              		.loc 1 428 35 is_stmt 0
 766 0024 B315B600 		sll	a1,a2,a1
 767              		.loc 1 428 9
 768 0028 DD8D     		or	a1,a1,a5
 769              	.LVL59:
 429:arch/riscv/mach-gd32vf10x/bsp/gd32vf103_adc.c ****     ADC_ISQ(adc_periph) = isq;
 770              		.loc 1 429 5 is_stmt 1
 771              		.loc 1 429 25 is_stmt 0
 772 002a 0CDD     		sw	a1,56(a0)
 430:arch/riscv/mach-gd32vf10x/bsp/gd32vf103_adc.c **** 
 431:arch/riscv/mach-gd32vf10x/bsp/gd32vf103_adc.c ****     /* ADC sampling time config */  
 432:arch/riscv/mach-gd32vf10x/bsp/gd32vf103_adc.c ****     if(adc_channel < ADC_CHANNEL_SAMPLE_TEN){
 773              		.loc 1 432 5 is_stmt 1
 774              		.loc 1 432 7 is_stmt 0
 775 002c A547     		li	a5,9
GAS LISTING C:\Users\test\AppData\Local\Temp\ccF0WSt9.s 			page 23


 776 002e 63E1C702 		bgtu	a2,a5,.L67
 433:arch/riscv/mach-gd32vf10x/bsp/gd32vf103_adc.c ****         /* the inserted group sequence rank is smaller than ten */
 434:arch/riscv/mach-gd32vf10x/bsp/gd32vf103_adc.c ****         sampt = ADC_SAMPT1(adc_periph);
 777              		.loc 1 434 9 is_stmt 1
 435:arch/riscv/mach-gd32vf10x/bsp/gd32vf103_adc.c ****         sampt &= ~((uint32_t)(ADC_SAMPTX_SPTN << (ADC_CHANNEL_SAMPLE_LENGTH*adc_channel)));
 778              		.loc 1 435 76 is_stmt 0
 779 0032 13171600 		slli	a4,a2,1
 434:arch/riscv/mach-gd32vf10x/bsp/gd32vf103_adc.c ****         sampt &= ~((uint32_t)(ADC_SAMPTX_SPTN << (ADC_CHANNEL_SAMPLE_LENGTH*adc_channel)));
 780              		.loc 1 434 15
 781 0036 0C49     		lw	a1,16(a0)
 782              	.LVL60:
 783              		.loc 1 435 9 is_stmt 1
 784              		.loc 1 435 76 is_stmt 0
 785 0038 3A96     		add	a2,a4,a2
 786              	.LVL61:
 787              		.loc 1 435 20
 788 003a 9D47     		li	a5,7
 789 003c B397C700 		sll	a5,a5,a2
 790              		.loc 1 435 18
 791 0040 93C7F7FF 		not	a5,a5
 792              		.loc 1 435 15
 793 0044 ED8F     		and	a5,a5,a1
 794              	.LVL62:
 436:arch/riscv/mach-gd32vf10x/bsp/gd32vf103_adc.c ****         /* channel sample time set*/
 437:arch/riscv/mach-gd32vf10x/bsp/gd32vf103_adc.c ****         sampt |= (uint32_t) sample_time << (ADC_CHANNEL_SAMPLE_LENGTH*adc_channel);
 795              		.loc 1 437 9 is_stmt 1
 796              		.loc 1 437 41 is_stmt 0
 797 0046 B396C600 		sll	a3,a3,a2
 798              	.LVL63:
 799              		.loc 1 437 15
 800 004a DD8E     		or	a3,a3,a5
 801              	.LVL64:
 438:arch/riscv/mach-gd32vf10x/bsp/gd32vf103_adc.c ****         ADC_SAMPT1(adc_periph) = sampt;
 802              		.loc 1 438 9 is_stmt 1
 803              		.loc 1 438 32 is_stmt 0
 804 004c 14C9     		sw	a3,16(a0)
 805              	.LVL65:
 806 004e 8280     		ret
 807              	.LVL66:
 808              	.L67:
 439:arch/riscv/mach-gd32vf10x/bsp/gd32vf103_adc.c ****     }else if(adc_channel < ADC_CHANNEL_SAMPLE_EIGHTEEN){
 809              		.loc 1 439 11 is_stmt 1
 810              		.loc 1 439 13 is_stmt 0
 811 0050 C547     		li	a5,17
 812 0052 63E1C702 		bgtu	a2,a5,.L66
 440:arch/riscv/mach-gd32vf10x/bsp/gd32vf103_adc.c ****         /* the inserted group sequence rank is smaller than eighteen */
 441:arch/riscv/mach-gd32vf10x/bsp/gd32vf103_adc.c ****         sampt = ADC_SAMPT0(adc_periph);
 813              		.loc 1 441 9 is_stmt 1
 442:arch/riscv/mach-gd32vf10x/bsp/gd32vf103_adc.c ****         sampt &= ~((uint32_t)(ADC_SAMPTX_SPTN << (ADC_CHANNEL_SAMPLE_LENGTH*(adc_channel-ADC_CHANNE
 814              		.loc 1 442 89 is_stmt 0
 815 0056 5916     		addi	a2,a2,-10
 816              	.LVL67:
 817              		.loc 1 442 76
 818 0058 13171600 		slli	a4,a2,1
 441:arch/riscv/mach-gd32vf10x/bsp/gd32vf103_adc.c ****         sampt &= ~((uint32_t)(ADC_SAMPTX_SPTN << (ADC_CHANNEL_SAMPLE_LENGTH*(adc_channel-ADC_CHANNE
 819              		.loc 1 441 15
 820 005c 4C45     		lw	a1,12(a0)
GAS LISTING C:\Users\test\AppData\Local\Temp\ccF0WSt9.s 			page 24


 821              	.LVL68:
 822              		.loc 1 442 9 is_stmt 1
 823              		.loc 1 442 76 is_stmt 0
 824 005e 3A96     		add	a2,a4,a2
 825              		.loc 1 442 20
 826 0060 9D47     		li	a5,7
 827 0062 B397C700 		sll	a5,a5,a2
 828              		.loc 1 442 18
 829 0066 93C7F7FF 		not	a5,a5
 830              		.loc 1 442 15
 831 006a ED8F     		and	a5,a5,a1
 832              	.LVL69:
 443:arch/riscv/mach-gd32vf10x/bsp/gd32vf103_adc.c ****         /* channel sample time set*/
 444:arch/riscv/mach-gd32vf10x/bsp/gd32vf103_adc.c ****         sampt |= ((uint32_t)sample_time << (ADC_CHANNEL_SAMPLE_LENGTH*(adc_channel-ADC_CHANNEL_SAMP
 833              		.loc 1 444 9 is_stmt 1
 834              		.loc 1 444 41 is_stmt 0
 835 006c B396C600 		sll	a3,a3,a2
 836              	.LVL70:
 837              		.loc 1 444 15
 838 0070 DD8E     		or	a3,a3,a5
 839              	.LVL71:
 445:arch/riscv/mach-gd32vf10x/bsp/gd32vf103_adc.c ****         ADC_SAMPT0(adc_periph) = sampt;
 840              		.loc 1 445 9 is_stmt 1
 841              		.loc 1 445 32 is_stmt 0
 842 0072 54C5     		sw	a3,12(a0)
 843              	.LVL72:
 446:arch/riscv/mach-gd32vf10x/bsp/gd32vf103_adc.c ****     }else{
 447:arch/riscv/mach-gd32vf10x/bsp/gd32vf103_adc.c ****     }
 844              		.loc 1 447 5 is_stmt 1
 845              	.L66:
 448:arch/riscv/mach-gd32vf10x/bsp/gd32vf103_adc.c **** }
 846              		.loc 1 448 1 is_stmt 0
 847 0074 8280     		ret
 848              		.cfi_endproc
 849              	.LFE16:
 851              		.section	.text.adc_inserted_channel_offset_config,"ax",@progbits
 852              		.align	1
 853              		.globl	adc_inserted_channel_offset_config
 855              	adc_inserted_channel_offset_config:
 856              	.LFB17:
 449:arch/riscv/mach-gd32vf10x/bsp/gd32vf103_adc.c **** 
 450:arch/riscv/mach-gd32vf10x/bsp/gd32vf103_adc.c **** /*!
 451:arch/riscv/mach-gd32vf10x/bsp/gd32vf103_adc.c ****     \brief      configure ADC inserted channel offset 
 452:arch/riscv/mach-gd32vf10x/bsp/gd32vf103_adc.c ****     \param[in]  adc_periph: ADCx, x=0,1
 453:arch/riscv/mach-gd32vf10x/bsp/gd32vf103_adc.c ****     \param[in]  inserted_channel: insert channel select
 454:arch/riscv/mach-gd32vf10x/bsp/gd32vf103_adc.c ****                 only one parameter can be selected
 455:arch/riscv/mach-gd32vf10x/bsp/gd32vf103_adc.c ****       \arg        ADC_INSERTED_CHANNEL_0: inserted channel0
 456:arch/riscv/mach-gd32vf10x/bsp/gd32vf103_adc.c ****       \arg        ADC_INSERTED_CHANNEL_1: inserted channel1
 457:arch/riscv/mach-gd32vf10x/bsp/gd32vf103_adc.c ****       \arg        ADC_INSERTED_CHANNEL_2: inserted channel2
 458:arch/riscv/mach-gd32vf10x/bsp/gd32vf103_adc.c ****       \arg        ADC_INSERTED_CHANNEL_3: inserted channel3
 459:arch/riscv/mach-gd32vf10x/bsp/gd32vf103_adc.c ****     \param[in]  offset: the offset data
 460:arch/riscv/mach-gd32vf10x/bsp/gd32vf103_adc.c ****     \param[out] none
 461:arch/riscv/mach-gd32vf10x/bsp/gd32vf103_adc.c ****     \retval     none
 462:arch/riscv/mach-gd32vf10x/bsp/gd32vf103_adc.c **** */
 463:arch/riscv/mach-gd32vf10x/bsp/gd32vf103_adc.c **** void adc_inserted_channel_offset_config(uint32_t adc_periph, uint8_t inserted_channel, uint16_t off
 464:arch/riscv/mach-gd32vf10x/bsp/gd32vf103_adc.c **** {
 857              		.loc 1 464 1 is_stmt 1
GAS LISTING C:\Users\test\AppData\Local\Temp\ccF0WSt9.s 			page 25


 858              		.cfi_startproc
 859              	.LVL73:
 465:arch/riscv/mach-gd32vf10x/bsp/gd32vf103_adc.c ****     uint8_t inserted_length;
 860              		.loc 1 465 5
 466:arch/riscv/mach-gd32vf10x/bsp/gd32vf103_adc.c ****     uint32_t num = 0U;
 861              		.loc 1 466 5
 467:arch/riscv/mach-gd32vf10x/bsp/gd32vf103_adc.c **** 
 468:arch/riscv/mach-gd32vf10x/bsp/gd32vf103_adc.c ****     inserted_length = (uint8_t)GET_BITS(ADC_ISQ(adc_periph) , 20U , 21U);
 862              		.loc 1 468 5
 863              		.loc 1 468 32 is_stmt 0
 864 0000 1C5D     		lw	a5,56(a0)
 865              	.LVL74:
 469:arch/riscv/mach-gd32vf10x/bsp/gd32vf103_adc.c ****     num = ((uint32_t)ADC_OFFSET_LENGTH - ((uint32_t)inserted_length - (uint32_t)inserted_channel));
 866              		.loc 1 469 5 is_stmt 1
 867              		.loc 1 469 9 is_stmt 0
 868 0002 8D05     		addi	a1,a1,3
 869              	.LVL75:
 470:arch/riscv/mach-gd32vf10x/bsp/gd32vf103_adc.c ****     
 471:arch/riscv/mach-gd32vf10x/bsp/gd32vf103_adc.c ****     if(num <= ADC_OFFSET_LENGTH){
 870              		.loc 1 471 7
 871 0004 0D47     		li	a4,3
 468:arch/riscv/mach-gd32vf10x/bsp/gd32vf103_adc.c ****     num = ((uint32_t)ADC_OFFSET_LENGTH - ((uint32_t)inserted_length - (uint32_t)inserted_channel));
 872              		.loc 1 468 32
 873 0006 D183     		srli	a5,a5,20
 874              	.LVL76:
 469:arch/riscv/mach-gd32vf10x/bsp/gd32vf103_adc.c ****     num = ((uint32_t)ADC_OFFSET_LENGTH - ((uint32_t)inserted_length - (uint32_t)inserted_channel));
 875              		.loc 1 469 43
 876 0008 8D8B     		andi	a5,a5,3
 469:arch/riscv/mach-gd32vf10x/bsp/gd32vf103_adc.c ****     num = ((uint32_t)ADC_OFFSET_LENGTH - ((uint32_t)inserted_length - (uint32_t)inserted_channel));
 877              		.loc 1 469 9
 878 000a 9D8D     		sub	a1,a1,a5
 879              	.LVL77:
 880              		.loc 1 471 5 is_stmt 1
 881              		.loc 1 471 7 is_stmt 0
 882 000c 6368B700 		bgtu	a1,a4,.L69
 472:arch/riscv/mach-gd32vf10x/bsp/gd32vf103_adc.c ****         /* calculate the offset of the register */
 473:arch/riscv/mach-gd32vf10x/bsp/gd32vf103_adc.c ****         num = num * ADC_OFFSET_SHIFT_LENGTH;
 883              		.loc 1 473 9 is_stmt 1
 884              	.LVL78:
 474:arch/riscv/mach-gd32vf10x/bsp/gd32vf103_adc.c ****         /* config the offset of the selected channels */
 475:arch/riscv/mach-gd32vf10x/bsp/gd32vf103_adc.c ****         REG32((adc_periph) + 0x14U + num) = IOFFX_IOFF((uint32_t)offset);
 885              		.loc 1 475 9
 473:arch/riscv/mach-gd32vf10x/bsp/gd32vf103_adc.c ****         /* config the offset of the selected channels */
 886              		.loc 1 473 13 is_stmt 0
 887 0010 8A05     		slli	a1,a1,2
 888              	.LVL79:
 889              		.loc 1 475 9
 890 0012 5105     		addi	a0,a0,20
 891              	.LVL80:
 892              		.loc 1 475 45
 893 0014 5206     		slli	a2,a2,20
 894              	.LVL81:
 895              		.loc 1 475 9
 896 0016 AA95     		add	a1,a1,a0
 897              	.LVL82:
 898              		.loc 1 475 45
 899 0018 5182     		srli	a2,a2,20
GAS LISTING C:\Users\test\AppData\Local\Temp\ccF0WSt9.s 			page 26


 900              		.loc 1 475 43
 901 001a 90C1     		sw	a2,0(a1)
 902              	.LVL83:
 903              	.L69:
 476:arch/riscv/mach-gd32vf10x/bsp/gd32vf103_adc.c ****     }  
 477:arch/riscv/mach-gd32vf10x/bsp/gd32vf103_adc.c **** }
 904              		.loc 1 477 1
 905 001c 8280     		ret
 906              		.cfi_endproc
 907              	.LFE17:
 909              		.section	.text.adc_external_trigger_source_config,"ax",@progbits
 910              		.align	1
 911              		.globl	adc_external_trigger_source_config
 913              	adc_external_trigger_source_config:
 914              	.LFB18:
 478:arch/riscv/mach-gd32vf10x/bsp/gd32vf103_adc.c **** 
 479:arch/riscv/mach-gd32vf10x/bsp/gd32vf103_adc.c **** /*!
 480:arch/riscv/mach-gd32vf10x/bsp/gd32vf103_adc.c ****     \brief      configure ADC external trigger source 
 481:arch/riscv/mach-gd32vf10x/bsp/gd32vf103_adc.c ****     \param[in]  adc_periph: ADCx, x=0,1
 482:arch/riscv/mach-gd32vf10x/bsp/gd32vf103_adc.c ****     \param[in]  adc_channel_group: select the channel group
 483:arch/riscv/mach-gd32vf10x/bsp/gd32vf103_adc.c ****                 only one parameter can be selected which is shown as below:
 484:arch/riscv/mach-gd32vf10x/bsp/gd32vf103_adc.c ****       \arg        ADC_REGULAR_CHANNEL: regular channel group
 485:arch/riscv/mach-gd32vf10x/bsp/gd32vf103_adc.c ****       \arg        ADC_INSERTED_CHANNEL: inserted channel group
 486:arch/riscv/mach-gd32vf10x/bsp/gd32vf103_adc.c ****     \param[in]  external_trigger_source: regular or inserted group trigger source
 487:arch/riscv/mach-gd32vf10x/bsp/gd32vf103_adc.c ****                 only one parameter can be selected
 488:arch/riscv/mach-gd32vf10x/bsp/gd32vf103_adc.c ****                 for regular channel:
 489:arch/riscv/mach-gd32vf10x/bsp/gd32vf103_adc.c ****       \arg        ADC0_1_EXTTRIG_REGULAR_T0_CH0: TIMER0 CH0 event select 
 490:arch/riscv/mach-gd32vf10x/bsp/gd32vf103_adc.c ****       \arg        ADC0_1_EXTTRIG_REGULAR_T0_CH1: TIMER0 CH1 event select 
 491:arch/riscv/mach-gd32vf10x/bsp/gd32vf103_adc.c ****       \arg        ADC0_1_EXTTRIG_REGULAR_T0_CH2: TIMER0 CH2 event select 
 492:arch/riscv/mach-gd32vf10x/bsp/gd32vf103_adc.c ****       \arg        ADC0_1_EXTTRIG_REGULAR_T1_CH1: TIMER1 CH1 event select 
 493:arch/riscv/mach-gd32vf10x/bsp/gd32vf103_adc.c ****       \arg        ADC0_1_EXTTRIG_REGULAR_T2_TRGO: TIMER2 TRGO event select 
 494:arch/riscv/mach-gd32vf10x/bsp/gd32vf103_adc.c ****       \arg        ADC0_1_EXTTRIG_REGULAR_T3_CH3: TIMER3 CH3 event select 
 495:arch/riscv/mach-gd32vf10x/bsp/gd32vf103_adc.c ****       \arg        ADC0_1_EXTTRIG_REGULAR_EXTI_11: external interrupt line 11 
 496:arch/riscv/mach-gd32vf10x/bsp/gd32vf103_adc.c ****       \arg        ADC0_1_EXTTRIG_REGULAR_NONE: software trigger
 497:arch/riscv/mach-gd32vf10x/bsp/gd32vf103_adc.c ****                 for inserted channel:
 498:arch/riscv/mach-gd32vf10x/bsp/gd32vf103_adc.c ****       \arg        ADC0_1_EXTTRIG_INSERTED_T0_TRGO: TIMER0 TRGO event select 
 499:arch/riscv/mach-gd32vf10x/bsp/gd32vf103_adc.c ****       \arg        ADC0_1_EXTTRIG_INSERTED_T0_CH3: TIMER0 CH3 event select 
 500:arch/riscv/mach-gd32vf10x/bsp/gd32vf103_adc.c ****       \arg        ADC0_1_EXTTRIG_INSERTED_T1_TRGO: TIMER1 TRGO event select 
 501:arch/riscv/mach-gd32vf10x/bsp/gd32vf103_adc.c ****       \arg        ADC0_1_EXTTRIG_INSERTED_T1_CH0: TIMER1 CH0 event select 
 502:arch/riscv/mach-gd32vf10x/bsp/gd32vf103_adc.c ****       \arg        ADC0_1_EXTTRIG_INSERTED_T2_CH3: TIMER2 CH3 event select 
 503:arch/riscv/mach-gd32vf10x/bsp/gd32vf103_adc.c ****       \arg        ADC0_1_EXTTRIG_INSERTED_T3_TRGO: TIMER3 TRGO event select 
 504:arch/riscv/mach-gd32vf10x/bsp/gd32vf103_adc.c ****       \arg        ADC0_1_EXTTRIG_INSERTED_EXTI_15: external interrupt line 15 
 505:arch/riscv/mach-gd32vf10x/bsp/gd32vf103_adc.c ****       \arg        ADC0_1_EXTTRIG_INSERTED_NONE: software trigger
 506:arch/riscv/mach-gd32vf10x/bsp/gd32vf103_adc.c ****     \param[out] none
 507:arch/riscv/mach-gd32vf10x/bsp/gd32vf103_adc.c ****     \retval     none
 508:arch/riscv/mach-gd32vf10x/bsp/gd32vf103_adc.c **** */
 509:arch/riscv/mach-gd32vf10x/bsp/gd32vf103_adc.c **** void adc_external_trigger_source_config(uint32_t adc_periph, uint8_t adc_channel_group, uint32_t ex
 510:arch/riscv/mach-gd32vf10x/bsp/gd32vf103_adc.c **** {   
 915              		.loc 1 510 1 is_stmt 1
 916              		.cfi_startproc
 917              	.LVL84:
 511:arch/riscv/mach-gd32vf10x/bsp/gd32vf103_adc.c ****     switch(adc_channel_group){
 918              		.loc 1 511 5
 919 0000 8547     		li	a5,1
 920 0002 638FF500 		beq	a1,a5,.L72
 921 0006 8947     		li	a5,2
 922 0008 639BF500 		bne	a1,a5,.L76
GAS LISTING C:\Users\test\AppData\Local\Temp\ccF0WSt9.s 			page 27


 512:arch/riscv/mach-gd32vf10x/bsp/gd32vf103_adc.c ****     case ADC_REGULAR_CHANNEL:
 513:arch/riscv/mach-gd32vf10x/bsp/gd32vf103_adc.c ****         /* configure ADC regular group external trigger source */
 514:arch/riscv/mach-gd32vf10x/bsp/gd32vf103_adc.c ****         ADC_CTL1(adc_periph) &= ~((uint32_t)ADC_CTL1_ETSRC);
 515:arch/riscv/mach-gd32vf10x/bsp/gd32vf103_adc.c ****         ADC_CTL1(adc_periph) |= (uint32_t)external_trigger_source;
 516:arch/riscv/mach-gd32vf10x/bsp/gd32vf103_adc.c ****         break;
 517:arch/riscv/mach-gd32vf10x/bsp/gd32vf103_adc.c ****     case ADC_INSERTED_CHANNEL:
 518:arch/riscv/mach-gd32vf10x/bsp/gd32vf103_adc.c ****         /* configure ADC inserted group external trigger source */
 519:arch/riscv/mach-gd32vf10x/bsp/gd32vf103_adc.c ****         ADC_CTL1(adc_periph) &= ~((uint32_t)ADC_CTL1_ETSIC);
 923              		.loc 1 519 9
 924              		.loc 1 519 30 is_stmt 0
 925 000c 1C45     		lw	a5,8(a0)
 926 000e 6577     		li	a4,-28672
 927 0010 7D17     		addi	a4,a4,-1
 928 0012 F98F     		and	a5,a5,a4
 929 0014 1CC5     		sw	a5,8(a0)
 520:arch/riscv/mach-gd32vf10x/bsp/gd32vf103_adc.c ****         ADC_CTL1(adc_periph) |= (uint32_t)external_trigger_source;
 930              		.loc 1 520 9 is_stmt 1
 931              		.loc 1 520 30 is_stmt 0
 932 0016 1C45     		lw	a5,8(a0)
 933 0018 5D8E     		or	a2,a5,a2
 934              	.LVL85:
 935 001a 10C5     		sw	a2,8(a0)
 521:arch/riscv/mach-gd32vf10x/bsp/gd32vf103_adc.c ****         break;
 936              		.loc 1 521 9 is_stmt 1
 522:arch/riscv/mach-gd32vf10x/bsp/gd32vf103_adc.c ****     default:
 523:arch/riscv/mach-gd32vf10x/bsp/gd32vf103_adc.c ****         break;
 524:arch/riscv/mach-gd32vf10x/bsp/gd32vf103_adc.c ****     }
 525:arch/riscv/mach-gd32vf10x/bsp/gd32vf103_adc.c **** }
 937              		.loc 1 525 1 is_stmt 0
 938 001c 8280     		ret
 939              	.LVL86:
 940              	.L76:
 941 001e 8280     		ret
 942              	.L72:
 514:arch/riscv/mach-gd32vf10x/bsp/gd32vf103_adc.c ****         ADC_CTL1(adc_periph) |= (uint32_t)external_trigger_source;
 943              		.loc 1 514 9 is_stmt 1
 514:arch/riscv/mach-gd32vf10x/bsp/gd32vf103_adc.c ****         ADC_CTL1(adc_periph) |= (uint32_t)external_trigger_source;
 944              		.loc 1 514 30 is_stmt 0
 945 0020 1C45     		lw	a5,8(a0)
 946 0022 3707F2FF 		li	a4,-917504
 519:arch/riscv/mach-gd32vf10x/bsp/gd32vf103_adc.c ****         ADC_CTL1(adc_periph) |= (uint32_t)external_trigger_source;
 947              		.loc 1 519 30
 948 0026 7D17     		addi	a4,a4,-1
 949 0028 F98F     		and	a5,a5,a4
 950 002a 1CC5     		sw	a5,8(a0)
 520:arch/riscv/mach-gd32vf10x/bsp/gd32vf103_adc.c ****         break;
 951              		.loc 1 520 9 is_stmt 1
 520:arch/riscv/mach-gd32vf10x/bsp/gd32vf103_adc.c ****         break;
 952              		.loc 1 520 30 is_stmt 0
 953 002c 1C45     		lw	a5,8(a0)
 954 002e 5D8E     		or	a2,a5,a2
 955              	.LVL87:
 956 0030 10C5     		sw	a2,8(a0)
 521:arch/riscv/mach-gd32vf10x/bsp/gd32vf103_adc.c ****     default:
 957              		.loc 1 521 9 is_stmt 1
 958              		.loc 1 525 1 is_stmt 0
 959 0032 8280     		ret
GAS LISTING C:\Users\test\AppData\Local\Temp\ccF0WSt9.s 			page 28


 960              		.cfi_endproc
 961              	.LFE18:
 963              		.section	.text.adc_external_trigger_config,"ax",@progbits
 964              		.align	1
 965              		.globl	adc_external_trigger_config
 967              	adc_external_trigger_config:
 968              	.LFB19:
 526:arch/riscv/mach-gd32vf10x/bsp/gd32vf103_adc.c **** 
 527:arch/riscv/mach-gd32vf10x/bsp/gd32vf103_adc.c **** /*!
 528:arch/riscv/mach-gd32vf10x/bsp/gd32vf103_adc.c ****     \brief      configure ADC external trigger 
 529:arch/riscv/mach-gd32vf10x/bsp/gd32vf103_adc.c ****     \param[in]  adc_periph: ADCx, x=0,1
 530:arch/riscv/mach-gd32vf10x/bsp/gd32vf103_adc.c ****     \param[in]  adc_channel_group: select the channel group
 531:arch/riscv/mach-gd32vf10x/bsp/gd32vf103_adc.c ****                 one or more parameters can be selected which are shown as below:
 532:arch/riscv/mach-gd32vf10x/bsp/gd32vf103_adc.c ****       \arg        ADC_REGULAR_CHANNEL: regular channel group
 533:arch/riscv/mach-gd32vf10x/bsp/gd32vf103_adc.c ****       \arg        ADC_INSERTED_CHANNEL: inserted channel group
 534:arch/riscv/mach-gd32vf10x/bsp/gd32vf103_adc.c ****     \param[in]  newvalue: ENABLE or DISABLE
 535:arch/riscv/mach-gd32vf10x/bsp/gd32vf103_adc.c ****     \param[out] none
 536:arch/riscv/mach-gd32vf10x/bsp/gd32vf103_adc.c ****     \retval     none
 537:arch/riscv/mach-gd32vf10x/bsp/gd32vf103_adc.c **** */
 538:arch/riscv/mach-gd32vf10x/bsp/gd32vf103_adc.c **** void adc_external_trigger_config(uint32_t adc_periph, uint8_t adc_channel_group, ControlStatus newv
 539:arch/riscv/mach-gd32vf10x/bsp/gd32vf103_adc.c **** {
 969              		.loc 1 539 1 is_stmt 1
 970              		.cfi_startproc
 971              	.LVL88:
 540:arch/riscv/mach-gd32vf10x/bsp/gd32vf103_adc.c ****     if(newvalue){
 972              		.loc 1 540 5
 973 0000 93F71500 		andi	a5,a1,1
 974              		.loc 1 540 7 is_stmt 0
 975 0004 0DC2     		beq	a2,zero,.L78
 541:arch/riscv/mach-gd32vf10x/bsp/gd32vf103_adc.c ****         if(0U != (adc_channel_group & ADC_REGULAR_CHANNEL)){
 976              		.loc 1 541 9 is_stmt 1
 977              		.loc 1 541 11 is_stmt 0
 978 0006 81EB     		bne	a5,zero,.L93
 542:arch/riscv/mach-gd32vf10x/bsp/gd32vf103_adc.c ****             /* enable ADC regular channel group external trigger */
 543:arch/riscv/mach-gd32vf10x/bsp/gd32vf103_adc.c ****             ADC_CTL1(adc_periph) |= ADC_CTL1_ETERC;
 544:arch/riscv/mach-gd32vf10x/bsp/gd32vf103_adc.c ****         }
 545:arch/riscv/mach-gd32vf10x/bsp/gd32vf103_adc.c ****         if(0U != (adc_channel_group & ADC_INSERTED_CHANNEL)){
 979              		.loc 1 545 9 is_stmt 1
 980              		.loc 1 545 11 is_stmt 0
 981 0008 8989     		andi	a1,a1,2
 982              	.LVL89:
 983 000a 89CD     		beq	a1,zero,.L77
 984              	.L94:
 546:arch/riscv/mach-gd32vf10x/bsp/gd32vf103_adc.c ****             /* enable ADC inserted channel group external trigger */
 547:arch/riscv/mach-gd32vf10x/bsp/gd32vf103_adc.c ****             ADC_CTL1(adc_periph) |= ADC_CTL1_ETEIC;
 985              		.loc 1 547 13 is_stmt 1
 986              		.loc 1 547 34 is_stmt 0
 987 000c 1C45     		lw	a5,8(a0)
 988 000e 2167     		li	a4,32768
 989 0010 D98F     		or	a5,a5,a4
 990 0012 1CC5     		sw	a5,8(a0)
 991 0014 8280     		ret
 992              	.LVL90:
 993              	.L93:
 543:arch/riscv/mach-gd32vf10x/bsp/gd32vf103_adc.c ****         }
 994              		.loc 1 543 13 is_stmt 1
 543:arch/riscv/mach-gd32vf10x/bsp/gd32vf103_adc.c ****         }
GAS LISTING C:\Users\test\AppData\Local\Temp\ccF0WSt9.s 			page 29


 995              		.loc 1 543 34 is_stmt 0
 996 0016 1C45     		lw	a5,8(a0)
 997 0018 37071000 		li	a4,1048576
 545:arch/riscv/mach-gd32vf10x/bsp/gd32vf103_adc.c ****             /* enable ADC inserted channel group external trigger */
 998              		.loc 1 545 11
 999 001c 8989     		andi	a1,a1,2
 1000              	.LVL91:
 543:arch/riscv/mach-gd32vf10x/bsp/gd32vf103_adc.c ****         }
 1001              		.loc 1 543 34
 1002 001e D98F     		or	a5,a5,a4
 1003 0020 1CC5     		sw	a5,8(a0)
 545:arch/riscv/mach-gd32vf10x/bsp/gd32vf103_adc.c ****             /* enable ADC inserted channel group external trigger */
 1004              		.loc 1 545 9 is_stmt 1
 545:arch/riscv/mach-gd32vf10x/bsp/gd32vf103_adc.c ****             /* enable ADC inserted channel group external trigger */
 1005              		.loc 1 545 11 is_stmt 0
 1006 0022 EDF5     		bne	a1,zero,.L94
 1007              	.L77:
 548:arch/riscv/mach-gd32vf10x/bsp/gd32vf103_adc.c ****         }        
 549:arch/riscv/mach-gd32vf10x/bsp/gd32vf103_adc.c ****     }else{
 550:arch/riscv/mach-gd32vf10x/bsp/gd32vf103_adc.c ****         if(0U != (adc_channel_group & ADC_REGULAR_CHANNEL)){
 551:arch/riscv/mach-gd32vf10x/bsp/gd32vf103_adc.c ****             /* disable ADC regular channel group external trigger */
 552:arch/riscv/mach-gd32vf10x/bsp/gd32vf103_adc.c ****             ADC_CTL1(adc_periph) &= ~ADC_CTL1_ETERC;
 553:arch/riscv/mach-gd32vf10x/bsp/gd32vf103_adc.c ****         }
 554:arch/riscv/mach-gd32vf10x/bsp/gd32vf103_adc.c ****         if(0U != (adc_channel_group & ADC_INSERTED_CHANNEL)){
 555:arch/riscv/mach-gd32vf10x/bsp/gd32vf103_adc.c ****             /* disable ADC regular channel group external trigger */
 556:arch/riscv/mach-gd32vf10x/bsp/gd32vf103_adc.c ****             ADC_CTL1(adc_periph) &= ~ADC_CTL1_ETEIC;
 557:arch/riscv/mach-gd32vf10x/bsp/gd32vf103_adc.c ****         }      
 558:arch/riscv/mach-gd32vf10x/bsp/gd32vf103_adc.c ****     }
 559:arch/riscv/mach-gd32vf10x/bsp/gd32vf103_adc.c **** }
 1008              		.loc 1 559 1
 1009 0024 8280     		ret
 1010              	.LVL92:
 1011              	.L78:
 550:arch/riscv/mach-gd32vf10x/bsp/gd32vf103_adc.c ****             /* disable ADC regular channel group external trigger */
 1012              		.loc 1 550 9 is_stmt 1
 550:arch/riscv/mach-gd32vf10x/bsp/gd32vf103_adc.c ****             /* disable ADC regular channel group external trigger */
 1013              		.loc 1 550 11 is_stmt 0
 1014 0026 99C7     		beq	a5,zero,.L82
 552:arch/riscv/mach-gd32vf10x/bsp/gd32vf103_adc.c ****         }
 1015              		.loc 1 552 13 is_stmt 1
 552:arch/riscv/mach-gd32vf10x/bsp/gd32vf103_adc.c ****         }
 1016              		.loc 1 552 34 is_stmt 0
 1017 0028 1C45     		lw	a5,8(a0)
 1018 002a 3707F0FF 		li	a4,-1048576
 1019 002e 7D17     		addi	a4,a4,-1
 1020 0030 F98F     		and	a5,a5,a4
 1021 0032 1CC5     		sw	a5,8(a0)
 1022              	.L82:
 554:arch/riscv/mach-gd32vf10x/bsp/gd32vf103_adc.c ****             /* disable ADC regular channel group external trigger */
 1023              		.loc 1 554 9 is_stmt 1
 554:arch/riscv/mach-gd32vf10x/bsp/gd32vf103_adc.c ****             /* disable ADC regular channel group external trigger */
 1024              		.loc 1 554 11 is_stmt 0
 1025 0034 8989     		andi	a1,a1,2
 1026              	.LVL93:
 1027 0036 FDD5     		beq	a1,zero,.L77
 556:arch/riscv/mach-gd32vf10x/bsp/gd32vf103_adc.c ****         }      
 1028              		.loc 1 556 13 is_stmt 1
GAS LISTING C:\Users\test\AppData\Local\Temp\ccF0WSt9.s 			page 30


 556:arch/riscv/mach-gd32vf10x/bsp/gd32vf103_adc.c ****         }      
 1029              		.loc 1 556 34 is_stmt 0
 1030 0038 1C45     		lw	a5,8(a0)
 1031 003a 6177     		li	a4,-32768
 1032 003c 7D17     		addi	a4,a4,-1
 1033 003e F98F     		and	a5,a5,a4
 1034 0040 1CC5     		sw	a5,8(a0)
 1035              		.loc 1 559 1
 1036 0042 8280     		ret
 1037              		.cfi_endproc
 1038              	.LFE19:
 1040              		.section	.text.adc_software_trigger_enable,"ax",@progbits
 1041              		.align	1
 1042              		.globl	adc_software_trigger_enable
 1044              	adc_software_trigger_enable:
 1045              	.LFB20:
 560:arch/riscv/mach-gd32vf10x/bsp/gd32vf103_adc.c **** 
 561:arch/riscv/mach-gd32vf10x/bsp/gd32vf103_adc.c **** /*!
 562:arch/riscv/mach-gd32vf10x/bsp/gd32vf103_adc.c ****     \brief      enable ADC software trigger 
 563:arch/riscv/mach-gd32vf10x/bsp/gd32vf103_adc.c ****     \param[in]  adc_periph: ADCx, x=0,1
 564:arch/riscv/mach-gd32vf10x/bsp/gd32vf103_adc.c ****     \param[in]  adc_channel_group: select the channel group
 565:arch/riscv/mach-gd32vf10x/bsp/gd32vf103_adc.c ****                 one or more parameters can be selected which are shown as below:
 566:arch/riscv/mach-gd32vf10x/bsp/gd32vf103_adc.c ****       \arg        ADC_REGULAR_CHANNEL: regular channel group
 567:arch/riscv/mach-gd32vf10x/bsp/gd32vf103_adc.c ****       \arg        ADC_INSERTED_CHANNEL: inserted channel group
 568:arch/riscv/mach-gd32vf10x/bsp/gd32vf103_adc.c ****     \param[out] none
 569:arch/riscv/mach-gd32vf10x/bsp/gd32vf103_adc.c ****     \retval     none
 570:arch/riscv/mach-gd32vf10x/bsp/gd32vf103_adc.c **** */
 571:arch/riscv/mach-gd32vf10x/bsp/gd32vf103_adc.c **** void adc_software_trigger_enable(uint32_t adc_periph, uint8_t adc_channel_group)
 572:arch/riscv/mach-gd32vf10x/bsp/gd32vf103_adc.c **** {
 1046              		.loc 1 572 1 is_stmt 1
 1047              		.cfi_startproc
 1048              	.LVL94:
 573:arch/riscv/mach-gd32vf10x/bsp/gd32vf103_adc.c ****     if(0U != (adc_channel_group & ADC_REGULAR_CHANNEL)){
 1049              		.loc 1 573 5
 1050              		.loc 1 573 7 is_stmt 0
 1051 0000 93F71500 		andi	a5,a1,1
 1052 0004 91C7     		beq	a5,zero,.L96
 574:arch/riscv/mach-gd32vf10x/bsp/gd32vf103_adc.c ****         /* enable ADC regular channel group software trigger */
 575:arch/riscv/mach-gd32vf10x/bsp/gd32vf103_adc.c ****         ADC_CTL1(adc_periph) |= ADC_CTL1_SWRCST;
 1053              		.loc 1 575 9 is_stmt 1
 1054              		.loc 1 575 30 is_stmt 0
 1055 0006 1C45     		lw	a5,8(a0)
 1056 0008 37074000 		li	a4,4194304
 1057 000c D98F     		or	a5,a5,a4
 1058 000e 1CC5     		sw	a5,8(a0)
 1059              	.L96:
 576:arch/riscv/mach-gd32vf10x/bsp/gd32vf103_adc.c ****     }
 577:arch/riscv/mach-gd32vf10x/bsp/gd32vf103_adc.c ****     if(0U != (adc_channel_group & ADC_INSERTED_CHANNEL)){
 1060              		.loc 1 577 5 is_stmt 1
 1061              		.loc 1 577 7 is_stmt 0
 1062 0010 8989     		andi	a1,a1,2
 1063              	.LVL95:
 1064 0012 91C5     		beq	a1,zero,.L95
 578:arch/riscv/mach-gd32vf10x/bsp/gd32vf103_adc.c ****         /* enable ADC inserted channel group software trigger */
 579:arch/riscv/mach-gd32vf10x/bsp/gd32vf103_adc.c ****         ADC_CTL1(adc_periph) |= ADC_CTL1_SWICST;
 1065              		.loc 1 579 9 is_stmt 1
 1066              		.loc 1 579 30 is_stmt 0
GAS LISTING C:\Users\test\AppData\Local\Temp\ccF0WSt9.s 			page 31


 1067 0014 1C45     		lw	a5,8(a0)
 1068 0016 37072000 		li	a4,2097152
 1069 001a D98F     		or	a5,a5,a4
 1070 001c 1CC5     		sw	a5,8(a0)
 1071              	.L95:
 580:arch/riscv/mach-gd32vf10x/bsp/gd32vf103_adc.c ****     }
 581:arch/riscv/mach-gd32vf10x/bsp/gd32vf103_adc.c **** }
 1072              		.loc 1 581 1
 1073 001e 8280     		ret
 1074              		.cfi_endproc
 1075              	.LFE20:
 1077              		.section	.text.adc_regular_data_read,"ax",@progbits
 1078              		.align	1
 1079              		.globl	adc_regular_data_read
 1081              	adc_regular_data_read:
 1082              	.LFB21:
 582:arch/riscv/mach-gd32vf10x/bsp/gd32vf103_adc.c **** 
 583:arch/riscv/mach-gd32vf10x/bsp/gd32vf103_adc.c **** /*!
 584:arch/riscv/mach-gd32vf10x/bsp/gd32vf103_adc.c ****     \brief      read ADC regular group data register 
 585:arch/riscv/mach-gd32vf10x/bsp/gd32vf103_adc.c ****     \param[in]  adc_periph: ADCx, x=0,1
 586:arch/riscv/mach-gd32vf10x/bsp/gd32vf103_adc.c ****     \param[in]  none
 587:arch/riscv/mach-gd32vf10x/bsp/gd32vf103_adc.c ****     \param[out] none
 588:arch/riscv/mach-gd32vf10x/bsp/gd32vf103_adc.c ****     \retval     the conversion value
 589:arch/riscv/mach-gd32vf10x/bsp/gd32vf103_adc.c **** */
 590:arch/riscv/mach-gd32vf10x/bsp/gd32vf103_adc.c **** uint16_t adc_regular_data_read(uint32_t adc_periph)
 591:arch/riscv/mach-gd32vf10x/bsp/gd32vf103_adc.c **** {
 1083              		.loc 1 591 1 is_stmt 1
 1084              		.cfi_startproc
 1085              	.LVL96:
 592:arch/riscv/mach-gd32vf10x/bsp/gd32vf103_adc.c ****     return (uint16_t)(ADC_RDATA(adc_periph));
 1086              		.loc 1 592 5
 1087              		.loc 1 592 23 is_stmt 0
 1088 0000 6845     		lw	a0,76(a0)
 1089              	.LVL97:
 593:arch/riscv/mach-gd32vf10x/bsp/gd32vf103_adc.c **** }
 1090              		.loc 1 593 1
 1091 0002 4205     		slli	a0,a0,16
 1092 0004 4181     		srli	a0,a0,16
 1093 0006 8280     		ret
 1094              		.cfi_endproc
 1095              	.LFE21:
 1097              		.section	.text.adc_inserted_data_read,"ax",@progbits
 1098              		.align	1
 1099              		.globl	adc_inserted_data_read
 1101              	adc_inserted_data_read:
 1102              	.LFB22:
 594:arch/riscv/mach-gd32vf10x/bsp/gd32vf103_adc.c **** 
 595:arch/riscv/mach-gd32vf10x/bsp/gd32vf103_adc.c **** /*!
 596:arch/riscv/mach-gd32vf10x/bsp/gd32vf103_adc.c ****     \brief      read ADC inserted group data register 
 597:arch/riscv/mach-gd32vf10x/bsp/gd32vf103_adc.c ****     \param[in]  adc_periph: ADCx, x=0,1
 598:arch/riscv/mach-gd32vf10x/bsp/gd32vf103_adc.c ****     \param[in]  inserted_channel: insert channel select
 599:arch/riscv/mach-gd32vf10x/bsp/gd32vf103_adc.c ****                 only one parameter can be selected
 600:arch/riscv/mach-gd32vf10x/bsp/gd32vf103_adc.c ****       \arg        ADC_INSERTED_CHANNEL_0: inserted Channel0
 601:arch/riscv/mach-gd32vf10x/bsp/gd32vf103_adc.c ****       \arg        ADC_INSERTED_CHANNEL_1: inserted channel1
 602:arch/riscv/mach-gd32vf10x/bsp/gd32vf103_adc.c ****       \arg        ADC_INSERTED_CHANNEL_2: inserted Channel2
 603:arch/riscv/mach-gd32vf10x/bsp/gd32vf103_adc.c ****       \arg        ADC_INSERTED_CHANNEL_3: inserted Channel3
 604:arch/riscv/mach-gd32vf10x/bsp/gd32vf103_adc.c ****     \param[out] none
GAS LISTING C:\Users\test\AppData\Local\Temp\ccF0WSt9.s 			page 32


 605:arch/riscv/mach-gd32vf10x/bsp/gd32vf103_adc.c ****     \retval     the conversion value
 606:arch/riscv/mach-gd32vf10x/bsp/gd32vf103_adc.c **** */
 607:arch/riscv/mach-gd32vf10x/bsp/gd32vf103_adc.c **** uint16_t adc_inserted_data_read(uint32_t adc_periph, uint8_t inserted_channel)
 608:arch/riscv/mach-gd32vf10x/bsp/gd32vf103_adc.c **** {
 1103              		.loc 1 608 1 is_stmt 1
 1104              		.cfi_startproc
 1105              	.LVL98:
 609:arch/riscv/mach-gd32vf10x/bsp/gd32vf103_adc.c ****     uint32_t idata;
 1106              		.loc 1 609 5
 610:arch/riscv/mach-gd32vf10x/bsp/gd32vf103_adc.c ****     /* read the data of the selected channel */
 611:arch/riscv/mach-gd32vf10x/bsp/gd32vf103_adc.c ****     switch(inserted_channel){
 1107              		.loc 1 611 5
 1108 0000 8547     		li	a5,1
 1109 0002 638FF500 		beq	a1,a5,.L106
 1110 0006 8DC5     		beq	a1,zero,.L107
 1111 0008 8947     		li	a5,2
 1112 000a 638FF500 		beq	a1,a5,.L108
 1113 000e 8D47     		li	a5,3
 1114 0010 6396F500 		bne	a1,a5,.L111
 612:arch/riscv/mach-gd32vf10x/bsp/gd32vf103_adc.c ****     case ADC_INSERTED_CHANNEL_0:
 613:arch/riscv/mach-gd32vf10x/bsp/gd32vf103_adc.c ****         /* read the data of channel 0 */
 614:arch/riscv/mach-gd32vf10x/bsp/gd32vf103_adc.c ****         idata = ADC_IDATA0(adc_periph);
 615:arch/riscv/mach-gd32vf10x/bsp/gd32vf103_adc.c ****         break;
 616:arch/riscv/mach-gd32vf10x/bsp/gd32vf103_adc.c ****     case ADC_INSERTED_CHANNEL_1:
 617:arch/riscv/mach-gd32vf10x/bsp/gd32vf103_adc.c ****         /* read the data of channel 1 */
 618:arch/riscv/mach-gd32vf10x/bsp/gd32vf103_adc.c ****         idata = ADC_IDATA1(adc_periph);
 619:arch/riscv/mach-gd32vf10x/bsp/gd32vf103_adc.c ****         break;
 620:arch/riscv/mach-gd32vf10x/bsp/gd32vf103_adc.c ****     case ADC_INSERTED_CHANNEL_2:
 621:arch/riscv/mach-gd32vf10x/bsp/gd32vf103_adc.c ****         /* read the data of channel 2 */
 622:arch/riscv/mach-gd32vf10x/bsp/gd32vf103_adc.c ****         idata = ADC_IDATA2(adc_periph);
 623:arch/riscv/mach-gd32vf10x/bsp/gd32vf103_adc.c ****         break;
 624:arch/riscv/mach-gd32vf10x/bsp/gd32vf103_adc.c ****     case ADC_INSERTED_CHANNEL_3:
 625:arch/riscv/mach-gd32vf10x/bsp/gd32vf103_adc.c ****         /* read the data of channel 3 */
 626:arch/riscv/mach-gd32vf10x/bsp/gd32vf103_adc.c ****         idata = ADC_IDATA3(adc_periph);
 1115              		.loc 1 626 9
 1116              		.loc 1 626 15 is_stmt 0
 1117 0014 2845     		lw	a0,72(a0)
 1118              	.LVL99:
 627:arch/riscv/mach-gd32vf10x/bsp/gd32vf103_adc.c ****         break;
 1119              		.loc 1 627 9 is_stmt 1
 1120 0016 4205     		slli	a0,a0,16
 1121              	.LVL100:
 1122 0018 4181     		srli	a0,a0,16
 628:arch/riscv/mach-gd32vf10x/bsp/gd32vf103_adc.c ****     default:
 629:arch/riscv/mach-gd32vf10x/bsp/gd32vf103_adc.c ****         idata = 0U;
 630:arch/riscv/mach-gd32vf10x/bsp/gd32vf103_adc.c ****         break;
 631:arch/riscv/mach-gd32vf10x/bsp/gd32vf103_adc.c ****     }
 632:arch/riscv/mach-gd32vf10x/bsp/gd32vf103_adc.c ****     return (uint16_t)idata;
 1123              		.loc 1 632 5
 633:arch/riscv/mach-gd32vf10x/bsp/gd32vf103_adc.c **** }
 1124              		.loc 1 633 1 is_stmt 0
 1125 001a 8280     		ret
 1126              	.LVL101:
 1127              	.L111:
 611:arch/riscv/mach-gd32vf10x/bsp/gd32vf103_adc.c ****     case ADC_INSERTED_CHANNEL_0:
 1128              		.loc 1 611 5
 1129 001c 0145     		li	a0,0
GAS LISTING C:\Users\test\AppData\Local\Temp\ccF0WSt9.s 			page 33


 1130              	.LVL102:
 1131 001e 8280     		ret
 1132              	.LVL103:
 1133              	.L106:
 618:arch/riscv/mach-gd32vf10x/bsp/gd32vf103_adc.c ****         break;
 1134              		.loc 1 618 9 is_stmt 1
 618:arch/riscv/mach-gd32vf10x/bsp/gd32vf103_adc.c ****         break;
 1135              		.loc 1 618 15 is_stmt 0
 1136 0020 2841     		lw	a0,64(a0)
 1137              	.LVL104:
 619:arch/riscv/mach-gd32vf10x/bsp/gd32vf103_adc.c ****     case ADC_INSERTED_CHANNEL_2:
 1138              		.loc 1 619 9 is_stmt 1
 1139 0022 4205     		slli	a0,a0,16
 1140              	.LVL105:
 1141 0024 4181     		srli	a0,a0,16
 1142 0026 8280     		ret
 1143              	.LVL106:
 1144              	.L108:
 622:arch/riscv/mach-gd32vf10x/bsp/gd32vf103_adc.c ****         break;
 1145              		.loc 1 622 9
 622:arch/riscv/mach-gd32vf10x/bsp/gd32vf103_adc.c ****         break;
 1146              		.loc 1 622 15 is_stmt 0
 1147 0028 6841     		lw	a0,68(a0)
 1148              	.LVL107:
 623:arch/riscv/mach-gd32vf10x/bsp/gd32vf103_adc.c ****     case ADC_INSERTED_CHANNEL_3:
 1149              		.loc 1 623 9 is_stmt 1
 1150 002a 4205     		slli	a0,a0,16
 1151              	.LVL108:
 1152 002c 4181     		srli	a0,a0,16
 1153 002e 8280     		ret
 1154              	.LVL109:
 1155              	.L107:
 614:arch/riscv/mach-gd32vf10x/bsp/gd32vf103_adc.c ****         break;
 1156              		.loc 1 614 9
 614:arch/riscv/mach-gd32vf10x/bsp/gd32vf103_adc.c ****         break;
 1157              		.loc 1 614 15 is_stmt 0
 1158 0030 485D     		lw	a0,60(a0)
 1159              	.LVL110:
 615:arch/riscv/mach-gd32vf10x/bsp/gd32vf103_adc.c ****     case ADC_INSERTED_CHANNEL_1:
 1160              		.loc 1 615 9 is_stmt 1
 1161 0032 4205     		slli	a0,a0,16
 1162              	.LVL111:
 1163 0034 4181     		srli	a0,a0,16
 1164 0036 8280     		ret
 1165              		.cfi_endproc
 1166              	.LFE22:
 1168              		.section	.text.adc_sync_mode_convert_value_read,"ax",@progbits
 1169              		.align	1
 1170              		.globl	adc_sync_mode_convert_value_read
 1172              	adc_sync_mode_convert_value_read:
 1173              	.LFB23:
 634:arch/riscv/mach-gd32vf10x/bsp/gd32vf103_adc.c **** 
 635:arch/riscv/mach-gd32vf10x/bsp/gd32vf103_adc.c **** /*!
 636:arch/riscv/mach-gd32vf10x/bsp/gd32vf103_adc.c ****     \brief      read the last ADC0 and ADC1 conversion result data in sync mode
 637:arch/riscv/mach-gd32vf10x/bsp/gd32vf103_adc.c ****     \param[in]  none
 638:arch/riscv/mach-gd32vf10x/bsp/gd32vf103_adc.c ****     \param[out] none
 639:arch/riscv/mach-gd32vf10x/bsp/gd32vf103_adc.c ****     \retval     the conversion value
GAS LISTING C:\Users\test\AppData\Local\Temp\ccF0WSt9.s 			page 34


 640:arch/riscv/mach-gd32vf10x/bsp/gd32vf103_adc.c **** */
 641:arch/riscv/mach-gd32vf10x/bsp/gd32vf103_adc.c **** uint32_t adc_sync_mode_convert_value_read(void)
 642:arch/riscv/mach-gd32vf10x/bsp/gd32vf103_adc.c **** {
 1174              		.loc 1 642 1
 1175              		.cfi_startproc
 643:arch/riscv/mach-gd32vf10x/bsp/gd32vf103_adc.c ****     /* return conversion value */
 644:arch/riscv/mach-gd32vf10x/bsp/gd32vf103_adc.c ****     return ADC_RDATA(ADC0);
 1176              		.loc 1 644 5
 1177              		.loc 1 644 12 is_stmt 0
 1178 0000 B7270140 		li	a5,1073815552
 1179 0004 03A5C744 		lw	a0,1100(a5)
 645:arch/riscv/mach-gd32vf10x/bsp/gd32vf103_adc.c **** }
 1180              		.loc 1 645 1
 1181 0008 8280     		ret
 1182              		.cfi_endproc
 1183              	.LFE23:
 1185              		.section	.text.adc_watchdog_single_channel_enable,"ax",@progbits
 1186              		.align	1
 1187              		.globl	adc_watchdog_single_channel_enable
 1189              	adc_watchdog_single_channel_enable:
 1190              	.LFB24:
 646:arch/riscv/mach-gd32vf10x/bsp/gd32vf103_adc.c **** 
 647:arch/riscv/mach-gd32vf10x/bsp/gd32vf103_adc.c **** 
 648:arch/riscv/mach-gd32vf10x/bsp/gd32vf103_adc.c **** /*!
 649:arch/riscv/mach-gd32vf10x/bsp/gd32vf103_adc.c ****     \brief      configure ADC analog watchdog single channel 
 650:arch/riscv/mach-gd32vf10x/bsp/gd32vf103_adc.c ****     \param[in]  adc_periph: ADCx, x=0,1
 651:arch/riscv/mach-gd32vf10x/bsp/gd32vf103_adc.c ****     \param[in]  adc_channel: the selected ADC channel
 652:arch/riscv/mach-gd32vf10x/bsp/gd32vf103_adc.c ****                 only one parameter can be selected which is shown as below:
 653:arch/riscv/mach-gd32vf10x/bsp/gd32vf103_adc.c ****       \arg        ADC_CHANNEL_x: ADC Channelx(x=0..17)(x=16 and x=17 are only for ADC0)
 654:arch/riscv/mach-gd32vf10x/bsp/gd32vf103_adc.c ****     \param[out] none
 655:arch/riscv/mach-gd32vf10x/bsp/gd32vf103_adc.c ****     \retval     none
 656:arch/riscv/mach-gd32vf10x/bsp/gd32vf103_adc.c **** */
 657:arch/riscv/mach-gd32vf10x/bsp/gd32vf103_adc.c **** void adc_watchdog_single_channel_enable(uint32_t adc_periph, uint8_t adc_channel)
 658:arch/riscv/mach-gd32vf10x/bsp/gd32vf103_adc.c **** {
 1191              		.loc 1 658 1 is_stmt 1
 1192              		.cfi_startproc
 1193              	.LVL112:
 659:arch/riscv/mach-gd32vf10x/bsp/gd32vf103_adc.c ****     ADC_CTL0(adc_periph) &= (uint32_t)~(ADC_CTL0_RWDEN | ADC_CTL0_IWDEN | ADC_CTL0_WDSC | ADC_CTL0_
 1194              		.loc 1 659 5
 1195              		.loc 1 659 26 is_stmt 0
 1196 0000 5C41     		lw	a5,4(a0)
 1197 0002 370740FF 		li	a4,-12582912
 1198 0006 130707DE 		addi	a4,a4,-544
 1199 000a F98F     		and	a5,a5,a4
 1200 000c 5CC1     		sw	a5,4(a0)
 660:arch/riscv/mach-gd32vf10x/bsp/gd32vf103_adc.c ****     /* analog watchdog channel select */
 661:arch/riscv/mach-gd32vf10x/bsp/gd32vf103_adc.c ****     ADC_CTL0(adc_periph) |= (uint32_t)adc_channel;
 1201              		.loc 1 661 5 is_stmt 1
 1202              		.loc 1 661 26 is_stmt 0
 1203 000e 5C41     		lw	a5,4(a0)
 662:arch/riscv/mach-gd32vf10x/bsp/gd32vf103_adc.c ****     ADC_CTL0(adc_periph) |= (uint32_t)(ADC_CTL0_RWDEN | ADC_CTL0_IWDEN | ADC_CTL0_WDSC);
 1204              		.loc 1 662 26
 1205 0010 3707C000 		li	a4,12582912
 1206 0014 13070720 		addi	a4,a4,512
 661:arch/riscv/mach-gd32vf10x/bsp/gd32vf103_adc.c ****     ADC_CTL0(adc_periph) |= (uint32_t)(ADC_CTL0_RWDEN | ADC_CTL0_IWDEN | ADC_CTL0_WDSC);
 1207              		.loc 1 661 26
 1208 0018 DD8D     		or	a1,a1,a5
GAS LISTING C:\Users\test\AppData\Local\Temp\ccF0WSt9.s 			page 35


 1209              	.LVL113:
 1210 001a 4CC1     		sw	a1,4(a0)
 1211              		.loc 1 662 5 is_stmt 1
 1212              		.loc 1 662 26 is_stmt 0
 1213 001c 5C41     		lw	a5,4(a0)
 1214 001e D98F     		or	a5,a5,a4
 1215 0020 5CC1     		sw	a5,4(a0)
 663:arch/riscv/mach-gd32vf10x/bsp/gd32vf103_adc.c **** }
 1216              		.loc 1 663 1
 1217 0022 8280     		ret
 1218              		.cfi_endproc
 1219              	.LFE24:
 1221              		.section	.text.adc_watchdog_group_channel_enable,"ax",@progbits
 1222              		.align	1
 1223              		.globl	adc_watchdog_group_channel_enable
 1225              	adc_watchdog_group_channel_enable:
 1226              	.LFB25:
 664:arch/riscv/mach-gd32vf10x/bsp/gd32vf103_adc.c **** 
 665:arch/riscv/mach-gd32vf10x/bsp/gd32vf103_adc.c **** /*!
 666:arch/riscv/mach-gd32vf10x/bsp/gd32vf103_adc.c ****     \brief      configure ADC analog watchdog group channel 
 667:arch/riscv/mach-gd32vf10x/bsp/gd32vf103_adc.c ****     \param[in]  adc_periph: ADCx, x=0,1
 668:arch/riscv/mach-gd32vf10x/bsp/gd32vf103_adc.c ****     \param[in]  adc_channel_group: the channel group use analog watchdog
 669:arch/riscv/mach-gd32vf10x/bsp/gd32vf103_adc.c ****                 only one parameter can be selected which is shown as below: 
 670:arch/riscv/mach-gd32vf10x/bsp/gd32vf103_adc.c ****       \arg        ADC_REGULAR_CHANNEL: regular channel group
 671:arch/riscv/mach-gd32vf10x/bsp/gd32vf103_adc.c ****       \arg        ADC_INSERTED_CHANNEL: inserted channel group
 672:arch/riscv/mach-gd32vf10x/bsp/gd32vf103_adc.c ****       \arg        ADC_REGULAR_INSERTED_CHANNEL: both regular and inserted group
 673:arch/riscv/mach-gd32vf10x/bsp/gd32vf103_adc.c ****     \param[out] none
 674:arch/riscv/mach-gd32vf10x/bsp/gd32vf103_adc.c ****     \retval     none
 675:arch/riscv/mach-gd32vf10x/bsp/gd32vf103_adc.c **** */
 676:arch/riscv/mach-gd32vf10x/bsp/gd32vf103_adc.c **** void adc_watchdog_group_channel_enable(uint32_t adc_periph, uint8_t adc_channel_group)
 677:arch/riscv/mach-gd32vf10x/bsp/gd32vf103_adc.c **** {
 1227              		.loc 1 677 1 is_stmt 1
 1228              		.cfi_startproc
 1229              	.LVL114:
 678:arch/riscv/mach-gd32vf10x/bsp/gd32vf103_adc.c ****     ADC_CTL0(adc_periph) &= (uint32_t)~(ADC_CTL0_RWDEN | ADC_CTL0_IWDEN | ADC_CTL0_WDSC);
 1230              		.loc 1 678 5
 1231              		.loc 1 678 26 is_stmt 0
 1232 0000 5C41     		lw	a5,4(a0)
 1233 0002 370740FF 		li	a4,-12582912
 1234 0006 1307F7DF 		addi	a4,a4,-513
 1235 000a F98F     		and	a5,a5,a4
 1236 000c 5CC1     		sw	a5,4(a0)
 679:arch/riscv/mach-gd32vf10x/bsp/gd32vf103_adc.c ****     /* select the group */
 680:arch/riscv/mach-gd32vf10x/bsp/gd32vf103_adc.c ****     switch(adc_channel_group){
 1237              		.loc 1 680 5 is_stmt 1
 1238 000e 8947     		li	a5,2
 1239 0010 6385F502 		beq	a1,a5,.L115
 1240 0014 8D47     		li	a5,3
 1241 0016 638CF500 		beq	a1,a5,.L116
 1242 001a 8547     		li	a5,1
 1243 001c 6383F500 		beq	a1,a5,.L118
 681:arch/riscv/mach-gd32vf10x/bsp/gd32vf103_adc.c ****     case ADC_REGULAR_CHANNEL:
 682:arch/riscv/mach-gd32vf10x/bsp/gd32vf103_adc.c ****         /* regular channel analog watchdog enable */
 683:arch/riscv/mach-gd32vf10x/bsp/gd32vf103_adc.c ****         ADC_CTL0(adc_periph) |= (uint32_t) ADC_CTL0_RWDEN;
 684:arch/riscv/mach-gd32vf10x/bsp/gd32vf103_adc.c ****         break;
 685:arch/riscv/mach-gd32vf10x/bsp/gd32vf103_adc.c ****     case ADC_INSERTED_CHANNEL:
 686:arch/riscv/mach-gd32vf10x/bsp/gd32vf103_adc.c ****         /* inserted channel analog watchdog enable */
GAS LISTING C:\Users\test\AppData\Local\Temp\ccF0WSt9.s 			page 36


 687:arch/riscv/mach-gd32vf10x/bsp/gd32vf103_adc.c ****         ADC_CTL0(adc_periph) |= (uint32_t) ADC_CTL0_IWDEN;
 688:arch/riscv/mach-gd32vf10x/bsp/gd32vf103_adc.c ****         break;
 689:arch/riscv/mach-gd32vf10x/bsp/gd32vf103_adc.c ****     case ADC_REGULAR_INSERTED_CHANNEL:
 690:arch/riscv/mach-gd32vf10x/bsp/gd32vf103_adc.c ****         /* regular and inserted channel analog watchdog enable */
 691:arch/riscv/mach-gd32vf10x/bsp/gd32vf103_adc.c ****         ADC_CTL0(adc_periph) |= (uint32_t)(ADC_CTL0_RWDEN | ADC_CTL0_IWDEN);
 692:arch/riscv/mach-gd32vf10x/bsp/gd32vf103_adc.c ****         break;
 693:arch/riscv/mach-gd32vf10x/bsp/gd32vf103_adc.c ****     default:
 694:arch/riscv/mach-gd32vf10x/bsp/gd32vf103_adc.c ****         break;
 695:arch/riscv/mach-gd32vf10x/bsp/gd32vf103_adc.c ****     }
 696:arch/riscv/mach-gd32vf10x/bsp/gd32vf103_adc.c **** }
 1244              		.loc 1 696 1 is_stmt 0
 1245 0020 8280     		ret
 1246              	.L118:
 683:arch/riscv/mach-gd32vf10x/bsp/gd32vf103_adc.c ****         break;
 1247              		.loc 1 683 9 is_stmt 1
 683:arch/riscv/mach-gd32vf10x/bsp/gd32vf103_adc.c ****         break;
 1248              		.loc 1 683 30 is_stmt 0
 1249 0022 5C41     		lw	a5,4(a0)
 1250 0024 37078000 		li	a4,8388608
 1251 0028 D98F     		or	a5,a5,a4
 1252 002a 5CC1     		sw	a5,4(a0)
 684:arch/riscv/mach-gd32vf10x/bsp/gd32vf103_adc.c ****     case ADC_INSERTED_CHANNEL:
 1253              		.loc 1 684 9 is_stmt 1
 1254 002c 8280     		ret
 1255              	.L116:
 691:arch/riscv/mach-gd32vf10x/bsp/gd32vf103_adc.c ****         break;
 1256              		.loc 1 691 9
 691:arch/riscv/mach-gd32vf10x/bsp/gd32vf103_adc.c ****         break;
 1257              		.loc 1 691 30 is_stmt 0
 1258 002e 5C41     		lw	a5,4(a0)
 1259 0030 3707C000 		li	a4,12582912
 1260 0034 D98F     		or	a5,a5,a4
 1261 0036 5CC1     		sw	a5,4(a0)
 692:arch/riscv/mach-gd32vf10x/bsp/gd32vf103_adc.c ****     default:
 1262              		.loc 1 692 9 is_stmt 1
 1263              		.loc 1 696 1 is_stmt 0
 1264 0038 8280     		ret
 1265              	.L115:
 687:arch/riscv/mach-gd32vf10x/bsp/gd32vf103_adc.c ****         break;
 1266              		.loc 1 687 9 is_stmt 1
 687:arch/riscv/mach-gd32vf10x/bsp/gd32vf103_adc.c ****         break;
 1267              		.loc 1 687 30 is_stmt 0
 1268 003a 5C41     		lw	a5,4(a0)
 1269 003c 37074000 		li	a4,4194304
 1270 0040 D98F     		or	a5,a5,a4
 1271 0042 5CC1     		sw	a5,4(a0)
 688:arch/riscv/mach-gd32vf10x/bsp/gd32vf103_adc.c ****     case ADC_REGULAR_INSERTED_CHANNEL:
 1272              		.loc 1 688 9 is_stmt 1
 1273 0044 8280     		ret
 1274              		.cfi_endproc
 1275              	.LFE25:
 1277              		.section	.text.adc_watchdog_disable,"ax",@progbits
 1278              		.align	1
 1279              		.globl	adc_watchdog_disable
 1281              	adc_watchdog_disable:
 1282              	.LFB26:
 697:arch/riscv/mach-gd32vf10x/bsp/gd32vf103_adc.c **** 
GAS LISTING C:\Users\test\AppData\Local\Temp\ccF0WSt9.s 			page 37


 698:arch/riscv/mach-gd32vf10x/bsp/gd32vf103_adc.c **** /*!
 699:arch/riscv/mach-gd32vf10x/bsp/gd32vf103_adc.c ****     \brief      disable ADC analog watchdog 
 700:arch/riscv/mach-gd32vf10x/bsp/gd32vf103_adc.c ****     \param[in]  adc_periph: ADCx, x=0,1
 701:arch/riscv/mach-gd32vf10x/bsp/gd32vf103_adc.c ****     \param[out] none
 702:arch/riscv/mach-gd32vf10x/bsp/gd32vf103_adc.c ****     \retval     none
 703:arch/riscv/mach-gd32vf10x/bsp/gd32vf103_adc.c **** */
 704:arch/riscv/mach-gd32vf10x/bsp/gd32vf103_adc.c **** void adc_watchdog_disable(uint32_t adc_periph)
 705:arch/riscv/mach-gd32vf10x/bsp/gd32vf103_adc.c **** {
 1283              		.loc 1 705 1
 1284              		.cfi_startproc
 1285              	.LVL115:
 706:arch/riscv/mach-gd32vf10x/bsp/gd32vf103_adc.c ****     ADC_CTL0(adc_periph) &= (uint32_t)~(ADC_CTL0_RWDEN | ADC_CTL0_IWDEN | ADC_CTL0_WDSC | ADC_CTL0_
 1286              		.loc 1 706 5
 1287              		.loc 1 706 26 is_stmt 0
 1288 0000 5C41     		lw	a5,4(a0)
 1289 0002 370740FF 		li	a4,-12582912
 1290 0006 130707DE 		addi	a4,a4,-544
 1291 000a F98F     		and	a5,a5,a4
 1292 000c 5CC1     		sw	a5,4(a0)
 707:arch/riscv/mach-gd32vf10x/bsp/gd32vf103_adc.c **** }
 1293              		.loc 1 707 1
 1294 000e 8280     		ret
 1295              		.cfi_endproc
 1296              	.LFE26:
 1298              		.section	.text.adc_watchdog_threshold_config,"ax",@progbits
 1299              		.align	1
 1300              		.globl	adc_watchdog_threshold_config
 1302              	adc_watchdog_threshold_config:
 1303              	.LFB27:
 708:arch/riscv/mach-gd32vf10x/bsp/gd32vf103_adc.c **** 
 709:arch/riscv/mach-gd32vf10x/bsp/gd32vf103_adc.c **** /*!
 710:arch/riscv/mach-gd32vf10x/bsp/gd32vf103_adc.c ****     \brief      configure ADC analog watchdog threshold 
 711:arch/riscv/mach-gd32vf10x/bsp/gd32vf103_adc.c ****     \param[in]  adc_periph: ADCx, x=0,1
 712:arch/riscv/mach-gd32vf10x/bsp/gd32vf103_adc.c ****     \param[in]  low_threshold: analog watchdog low threshold, 0..4095
 713:arch/riscv/mach-gd32vf10x/bsp/gd32vf103_adc.c ****     \param[in]  high_threshold: analog watchdog high threshold, 0..4095
 714:arch/riscv/mach-gd32vf10x/bsp/gd32vf103_adc.c ****     \param[out] none
 715:arch/riscv/mach-gd32vf10x/bsp/gd32vf103_adc.c ****     \retval     none
 716:arch/riscv/mach-gd32vf10x/bsp/gd32vf103_adc.c **** */
 717:arch/riscv/mach-gd32vf10x/bsp/gd32vf103_adc.c **** void adc_watchdog_threshold_config(uint32_t adc_periph, uint16_t low_threshold, uint16_t high_thres
 718:arch/riscv/mach-gd32vf10x/bsp/gd32vf103_adc.c **** {
 1304              		.loc 1 718 1 is_stmt 1
 1305              		.cfi_startproc
 1306              	.LVL116:
 719:arch/riscv/mach-gd32vf10x/bsp/gd32vf103_adc.c ****     ADC_WDLT(adc_periph) = (uint32_t)WDLT_WDLT(low_threshold);
 1307              		.loc 1 719 5
 1308              		.loc 1 719 28 is_stmt 0
 1309 0000 8567     		li	a5,4096
 1310 0002 FD17     		addi	a5,a5,-1
 1311 0004 FD8D     		and	a1,a1,a5
 1312              	.LVL117:
 1313              		.loc 1 719 26
 1314 0006 0CD5     		sw	a1,40(a0)
 720:arch/riscv/mach-gd32vf10x/bsp/gd32vf103_adc.c ****     ADC_WDHT(adc_periph) = (uint32_t)WDHT_WDHT(high_threshold);
 1315              		.loc 1 720 5 is_stmt 1
 1316              		.loc 1 720 28 is_stmt 0
 1317 0008 7D8E     		and	a2,a2,a5
 1318              	.LVL118:
GAS LISTING C:\Users\test\AppData\Local\Temp\ccF0WSt9.s 			page 38


 1319              		.loc 1 720 26
 1320 000a 50D1     		sw	a2,36(a0)
 721:arch/riscv/mach-gd32vf10x/bsp/gd32vf103_adc.c **** }
 1321              		.loc 1 721 1
 1322 000c 8280     		ret
 1323              		.cfi_endproc
 1324              	.LFE27:
 1326              		.section	.text.adc_flag_get,"ax",@progbits
 1327              		.align	1
 1328              		.globl	adc_flag_get
 1330              	adc_flag_get:
 1331              	.LFB28:
 722:arch/riscv/mach-gd32vf10x/bsp/gd32vf103_adc.c **** 
 723:arch/riscv/mach-gd32vf10x/bsp/gd32vf103_adc.c **** /*!
 724:arch/riscv/mach-gd32vf10x/bsp/gd32vf103_adc.c ****     \brief      get the ADC flag bits
 725:arch/riscv/mach-gd32vf10x/bsp/gd32vf103_adc.c ****     \param[in]  adc_periph: ADCx, x=0,1
 726:arch/riscv/mach-gd32vf10x/bsp/gd32vf103_adc.c ****     \param[in]  adc_flag: the adc flag bits
 727:arch/riscv/mach-gd32vf10x/bsp/gd32vf103_adc.c ****                 only one parameter can be selected which is shown as below:
 728:arch/riscv/mach-gd32vf10x/bsp/gd32vf103_adc.c ****       \arg        ADC_FLAG_WDE: analog watchdog event flag
 729:arch/riscv/mach-gd32vf10x/bsp/gd32vf103_adc.c ****       \arg        ADC_FLAG_EOC: end of group conversion flag
 730:arch/riscv/mach-gd32vf10x/bsp/gd32vf103_adc.c ****       \arg        ADC_FLAG_EOIC: end of inserted group conversion flag
 731:arch/riscv/mach-gd32vf10x/bsp/gd32vf103_adc.c ****       \arg        ADC_FLAG_STIC: start flag of inserted channel group
 732:arch/riscv/mach-gd32vf10x/bsp/gd32vf103_adc.c ****       \arg        ADC_FLAG_STRC: start flag of regular channel group
 733:arch/riscv/mach-gd32vf10x/bsp/gd32vf103_adc.c ****     \param[out] none
 734:arch/riscv/mach-gd32vf10x/bsp/gd32vf103_adc.c ****     \retval     FlagStatus: SET or RESET
 735:arch/riscv/mach-gd32vf10x/bsp/gd32vf103_adc.c **** */
 736:arch/riscv/mach-gd32vf10x/bsp/gd32vf103_adc.c **** FlagStatus adc_flag_get(uint32_t adc_periph, uint32_t adc_flag)
 737:arch/riscv/mach-gd32vf10x/bsp/gd32vf103_adc.c **** {
 1332              		.loc 1 737 1 is_stmt 1
 1333              		.cfi_startproc
 1334              	.LVL119:
 738:arch/riscv/mach-gd32vf10x/bsp/gd32vf103_adc.c ****     FlagStatus reval = RESET;
 1335              		.loc 1 738 5
 739:arch/riscv/mach-gd32vf10x/bsp/gd32vf103_adc.c ****     if(ADC_STAT(adc_periph) & adc_flag){
 1336              		.loc 1 739 5
 1337              		.loc 1 739 8 is_stmt 0
 1338 0000 0841     		lw	a0,0(a0)
 1339              	.LVL120:
 740:arch/riscv/mach-gd32vf10x/bsp/gd32vf103_adc.c ****         reval = SET;
 741:arch/riscv/mach-gd32vf10x/bsp/gd32vf103_adc.c ****     }
 742:arch/riscv/mach-gd32vf10x/bsp/gd32vf103_adc.c ****     return reval;
 1340              		.loc 1 742 5 is_stmt 1
 739:arch/riscv/mach-gd32vf10x/bsp/gd32vf103_adc.c ****     if(ADC_STAT(adc_periph) & adc_flag){
 1341              		.loc 1 739 29 is_stmt 0
 1342 0002 6D8D     		and	a0,a0,a1
 1343              	.LVL121:
 743:arch/riscv/mach-gd32vf10x/bsp/gd32vf103_adc.c **** }
 1344              		.loc 1 743 1
 1345 0004 3335A000 		snez	a0,a0
 1346 0008 8280     		ret
 1347              		.cfi_endproc
 1348              	.LFE28:
 1350              		.section	.text.adc_flag_clear,"ax",@progbits
 1351              		.align	1
 1352              		.globl	adc_flag_clear
 1354              	adc_flag_clear:
 1355              	.LFB29:
GAS LISTING C:\Users\test\AppData\Local\Temp\ccF0WSt9.s 			page 39


 744:arch/riscv/mach-gd32vf10x/bsp/gd32vf103_adc.c **** 
 745:arch/riscv/mach-gd32vf10x/bsp/gd32vf103_adc.c **** /*!
 746:arch/riscv/mach-gd32vf10x/bsp/gd32vf103_adc.c ****     \brief      clear the ADC flag bits
 747:arch/riscv/mach-gd32vf10x/bsp/gd32vf103_adc.c ****     \param[in]  adc_periph: ADCx, x=0,1
 748:arch/riscv/mach-gd32vf10x/bsp/gd32vf103_adc.c ****     \param[in]  adc_flag: the adc flag bits
 749:arch/riscv/mach-gd32vf10x/bsp/gd32vf103_adc.c ****                 one or more parameters can be selected which are shown as below:
 750:arch/riscv/mach-gd32vf10x/bsp/gd32vf103_adc.c ****       \arg        ADC_FLAG_WDE: analog watchdog event flag
 751:arch/riscv/mach-gd32vf10x/bsp/gd32vf103_adc.c ****       \arg        ADC_FLAG_EOC: end of group conversion flag
 752:arch/riscv/mach-gd32vf10x/bsp/gd32vf103_adc.c ****       \arg        ADC_FLAG_EOIC: end of inserted group conversion flag
 753:arch/riscv/mach-gd32vf10x/bsp/gd32vf103_adc.c ****       \arg        ADC_FLAG_STIC: start flag of inserted channel group
 754:arch/riscv/mach-gd32vf10x/bsp/gd32vf103_adc.c ****       \arg        ADC_FLAG_STRC: start flag of regular channel group
 755:arch/riscv/mach-gd32vf10x/bsp/gd32vf103_adc.c ****     \param[out] none
 756:arch/riscv/mach-gd32vf10x/bsp/gd32vf103_adc.c ****     \retval     none
 757:arch/riscv/mach-gd32vf10x/bsp/gd32vf103_adc.c **** */
 758:arch/riscv/mach-gd32vf10x/bsp/gd32vf103_adc.c **** void adc_flag_clear(uint32_t adc_periph, uint32_t adc_flag)
 759:arch/riscv/mach-gd32vf10x/bsp/gd32vf103_adc.c **** {
 1356              		.loc 1 759 1 is_stmt 1
 1357              		.cfi_startproc
 1358              	.LVL122:
 760:arch/riscv/mach-gd32vf10x/bsp/gd32vf103_adc.c ****     ADC_STAT(adc_periph) &= ~((uint32_t)adc_flag);
 1359              		.loc 1 760 5
 1360              		.loc 1 760 26 is_stmt 0
 1361 0000 1C41     		lw	a5,0(a0)
 1362              		.loc 1 760 29
 1363 0002 93C5F5FF 		not	a1,a1
 1364              	.LVL123:
 1365              		.loc 1 760 26
 1366 0006 FD8D     		and	a1,a1,a5
 1367              	.LVL124:
 1368 0008 0CC1     		sw	a1,0(a0)
 761:arch/riscv/mach-gd32vf10x/bsp/gd32vf103_adc.c **** }
 1369              		.loc 1 761 1
 1370 000a 8280     		ret
 1371              		.cfi_endproc
 1372              	.LFE29:
 1374              		.section	.text.adc_regular_software_startconv_flag_get,"ax",@progbits
 1375              		.align	1
 1376              		.globl	adc_regular_software_startconv_flag_get
 1378              	adc_regular_software_startconv_flag_get:
 1379              	.LFB30:
 762:arch/riscv/mach-gd32vf10x/bsp/gd32vf103_adc.c **** 
 763:arch/riscv/mach-gd32vf10x/bsp/gd32vf103_adc.c **** /*!
 764:arch/riscv/mach-gd32vf10x/bsp/gd32vf103_adc.c ****     \brief      get the bit state of ADCx software start conversion
 765:arch/riscv/mach-gd32vf10x/bsp/gd32vf103_adc.c ****     \param[in]  adc_periph: ADCx, x=0,1
 766:arch/riscv/mach-gd32vf10x/bsp/gd32vf103_adc.c ****     \param[in]  none
 767:arch/riscv/mach-gd32vf10x/bsp/gd32vf103_adc.c ****     \param[out] none
 768:arch/riscv/mach-gd32vf10x/bsp/gd32vf103_adc.c ****     \retval     FlagStatus: SET or RESET
 769:arch/riscv/mach-gd32vf10x/bsp/gd32vf103_adc.c **** */
 770:arch/riscv/mach-gd32vf10x/bsp/gd32vf103_adc.c **** FlagStatus adc_regular_software_startconv_flag_get(uint32_t adc_periph)
 771:arch/riscv/mach-gd32vf10x/bsp/gd32vf103_adc.c **** {
 1380              		.loc 1 771 1 is_stmt 1
 1381              		.cfi_startproc
 1382              	.LVL125:
 772:arch/riscv/mach-gd32vf10x/bsp/gd32vf103_adc.c ****     FlagStatus reval = RESET;
 1383              		.loc 1 772 5
 773:arch/riscv/mach-gd32vf10x/bsp/gd32vf103_adc.c ****     if((uint32_t)RESET != (ADC_CTL1(adc_periph) & ADC_CTL1_SWRCST)){
 1384              		.loc 1 773 5
GAS LISTING C:\Users\test\AppData\Local\Temp\ccF0WSt9.s 			page 40


 1385              		.loc 1 773 28 is_stmt 0
 1386 0000 0845     		lw	a0,8(a0)
 1387              	.LVL126:
 774:arch/riscv/mach-gd32vf10x/bsp/gd32vf103_adc.c ****         reval = SET;
 775:arch/riscv/mach-gd32vf10x/bsp/gd32vf103_adc.c ****     }
 776:arch/riscv/mach-gd32vf10x/bsp/gd32vf103_adc.c ****     return reval;
 1388              		.loc 1 776 5 is_stmt 1
 773:arch/riscv/mach-gd32vf10x/bsp/gd32vf103_adc.c ****     if((uint32_t)RESET != (ADC_CTL1(adc_periph) & ADC_CTL1_SWRCST)){
 1389              		.loc 1 773 7 is_stmt 0
 1390 0002 5981     		srli	a0,a0,22
 1391              	.LVL127:
 777:arch/riscv/mach-gd32vf10x/bsp/gd32vf103_adc.c **** }
 1392              		.loc 1 777 1
 1393 0004 0589     		andi	a0,a0,1
 1394 0006 8280     		ret
 1395              		.cfi_endproc
 1396              	.LFE30:
 1398              		.section	.text.adc_inserted_software_startconv_flag_get,"ax",@progbits
 1399              		.align	1
 1400              		.globl	adc_inserted_software_startconv_flag_get
 1402              	adc_inserted_software_startconv_flag_get:
 1403              	.LFB31:
 778:arch/riscv/mach-gd32vf10x/bsp/gd32vf103_adc.c **** 
 779:arch/riscv/mach-gd32vf10x/bsp/gd32vf103_adc.c **** /*!
 780:arch/riscv/mach-gd32vf10x/bsp/gd32vf103_adc.c ****     \brief      get the bit state of ADCx software inserted channel start conversion
 781:arch/riscv/mach-gd32vf10x/bsp/gd32vf103_adc.c ****     \param[in]  adc_periph: ADCx, x=0,1
 782:arch/riscv/mach-gd32vf10x/bsp/gd32vf103_adc.c ****     \param[in]  none
 783:arch/riscv/mach-gd32vf10x/bsp/gd32vf103_adc.c ****     \param[out] none
 784:arch/riscv/mach-gd32vf10x/bsp/gd32vf103_adc.c ****     \retval     FlagStatus: SET or RESET
 785:arch/riscv/mach-gd32vf10x/bsp/gd32vf103_adc.c **** */
 786:arch/riscv/mach-gd32vf10x/bsp/gd32vf103_adc.c **** FlagStatus adc_inserted_software_startconv_flag_get(uint32_t adc_periph)
 787:arch/riscv/mach-gd32vf10x/bsp/gd32vf103_adc.c **** {
 1404              		.loc 1 787 1 is_stmt 1
 1405              		.cfi_startproc
 1406              	.LVL128:
 788:arch/riscv/mach-gd32vf10x/bsp/gd32vf103_adc.c ****     FlagStatus reval = RESET;
 1407              		.loc 1 788 5
 789:arch/riscv/mach-gd32vf10x/bsp/gd32vf103_adc.c ****     if((uint32_t)RESET != (ADC_CTL1(adc_periph) & ADC_CTL1_SWICST)){
 1408              		.loc 1 789 5
 1409              		.loc 1 789 28 is_stmt 0
 1410 0000 0845     		lw	a0,8(a0)
 1411              	.LVL129:
 790:arch/riscv/mach-gd32vf10x/bsp/gd32vf103_adc.c ****         reval = SET;
 791:arch/riscv/mach-gd32vf10x/bsp/gd32vf103_adc.c ****     }
 792:arch/riscv/mach-gd32vf10x/bsp/gd32vf103_adc.c ****     return reval;
 1412              		.loc 1 792 5 is_stmt 1
 789:arch/riscv/mach-gd32vf10x/bsp/gd32vf103_adc.c ****     if((uint32_t)RESET != (ADC_CTL1(adc_periph) & ADC_CTL1_SWICST)){
 1413              		.loc 1 789 7 is_stmt 0
 1414 0002 5581     		srli	a0,a0,21
 1415              	.LVL130:
 793:arch/riscv/mach-gd32vf10x/bsp/gd32vf103_adc.c **** }
 1416              		.loc 1 793 1
 1417 0004 0589     		andi	a0,a0,1
 1418 0006 8280     		ret
 1419              		.cfi_endproc
 1420              	.LFE31:
 1422              		.section	.text.adc_interrupt_flag_get,"ax",@progbits
GAS LISTING C:\Users\test\AppData\Local\Temp\ccF0WSt9.s 			page 41


 1423              		.align	1
 1424              		.globl	adc_interrupt_flag_get
 1426              	adc_interrupt_flag_get:
 1427              	.LFB32:
 794:arch/riscv/mach-gd32vf10x/bsp/gd32vf103_adc.c **** 
 795:arch/riscv/mach-gd32vf10x/bsp/gd32vf103_adc.c **** /*!
 796:arch/riscv/mach-gd32vf10x/bsp/gd32vf103_adc.c ****     \brief      get the ADC interrupt bits
 797:arch/riscv/mach-gd32vf10x/bsp/gd32vf103_adc.c ****     \param[in]  adc_periph: ADCx, x=0,1
 798:arch/riscv/mach-gd32vf10x/bsp/gd32vf103_adc.c ****     \param[in]  adc_interrupt: the adc interrupt bits
 799:arch/riscv/mach-gd32vf10x/bsp/gd32vf103_adc.c ****                 only one parameter can be selected which is shown as below:
 800:arch/riscv/mach-gd32vf10x/bsp/gd32vf103_adc.c ****       \arg        ADC_INT_FLAG_WDE: analog watchdog interrupt
 801:arch/riscv/mach-gd32vf10x/bsp/gd32vf103_adc.c ****       \arg        ADC_INT_FLAG_EOC: end of group conversion interrupt
 802:arch/riscv/mach-gd32vf10x/bsp/gd32vf103_adc.c ****       \arg        ADC_INT_FLAG_EOIC: end of inserted group conversion interrupt
 803:arch/riscv/mach-gd32vf10x/bsp/gd32vf103_adc.c ****     \param[out] none
 804:arch/riscv/mach-gd32vf10x/bsp/gd32vf103_adc.c ****     \retval     FlagStatus: SET or RESET
 805:arch/riscv/mach-gd32vf10x/bsp/gd32vf103_adc.c **** */
 806:arch/riscv/mach-gd32vf10x/bsp/gd32vf103_adc.c **** FlagStatus adc_interrupt_flag_get(uint32_t adc_periph, uint32_t adc_interrupt)
 807:arch/riscv/mach-gd32vf10x/bsp/gd32vf103_adc.c **** {
 1428              		.loc 1 807 1 is_stmt 1
 1429              		.cfi_startproc
 1430              	.LVL131:
 808:arch/riscv/mach-gd32vf10x/bsp/gd32vf103_adc.c ****     FlagStatus interrupt_flag = RESET;
 1431              		.loc 1 808 5
 809:arch/riscv/mach-gd32vf10x/bsp/gd32vf103_adc.c ****     uint32_t state;
 1432              		.loc 1 809 5
 810:arch/riscv/mach-gd32vf10x/bsp/gd32vf103_adc.c ****     /* check the interrupt bits */
 811:arch/riscv/mach-gd32vf10x/bsp/gd32vf103_adc.c ****     switch(adc_interrupt){
 1433              		.loc 1 811 5
 1434 0000 8947     		li	a5,2
 1435 0002 638BF500 		beq	a1,a5,.L126
 1436 0006 9147     		li	a5,4
 1437 0008 638BF502 		beq	a1,a5,.L127
 1438 000c 0547     		li	a4,1
 808:arch/riscv/mach-gd32vf10x/bsp/gd32vf103_adc.c ****     uint32_t state;
 1439              		.loc 1 808 16 is_stmt 0
 1440 000e 8147     		li	a5,0
 1441              		.loc 1 811 5
 1442 0010 638EE500 		beq	a1,a4,.L139
 1443              	.L125:
 812:arch/riscv/mach-gd32vf10x/bsp/gd32vf103_adc.c ****     case ADC_INT_FLAG_WDE:
 813:arch/riscv/mach-gd32vf10x/bsp/gd32vf103_adc.c ****         /* get the ADC analog watchdog interrupt bits */
 814:arch/riscv/mach-gd32vf10x/bsp/gd32vf103_adc.c ****         state = ADC_STAT(adc_periph) & ADC_STAT_WDE;
 815:arch/riscv/mach-gd32vf10x/bsp/gd32vf103_adc.c ****         if((ADC_CTL0(adc_periph) & ADC_CTL0_WDEIE) && state){
 816:arch/riscv/mach-gd32vf10x/bsp/gd32vf103_adc.c ****           interrupt_flag = SET;
 817:arch/riscv/mach-gd32vf10x/bsp/gd32vf103_adc.c ****         }
 818:arch/riscv/mach-gd32vf10x/bsp/gd32vf103_adc.c ****         break;
 819:arch/riscv/mach-gd32vf10x/bsp/gd32vf103_adc.c ****     case ADC_INT_FLAG_EOC:
 820:arch/riscv/mach-gd32vf10x/bsp/gd32vf103_adc.c ****         /* get the ADC end of group conversion interrupt bits */
 821:arch/riscv/mach-gd32vf10x/bsp/gd32vf103_adc.c ****         state = ADC_STAT(adc_periph) & ADC_STAT_EOC;
 822:arch/riscv/mach-gd32vf10x/bsp/gd32vf103_adc.c ****           if((ADC_CTL0(adc_periph) & ADC_CTL0_EOCIE) && state){
 823:arch/riscv/mach-gd32vf10x/bsp/gd32vf103_adc.c ****             interrupt_flag = SET;
 824:arch/riscv/mach-gd32vf10x/bsp/gd32vf103_adc.c ****           }
 825:arch/riscv/mach-gd32vf10x/bsp/gd32vf103_adc.c ****         break;
 826:arch/riscv/mach-gd32vf10x/bsp/gd32vf103_adc.c ****     case ADC_INT_FLAG_EOIC:
 827:arch/riscv/mach-gd32vf10x/bsp/gd32vf103_adc.c ****         /* get the ADC end of inserted group conversion interrupt bits */
 828:arch/riscv/mach-gd32vf10x/bsp/gd32vf103_adc.c ****         state = ADC_STAT(adc_periph) & ADC_STAT_EOIC;
 829:arch/riscv/mach-gd32vf10x/bsp/gd32vf103_adc.c ****         if((ADC_CTL0(adc_periph) & ADC_CTL0_EOICIE) && state){
GAS LISTING C:\Users\test\AppData\Local\Temp\ccF0WSt9.s 			page 42


 830:arch/riscv/mach-gd32vf10x/bsp/gd32vf103_adc.c ****             interrupt_flag = SET;
 831:arch/riscv/mach-gd32vf10x/bsp/gd32vf103_adc.c ****         }
 832:arch/riscv/mach-gd32vf10x/bsp/gd32vf103_adc.c ****         break;
 833:arch/riscv/mach-gd32vf10x/bsp/gd32vf103_adc.c ****     default:
 834:arch/riscv/mach-gd32vf10x/bsp/gd32vf103_adc.c ****         break;
 835:arch/riscv/mach-gd32vf10x/bsp/gd32vf103_adc.c ****     }
 836:arch/riscv/mach-gd32vf10x/bsp/gd32vf103_adc.c ****     return interrupt_flag;
 837:arch/riscv/mach-gd32vf10x/bsp/gd32vf103_adc.c **** }
 1444              		.loc 1 837 1
 1445 0014 3E85     		mv	a0,a5
 1446              	.LVL132:
 1447 0016 8280     		ret
 1448              	.LVL133:
 1449              	.L126:
 821:arch/riscv/mach-gd32vf10x/bsp/gd32vf103_adc.c ****           if((ADC_CTL0(adc_periph) & ADC_CTL0_EOCIE) && state){
 1450              		.loc 1 821 9 is_stmt 1
 821:arch/riscv/mach-gd32vf10x/bsp/gd32vf103_adc.c ****           if((ADC_CTL0(adc_periph) & ADC_CTL0_EOCIE) && state){
 1451              		.loc 1 821 17 is_stmt 0
 1452 0018 1841     		lw	a4,0(a0)
 1453              	.LVL134:
 822:arch/riscv/mach-gd32vf10x/bsp/gd32vf103_adc.c ****             interrupt_flag = SET;
 1454              		.loc 1 822 11 is_stmt 1
 822:arch/riscv/mach-gd32vf10x/bsp/gd32vf103_adc.c ****             interrupt_flag = SET;
 1455              		.loc 1 822 15 is_stmt 0
 1456 001a 5C41     		lw	a5,4(a0)
 822:arch/riscv/mach-gd32vf10x/bsp/gd32vf103_adc.c ****             interrupt_flag = SET;
 1457              		.loc 1 822 36
 1458 001c 93F70702 		andi	a5,a5,32
 822:arch/riscv/mach-gd32vf10x/bsp/gd32vf103_adc.c ****             interrupt_flag = SET;
 1459              		.loc 1 822 13
 1460 0020 F5DB     		beq	a5,zero,.L125
 822:arch/riscv/mach-gd32vf10x/bsp/gd32vf103_adc.c ****             interrupt_flag = SET;
 1461              		.loc 1 822 54 discriminator 1
 1462 0022 93571700 		srli	a5,a4,1
 1463 0026 858B     		andi	a5,a5,1
 1464              		.loc 1 837 1 discriminator 1
 1465 0028 3E85     		mv	a0,a5
 1466              	.LVL135:
 1467 002a 8280     		ret
 1468              	.LVL136:
 1469              	.L139:
 814:arch/riscv/mach-gd32vf10x/bsp/gd32vf103_adc.c ****         if((ADC_CTL0(adc_periph) & ADC_CTL0_WDEIE) && state){
 1470              		.loc 1 814 9 is_stmt 1
 814:arch/riscv/mach-gd32vf10x/bsp/gd32vf103_adc.c ****         if((ADC_CTL0(adc_periph) & ADC_CTL0_WDEIE) && state){
 1471              		.loc 1 814 17 is_stmt 0
 1472 002c 1841     		lw	a4,0(a0)
 1473              	.LVL137:
 815:arch/riscv/mach-gd32vf10x/bsp/gd32vf103_adc.c ****           interrupt_flag = SET;
 1474              		.loc 1 815 9 is_stmt 1
 815:arch/riscv/mach-gd32vf10x/bsp/gd32vf103_adc.c ****           interrupt_flag = SET;
 1475              		.loc 1 815 13 is_stmt 0
 1476 002e 5C41     		lw	a5,4(a0)
 815:arch/riscv/mach-gd32vf10x/bsp/gd32vf103_adc.c ****           interrupt_flag = SET;
 1477              		.loc 1 815 34
 1478 0030 93F70704 		andi	a5,a5,64
 815:arch/riscv/mach-gd32vf10x/bsp/gd32vf103_adc.c ****           interrupt_flag = SET;
 1479              		.loc 1 815 11
GAS LISTING C:\Users\test\AppData\Local\Temp\ccF0WSt9.s 			page 43


 1480 0034 E5D3     		beq	a5,zero,.L125
 1481 0036 93771700 		andi	a5,a4,1
 1482              	.LVL138:
 1483              		.loc 1 837 1 discriminator 1
 1484 003a 3E85     		mv	a0,a5
 1485              	.LVL139:
 1486 003c 8280     		ret
 1487              	.LVL140:
 1488              	.L127:
 828:arch/riscv/mach-gd32vf10x/bsp/gd32vf103_adc.c ****         if((ADC_CTL0(adc_periph) & ADC_CTL0_EOICIE) && state){
 1489              		.loc 1 828 9 is_stmt 1
 828:arch/riscv/mach-gd32vf10x/bsp/gd32vf103_adc.c ****         if((ADC_CTL0(adc_periph) & ADC_CTL0_EOICIE) && state){
 1490              		.loc 1 828 17 is_stmt 0
 1491 003e 1841     		lw	a4,0(a0)
 1492              	.LVL141:
 829:arch/riscv/mach-gd32vf10x/bsp/gd32vf103_adc.c ****             interrupt_flag = SET;
 1493              		.loc 1 829 9 is_stmt 1
 829:arch/riscv/mach-gd32vf10x/bsp/gd32vf103_adc.c ****             interrupt_flag = SET;
 1494              		.loc 1 829 13 is_stmt 0
 1495 0040 5C41     		lw	a5,4(a0)
 829:arch/riscv/mach-gd32vf10x/bsp/gd32vf103_adc.c ****             interrupt_flag = SET;
 1496              		.loc 1 829 34
 1497 0042 93F70708 		andi	a5,a5,128
 829:arch/riscv/mach-gd32vf10x/bsp/gd32vf103_adc.c ****             interrupt_flag = SET;
 1498              		.loc 1 829 11
 1499 0046 F9D7     		beq	a5,zero,.L125
 829:arch/riscv/mach-gd32vf10x/bsp/gd32vf103_adc.c ****             interrupt_flag = SET;
 1500              		.loc 1 829 53 discriminator 1
 1501 0048 93572700 		srli	a5,a4,2
 1502 004c 858B     		andi	a5,a5,1
 1503              		.loc 1 837 1 discriminator 1
 1504 004e 3E85     		mv	a0,a5
 1505              	.LVL142:
 1506 0050 8280     		ret
 1507              		.cfi_endproc
 1508              	.LFE32:
 1510              		.section	.text.adc_interrupt_flag_clear,"ax",@progbits
 1511              		.align	1
 1512              		.globl	adc_interrupt_flag_clear
 1514              	adc_interrupt_flag_clear:
 1515              	.LFB41:
 1516              		.cfi_startproc
 1517 0000 17030000 		tail	adc_flag_clear
 1517      67000300 
 1518              		.cfi_endproc
 1519              	.LFE41:
 1521              		.section	.text.adc_interrupt_enable,"ax",@progbits
 1522              		.align	1
 1523              		.globl	adc_interrupt_enable
 1525              	adc_interrupt_enable:
 1526              	.LFB34:
 838:arch/riscv/mach-gd32vf10x/bsp/gd32vf103_adc.c **** 
 839:arch/riscv/mach-gd32vf10x/bsp/gd32vf103_adc.c **** /*!
 840:arch/riscv/mach-gd32vf10x/bsp/gd32vf103_adc.c ****     \brief      clear the ADC flag
 841:arch/riscv/mach-gd32vf10x/bsp/gd32vf103_adc.c ****     \param[in]  adc_periph: ADCx, x=0,1
 842:arch/riscv/mach-gd32vf10x/bsp/gd32vf103_adc.c ****     \param[in]  adc_interrupt: the adc status flag
 843:arch/riscv/mach-gd32vf10x/bsp/gd32vf103_adc.c ****                 one or more parameters can be selected which are shown as below:
GAS LISTING C:\Users\test\AppData\Local\Temp\ccF0WSt9.s 			page 44


 844:arch/riscv/mach-gd32vf10x/bsp/gd32vf103_adc.c ****       \arg        ADC_INT_FLAG_WDE: analog watchdog interrupt
 845:arch/riscv/mach-gd32vf10x/bsp/gd32vf103_adc.c ****       \arg        ADC_INT_FLAG_EOC: end of group conversion interrupt
 846:arch/riscv/mach-gd32vf10x/bsp/gd32vf103_adc.c ****       \arg        ADC_INT_FLAG_EOIC: end of inserted group conversion interrupt
 847:arch/riscv/mach-gd32vf10x/bsp/gd32vf103_adc.c ****     \param[out] none
 848:arch/riscv/mach-gd32vf10x/bsp/gd32vf103_adc.c ****     \retval     none
 849:arch/riscv/mach-gd32vf10x/bsp/gd32vf103_adc.c **** */
 850:arch/riscv/mach-gd32vf10x/bsp/gd32vf103_adc.c **** void adc_interrupt_flag_clear(uint32_t adc_periph, uint32_t adc_interrupt)
 851:arch/riscv/mach-gd32vf10x/bsp/gd32vf103_adc.c **** {
 852:arch/riscv/mach-gd32vf10x/bsp/gd32vf103_adc.c ****     ADC_STAT(adc_periph) &= ~((uint32_t)adc_interrupt);
 853:arch/riscv/mach-gd32vf10x/bsp/gd32vf103_adc.c **** }
 854:arch/riscv/mach-gd32vf10x/bsp/gd32vf103_adc.c **** 
 855:arch/riscv/mach-gd32vf10x/bsp/gd32vf103_adc.c **** /*!
 856:arch/riscv/mach-gd32vf10x/bsp/gd32vf103_adc.c ****     \brief      enable ADC interrupt 
 857:arch/riscv/mach-gd32vf10x/bsp/gd32vf103_adc.c ****     \param[in]  adc_periph: ADCx, x=0,1
 858:arch/riscv/mach-gd32vf10x/bsp/gd32vf103_adc.c ****     \param[in]  adc_interrupt: the adc interrupt
 859:arch/riscv/mach-gd32vf10x/bsp/gd32vf103_adc.c ****                 one or more parameters can be selected which are shown as below:
 860:arch/riscv/mach-gd32vf10x/bsp/gd32vf103_adc.c ****       \arg        ADC_INT_WDE: analog watchdog interrupt flag
 861:arch/riscv/mach-gd32vf10x/bsp/gd32vf103_adc.c ****       \arg        ADC_INT_EOC: end of group conversion interrupt flag
 862:arch/riscv/mach-gd32vf10x/bsp/gd32vf103_adc.c ****       \arg        ADC_INT_EOIC: end of inserted group conversion interrupt flag
 863:arch/riscv/mach-gd32vf10x/bsp/gd32vf103_adc.c ****     \param[out] none
 864:arch/riscv/mach-gd32vf10x/bsp/gd32vf103_adc.c ****     \retval     none
 865:arch/riscv/mach-gd32vf10x/bsp/gd32vf103_adc.c **** */
 866:arch/riscv/mach-gd32vf10x/bsp/gd32vf103_adc.c **** void adc_interrupt_enable(uint32_t adc_periph, uint32_t adc_interrupt)
 867:arch/riscv/mach-gd32vf10x/bsp/gd32vf103_adc.c **** {
 1527              		.loc 1 867 1 is_stmt 1
 1528              		.cfi_startproc
 1529              	.LVL143:
 868:arch/riscv/mach-gd32vf10x/bsp/gd32vf103_adc.c ****     /* enable ADC analog watchdog interrupt */
 869:arch/riscv/mach-gd32vf10x/bsp/gd32vf103_adc.c ****     if(0U != (adc_interrupt & ADC_INT_WDE)){
 1530              		.loc 1 869 5
 1531              		.loc 1 869 29 is_stmt 0
 1532 0000 93F71500 		andi	a5,a1,1
 1533              		.loc 1 869 7
 1534 0004 89C7     		beq	a5,zero,.L142
 870:arch/riscv/mach-gd32vf10x/bsp/gd32vf103_adc.c ****         ADC_CTL0(adc_periph) |= (uint32_t) ADC_CTL0_WDEIE;
 1535              		.loc 1 870 9 is_stmt 1
 1536              		.loc 1 870 30 is_stmt 0
 1537 0006 5C41     		lw	a5,4(a0)
 1538 0008 93E70704 		ori	a5,a5,64
 1539 000c 5CC1     		sw	a5,4(a0)
 1540              	.L142:
 871:arch/riscv/mach-gd32vf10x/bsp/gd32vf103_adc.c ****     }  
 872:arch/riscv/mach-gd32vf10x/bsp/gd32vf103_adc.c ****     /* enable ADC end of group conversion interrupt */
 873:arch/riscv/mach-gd32vf10x/bsp/gd32vf103_adc.c ****     if(0U != (adc_interrupt & ADC_INT_EOC)){      
 1541              		.loc 1 873 5 is_stmt 1
 1542              		.loc 1 873 29 is_stmt 0
 1543 000e 93F72500 		andi	a5,a1,2
 1544              		.loc 1 873 7
 1545 0012 89C7     		beq	a5,zero,.L143
 874:arch/riscv/mach-gd32vf10x/bsp/gd32vf103_adc.c ****         ADC_CTL0(adc_periph) |= (uint32_t) ADC_CTL0_EOCIE;
 1546              		.loc 1 874 9 is_stmt 1
 1547              		.loc 1 874 30 is_stmt 0
 1548 0014 5C41     		lw	a5,4(a0)
 1549 0016 93E70702 		ori	a5,a5,32
 1550 001a 5CC1     		sw	a5,4(a0)
 1551              	.L143:
 875:arch/riscv/mach-gd32vf10x/bsp/gd32vf103_adc.c ****     }  
GAS LISTING C:\Users\test\AppData\Local\Temp\ccF0WSt9.s 			page 45


 876:arch/riscv/mach-gd32vf10x/bsp/gd32vf103_adc.c ****     /* enable ADC end of inserted group conversion interrupt */
 877:arch/riscv/mach-gd32vf10x/bsp/gd32vf103_adc.c ****     if(0U != (adc_interrupt & ADC_INT_EOIC)){      
 1552              		.loc 1 877 5 is_stmt 1
 1553              		.loc 1 877 29 is_stmt 0
 1554 001c 9189     		andi	a1,a1,4
 1555              	.LVL144:
 1556              		.loc 1 877 7
 1557 001e 89C5     		beq	a1,zero,.L141
 878:arch/riscv/mach-gd32vf10x/bsp/gd32vf103_adc.c ****         ADC_CTL0(adc_periph) |= (uint32_t) ADC_CTL0_EOICIE;
 1558              		.loc 1 878 9 is_stmt 1
 1559              		.loc 1 878 30 is_stmt 0
 1560 0020 5C41     		lw	a5,4(a0)
 1561 0022 93E70708 		ori	a5,a5,128
 1562 0026 5CC1     		sw	a5,4(a0)
 1563              	.L141:
 879:arch/riscv/mach-gd32vf10x/bsp/gd32vf103_adc.c ****     }
 880:arch/riscv/mach-gd32vf10x/bsp/gd32vf103_adc.c **** }
 1564              		.loc 1 880 1
 1565 0028 8280     		ret
 1566              		.cfi_endproc
 1567              	.LFE34:
 1569              		.section	.text.adc_interrupt_disable,"ax",@progbits
 1570              		.align	1
 1571              		.globl	adc_interrupt_disable
 1573              	adc_interrupt_disable:
 1574              	.LFB35:
 881:arch/riscv/mach-gd32vf10x/bsp/gd32vf103_adc.c **** 
 882:arch/riscv/mach-gd32vf10x/bsp/gd32vf103_adc.c **** /*!
 883:arch/riscv/mach-gd32vf10x/bsp/gd32vf103_adc.c ****     \brief      disable ADC interrupt 
 884:arch/riscv/mach-gd32vf10x/bsp/gd32vf103_adc.c ****     \param[in]  adc_periph: ADCx, x=0,1
 885:arch/riscv/mach-gd32vf10x/bsp/gd32vf103_adc.c ****     \param[in]  adc_interrupt: the adc interrupt flag
 886:arch/riscv/mach-gd32vf10x/bsp/gd32vf103_adc.c ****                 one or more parameters can be selected which are shown as below:
 887:arch/riscv/mach-gd32vf10x/bsp/gd32vf103_adc.c ****       \arg        ADC_INT_WDE: analog watchdog interrupt flag
 888:arch/riscv/mach-gd32vf10x/bsp/gd32vf103_adc.c ****       \arg        ADC_INT_EOC: end of group conversion interrupt flag
 889:arch/riscv/mach-gd32vf10x/bsp/gd32vf103_adc.c ****       \arg        ADC_INT_EOIC: end of inserted group conversion interrupt flag
 890:arch/riscv/mach-gd32vf10x/bsp/gd32vf103_adc.c ****     \param[out] none
 891:arch/riscv/mach-gd32vf10x/bsp/gd32vf103_adc.c ****     \retval     none
 892:arch/riscv/mach-gd32vf10x/bsp/gd32vf103_adc.c **** */
 893:arch/riscv/mach-gd32vf10x/bsp/gd32vf103_adc.c **** void adc_interrupt_disable(uint32_t adc_periph, uint32_t adc_interrupt)
 894:arch/riscv/mach-gd32vf10x/bsp/gd32vf103_adc.c **** {  
 1575              		.loc 1 894 1 is_stmt 1
 1576              		.cfi_startproc
 1577              	.LVL145:
 895:arch/riscv/mach-gd32vf10x/bsp/gd32vf103_adc.c ****     /* disable ADC analog watchdog interrupt */
 896:arch/riscv/mach-gd32vf10x/bsp/gd32vf103_adc.c ****     if(0U != (adc_interrupt & ADC_INT_WDE)){  
 1578              		.loc 1 896 5
 1579              		.loc 1 896 29 is_stmt 0
 1580 0000 93F71500 		andi	a5,a1,1
 1581              		.loc 1 896 7
 1582 0004 89C7     		beq	a5,zero,.L155
 897:arch/riscv/mach-gd32vf10x/bsp/gd32vf103_adc.c ****         ADC_CTL0(adc_periph) &= ~(uint32_t) ADC_CTL0_WDEIE;
 1583              		.loc 1 897 9 is_stmt 1
 1584              		.loc 1 897 30 is_stmt 0
 1585 0006 5C41     		lw	a5,4(a0)
 1586 0008 93F7F7FB 		andi	a5,a5,-65
 1587 000c 5CC1     		sw	a5,4(a0)
 1588              	.L155:
GAS LISTING C:\Users\test\AppData\Local\Temp\ccF0WSt9.s 			page 46


 898:arch/riscv/mach-gd32vf10x/bsp/gd32vf103_adc.c ****     }  
 899:arch/riscv/mach-gd32vf10x/bsp/gd32vf103_adc.c ****     /* disable ADC end of group conversion interrupt */
 900:arch/riscv/mach-gd32vf10x/bsp/gd32vf103_adc.c ****     if(0U != (adc_interrupt & ADC_INT_EOC)){      
 1589              		.loc 1 900 5 is_stmt 1
 1590              		.loc 1 900 29 is_stmt 0
 1591 000e 93F72500 		andi	a5,a1,2
 1592              		.loc 1 900 7
 1593 0012 89C7     		beq	a5,zero,.L156
 901:arch/riscv/mach-gd32vf10x/bsp/gd32vf103_adc.c ****         ADC_CTL0(adc_periph) &= ~(uint32_t) ADC_CTL0_EOCIE;
 1594              		.loc 1 901 9 is_stmt 1
 1595              		.loc 1 901 30 is_stmt 0
 1596 0014 5C41     		lw	a5,4(a0)
 1597 0016 93F7F7FD 		andi	a5,a5,-33
 1598 001a 5CC1     		sw	a5,4(a0)
 1599              	.L156:
 902:arch/riscv/mach-gd32vf10x/bsp/gd32vf103_adc.c ****     }  
 903:arch/riscv/mach-gd32vf10x/bsp/gd32vf103_adc.c ****     /* disable ADC end of inserted group conversion interrupt */
 904:arch/riscv/mach-gd32vf10x/bsp/gd32vf103_adc.c ****     if(0U != (adc_interrupt & ADC_INT_EOIC)){      
 1600              		.loc 1 904 5 is_stmt 1
 1601              		.loc 1 904 29 is_stmt 0
 1602 001c 9189     		andi	a1,a1,4
 1603              	.LVL146:
 1604              		.loc 1 904 7
 1605 001e 89C5     		beq	a1,zero,.L154
 905:arch/riscv/mach-gd32vf10x/bsp/gd32vf103_adc.c ****         ADC_CTL0(adc_periph) &= ~(uint32_t) ADC_CTL0_EOICIE;
 1606              		.loc 1 905 9 is_stmt 1
 1607              		.loc 1 905 30 is_stmt 0
 1608 0020 5C41     		lw	a5,4(a0)
 1609 0022 93F7F7F7 		andi	a5,a5,-129
 1610 0026 5CC1     		sw	a5,4(a0)
 1611              	.L154:
 906:arch/riscv/mach-gd32vf10x/bsp/gd32vf103_adc.c ****     }
 907:arch/riscv/mach-gd32vf10x/bsp/gd32vf103_adc.c **** }
 1612              		.loc 1 907 1
 1613 0028 8280     		ret
 1614              		.cfi_endproc
 1615              	.LFE35:
 1617              		.section	.text.adc_resolution_config,"ax",@progbits
 1618              		.align	1
 1619              		.globl	adc_resolution_config
 1621              	adc_resolution_config:
 1622              	.LFB36:
 908:arch/riscv/mach-gd32vf10x/bsp/gd32vf103_adc.c **** 
 909:arch/riscv/mach-gd32vf10x/bsp/gd32vf103_adc.c **** /*!
 910:arch/riscv/mach-gd32vf10x/bsp/gd32vf103_adc.c ****     \brief      adc resolution config
 911:arch/riscv/mach-gd32vf10x/bsp/gd32vf103_adc.c ****     \param[in]  adc_periph: ADCx, x=0,1
 912:arch/riscv/mach-gd32vf10x/bsp/gd32vf103_adc.c ****     \param[in]  resolution: ADC resolution
 913:arch/riscv/mach-gd32vf10x/bsp/gd32vf103_adc.c ****                 only one parameter can be selected which is shown as below:
 914:arch/riscv/mach-gd32vf10x/bsp/gd32vf103_adc.c ****       \arg        ADC_RESOLUTION_12B: 12-bit ADC resolution
 915:arch/riscv/mach-gd32vf10x/bsp/gd32vf103_adc.c ****       \arg        ADC_RESOLUTION_10B: 10-bit ADC resolution
 916:arch/riscv/mach-gd32vf10x/bsp/gd32vf103_adc.c ****       \arg        ADC_RESOLUTION_8B: 8-bit ADC resolution
 917:arch/riscv/mach-gd32vf10x/bsp/gd32vf103_adc.c ****       \arg        ADC_RESOLUTION_6B: 6-bit ADC resolution
 918:arch/riscv/mach-gd32vf10x/bsp/gd32vf103_adc.c ****     \param[out] none
 919:arch/riscv/mach-gd32vf10x/bsp/gd32vf103_adc.c ****     \retval     none
 920:arch/riscv/mach-gd32vf10x/bsp/gd32vf103_adc.c **** */
 921:arch/riscv/mach-gd32vf10x/bsp/gd32vf103_adc.c **** void adc_resolution_config(uint32_t adc_periph, uint32_t resolution)
 922:arch/riscv/mach-gd32vf10x/bsp/gd32vf103_adc.c **** {
GAS LISTING C:\Users\test\AppData\Local\Temp\ccF0WSt9.s 			page 47


 1623              		.loc 1 922 1 is_stmt 1
 1624              		.cfi_startproc
 1625              	.LVL147:
 923:arch/riscv/mach-gd32vf10x/bsp/gd32vf103_adc.c ****     ADC_OVSCR(adc_periph) &= ~((uint32_t)ADC_OVSCR_DRES);
 1626              		.loc 1 923 5
 1627              		.loc 1 923 27 is_stmt 0
 1628 0000 83270508 		lw	a5,128(a0)
 1629 0004 7577     		li	a4,-12288
 1630 0006 7D17     		addi	a4,a4,-1
 1631 0008 F98F     		and	a5,a5,a4
 1632 000a 2320F508 		sw	a5,128(a0)
 924:arch/riscv/mach-gd32vf10x/bsp/gd32vf103_adc.c ****     ADC_OVSCR(adc_periph) |= (uint32_t)resolution;
 1633              		.loc 1 924 5 is_stmt 1
 1634              		.loc 1 924 27 is_stmt 0
 1635 000e 83270508 		lw	a5,128(a0)
 1636 0012 DD8D     		or	a1,a5,a1
 1637              	.LVL148:
 1638 0014 2320B508 		sw	a1,128(a0)
 925:arch/riscv/mach-gd32vf10x/bsp/gd32vf103_adc.c **** }
 1639              		.loc 1 925 1
 1640 0018 8280     		ret
 1641              		.cfi_endproc
 1642              	.LFE36:
 1644              		.section	.text.adc_oversample_mode_config,"ax",@progbits
 1645              		.align	1
 1646              		.globl	adc_oversample_mode_config
 1648              	adc_oversample_mode_config:
 1649              	.LFB37:
 926:arch/riscv/mach-gd32vf10x/bsp/gd32vf103_adc.c **** 
 927:arch/riscv/mach-gd32vf10x/bsp/gd32vf103_adc.c **** /*!
 928:arch/riscv/mach-gd32vf10x/bsp/gd32vf103_adc.c ****     \brief      adc oversample mode config
 929:arch/riscv/mach-gd32vf10x/bsp/gd32vf103_adc.c ****     \param[in]  adc_periph: ADCx, x=0,1
 930:arch/riscv/mach-gd32vf10x/bsp/gd32vf103_adc.c ****     \param[in]  mode: ADC oversampling mode
 931:arch/riscv/mach-gd32vf10x/bsp/gd32vf103_adc.c ****                 only one parameter can be selected which is shown as below:
 932:arch/riscv/mach-gd32vf10x/bsp/gd32vf103_adc.c ****       \arg        ADC_OVERSAMPLING_ALL_CONVERT: all oversampled conversions for a channel
 933:arch/riscv/mach-gd32vf10x/bsp/gd32vf103_adc.c ****                 are done consecutively after a trigger
 934:arch/riscv/mach-gd32vf10x/bsp/gd32vf103_adc.c ****       \arg        ADC_OVERSAMPLING_ONE_CONVERT: each oversampled conversion for a channel
 935:arch/riscv/mach-gd32vf10x/bsp/gd32vf103_adc.c ****                 needs a trigger
 936:arch/riscv/mach-gd32vf10x/bsp/gd32vf103_adc.c ****     \param[in]  shift: ADC oversampling shift
 937:arch/riscv/mach-gd32vf10x/bsp/gd32vf103_adc.c ****                 only one parameter can be selected which is shown as below:
 938:arch/riscv/mach-gd32vf10x/bsp/gd32vf103_adc.c ****       \arg        ADC_OVERSAMPLING_SHIFT_NONE: no oversampling shift
 939:arch/riscv/mach-gd32vf10x/bsp/gd32vf103_adc.c ****       \arg        ADC_OVERSAMPLING_SHIFT_1B: 1-bit oversampling shift
 940:arch/riscv/mach-gd32vf10x/bsp/gd32vf103_adc.c ****       \arg        ADC_OVERSAMPLING_SHIFT_2B: 2-bit oversampling shift
 941:arch/riscv/mach-gd32vf10x/bsp/gd32vf103_adc.c ****       \arg        ADC_OVERSAMPLING_SHIFT_3B: 3-bit oversampling shift
 942:arch/riscv/mach-gd32vf10x/bsp/gd32vf103_adc.c ****       \arg        ADC_OVERSAMPLING_SHIFT_4B: 3-bit oversampling shift
 943:arch/riscv/mach-gd32vf10x/bsp/gd32vf103_adc.c ****       \arg        ADC_OVERSAMPLING_SHIFT_5B: 5-bit oversampling shift
 944:arch/riscv/mach-gd32vf10x/bsp/gd32vf103_adc.c ****       \arg        ADC_OVERSAMPLING_SHIFT_6B: 6-bit oversampling shift
 945:arch/riscv/mach-gd32vf10x/bsp/gd32vf103_adc.c ****       \arg        ADC_OVERSAMPLING_SHIFT_7B: 7-bit oversampling shift
 946:arch/riscv/mach-gd32vf10x/bsp/gd32vf103_adc.c ****       \arg        ADC_OVERSAMPLING_SHIFT_8B: 8-bit oversampling shift
 947:arch/riscv/mach-gd32vf10x/bsp/gd32vf103_adc.c ****     \param[in]  ratio: ADC oversampling ratio
 948:arch/riscv/mach-gd32vf10x/bsp/gd32vf103_adc.c ****                 only one parameter can be selected which is shown as below:
 949:arch/riscv/mach-gd32vf10x/bsp/gd32vf103_adc.c ****       \arg        ADC_OVERSAMPLING_RATIO_MUL2: oversampling ratio X2
 950:arch/riscv/mach-gd32vf10x/bsp/gd32vf103_adc.c ****       \arg        ADC_OVERSAMPLING_RATIO_MUL4: oversampling ratio X4
 951:arch/riscv/mach-gd32vf10x/bsp/gd32vf103_adc.c ****       \arg        ADC_OVERSAMPLING_RATIO_MUL8: oversampling ratio X8
 952:arch/riscv/mach-gd32vf10x/bsp/gd32vf103_adc.c ****       \arg        ADC_OVERSAMPLING_RATIO_MUL16: oversampling ratio X16
 953:arch/riscv/mach-gd32vf10x/bsp/gd32vf103_adc.c ****       \arg        ADC_OVERSAMPLING_RATIO_MUL32: oversampling ratio X32
 954:arch/riscv/mach-gd32vf10x/bsp/gd32vf103_adc.c ****       \arg        ADC_OVERSAMPLING_RATIO_MUL64: oversampling ratio X64
GAS LISTING C:\Users\test\AppData\Local\Temp\ccF0WSt9.s 			page 48


 955:arch/riscv/mach-gd32vf10x/bsp/gd32vf103_adc.c ****       \arg        ADC_OVERSAMPLING_RATIO_MUL128: oversampling ratio X128
 956:arch/riscv/mach-gd32vf10x/bsp/gd32vf103_adc.c ****       \arg        ADC_OVERSAMPLING_RATIO_MUL256: oversampling ratio X256
 957:arch/riscv/mach-gd32vf10x/bsp/gd32vf103_adc.c ****     \param[out] none
 958:arch/riscv/mach-gd32vf10x/bsp/gd32vf103_adc.c ****     \retval     none
 959:arch/riscv/mach-gd32vf10x/bsp/gd32vf103_adc.c **** */
 960:arch/riscv/mach-gd32vf10x/bsp/gd32vf103_adc.c **** void adc_oversample_mode_config(uint32_t adc_periph, uint8_t mode, uint16_t shift,uint8_t ratio)
 961:arch/riscv/mach-gd32vf10x/bsp/gd32vf103_adc.c **** {
 1650              		.loc 1 961 1 is_stmt 1
 1651              		.cfi_startproc
 1652              	.LVL149:
 962:arch/riscv/mach-gd32vf10x/bsp/gd32vf103_adc.c ****     if(mode){
 1653              		.loc 1 962 5
 963:arch/riscv/mach-gd32vf10x/bsp/gd32vf103_adc.c ****         ADC_OVSCR(adc_periph) |= (uint32_t)ADC_OVSCR_TOVS;
 1654              		.loc 1 963 31 is_stmt 0
 1655 0000 83270508 		lw	a5,128(a0)
 962:arch/riscv/mach-gd32vf10x/bsp/gd32vf103_adc.c ****     if(mode){
 1656              		.loc 1 962 7
 1657 0004 95C1     		beq	a1,zero,.L169
 1658              		.loc 1 963 9 is_stmt 1
 1659              		.loc 1 963 31 is_stmt 0
 1660 0006 93E70720 		ori	a5,a5,512
 1661 000a 2320F508 		sw	a5,128(a0)
 964:arch/riscv/mach-gd32vf10x/bsp/gd32vf103_adc.c ****     }else{
 965:arch/riscv/mach-gd32vf10x/bsp/gd32vf103_adc.c ****         ADC_OVSCR(adc_periph) &= ~((uint32_t)ADC_OVSCR_TOVS);
 966:arch/riscv/mach-gd32vf10x/bsp/gd32vf103_adc.c ****     }
 967:arch/riscv/mach-gd32vf10x/bsp/gd32vf103_adc.c ****     /* config the shift and ratio */
 968:arch/riscv/mach-gd32vf10x/bsp/gd32vf103_adc.c ****     ADC_OVSCR(adc_periph) &= ~((uint32_t)(ADC_OVSCR_OVSR | ADC_OVSCR_OVSS));
 1662              		.loc 1 968 5 is_stmt 1
 1663              		.loc 1 968 27 is_stmt 0
 1664 000e 83270508 		lw	a5,128(a0)
 969:arch/riscv/mach-gd32vf10x/bsp/gd32vf103_adc.c ****     ADC_OVSCR(adc_periph) |= ((uint32_t)shift | (uint32_t)ratio);
 1665              		.loc 1 969 47
 1666 0012 558E     		or	a2,a2,a3
 1667              	.LVL150:
 968:arch/riscv/mach-gd32vf10x/bsp/gd32vf103_adc.c ****     ADC_OVSCR(adc_periph) |= ((uint32_t)shift | (uint32_t)ratio);
 1668              		.loc 1 968 27
 1669 0014 93F737E0 		andi	a5,a5,-509
 1670 0018 2320F508 		sw	a5,128(a0)
 1671              		.loc 1 969 5 is_stmt 1
 1672              		.loc 1 969 27 is_stmt 0
 1673 001c 83260508 		lw	a3,128(a0)
 1674              	.LVL151:
 1675 0020 558E     		or	a2,a2,a3
 1676 0022 2320C508 		sw	a2,128(a0)
 970:arch/riscv/mach-gd32vf10x/bsp/gd32vf103_adc.c **** }
 1677              		.loc 1 970 1
 1678 0026 8280     		ret
 1679              	.LVL152:
 1680              	.L169:
 965:arch/riscv/mach-gd32vf10x/bsp/gd32vf103_adc.c ****     }
 1681              		.loc 1 965 9 is_stmt 1
 965:arch/riscv/mach-gd32vf10x/bsp/gd32vf103_adc.c ****     }
 1682              		.loc 1 965 31 is_stmt 0
 1683 0028 93F7F7DF 		andi	a5,a5,-513
 1684 002c 2320F508 		sw	a5,128(a0)
 968:arch/riscv/mach-gd32vf10x/bsp/gd32vf103_adc.c ****     ADC_OVSCR(adc_periph) |= ((uint32_t)shift | (uint32_t)ratio);
 1685              		.loc 1 968 5 is_stmt 1
GAS LISTING C:\Users\test\AppData\Local\Temp\ccF0WSt9.s 			page 49


 968:arch/riscv/mach-gd32vf10x/bsp/gd32vf103_adc.c ****     ADC_OVSCR(adc_periph) |= ((uint32_t)shift | (uint32_t)ratio);
 1686              		.loc 1 968 27 is_stmt 0
 1687 0030 83270508 		lw	a5,128(a0)
 969:arch/riscv/mach-gd32vf10x/bsp/gd32vf103_adc.c **** }
 1688              		.loc 1 969 47
 1689 0034 558E     		or	a2,a2,a3
 1690              	.LVL153:
 968:arch/riscv/mach-gd32vf10x/bsp/gd32vf103_adc.c ****     ADC_OVSCR(adc_periph) |= ((uint32_t)shift | (uint32_t)ratio);
 1691              		.loc 1 968 27
 1692 0036 93F737E0 		andi	a5,a5,-509
 1693 003a 2320F508 		sw	a5,128(a0)
 969:arch/riscv/mach-gd32vf10x/bsp/gd32vf103_adc.c **** }
 1694              		.loc 1 969 5 is_stmt 1
 969:arch/riscv/mach-gd32vf10x/bsp/gd32vf103_adc.c **** }
 1695              		.loc 1 969 27 is_stmt 0
 1696 003e 83260508 		lw	a3,128(a0)
 1697              	.LVL154:
 1698 0042 558E     		or	a2,a2,a3
 1699 0044 2320C508 		sw	a2,128(a0)
 1700              		.loc 1 970 1
 1701 0048 8280     		ret
 1702              		.cfi_endproc
 1703              	.LFE37:
 1705              		.section	.text.adc_oversample_mode_enable,"ax",@progbits
 1706              		.align	1
 1707              		.globl	adc_oversample_mode_enable
 1709              	adc_oversample_mode_enable:
 1710              	.LFB38:
 971:arch/riscv/mach-gd32vf10x/bsp/gd32vf103_adc.c **** 
 972:arch/riscv/mach-gd32vf10x/bsp/gd32vf103_adc.c **** /*!
 973:arch/riscv/mach-gd32vf10x/bsp/gd32vf103_adc.c ****     \brief      enable ADC oversample mode
 974:arch/riscv/mach-gd32vf10x/bsp/gd32vf103_adc.c ****     \param[in]  adc_periph: ADCx, x=0,1
 975:arch/riscv/mach-gd32vf10x/bsp/gd32vf103_adc.c ****     \param[out] none
 976:arch/riscv/mach-gd32vf10x/bsp/gd32vf103_adc.c ****     \retval     none
 977:arch/riscv/mach-gd32vf10x/bsp/gd32vf103_adc.c **** */
 978:arch/riscv/mach-gd32vf10x/bsp/gd32vf103_adc.c **** void adc_oversample_mode_enable(uint32_t adc_periph)
 979:arch/riscv/mach-gd32vf10x/bsp/gd32vf103_adc.c **** {
 1711              		.loc 1 979 1 is_stmt 1
 1712              		.cfi_startproc
 1713              	.LVL155:
 980:arch/riscv/mach-gd32vf10x/bsp/gd32vf103_adc.c ****     ADC_OVSCR(adc_periph) |= ADC_OVSCR_OVSEN;
 1714              		.loc 1 980 5
 1715              		.loc 1 980 27 is_stmt 0
 1716 0000 83270508 		lw	a5,128(a0)
 1717 0004 93E71700 		ori	a5,a5,1
 1718 0008 2320F508 		sw	a5,128(a0)
 981:arch/riscv/mach-gd32vf10x/bsp/gd32vf103_adc.c **** }
 1719              		.loc 1 981 1
 1720 000c 8280     		ret
 1721              		.cfi_endproc
 1722              	.LFE38:
 1724              		.section	.text.adc_oversample_mode_disable,"ax",@progbits
 1725              		.align	1
 1726              		.globl	adc_oversample_mode_disable
 1728              	adc_oversample_mode_disable:
 1729              	.LFB39:
 982:arch/riscv/mach-gd32vf10x/bsp/gd32vf103_adc.c **** 
GAS LISTING C:\Users\test\AppData\Local\Temp\ccF0WSt9.s 			page 50


 983:arch/riscv/mach-gd32vf10x/bsp/gd32vf103_adc.c **** /*!
 984:arch/riscv/mach-gd32vf10x/bsp/gd32vf103_adc.c ****     \brief      disable ADC oversample mode
 985:arch/riscv/mach-gd32vf10x/bsp/gd32vf103_adc.c ****     \param[in]  adc_periph: ADCx, x=0,1
 986:arch/riscv/mach-gd32vf10x/bsp/gd32vf103_adc.c ****     \param[out] none
 987:arch/riscv/mach-gd32vf10x/bsp/gd32vf103_adc.c ****     \retval     none
 988:arch/riscv/mach-gd32vf10x/bsp/gd32vf103_adc.c **** */
 989:arch/riscv/mach-gd32vf10x/bsp/gd32vf103_adc.c **** void adc_oversample_mode_disable(uint32_t adc_periph)
 990:arch/riscv/mach-gd32vf10x/bsp/gd32vf103_adc.c **** {
 1730              		.loc 1 990 1 is_stmt 1
 1731              		.cfi_startproc
 1732              	.LVL156:
 991:arch/riscv/mach-gd32vf10x/bsp/gd32vf103_adc.c ****     ADC_OVSCR(adc_periph) &= ~((uint32_t)ADC_OVSCR_OVSEN);
 1733              		.loc 1 991 5
 1734              		.loc 1 991 27 is_stmt 0
 1735 0000 83270508 		lw	a5,128(a0)
 1736 0004 F99B     		andi	a5,a5,-2
 1737 0006 2320F508 		sw	a5,128(a0)
 992:arch/riscv/mach-gd32vf10x/bsp/gd32vf103_adc.c **** }
 1738              		.loc 1 992 1
 1739 000a 8280     		ret
 1740              		.cfi_endproc
 1741              	.LFE39:
 1743              		.text
 1744              	.Letext0:
 1745              		.file 2 "d:\\risc_v_gcc\\riscv-none-embed\\include\\machine\\_default_types.h"
 1746              		.file 3 "d:\\risc_v_gcc\\riscv-none-embed\\include\\sys\\_stdint.h"
 1747              		.file 4 "arch/riscv/mach-gd32vf10x/system/gd32vf103.h"
 1748              		.file 5 "arch/riscv/mach-gd32vf10x/bsp/gd32vf103_rcu.h"
 1749              		.file 6 "arch/riscv/mach-gd32vf10x/system/system_gd32vf103.h"
GAS LISTING C:\Users\test\AppData\Local\Temp\ccF0WSt9.s 			page 51

