GAS LISTING C:\Users\test\AppData\Local\Temp\cctcSB19.s 			page 1


   1              		.file	"gd32vf10x-uart.c"
   2              		.option nopic
   3              		.text
   4              	.Ltext0:
   5              		.cfi_sections	.debug_frame
   6              		.section	.text.gd32vf10x_uart_remove,"ax",@progbits
   7              		.align	1
   9              	gd32vf10x_uart_remove:
  10              	.LFB17:
  11              		.file 1 "arch/riscv/mach-gd32vf10x/drivers/gd32vf10x-uart.c"
   1:arch/riscv/mach-gd32vf10x/drivers/gd32vf10x-uart.c **** #include "uart-core.h"
   2:arch/riscv/mach-gd32vf10x/drivers/gd32vf10x-uart.c **** #include "gd32vf103.h"
   3:arch/riscv/mach-gd32vf10x/drivers/gd32vf10x-uart.c **** #include "delay-core.h"
   4:arch/riscv/mach-gd32vf10x/drivers/gd32vf10x-uart.c **** 
   5:arch/riscv/mach-gd32vf10x/drivers/gd32vf10x-uart.c **** #define  UART_ALL_NUM    4
   6:arch/riscv/mach-gd32vf10x/drivers/gd32vf10x-uart.c **** 
   7:arch/riscv/mach-gd32vf10x/drivers/gd32vf10x-uart.c **** #define  UART0_NVIC      0x000000E0
   8:arch/riscv/mach-gd32vf10x/drivers/gd32vf10x-uart.c **** #define  UART1_NVIC      0x000000E4
   9:arch/riscv/mach-gd32vf10x/drivers/gd32vf10x-uart.c **** #define  UART2_NVIC      0x000000E8
  10:arch/riscv/mach-gd32vf10x/drivers/gd32vf10x-uart.c **** #define  UART3_NVIC      0x0000011C
  11:arch/riscv/mach-gd32vf10x/drivers/gd32vf10x-uart.c **** #define  UART4_NVIC      0x00000120
  12:arch/riscv/mach-gd32vf10x/drivers/gd32vf10x-uart.c **** 
  13:arch/riscv/mach-gd32vf10x/drivers/gd32vf10x-uart.c **** //[TX][RX]
  14:arch/riscv/mach-gd32vf10x/drivers/gd32vf10x-uart.c **** static const char uart_pin[UART_ALL_NUM][2] = {{9,10},{} };
  15:arch/riscv/mach-gd32vf10x/drivers/gd32vf10x-uart.c **** 
  16:arch/riscv/mach-gd32vf10x/drivers/gd32vf10x-uart.c **** static void (*uart_handler[UART_ALL_NUM])(void);
  17:arch/riscv/mach-gd32vf10x/drivers/gd32vf10x-uart.c **** 
  18:arch/riscv/mach-gd32vf10x/drivers/gd32vf10x-uart.c **** void USART0_IRQHandler(void)
  19:arch/riscv/mach-gd32vf10x/drivers/gd32vf10x-uart.c **** {
  20:arch/riscv/mach-gd32vf10x/drivers/gd32vf10x-uart.c ****     (*uart_handler[0])();
  21:arch/riscv/mach-gd32vf10x/drivers/gd32vf10x-uart.c **** }
  22:arch/riscv/mach-gd32vf10x/drivers/gd32vf10x-uart.c **** 
  23:arch/riscv/mach-gd32vf10x/drivers/gd32vf10x-uart.c **** void USART1_IRQHandler(void)
  24:arch/riscv/mach-gd32vf10x/drivers/gd32vf10x-uart.c **** {
  25:arch/riscv/mach-gd32vf10x/drivers/gd32vf10x-uart.c ****     (*uart_handler[1])();
  26:arch/riscv/mach-gd32vf10x/drivers/gd32vf10x-uart.c **** }
  27:arch/riscv/mach-gd32vf10x/drivers/gd32vf10x-uart.c **** 
  28:arch/riscv/mach-gd32vf10x/drivers/gd32vf10x-uart.c **** void USART2_IRQHandler(void)
  29:arch/riscv/mach-gd32vf10x/drivers/gd32vf10x-uart.c **** {
  30:arch/riscv/mach-gd32vf10x/drivers/gd32vf10x-uart.c ****     (*uart_handler[2])();
  31:arch/riscv/mach-gd32vf10x/drivers/gd32vf10x-uart.c **** }
  32:arch/riscv/mach-gd32vf10x/drivers/gd32vf10x-uart.c **** 
  33:arch/riscv/mach-gd32vf10x/drivers/gd32vf10x-uart.c **** void USART3_IRQHandler(void)
  34:arch/riscv/mach-gd32vf10x/drivers/gd32vf10x-uart.c **** {
  35:arch/riscv/mach-gd32vf10x/drivers/gd32vf10x-uart.c ****     (*uart_handler[3])();
  36:arch/riscv/mach-gd32vf10x/drivers/gd32vf10x-uart.c **** }
  37:arch/riscv/mach-gd32vf10x/drivers/gd32vf10x-uart.c **** 
  38:arch/riscv/mach-gd32vf10x/drivers/gd32vf10x-uart.c **** void USART4_IRQHandler(void)
  39:arch/riscv/mach-gd32vf10x/drivers/gd32vf10x-uart.c **** {
  40:arch/riscv/mach-gd32vf10x/drivers/gd32vf10x-uart.c ****     (*uart_handler[4])();
  41:arch/riscv/mach-gd32vf10x/drivers/gd32vf10x-uart.c **** }
  42:arch/riscv/mach-gd32vf10x/drivers/gd32vf10x-uart.c **** 
  43:arch/riscv/mach-gd32vf10x/drivers/gd32vf10x-uart.c **** 
  44:arch/riscv/mach-gd32vf10x/drivers/gd32vf10x-uart.c **** //rcu_periph_clock_enable(RCU_USART0);  //ÊâìÂºÄUSART0Êó∂Èíü
  45:arch/riscv/mach-gd32vf10x/drivers/gd32vf10x-uart.c **** //rcu_periph_clock_enable(RCU_GPIOA);   //ÊâìÂºÄGPIOAÊó∂Èíü
  46:arch/riscv/mach-gd32vf10x/drivers/gd32vf10x-uart.c **** static int8_t gd32vf10x_uart_probe(struct uart_device *dev)
  47:arch/riscv/mach-gd32vf10x/drivers/gd32vf10x-uart.c **** {
GAS LISTING C:\Users\test\AppData\Local\Temp\cctcSB19.s 			page 2


  48:arch/riscv/mach-gd32vf10x/drivers/gd32vf10x-uart.c ****     switch(dev->uart)
  49:arch/riscv/mach-gd32vf10x/drivers/gd32vf10x-uart.c ****     {
  50:arch/riscv/mach-gd32vf10x/drivers/gd32vf10x-uart.c ****         case 0:
  51:arch/riscv/mach-gd32vf10x/drivers/gd32vf10x-uart.c ****             RCU_APB2EN |= ((1<<14)|(1<<0)|(1<<2)); //enable uart0 clock
  52:arch/riscv/mach-gd32vf10x/drivers/gd32vf10x-uart.c ****             gpio_init(GPIOA,GPIO_MODE_AF_PP,GPIO_OSPEED_10MHZ,GPIO_PIN_9);  //ËÆæÁΩÆGPIOA9‰∏∫ÊúçÁî®
  53:arch/riscv/mach-gd32vf10x/drivers/gd32vf10x-uart.c ****             gpio_init(GPIOA,GPIO_MODE_IN_FLOATING,GPIO_OSPEED_10MHZ,GPIO_PIN_10);  //ËÆæÁΩÆGPIOA10‰
  54:arch/riscv/mach-gd32vf10x/drivers/gd32vf10x-uart.c ****             usart_deinit(USART0);   //Â§ç‰ΩçUSART0
  55:arch/riscv/mach-gd32vf10x/drivers/gd32vf10x-uart.c ****             rcu_periph_clock_enable(RCU_AF);  //‰ΩøËÉΩÂ§çÁî®Êó∂Èíü
  56:arch/riscv/mach-gd32vf10x/drivers/gd32vf10x-uart.c ****             usart_baudrate_set(USART0,dev->baud_rate);  //ËÆæÁΩÆÊ≥¢ÁâπÁéá‰∏∫115200
  57:arch/riscv/mach-gd32vf10x/drivers/gd32vf10x-uart.c ****             usart_parity_config(USART0,USART_PM_NONE);  //ËÆæÁΩÆÊ†°È™å‰Ωç‰∏∫Êó†
  58:arch/riscv/mach-gd32vf10x/drivers/gd32vf10x-uart.c ****             usart_word_length_set(USART0,USART_WL_8BIT);  //ËÆæÁΩÆ‰º†ËæìÈïøÂ∫¶8Bit
  59:arch/riscv/mach-gd32vf10x/drivers/gd32vf10x-uart.c ****             usart_stop_bit_set(USART0,USART_STB_1BIT);  //ËÆæÁΩÆÂÅúÊ≠¢‰Ωç1‰Ωç
  60:arch/riscv/mach-gd32vf10x/drivers/gd32vf10x-uart.c ****             usart_transmit_config(USART0,USART_TRANSMIT_ENABLE);  //ËÆæÁΩÆ‰º†Ëæì‰ΩøËÉΩ
  61:arch/riscv/mach-gd32vf10x/drivers/gd32vf10x-uart.c ****             usart_enable(USART0);    //ÂºÄÂêØUART0
  62:arch/riscv/mach-gd32vf10x/drivers/gd32vf10x-uart.c ****             break;
  63:arch/riscv/mach-gd32vf10x/drivers/gd32vf10x-uart.c ****         case 1 ... 4:
  64:arch/riscv/mach-gd32vf10x/drivers/gd32vf10x-uart.c ****             RCU_APB1EN |= (1<<(16+dev->uart)); //enable uart1/2/3/4 clock
  65:arch/riscv/mach-gd32vf10x/drivers/gd32vf10x-uart.c ****         default:
  66:arch/riscv/mach-gd32vf10x/drivers/gd32vf10x-uart.c ****             return -1;
  67:arch/riscv/mach-gd32vf10x/drivers/gd32vf10x-uart.c ****     }
  68:arch/riscv/mach-gd32vf10x/drivers/gd32vf10x-uart.c **** 
  69:arch/riscv/mach-gd32vf10x/drivers/gd32vf10x-uart.c ****     return 0;
  70:arch/riscv/mach-gd32vf10x/drivers/gd32vf10x-uart.c **** }
  71:arch/riscv/mach-gd32vf10x/drivers/gd32vf10x-uart.c **** 
  72:arch/riscv/mach-gd32vf10x/drivers/gd32vf10x-uart.c **** static int8_t gd32vf10x_uart_remove(struct uart_device *dev)
  73:arch/riscv/mach-gd32vf10x/drivers/gd32vf10x-uart.c **** {
  12              		.loc 1 73 1
  13              		.cfi_startproc
  14              	.LVL0:
  74:arch/riscv/mach-gd32vf10x/drivers/gd32vf10x-uart.c **** 
  75:arch/riscv/mach-gd32vf10x/drivers/gd32vf10x-uart.c **** }
  15              		.loc 1 75 1
  16              	.LVL1:
  17 0000 8280     		ret
  18              		.cfi_endproc
  19              	.LFE17:
  21              		.section	.text.gd32vf10x_uart_poll_read,"ax",@progbits
  22              		.align	1
  24              	gd32vf10x_uart_poll_read:
  25              	.LFB19:
  76:arch/riscv/mach-gd32vf10x/drivers/gd32vf10x-uart.c **** 
  77:arch/riscv/mach-gd32vf10x/drivers/gd32vf10x-uart.c **** static int8_t gd32vf10x_uart_set_baud_rate(struct uart_device *dev, uint32_t baud_rate)
  78:arch/riscv/mach-gd32vf10x/drivers/gd32vf10x-uart.c **** {
  79:arch/riscv/mach-gd32vf10x/drivers/gd32vf10x-uart.c ****     switch(dev->uart)
  80:arch/riscv/mach-gd32vf10x/drivers/gd32vf10x-uart.c ****     {
  81:arch/riscv/mach-gd32vf10x/drivers/gd32vf10x-uart.c ****         case 0:
  82:arch/riscv/mach-gd32vf10x/drivers/gd32vf10x-uart.c ****             usart_baudrate_set(USART0,baud_rate);  //ËÆæÁΩÆÊ≥¢ÁâπÁéá‰∏∫115200
  83:arch/riscv/mach-gd32vf10x/drivers/gd32vf10x-uart.c ****         break;
  84:arch/riscv/mach-gd32vf10x/drivers/gd32vf10x-uart.c ****         case 1:
  85:arch/riscv/mach-gd32vf10x/drivers/gd32vf10x-uart.c ****             usart_baudrate_set(USART1,baud_rate);  //ËÆæÁΩÆÊ≥¢ÁâπÁéá‰∏∫115200
  86:arch/riscv/mach-gd32vf10x/drivers/gd32vf10x-uart.c ****         break;
  87:arch/riscv/mach-gd32vf10x/drivers/gd32vf10x-uart.c ****         case 2:
  88:arch/riscv/mach-gd32vf10x/drivers/gd32vf10x-uart.c ****             usart_baudrate_set(USART2,baud_rate);  //ËÆæÁΩÆÊ≥¢ÁâπÁéá‰∏∫115200
  89:arch/riscv/mach-gd32vf10x/drivers/gd32vf10x-uart.c ****         break;
  90:arch/riscv/mach-gd32vf10x/drivers/gd32vf10x-uart.c ****         case 3:
  91:arch/riscv/mach-gd32vf10x/drivers/gd32vf10x-uart.c ****             usart_baudrate_set(UART3,baud_rate);  //ËÆæÁΩÆÊ≥¢ÁâπÁéá‰∏∫115200
  92:arch/riscv/mach-gd32vf10x/drivers/gd32vf10x-uart.c ****         break;
GAS LISTING C:\Users\test\AppData\Local\Temp\cctcSB19.s 			page 3


  93:arch/riscv/mach-gd32vf10x/drivers/gd32vf10x-uart.c ****         case 4:
  94:arch/riscv/mach-gd32vf10x/drivers/gd32vf10x-uart.c ****             usart_baudrate_set(UART4,baud_rate);  //ËÆæÁΩÆÊ≥¢ÁâπÁéá‰∏∫115200
  95:arch/riscv/mach-gd32vf10x/drivers/gd32vf10x-uart.c ****         break;
  96:arch/riscv/mach-gd32vf10x/drivers/gd32vf10x-uart.c ****     } 
  97:arch/riscv/mach-gd32vf10x/drivers/gd32vf10x-uart.c **** }
  98:arch/riscv/mach-gd32vf10x/drivers/gd32vf10x-uart.c **** 
  99:arch/riscv/mach-gd32vf10x/drivers/gd32vf10x-uart.c **** static int32_t gd32vf10x_uart_poll_read(struct uart_device *dev, uint8_t *buffer, uint32_t len)
 100:arch/riscv/mach-gd32vf10x/drivers/gd32vf10x-uart.c **** {
  26              		.loc 1 100 1
  27              		.cfi_startproc
  28              	.LVL2:
 101:arch/riscv/mach-gd32vf10x/drivers/gd32vf10x-uart.c **** 
 102:arch/riscv/mach-gd32vf10x/drivers/gd32vf10x-uart.c **** }
  29              		.loc 1 102 1
  30              	.LVL3:
  31 0000 8280     		ret
  32              		.cfi_endproc
  33              	.LFE19:
  35              		.section	.text.gd32vf10x_uart_set_handler,"ax",@progbits
  36              		.align	1
  38              	gd32vf10x_uart_set_handler:
  39              	.LFB21:
 103:arch/riscv/mach-gd32vf10x/drivers/gd32vf10x-uart.c **** 
 104:arch/riscv/mach-gd32vf10x/drivers/gd32vf10x-uart.c **** static int32_t gd32vf10x_uart_poll_write(struct uart_device *dev, uint8_t *buffer, uint32_t len)
 105:arch/riscv/mach-gd32vf10x/drivers/gd32vf10x-uart.c **** {
 106:arch/riscv/mach-gd32vf10x/drivers/gd32vf10x-uart.c ****     volatile uint32_t i;
 107:arch/riscv/mach-gd32vf10x/drivers/gd32vf10x-uart.c ****     switch(dev->uart)
 108:arch/riscv/mach-gd32vf10x/drivers/gd32vf10x-uart.c ****     {
 109:arch/riscv/mach-gd32vf10x/drivers/gd32vf10x-uart.c ****         case 0:
 110:arch/riscv/mach-gd32vf10x/drivers/gd32vf10x-uart.c ****             for(i=0;i<len;i++)
 111:arch/riscv/mach-gd32vf10x/drivers/gd32vf10x-uart.c ****             {
 112:arch/riscv/mach-gd32vf10x/drivers/gd32vf10x-uart.c ****                 usart_data_transmit(USART0,*buffer);
 113:arch/riscv/mach-gd32vf10x/drivers/gd32vf10x-uart.c ****                 udelay(1000);
 114:arch/riscv/mach-gd32vf10x/drivers/gd32vf10x-uart.c ****                 buffer++;
 115:arch/riscv/mach-gd32vf10x/drivers/gd32vf10x-uart.c ****             }
 116:arch/riscv/mach-gd32vf10x/drivers/gd32vf10x-uart.c ****         break;
 117:arch/riscv/mach-gd32vf10x/drivers/gd32vf10x-uart.c ****         case 1:
 118:arch/riscv/mach-gd32vf10x/drivers/gd32vf10x-uart.c ****             for(int i=0;i<len;i++)
 119:arch/riscv/mach-gd32vf10x/drivers/gd32vf10x-uart.c ****             {
 120:arch/riscv/mach-gd32vf10x/drivers/gd32vf10x-uart.c ****                 usart_data_transmit(USART1,'A');
 121:arch/riscv/mach-gd32vf10x/drivers/gd32vf10x-uart.c ****             }
 122:arch/riscv/mach-gd32vf10x/drivers/gd32vf10x-uart.c **** 
 123:arch/riscv/mach-gd32vf10x/drivers/gd32vf10x-uart.c ****         break;
 124:arch/riscv/mach-gd32vf10x/drivers/gd32vf10x-uart.c ****         case 2:
 125:arch/riscv/mach-gd32vf10x/drivers/gd32vf10x-uart.c ****             usart_data_transmit(USART2,'A');
 126:arch/riscv/mach-gd32vf10x/drivers/gd32vf10x-uart.c ****         break;
 127:arch/riscv/mach-gd32vf10x/drivers/gd32vf10x-uart.c ****         case 3:
 128:arch/riscv/mach-gd32vf10x/drivers/gd32vf10x-uart.c ****             usart_data_transmit(UART3,'A');
 129:arch/riscv/mach-gd32vf10x/drivers/gd32vf10x-uart.c ****         break;
 130:arch/riscv/mach-gd32vf10x/drivers/gd32vf10x-uart.c ****         case 4:
 131:arch/riscv/mach-gd32vf10x/drivers/gd32vf10x-uart.c ****             usart_data_transmit(UART4,'A');
 132:arch/riscv/mach-gd32vf10x/drivers/gd32vf10x-uart.c ****         break;
 133:arch/riscv/mach-gd32vf10x/drivers/gd32vf10x-uart.c ****     }
 134:arch/riscv/mach-gd32vf10x/drivers/gd32vf10x-uart.c **** }
 135:arch/riscv/mach-gd32vf10x/drivers/gd32vf10x-uart.c **** 
 136:arch/riscv/mach-gd32vf10x/drivers/gd32vf10x-uart.c **** static int8_t gd32vf10x_uart_set_handler(struct uart_device *dev, void (*handler)(void))
 137:arch/riscv/mach-gd32vf10x/drivers/gd32vf10x-uart.c **** {
GAS LISTING C:\Users\test\AppData\Local\Temp\cctcSB19.s 			page 4


  40              		.loc 1 137 1
  41              		.cfi_startproc
  42              	.LVL4:
 138:arch/riscv/mach-gd32vf10x/drivers/gd32vf10x-uart.c ****     uart_handler[dev->uart] = handler;
  43              		.loc 1 138 5
  44              		.loc 1 138 21 is_stmt 0
  45 0000 83470500 		lbu	a5,0(a0)
  46              	.LVL5:
  47              		.loc 1 138 29
  48 0004 13972700 		slli	a4,a5,2
  49 0008 B7070000 		lui	a5,%hi(.LANCHOR0)
  50 000c 93870700 		addi	a5,a5,%lo(.LANCHOR0)
  51 0010 BA97     		add	a5,a5,a4
  52 0012 8CC3     		sw	a1,0(a5)
 139:arch/riscv/mach-gd32vf10x/drivers/gd32vf10x-uart.c **** }
  53              		.loc 1 139 1
  54 0014 8280     		ret
  55              		.cfi_endproc
  56              	.LFE21:
  58              		.section	.text.gd32vf10x_uart_set_baud_rate,"ax",@progbits
  59              		.align	1
  61              	gd32vf10x_uart_set_baud_rate:
  62              	.LFB18:
  78:arch/riscv/mach-gd32vf10x/drivers/gd32vf10x-uart.c ****     switch(dev->uart)
  63              		.loc 1 78 1 is_stmt 1
  64              		.cfi_startproc
  65              	.LVL6:
  79:arch/riscv/mach-gd32vf10x/drivers/gd32vf10x-uart.c ****     {
  66              		.loc 1 79 5
  67 0000 83470500 		lbu	a5,0(a0)
  68 0004 1147     		li	a4,4
  69 0006 6361F708 		bgtu	a5,a4,.L14
  70 000a 37070000 		lui	a4,%hi(.L8)
  71 000e 8A07     		slli	a5,a5,2
  72 0010 13070700 		addi	a4,a4,%lo(.L8)
  73 0014 BA97     		add	a5,a5,a4
  74 0016 9C43     		lw	a5,0(a5)
  78:arch/riscv/mach-gd32vf10x/drivers/gd32vf10x-uart.c ****     switch(dev->uart)
  75              		.loc 1 78 1 is_stmt 0
  76 0018 4111     		addi	sp,sp,-16
  77              	.LCFI0:
  78              		.cfi_def_cfa_offset 16
  79 001a 06C6     		sw	ra,12(sp)
  80              		.cfi_offset 1, -4
  79:arch/riscv/mach-gd32vf10x/drivers/gd32vf10x-uart.c ****     {
  81              		.loc 1 79 5
  82 001c 8287     		jr	a5
  83              		.section	.rodata.gd32vf10x_uart_set_baud_rate,"a",@progbits
  84              		.align	2
  85              		.align	2
  86              	.L8:
  87 0000 00000000 		.word	.L12
  88 0004 00000000 		.word	.L11
  89 0008 00000000 		.word	.L10
  90 000c 00000000 		.word	.L9
  91 0010 00000000 		.word	.L7
  92              		.section	.text.gd32vf10x_uart_set_baud_rate
GAS LISTING C:\Users\test\AppData\Local\Temp\cctcSB19.s 			page 5


  93              	.L9:
  91:arch/riscv/mach-gd32vf10x/drivers/gd32vf10x-uart.c ****         break;
  94              		.loc 1 91 13 is_stmt 1
  95 001e 37550040 		li	a0,1073762304
  96              	.LVL7:
  97 0022 130505C0 		addi	a0,a0,-1024
  98 0026 97000000 		call	usart_baudrate_set
  98      E7800000 
  99              	.LVL8:
  92:arch/riscv/mach-gd32vf10x/drivers/gd32vf10x-uart.c ****         case 4:
 100              		.loc 1 92 9
  97:arch/riscv/mach-gd32vf10x/drivers/gd32vf10x-uart.c **** 
 101              		.loc 1 97 1 is_stmt 0
 102 002e B240     		lw	ra,12(sp)
 103              		.cfi_remember_state
 104              		.cfi_restore 1
 105 0030 4101     		addi	sp,sp,16
 106              	.LCFI1:
 107              		.cfi_def_cfa_offset 0
 108 0032 8280     		jr	ra
 109              	.LVL9:
 110              	.L7:
 111              	.LCFI2:
 112              		.cfi_restore_state
  94:arch/riscv/mach-gd32vf10x/drivers/gd32vf10x-uart.c ****         break;
 113              		.loc 1 94 13 is_stmt 1
 114 0034 37550040 		li	a0,1073762304
 115              	.LVL10:
 116 0038 97000000 		call	usart_baudrate_set
 116      E7800000 
 117              	.LVL11:
  95:arch/riscv/mach-gd32vf10x/drivers/gd32vf10x-uart.c ****     } 
 118              		.loc 1 95 9
  97:arch/riscv/mach-gd32vf10x/drivers/gd32vf10x-uart.c **** 
 119              		.loc 1 97 1 is_stmt 0
 120 0040 B240     		lw	ra,12(sp)
 121              		.cfi_remember_state
 122              		.cfi_restore 1
 123 0042 4101     		addi	sp,sp,16
 124              	.LCFI3:
 125              		.cfi_def_cfa_offset 0
 126 0044 8280     		jr	ra
 127              	.LVL12:
 128              	.L12:
 129              	.LCFI4:
 130              		.cfi_restore_state
  82:arch/riscv/mach-gd32vf10x/drivers/gd32vf10x-uart.c ****         break;
 131              		.loc 1 82 13 is_stmt 1
 132 0046 37450140 		li	a0,1073823744
 133              	.LVL13:
 134 004a 13050580 		addi	a0,a0,-2048
 135 004e 97000000 		call	usart_baudrate_set
 135      E7800000 
 136              	.LVL14:
  83:arch/riscv/mach-gd32vf10x/drivers/gd32vf10x-uart.c ****         case 1:
 137              		.loc 1 83 9
  97:arch/riscv/mach-gd32vf10x/drivers/gd32vf10x-uart.c **** 
GAS LISTING C:\Users\test\AppData\Local\Temp\cctcSB19.s 			page 6


 138              		.loc 1 97 1 is_stmt 0
 139 0056 B240     		lw	ra,12(sp)
 140              		.cfi_remember_state
 141              		.cfi_restore 1
 142 0058 4101     		addi	sp,sp,16
 143              	.LCFI5:
 144              		.cfi_def_cfa_offset 0
 145 005a 8280     		jr	ra
 146              	.LVL15:
 147              	.L11:
 148              	.LCFI6:
 149              		.cfi_restore_state
  85:arch/riscv/mach-gd32vf10x/drivers/gd32vf10x-uart.c ****         break;
 150              		.loc 1 85 13 is_stmt 1
 151 005c 37450040 		li	a0,1073758208
 152              	.LVL16:
 153 0060 13050540 		addi	a0,a0,1024
 154 0064 97000000 		call	usart_baudrate_set
 154      E7800000 
 155              	.LVL17:
  86:arch/riscv/mach-gd32vf10x/drivers/gd32vf10x-uart.c ****         case 2:
 156              		.loc 1 86 9
  97:arch/riscv/mach-gd32vf10x/drivers/gd32vf10x-uart.c **** 
 157              		.loc 1 97 1 is_stmt 0
 158 006c B240     		lw	ra,12(sp)
 159              		.cfi_remember_state
 160              		.cfi_restore 1
 161 006e 4101     		addi	sp,sp,16
 162              	.LCFI7:
 163              		.cfi_def_cfa_offset 0
 164 0070 8280     		jr	ra
 165              	.LVL18:
 166              	.L10:
 167              	.LCFI8:
 168              		.cfi_restore_state
  88:arch/riscv/mach-gd32vf10x/drivers/gd32vf10x-uart.c ****         break;
 169              		.loc 1 88 13 is_stmt 1
 170 0072 37550040 		li	a0,1073762304
 171              	.LVL19:
 172 0076 13050580 		addi	a0,a0,-2048
 173 007a 97000000 		call	usart_baudrate_set
 173      E7800000 
 174              	.LVL20:
  89:arch/riscv/mach-gd32vf10x/drivers/gd32vf10x-uart.c ****         case 3:
 175              		.loc 1 89 9
  97:arch/riscv/mach-gd32vf10x/drivers/gd32vf10x-uart.c **** 
 176              		.loc 1 97 1 is_stmt 0
 177 0082 B240     		lw	ra,12(sp)
 178              		.cfi_restore 1
 179 0084 4101     		addi	sp,sp,16
 180              	.LCFI9:
 181              		.cfi_def_cfa_offset 0
 182 0086 8280     		jr	ra
 183              	.LVL21:
 184              	.L14:
 185              	.LVL22:
 186 0088 8280     		ret
GAS LISTING C:\Users\test\AppData\Local\Temp\cctcSB19.s 			page 7


 187              		.cfi_endproc
 188              	.LFE18:
 190              		.section	.text.gd32vf10x_uart_poll_write,"ax",@progbits
 191              		.align	1
 193              	gd32vf10x_uart_poll_write:
 194              	.LFB20:
 105:arch/riscv/mach-gd32vf10x/drivers/gd32vf10x-uart.c ****     volatile uint32_t i;
 195              		.loc 1 105 1 is_stmt 1
 196              		.cfi_startproc
 197              	.LVL23:
 106:arch/riscv/mach-gd32vf10x/drivers/gd32vf10x-uart.c ****     switch(dev->uart)
 198              		.loc 1 106 5
 107:arch/riscv/mach-gd32vf10x/drivers/gd32vf10x-uart.c ****     {
 199              		.loc 1 107 5
 200 0000 83470500 		lbu	a5,0(a0)
 201 0004 1147     		li	a4,4
 202 0006 636EF70E 		bgtu	a5,a4,.L33
 203 000a 37070000 		lui	a4,%hi(.L20)
 204 000e 8A07     		slli	a5,a5,2
 205 0010 13070700 		addi	a4,a4,%lo(.L20)
 206 0014 BA97     		add	a5,a5,a4
 207 0016 9C43     		lw	a5,0(a5)
 105:arch/riscv/mach-gd32vf10x/drivers/gd32vf10x-uart.c ****     volatile uint32_t i;
 208              		.loc 1 105 1 is_stmt 0
 209 0018 7971     		addi	sp,sp,-48
 210              	.LCFI10:
 211              		.cfi_def_cfa_offset 48
 212 001a 26D2     		sw	s1,36(sp)
 213 001c 06D6     		sw	ra,44(sp)
 214 001e 22D4     		sw	s0,40(sp)
 215 0020 4AD0     		sw	s2,32(sp)
 216 0022 4ECE     		sw	s3,28(sp)
 217              		.cfi_offset 9, -12
 218              		.cfi_offset 1, -4
 219              		.cfi_offset 8, -8
 220              		.cfi_offset 18, -16
 221              		.cfi_offset 19, -20
 222 0024 B284     		mv	s1,a2
 107:arch/riscv/mach-gd32vf10x/drivers/gd32vf10x-uart.c ****     {
 223              		.loc 1 107 5
 224 0026 8287     		jr	a5
 225              		.section	.rodata.gd32vf10x_uart_poll_write,"a",@progbits
 226              		.align	2
 227              		.align	2
 228              	.L20:
 229 0000 00000000 		.word	.L24
 230 0004 00000000 		.word	.L23
 231 0008 00000000 		.word	.L22
 232 000c 00000000 		.word	.L21
 233 0010 00000000 		.word	.L19
 234              		.section	.text.gd32vf10x_uart_poll_write
 235              	.L21:
 128:arch/riscv/mach-gd32vf10x/drivers/gd32vf10x-uart.c ****         break;
 236              		.loc 1 128 13 is_stmt 1
 237 0028 37550040 		li	a0,1073762304
 238              	.LVL24:
 239 002c 93051004 		li	a1,65
GAS LISTING C:\Users\test\AppData\Local\Temp\cctcSB19.s 			page 8


 240              	.LVL25:
 241 0030 130505C0 		addi	a0,a0,-1024
 242 0034 97000000 		call	usart_data_transmit
 242      E7800000 
 243              	.LVL26:
 129:arch/riscv/mach-gd32vf10x/drivers/gd32vf10x-uart.c ****         case 4:
 244              		.loc 1 129 9
 245              	.L18:
 134:arch/riscv/mach-gd32vf10x/drivers/gd32vf10x-uart.c **** 
 246              		.loc 1 134 1 is_stmt 0
 247 003c B250     		lw	ra,44(sp)
 248              		.cfi_remember_state
 249              		.cfi_restore 1
 250 003e 2254     		lw	s0,40(sp)
 251              		.cfi_restore 8
 252 0040 9254     		lw	s1,36(sp)
 253              		.cfi_restore 9
 254              	.LVL27:
 255 0042 0259     		lw	s2,32(sp)
 256              		.cfi_restore 18
 257 0044 F249     		lw	s3,28(sp)
 258              		.cfi_restore 19
 259 0046 4561     		addi	sp,sp,48
 260              	.LCFI11:
 261              		.cfi_def_cfa_offset 0
 262 0048 8280     		jr	ra
 263              	.LVL28:
 264              	.L19:
 265              	.LCFI12:
 266              		.cfi_restore_state
 131:arch/riscv/mach-gd32vf10x/drivers/gd32vf10x-uart.c ****         break;
 267              		.loc 1 131 13 is_stmt 1
 268 004a 37550040 		li	a0,1073762304
 269              	.LVL29:
 270 004e 93051004 		li	a1,65
 271              	.LVL30:
 272 0052 97000000 		call	usart_data_transmit
 272      E7800000 
 273              	.LVL31:
 132:arch/riscv/mach-gd32vf10x/drivers/gd32vf10x-uart.c ****     }
 274              		.loc 1 132 9
 134:arch/riscv/mach-gd32vf10x/drivers/gd32vf10x-uart.c **** 
 275              		.loc 1 134 1 is_stmt 0
 276 005a B250     		lw	ra,44(sp)
 277              		.cfi_remember_state
 278              		.cfi_restore 1
 279 005c 2254     		lw	s0,40(sp)
 280              		.cfi_restore 8
 281 005e 9254     		lw	s1,36(sp)
 282              		.cfi_restore 9
 283              	.LVL32:
 284 0060 0259     		lw	s2,32(sp)
 285              		.cfi_restore 18
 286 0062 F249     		lw	s3,28(sp)
 287              		.cfi_restore 19
 288 0064 4561     		addi	sp,sp,48
 289              	.LCFI13:
GAS LISTING C:\Users\test\AppData\Local\Temp\cctcSB19.s 			page 9


 290              		.cfi_def_cfa_offset 0
 291 0066 8280     		jr	ra
 292              	.LVL33:
 293              	.L24:
 294              	.LCFI14:
 295              		.cfi_restore_state
 296              	.LBB14:
 297              	.LBB15:
 110:arch/riscv/mach-gd32vf10x/drivers/gd32vf10x-uart.c ****             {
 298              		.loc 1 110 13 is_stmt 1
 110:arch/riscv/mach-gd32vf10x/drivers/gd32vf10x-uart.c ****             {
 299              		.loc 1 110 18 is_stmt 0
 300 0068 02C6     		sw	zero,12(sp)
 110:arch/riscv/mach-gd32vf10x/drivers/gd32vf10x-uart.c ****             {
 301              		.loc 1 110 22
 302 006a B247     		lw	a5,12(sp)
 110:arch/riscv/mach-gd32vf10x/drivers/gd32vf10x-uart.c ****             {
 303              		.loc 1 110 13
 304 006c E3F8C7FC 		bleu	a2,a5,.L18
 112:arch/riscv/mach-gd32vf10x/drivers/gd32vf10x-uart.c ****                 udelay(1000);
 305              		.loc 1 112 17
 306 0070 37490140 		li	s2,1073823744
 307 0074 2E84     		mv	s0,a1
 308 0076 B7090000 		lui	s3,%hi(__delay_core_init)
 309 007a 13090980 		addi	s2,s2,-2048
 310              	.LVL34:
 311              	.L27:
 112:arch/riscv/mach-gd32vf10x/drivers/gd32vf10x-uart.c ****                 udelay(1000);
 312              		.loc 1 112 17 is_stmt 1
 313 007e 83450400 		lbu	a1,0(s0)
 314 0082 4A85     		mv	a0,s2
 114:arch/riscv/mach-gd32vf10x/drivers/gd32vf10x-uart.c ****             }
 315              		.loc 1 114 23 is_stmt 0
 316 0084 0504     		addi	s0,s0,1
 317              	.LVL35:
 112:arch/riscv/mach-gd32vf10x/drivers/gd32vf10x-uart.c ****                 udelay(1000);
 318              		.loc 1 112 17
 319 0086 97000000 		call	usart_data_transmit
 319      E7800000 
 320              	.LVL36:
 113:arch/riscv/mach-gd32vf10x/drivers/gd32vf10x-uart.c ****                 buffer++;
 321              		.loc 1 113 17 is_stmt 1
 322              	.LBB16:
 323              	.LBB17:
 324              		.file 2 "core/delay-core.h"
   1:core/delay-core.h **** #ifndef __DELAY_CORE_H_
   2:core/delay-core.h **** #define __DELAY_CORE_H_
   3:core/delay-core.h **** 
   4:core/delay-core.h **** #include "module.h"
   5:core/delay-core.h **** 
   6:core/delay-core.h **** static struct delay_core *__delay_core = (struct delay_core*)&__delay_core_init;
   7:core/delay-core.h **** 
   8:core/delay-core.h **** struct delay_core
   9:core/delay-core.h **** {
  10:core/delay-core.h ****     void (*udelay)(uint32_t us);
  11:core/delay-core.h ****     void (*mdelay)(uint32_t ms);
  12:core/delay-core.h ****     void (*sdelay)(uint32_t s);
GAS LISTING C:\Users\test\AppData\Local\Temp\cctcSB19.s 			page 10


  13:core/delay-core.h **** };
  14:core/delay-core.h **** 
  15:core/delay-core.h **** static inline void udelay(uint32_t us)
  16:core/delay-core.h **** {
  17:core/delay-core.h ****     __delay_core->udelay(us);
 325              		.loc 2 17 5
 326 008e 83A70900 		lw	a5,%lo(__delay_core_init)(s3)
 327 0092 1305803E 		li	a0,1000
 328 0096 8297     		jalr	a5
 329              	.LVL37:
 330              	.LBE17:
 331              	.LBE16:
 114:arch/riscv/mach-gd32vf10x/drivers/gd32vf10x-uart.c ****             }
 332              		.loc 1 114 17
 110:arch/riscv/mach-gd32vf10x/drivers/gd32vf10x-uart.c ****             {
 333              		.loc 1 110 28 is_stmt 0
 334 0098 B247     		lw	a5,12(sp)
 335 009a 8507     		addi	a5,a5,1
 336 009c 3EC6     		sw	a5,12(sp)
 110:arch/riscv/mach-gd32vf10x/drivers/gd32vf10x-uart.c ****             {
 337              		.loc 1 110 22
 338 009e B247     		lw	a5,12(sp)
 110:arch/riscv/mach-gd32vf10x/drivers/gd32vf10x-uart.c ****             {
 339              		.loc 1 110 13
 340 00a0 E3EF97FC 		bgtu	s1,a5,.L27
 341              	.LBE15:
 342              	.LBE14:
 134:arch/riscv/mach-gd32vf10x/drivers/gd32vf10x-uart.c **** 
 343              		.loc 1 134 1
 344 00a4 B250     		lw	ra,44(sp)
 345              		.cfi_remember_state
 346              		.cfi_restore 1
 347 00a6 2254     		lw	s0,40(sp)
 348              		.cfi_restore 8
 349              	.LVL38:
 350 00a8 9254     		lw	s1,36(sp)
 351              		.cfi_restore 9
 352              	.LVL39:
 353 00aa 0259     		lw	s2,32(sp)
 354              		.cfi_restore 18
 355 00ac F249     		lw	s3,28(sp)
 356              		.cfi_restore 19
 357 00ae 4561     		addi	sp,sp,48
 358              	.LCFI15:
 359              		.cfi_def_cfa_offset 0
 360 00b0 8280     		jr	ra
 361              	.LVL40:
 362              	.L23:
 363              	.LCFI16:
 364              		.cfi_restore_state
 365              	.LBB18:
 120:arch/riscv/mach-gd32vf10x/drivers/gd32vf10x-uart.c ****             }
 366              		.loc 1 120 17
 367 00b2 37490040 		li	s2,1073758208
 118:arch/riscv/mach-gd32vf10x/drivers/gd32vf10x-uart.c ****             {
 368              		.loc 1 118 21
 369 00b6 0144     		li	s0,0
GAS LISTING C:\Users\test\AppData\Local\Temp\cctcSB19.s 			page 11


 120:arch/riscv/mach-gd32vf10x/drivers/gd32vf10x-uart.c ****             }
 370              		.loc 1 120 17
 371 00b8 13090940 		addi	s2,s2,1024
 118:arch/riscv/mach-gd32vf10x/drivers/gd32vf10x-uart.c ****             {
 372              		.loc 1 118 13
 373 00bc 41D2     		beq	a2,zero,.L18
 374              	.LVL41:
 375              	.L28:
 120:arch/riscv/mach-gd32vf10x/drivers/gd32vf10x-uart.c ****             }
 376              		.loc 1 120 17 is_stmt 1 discriminator 3
 118:arch/riscv/mach-gd32vf10x/drivers/gd32vf10x-uart.c ****             {
 377              		.loc 1 118 32 is_stmt 0 discriminator 3
 378 00be 0504     		addi	s0,s0,1
 379              	.LVL42:
 120:arch/riscv/mach-gd32vf10x/drivers/gd32vf10x-uart.c ****             }
 380              		.loc 1 120 17 discriminator 3
 381 00c0 93051004 		li	a1,65
 382 00c4 4A85     		mv	a0,s2
 383 00c6 97000000 		call	usart_data_transmit
 383      E7800000 
 384              	.LVL43:
 118:arch/riscv/mach-gd32vf10x/drivers/gd32vf10x-uart.c ****             {
 385              		.loc 1 118 13 discriminator 3
 386 00ce E31894FE 		bne	s0,s1,.L28
 387              	.LBE18:
 134:arch/riscv/mach-gd32vf10x/drivers/gd32vf10x-uart.c **** 
 388              		.loc 1 134 1
 389 00d2 B250     		lw	ra,44(sp)
 390              		.cfi_remember_state
 391              		.cfi_restore 1
 392 00d4 2254     		lw	s0,40(sp)
 393              		.cfi_restore 8
 394              	.LVL44:
 395 00d6 9254     		lw	s1,36(sp)
 396              		.cfi_restore 9
 397              	.LVL45:
 398 00d8 0259     		lw	s2,32(sp)
 399              		.cfi_restore 18
 400 00da F249     		lw	s3,28(sp)
 401              		.cfi_restore 19
 402 00dc 4561     		addi	sp,sp,48
 403              	.LCFI17:
 404              		.cfi_def_cfa_offset 0
 405 00de 8280     		jr	ra
 406              	.LVL46:
 407              	.L22:
 408              	.LCFI18:
 409              		.cfi_restore_state
 125:arch/riscv/mach-gd32vf10x/drivers/gd32vf10x-uart.c ****         break;
 410              		.loc 1 125 13 is_stmt 1
 411 00e0 37550040 		li	a0,1073762304
 412              	.LVL47:
 413 00e4 13050580 		addi	a0,a0,-2048
 414 00e8 93051004 		li	a1,65
 415              	.LVL48:
 416 00ec 97000000 		call	usart_data_transmit
 416      E7800000 
GAS LISTING C:\Users\test\AppData\Local\Temp\cctcSB19.s 			page 12


 417              	.LVL49:
 126:arch/riscv/mach-gd32vf10x/drivers/gd32vf10x-uart.c ****         case 3:
 418              		.loc 1 126 9
 134:arch/riscv/mach-gd32vf10x/drivers/gd32vf10x-uart.c **** 
 419              		.loc 1 134 1 is_stmt 0
 420 00f4 B250     		lw	ra,44(sp)
 421              		.cfi_restore 1
 422 00f6 2254     		lw	s0,40(sp)
 423              		.cfi_restore 8
 424 00f8 9254     		lw	s1,36(sp)
 425              		.cfi_restore 9
 426              	.LVL50:
 427 00fa 0259     		lw	s2,32(sp)
 428              		.cfi_restore 18
 429 00fc F249     		lw	s3,28(sp)
 430              		.cfi_restore 19
 431 00fe 4561     		addi	sp,sp,48
 432              	.LCFI19:
 433              		.cfi_def_cfa_offset 0
 434 0100 8280     		jr	ra
 435              	.LVL51:
 436              	.L33:
 437              	.LVL52:
 438 0102 8280     		ret
 439              		.cfi_endproc
 440              	.LFE20:
 442              		.section	.text.gd32vf10x_uart_probe,"ax",@progbits
 443              		.align	1
 445              	gd32vf10x_uart_probe:
 446              	.LFB16:
  47:arch/riscv/mach-gd32vf10x/drivers/gd32vf10x-uart.c ****     switch(dev->uart)
 447              		.loc 1 47 1 is_stmt 1
 448              		.cfi_startproc
 449              	.LVL53:
  48:arch/riscv/mach-gd32vf10x/drivers/gd32vf10x-uart.c ****     {
 450              		.loc 1 48 5
  48:arch/riscv/mach-gd32vf10x/drivers/gd32vf10x-uart.c ****     {
 451              		.loc 1 48 15 is_stmt 0
 452 0000 83470500 		lbu	a5,0(a0)
  48:arch/riscv/mach-gd32vf10x/drivers/gd32vf10x-uart.c ****     {
 453              		.loc 1 48 5
 454 0004 85C3     		beq	a5,zero,.L37
 455 0006 1147     		li	a4,4
  66:arch/riscv/mach-gd32vf10x/drivers/gd32vf10x-uart.c ****     }
 456              		.loc 1 66 20
 457 0008 7D55     		li	a0,-1
 458              	.LVL54:
  48:arch/riscv/mach-gd32vf10x/drivers/gd32vf10x-uart.c ****     {
 459              		.loc 1 48 5
 460 000a 636CF700 		bgtu	a5,a4,.L43
  64:arch/riscv/mach-gd32vf10x/drivers/gd32vf10x-uart.c ****         default:
 461              		.loc 1 64 13 is_stmt 1
  64:arch/riscv/mach-gd32vf10x/drivers/gd32vf10x-uart.c ****         default:
 462              		.loc 1 64 24 is_stmt 0
 463 000e B7160240 		li	a3,1073876992
 464 0012 D04E     		lw	a2,28(a3)
  64:arch/riscv/mach-gd32vf10x/drivers/gd32vf10x-uart.c ****         default:
GAS LISTING C:\Users\test\AppData\Local\Temp\cctcSB19.s 			page 13


 465              		.loc 1 64 29
 466 0014 0547     		li	a4,1
  64:arch/riscv/mach-gd32vf10x/drivers/gd32vf10x-uart.c ****         default:
 467              		.loc 1 64 34
 468 0016 C107     		addi	a5,a5,16
  64:arch/riscv/mach-gd32vf10x/drivers/gd32vf10x-uart.c ****         default:
 469              		.loc 1 64 29
 470 0018 B317F700 		sll	a5,a4,a5
  64:arch/riscv/mach-gd32vf10x/drivers/gd32vf10x-uart.c ****         default:
 471              		.loc 1 64 24
 472 001c D18F     		or	a5,a5,a2
 473 001e DCCE     		sw	a5,28(a3)
 474 0020 8280     		ret
 475              	.L43:
  70:arch/riscv/mach-gd32vf10x/drivers/gd32vf10x-uart.c **** 
 476              		.loc 1 70 1
 477 0022 8280     		ret
 478              	.LVL55:
 479              	.L37:
 480              	.LBB21:
 481              	.LBB22:
  51:arch/riscv/mach-gd32vf10x/drivers/gd32vf10x-uart.c ****             gpio_init(GPIOA,GPIO_MODE_AF_PP,GPIO_OSPEED_10MHZ,GPIO_PIN_9);  //ËÆæÁΩÆGPIOA9‰∏∫ÊúçÁî®
 482              		.loc 1 51 24
 483 0024 37180240 		li	a6,1073876992
 484 0028 83278801 		lw	a5,24(a6)
 485 002c 1167     		li	a4,16384
 486              	.LBE22:
 487              	.LBE21:
  47:arch/riscv/mach-gd32vf10x/drivers/gd32vf10x-uart.c ****     switch(dev->uart)
 488              		.loc 1 47 1
 489 002e 4111     		addi	sp,sp,-16
 490              	.LCFI20:
 491              		.cfi_def_cfa_offset 16
 492              	.LBB27:
 493              	.LBB23:
  51:arch/riscv/mach-gd32vf10x/drivers/gd32vf10x-uart.c ****             gpio_init(GPIOA,GPIO_MODE_AF_PP,GPIO_OSPEED_10MHZ,GPIO_PIN_9);  //ËÆæÁΩÆGPIOA9‰∏∫ÊúçÁî®
 494              		.loc 1 51 24
 495 0030 1507     		addi	a4,a4,5
 496              	.LBE23:
 497              	.LBE27:
  47:arch/riscv/mach-gd32vf10x/drivers/gd32vf10x-uart.c ****     switch(dev->uart)
 498              		.loc 1 47 1
 499 0032 06C6     		sw	ra,12(sp)
 500              	.LBB28:
 501              	.LBB24:
  51:arch/riscv/mach-gd32vf10x/drivers/gd32vf10x-uart.c ****             gpio_init(GPIOA,GPIO_MODE_AF_PP,GPIO_OSPEED_10MHZ,GPIO_PIN_9);  //ËÆæÁΩÆGPIOA9‰∏∫ÊúçÁî®
 502              		.loc 1 51 24
 503 0034 D98F     		or	a5,a5,a4
 504              	.LBE24:
 505              	.LBE28:
  47:arch/riscv/mach-gd32vf10x/drivers/gd32vf10x-uart.c ****     switch(dev->uart)
 506              		.loc 1 47 1
 507 0036 22C4     		sw	s0,8(sp)
 508 0038 26C2     		sw	s1,4(sp)
 509              		.cfi_offset 1, -4
 510              		.cfi_offset 8, -8
 511              		.cfi_offset 9, -12
GAS LISTING C:\Users\test\AppData\Local\Temp\cctcSB19.s 			page 14


 512              	.LBB29:
 513              	.LBB25:
  52:arch/riscv/mach-gd32vf10x/drivers/gd32vf10x-uart.c ****             gpio_init(GPIOA,GPIO_MODE_IN_FLOATING,GPIO_OSPEED_10MHZ,GPIO_PIN_10);  //ËÆæÁΩÆGPIOA10‰
 514              		.loc 1 52 13
 515 003a B7140140 		li	s1,1073811456
  51:arch/riscv/mach-gd32vf10x/drivers/gd32vf10x-uart.c ****             gpio_init(GPIOA,GPIO_MODE_AF_PP,GPIO_OSPEED_10MHZ,GPIO_PIN_9);  //ËÆæÁΩÆGPIOA9‰∏∫ÊúçÁî®
 516              		.loc 1 51 24
 517 003e 232CF800 		sw	a5,24(a6)
 518 0042 2A84     		mv	s0,a0
 519              	.LVL56:
  51:arch/riscv/mach-gd32vf10x/drivers/gd32vf10x-uart.c ****             gpio_init(GPIOA,GPIO_MODE_AF_PP,GPIO_OSPEED_10MHZ,GPIO_PIN_9);  //ËÆæÁΩÆGPIOA9‰∏∫ÊúçÁî®
 520              		.loc 1 51 13 is_stmt 1
  52:arch/riscv/mach-gd32vf10x/drivers/gd32vf10x-uart.c ****             gpio_init(GPIOA,GPIO_MODE_IN_FLOATING,GPIO_OSPEED_10MHZ,GPIO_PIN_10);  //ËÆæÁΩÆGPIOA10‰
 521              		.loc 1 52 13
 522 0044 93060020 		li	a3,512
 523 0048 13850480 		addi	a0,s1,-2048
 524              	.LVL57:
 525 004c 0546     		li	a2,1
 526 004e E145     		li	a1,24
 527 0050 97000000 		call	gpio_init
 527      E7800000 
 528              	.LVL58:
  53:arch/riscv/mach-gd32vf10x/drivers/gd32vf10x-uart.c ****             usart_deinit(USART0);   //Â§ç‰ΩçUSART0
 529              		.loc 1 53 13
 530 0058 93060040 		li	a3,1024
 531 005c 0546     		li	a2,1
 532 005e 9145     		li	a1,4
 533 0060 13850480 		addi	a0,s1,-2048
 534 0064 97000000 		call	gpio_init
 534      E7800000 
 535              	.LVL59:
  54:arch/riscv/mach-gd32vf10x/drivers/gd32vf10x-uart.c ****             rcu_periph_clock_enable(RCU_AF);  //‰ΩøËÉΩÂ§çÁî®Êó∂Èíü
 536              		.loc 1 54 13
 537 006c B7440140 		li	s1,1073823744
 538 0070 13850480 		addi	a0,s1,-2048
 539 0074 97000000 		call	usart_deinit
 539      E7800000 
 540              	.LVL60:
  55:arch/riscv/mach-gd32vf10x/drivers/gd32vf10x-uart.c ****             usart_baudrate_set(USART0,dev->baud_rate);  //ËÆæÁΩÆÊ≥¢ÁâπÁéá‰∏∫115200
 541              		.loc 1 55 13
 542 007c 13050060 		li	a0,1536
 543 0080 97000000 		call	rcu_periph_clock_enable
 543      E7800000 
 544              	.LVL61:
  56:arch/riscv/mach-gd32vf10x/drivers/gd32vf10x-uart.c ****             usart_parity_config(USART0,USART_PM_NONE);  //ËÆæÁΩÆÊ†°È™å‰Ωç‰∏∫Êó†
 545              		.loc 1 56 13
 546 0088 4C40     		lw	a1,4(s0)
 547 008a 13850480 		addi	a0,s1,-2048
 548 008e 97000000 		call	usart_baudrate_set
 548      E7800000 
 549              	.LVL62:
  57:arch/riscv/mach-gd32vf10x/drivers/gd32vf10x-uart.c ****             usart_word_length_set(USART0,USART_WL_8BIT);  //ËÆæÁΩÆ‰º†ËæìÈïøÂ∫¶8Bit
 550              		.loc 1 57 13
 551 0096 13850480 		addi	a0,s1,-2048
 552 009a 8145     		li	a1,0
 553 009c 97000000 		call	usart_parity_config
 553      E7800000 
GAS LISTING C:\Users\test\AppData\Local\Temp\cctcSB19.s 			page 15


 554              	.LVL63:
  58:arch/riscv/mach-gd32vf10x/drivers/gd32vf10x-uart.c ****             usart_stop_bit_set(USART0,USART_STB_1BIT);  //ËÆæÁΩÆÂÅúÊ≠¢‰Ωç1‰Ωç
 555              		.loc 1 58 13
 556 00a4 13850480 		addi	a0,s1,-2048
 557 00a8 8145     		li	a1,0
 558 00aa 97000000 		call	usart_word_length_set
 558      E7800000 
 559              	.LVL64:
  59:arch/riscv/mach-gd32vf10x/drivers/gd32vf10x-uart.c ****             usart_transmit_config(USART0,USART_TRANSMIT_ENABLE);  //ËÆæÁΩÆ‰º†Ëæì‰ΩøËÉΩ
 560              		.loc 1 59 13
 561 00b2 13850480 		addi	a0,s1,-2048
 562 00b6 8145     		li	a1,0
 563 00b8 97000000 		call	usart_stop_bit_set
 563      E7800000 
 564              	.LVL65:
  60:arch/riscv/mach-gd32vf10x/drivers/gd32vf10x-uart.c ****             usart_enable(USART0);    //ÂºÄÂêØUART0
 565              		.loc 1 60 13
 566 00c0 13850480 		addi	a0,s1,-2048
 567 00c4 A145     		li	a1,8
 568 00c6 97000000 		call	usart_transmit_config
 568      E7800000 
 569              	.LVL66:
  61:arch/riscv/mach-gd32vf10x/drivers/gd32vf10x-uart.c ****             break;
 570              		.loc 1 61 13
 571 00ce 13850480 		addi	a0,s1,-2048
 572 00d2 97000000 		call	usart_enable
 572      E7800000 
 573              	.LVL67:
  62:arch/riscv/mach-gd32vf10x/drivers/gd32vf10x-uart.c ****         case 1 ... 4:
 574              		.loc 1 62 13
  69:arch/riscv/mach-gd32vf10x/drivers/gd32vf10x-uart.c **** }
 575              		.loc 1 69 5
 576              	.LBE25:
 577              	.LBE29:
  70:arch/riscv/mach-gd32vf10x/drivers/gd32vf10x-uart.c **** 
 578              		.loc 1 70 1 is_stmt 0
 579 00da B240     		lw	ra,12(sp)
 580              		.cfi_restore 1
 581 00dc 2244     		lw	s0,8(sp)
 582              		.cfi_restore 8
 583              	.LVL68:
 584 00de 9244     		lw	s1,4(sp)
 585              		.cfi_restore 9
 586              	.LBB30:
 587              	.LBB26:
  61:arch/riscv/mach-gd32vf10x/drivers/gd32vf10x-uart.c ****             break;
 588              		.loc 1 61 13
 589 00e0 0145     		li	a0,0
 590              	.LBE26:
 591              	.LBE30:
  70:arch/riscv/mach-gd32vf10x/drivers/gd32vf10x-uart.c **** 
 592              		.loc 1 70 1
 593 00e2 4101     		addi	sp,sp,16
 594              	.LCFI21:
 595              		.cfi_def_cfa_offset 0
 596 00e4 8280     		jr	ra
 597              		.cfi_endproc
GAS LISTING C:\Users\test\AppData\Local\Temp\cctcSB19.s 			page 16


 598              	.LFE16:
 600              		.section	.text.USART0_IRQHandler,"ax",@progbits
 601              		.align	1
 602              		.globl	USART0_IRQHandler
 604              	USART0_IRQHandler:
 605              	.LFB11:
  19:arch/riscv/mach-gd32vf10x/drivers/gd32vf10x-uart.c ****     (*uart_handler[0])();
 606              		.loc 1 19 1 is_stmt 1
 607              		.cfi_startproc
  20:arch/riscv/mach-gd32vf10x/drivers/gd32vf10x-uart.c **** }
 608              		.loc 1 20 5
  20:arch/riscv/mach-gd32vf10x/drivers/gd32vf10x-uart.c **** }
 609              		.loc 1 20 6 is_stmt 0
 610 0000 B7070000 		lui	a5,%hi(.LANCHOR0)
 611 0004 03A30700 		lw	t1,%lo(.LANCHOR0)(a5)
 612 0008 0283     		jr	t1
 613              	.LVL69:
 614              		.cfi_endproc
 615              	.LFE11:
 617              		.section	.text.USART1_IRQHandler,"ax",@progbits
 618              		.align	1
 619              		.globl	USART1_IRQHandler
 621              	USART1_IRQHandler:
 622              	.LFB12:
  24:arch/riscv/mach-gd32vf10x/drivers/gd32vf10x-uart.c ****     (*uart_handler[1])();
 623              		.loc 1 24 1 is_stmt 1
 624              		.cfi_startproc
  25:arch/riscv/mach-gd32vf10x/drivers/gd32vf10x-uart.c **** }
 625              		.loc 1 25 5
  25:arch/riscv/mach-gd32vf10x/drivers/gd32vf10x-uart.c **** }
 626              		.loc 1 25 6 is_stmt 0
 627 0000 B7070000 		lui	a5,%hi(.LANCHOR0+4)
 628 0004 03A34700 		lw	t1,%lo(.LANCHOR0+4)(a5)
 629 0008 0283     		jr	t1
 630              	.LVL70:
 631              		.cfi_endproc
 632              	.LFE12:
 634              		.section	.text.USART2_IRQHandler,"ax",@progbits
 635              		.align	1
 636              		.globl	USART2_IRQHandler
 638              	USART2_IRQHandler:
 639              	.LFB13:
  29:arch/riscv/mach-gd32vf10x/drivers/gd32vf10x-uart.c ****     (*uart_handler[2])();
 640              		.loc 1 29 1 is_stmt 1
 641              		.cfi_startproc
  30:arch/riscv/mach-gd32vf10x/drivers/gd32vf10x-uart.c **** }
 642              		.loc 1 30 5
  30:arch/riscv/mach-gd32vf10x/drivers/gd32vf10x-uart.c **** }
 643              		.loc 1 30 6 is_stmt 0
 644 0000 B7070000 		lui	a5,%hi(.LANCHOR0+8)
 645 0004 03A38700 		lw	t1,%lo(.LANCHOR0+8)(a5)
 646 0008 0283     		jr	t1
 647              	.LVL71:
 648              		.cfi_endproc
 649              	.LFE13:
 651              		.section	.text.USART3_IRQHandler,"ax",@progbits
 652              		.align	1
GAS LISTING C:\Users\test\AppData\Local\Temp\cctcSB19.s 			page 17


 653              		.globl	USART3_IRQHandler
 655              	USART3_IRQHandler:
 656              	.LFB14:
  34:arch/riscv/mach-gd32vf10x/drivers/gd32vf10x-uart.c ****     (*uart_handler[3])();
 657              		.loc 1 34 1 is_stmt 1
 658              		.cfi_startproc
  35:arch/riscv/mach-gd32vf10x/drivers/gd32vf10x-uart.c **** }
 659              		.loc 1 35 5
  35:arch/riscv/mach-gd32vf10x/drivers/gd32vf10x-uart.c **** }
 660              		.loc 1 35 6 is_stmt 0
 661 0000 B7070000 		lui	a5,%hi(.LANCHOR0+12)
 662 0004 03A3C700 		lw	t1,%lo(.LANCHOR0+12)(a5)
 663 0008 0283     		jr	t1
 664              	.LVL72:
 665              		.cfi_endproc
 666              	.LFE14:
 668              		.section	.text.USART4_IRQHandler,"ax",@progbits
 669              		.align	1
 670              		.globl	USART4_IRQHandler
 672              	USART4_IRQHandler:
 673              	.LFB15:
  39:arch/riscv/mach-gd32vf10x/drivers/gd32vf10x-uart.c ****     (*uart_handler[4])();
 674              		.loc 1 39 1 is_stmt 1
 675              		.cfi_startproc
  40:arch/riscv/mach-gd32vf10x/drivers/gd32vf10x-uart.c **** }
 676              		.loc 1 40 5
  40:arch/riscv/mach-gd32vf10x/drivers/gd32vf10x-uart.c **** }
 677              		.loc 1 40 6 is_stmt 0
 678 0000 B7070000 		lui	a5,%hi(.LANCHOR0+16)
 679 0004 03A30701 		lw	t1,%lo(.LANCHOR0+16)(a5)
 680 0008 0283     		jr	t1
 681              	.LVL73:
 682              		.cfi_endproc
 683              	.LFE15:
 685              		.globl	gd32vf10x_uart_controller
 686              		.section	.__uart_core_init,"aw"
 687              		.align	2
 690              	gd32vf10x_uart_controller:
 691 0000 00000000 		.zero	4
 692 0004 00000000 		.word	gd32vf10x_uart_probe
 693 0008 00000000 		.word	gd32vf10x_uart_remove
 694 000c 00000000 		.word	gd32vf10x_uart_set_baud_rate
 695 0010 00000000 		.word	gd32vf10x_uart_poll_read
 696 0014 00000000 		.word	gd32vf10x_uart_poll_write
 697 0018 00000000 		.word	gd32vf10x_uart_set_handler
 698              		.section	.bss.uart_handler,"aw",@nobits
 699              		.align	2
 700              		.set	.LANCHOR0,. + 0
 703              	uart_handler:
 704 0000 00000000 		.zero	16
 704      00000000 
 704      00000000 
 704      00000000 
 705              		.text
 706              	.Letext0:
 707              		.file 3 "d:\\risc_v_gcc\\riscv-none-embed\\include\\machine\\_default_types.h"
 708              		.file 4 "d:\\risc_v_gcc\\riscv-none-embed\\include\\sys\\_stdint.h"
GAS LISTING C:\Users\test\AppData\Local\Temp\cctcSB19.s 			page 18


 709              		.file 5 "core/module.h"
 710              		.file 6 "core/uart-core.h"
 711              		.file 7 "arch/riscv/mach-gd32vf10x/system/system_gd32vf103.h"
 712              		.file 8 "arch/riscv/mach-gd32vf10x/bsp/gd32vf103_usart.h"
 713              		.file 9 "arch/riscv/mach-gd32vf10x/bsp/gd32vf103_gpio.h"
 714              		.file 10 "arch/riscv/mach-gd32vf10x/bsp/gd32vf103_rcu.h"
GAS LISTING C:\Users\test\AppData\Local\Temp\cctcSB19.s 			page 19

