GAS LISTING C:\Users\test\AppData\Local\Temp\ccDvGdW2.s 			page 1


   1              		.file	"gd32vf10x-uart.c"
   2              		.option nopic
   3              		.text
   4              	.Ltext0:
   5              		.cfi_sections	.debug_frame
   6              		.section	.text.gd32vf10x_uart_remove,"ax",@progbits
   7              		.align	1
   9              	gd32vf10x_uart_remove:
  10              	.LFB14:
  11              		.file 1 "arch/riscv/mach-gd32vf10x/drivers/gd32vf10x-uart.c"
   1:arch/riscv/mach-gd32vf10x/drivers/gd32vf10x-uart.c **** #include "uart-core.h"
   2:arch/riscv/mach-gd32vf10x/drivers/gd32vf10x-uart.c **** #include "gd32vf103.h"
   3:arch/riscv/mach-gd32vf10x/drivers/gd32vf10x-uart.c **** 
   4:arch/riscv/mach-gd32vf10x/drivers/gd32vf10x-uart.c **** #define  UART_ALL_NUM    4
   5:arch/riscv/mach-gd32vf10x/drivers/gd32vf10x-uart.c **** 
   6:arch/riscv/mach-gd32vf10x/drivers/gd32vf10x-uart.c **** #define  UART0_NVIC      0x000000E0
   7:arch/riscv/mach-gd32vf10x/drivers/gd32vf10x-uart.c **** #define  UART1_NVIC      0x000000E4
   8:arch/riscv/mach-gd32vf10x/drivers/gd32vf10x-uart.c **** #define  UART2_NVIC      0x000000E8
   9:arch/riscv/mach-gd32vf10x/drivers/gd32vf10x-uart.c **** #define  UART3_NVIC      0x0000011C
  10:arch/riscv/mach-gd32vf10x/drivers/gd32vf10x-uart.c **** #define  UART4_NVIC      0x00000120
  11:arch/riscv/mach-gd32vf10x/drivers/gd32vf10x-uart.c **** 
  12:arch/riscv/mach-gd32vf10x/drivers/gd32vf10x-uart.c **** //[TX][RX]
  13:arch/riscv/mach-gd32vf10x/drivers/gd32vf10x-uart.c **** static const char uart_pin[UART_ALL_NUM][2] = {{9,10},{} };
  14:arch/riscv/mach-gd32vf10x/drivers/gd32vf10x-uart.c **** 
  15:arch/riscv/mach-gd32vf10x/drivers/gd32vf10x-uart.c **** static void (*uart_handler[UART_ALL_NUM])(void);
  16:arch/riscv/mach-gd32vf10x/drivers/gd32vf10x-uart.c **** 
  17:arch/riscv/mach-gd32vf10x/drivers/gd32vf10x-uart.c **** void USART0_IRQHandler(void)
  18:arch/riscv/mach-gd32vf10x/drivers/gd32vf10x-uart.c **** {
  19:arch/riscv/mach-gd32vf10x/drivers/gd32vf10x-uart.c ****     (*uart_handler[0])();
  20:arch/riscv/mach-gd32vf10x/drivers/gd32vf10x-uart.c **** }
  21:arch/riscv/mach-gd32vf10x/drivers/gd32vf10x-uart.c **** 
  22:arch/riscv/mach-gd32vf10x/drivers/gd32vf10x-uart.c **** void USART1_IRQHandler(void)
  23:arch/riscv/mach-gd32vf10x/drivers/gd32vf10x-uart.c **** {
  24:arch/riscv/mach-gd32vf10x/drivers/gd32vf10x-uart.c ****     (*uart_handler[1])();
  25:arch/riscv/mach-gd32vf10x/drivers/gd32vf10x-uart.c **** }
  26:arch/riscv/mach-gd32vf10x/drivers/gd32vf10x-uart.c **** 
  27:arch/riscv/mach-gd32vf10x/drivers/gd32vf10x-uart.c **** void USART2_IRQHandler(void)
  28:arch/riscv/mach-gd32vf10x/drivers/gd32vf10x-uart.c **** {
  29:arch/riscv/mach-gd32vf10x/drivers/gd32vf10x-uart.c ****     (*uart_handler[2])();
  30:arch/riscv/mach-gd32vf10x/drivers/gd32vf10x-uart.c **** }
  31:arch/riscv/mach-gd32vf10x/drivers/gd32vf10x-uart.c **** 
  32:arch/riscv/mach-gd32vf10x/drivers/gd32vf10x-uart.c **** void USART3_IRQHandler(void)
  33:arch/riscv/mach-gd32vf10x/drivers/gd32vf10x-uart.c **** {
  34:arch/riscv/mach-gd32vf10x/drivers/gd32vf10x-uart.c ****     (*uart_handler[3])();
  35:arch/riscv/mach-gd32vf10x/drivers/gd32vf10x-uart.c **** }
  36:arch/riscv/mach-gd32vf10x/drivers/gd32vf10x-uart.c **** 
  37:arch/riscv/mach-gd32vf10x/drivers/gd32vf10x-uart.c **** void USART4_IRQHandler(void)
  38:arch/riscv/mach-gd32vf10x/drivers/gd32vf10x-uart.c **** {
  39:arch/riscv/mach-gd32vf10x/drivers/gd32vf10x-uart.c ****     (*uart_handler[4])();
  40:arch/riscv/mach-gd32vf10x/drivers/gd32vf10x-uart.c **** }
  41:arch/riscv/mach-gd32vf10x/drivers/gd32vf10x-uart.c **** 
  42:arch/riscv/mach-gd32vf10x/drivers/gd32vf10x-uart.c **** static int8_t gd32vf10x_uart_probe(struct uart_device *dev)
  43:arch/riscv/mach-gd32vf10x/drivers/gd32vf10x-uart.c **** {
  44:arch/riscv/mach-gd32vf10x/drivers/gd32vf10x-uart.c ****     
  45:arch/riscv/mach-gd32vf10x/drivers/gd32vf10x-uart.c ****     rcu_periph_clock_enable(RCU_USART0);  //打开USART0时钟
  46:arch/riscv/mach-gd32vf10x/drivers/gd32vf10x-uart.c ****     rcu_periph_clock_enable(RCU_GPIOA);   //打开GPIOA时钟
  47:arch/riscv/mach-gd32vf10x/drivers/gd32vf10x-uart.c ****     switch(dev->uart)
GAS LISTING C:\Users\test\AppData\Local\Temp\ccDvGdW2.s 			page 2


  48:arch/riscv/mach-gd32vf10x/drivers/gd32vf10x-uart.c ****     {
  49:arch/riscv/mach-gd32vf10x/drivers/gd32vf10x-uart.c ****         case 0:
  50:arch/riscv/mach-gd32vf10x/drivers/gd32vf10x-uart.c ****             RCU_APB2EN |= (1<<14); //enable uart0 clock
  51:arch/riscv/mach-gd32vf10x/drivers/gd32vf10x-uart.c ****             break;
  52:arch/riscv/mach-gd32vf10x/drivers/gd32vf10x-uart.c ****         case 1 ... 4:
  53:arch/riscv/mach-gd32vf10x/drivers/gd32vf10x-uart.c ****             RCU_APB1EN |= (1<<(16+dev->uart)); //enable uart1/2/3/4 clock
  54:arch/riscv/mach-gd32vf10x/drivers/gd32vf10x-uart.c ****         default:
  55:arch/riscv/mach-gd32vf10x/drivers/gd32vf10x-uart.c ****             return -1;
  56:arch/riscv/mach-gd32vf10x/drivers/gd32vf10x-uart.c ****     }
  57:arch/riscv/mach-gd32vf10x/drivers/gd32vf10x-uart.c **** 
  58:arch/riscv/mach-gd32vf10x/drivers/gd32vf10x-uart.c ****     return 0;
  59:arch/riscv/mach-gd32vf10x/drivers/gd32vf10x-uart.c **** }
  60:arch/riscv/mach-gd32vf10x/drivers/gd32vf10x-uart.c **** 
  61:arch/riscv/mach-gd32vf10x/drivers/gd32vf10x-uart.c **** static int8_t gd32vf10x_uart_remove(struct uart_device *dev)
  62:arch/riscv/mach-gd32vf10x/drivers/gd32vf10x-uart.c **** {
  12              		.loc 1 62 1
  13              		.cfi_startproc
  14              	.LVL0:
  63:arch/riscv/mach-gd32vf10x/drivers/gd32vf10x-uart.c **** 
  64:arch/riscv/mach-gd32vf10x/drivers/gd32vf10x-uart.c **** }
  15              		.loc 1 64 1
  16              	.LVL1:
  17 0000 8280     		ret
  18              		.cfi_endproc
  19              	.LFE14:
  21              		.section	.text.gd32vf10x_uart_set_baud_rate,"ax",@progbits
  22              		.align	1
  24              	gd32vf10x_uart_set_baud_rate:
  25              	.LFB15:
  65:arch/riscv/mach-gd32vf10x/drivers/gd32vf10x-uart.c **** 
  66:arch/riscv/mach-gd32vf10x/drivers/gd32vf10x-uart.c **** static int8_t gd32vf10x_uart_set_baud_rate(struct uart_device *dev, uint32_t baud_rate)
  67:arch/riscv/mach-gd32vf10x/drivers/gd32vf10x-uart.c **** {
  26              		.loc 1 67 1
  27              		.cfi_startproc
  28              	.LVL2:
  68:arch/riscv/mach-gd32vf10x/drivers/gd32vf10x-uart.c **** 
  69:arch/riscv/mach-gd32vf10x/drivers/gd32vf10x-uart.c **** }
  29              		.loc 1 69 1
  30              	.LVL3:
  31 0000 8280     		ret
  32              		.cfi_endproc
  33              	.LFE15:
  35              		.section	.text.gd32vf10x_uart_poll_read,"ax",@progbits
  36              		.align	1
  38              	gd32vf10x_uart_poll_read:
  39              	.LFB16:
  70:arch/riscv/mach-gd32vf10x/drivers/gd32vf10x-uart.c **** 
  71:arch/riscv/mach-gd32vf10x/drivers/gd32vf10x-uart.c **** static int32_t gd32vf10x_uart_poll_read(struct uart_device *dev, uint8_t *buffer, uint32_t len)
  72:arch/riscv/mach-gd32vf10x/drivers/gd32vf10x-uart.c **** {
  40              		.loc 1 72 1
  41              		.cfi_startproc
  42              	.LVL4:
  73:arch/riscv/mach-gd32vf10x/drivers/gd32vf10x-uart.c **** 
  74:arch/riscv/mach-gd32vf10x/drivers/gd32vf10x-uart.c **** }
  43              		.loc 1 74 1
  44              	.LVL5:
  45 0000 8280     		ret
GAS LISTING C:\Users\test\AppData\Local\Temp\ccDvGdW2.s 			page 3


  46              		.cfi_endproc
  47              	.LFE16:
  49              		.section	.text.gd32vf10x_uart_set_handler,"ax",@progbits
  50              		.align	1
  52              	gd32vf10x_uart_set_handler:
  53              	.LFB18:
  75:arch/riscv/mach-gd32vf10x/drivers/gd32vf10x-uart.c **** 
  76:arch/riscv/mach-gd32vf10x/drivers/gd32vf10x-uart.c **** static int32_t gd32vf10x_uart_poll_write(struct uart_device *dev, uint8_t *buffer, uint32_t len)
  77:arch/riscv/mach-gd32vf10x/drivers/gd32vf10x-uart.c **** {
  78:arch/riscv/mach-gd32vf10x/drivers/gd32vf10x-uart.c ****     
  79:arch/riscv/mach-gd32vf10x/drivers/gd32vf10x-uart.c **** }
  80:arch/riscv/mach-gd32vf10x/drivers/gd32vf10x-uart.c **** 
  81:arch/riscv/mach-gd32vf10x/drivers/gd32vf10x-uart.c **** static int8_t gd32vf10x_uart_set_handler(struct uart_device *dev, void (*handler)(void))
  82:arch/riscv/mach-gd32vf10x/drivers/gd32vf10x-uart.c **** {
  54              		.loc 1 82 1
  55              		.cfi_startproc
  56              	.LVL6:
  83:arch/riscv/mach-gd32vf10x/drivers/gd32vf10x-uart.c ****     uart_handler[dev->uart] = handler;
  57              		.loc 1 83 5
  58              		.loc 1 83 21 is_stmt 0
  59 0000 83470500 		lbu	a5,0(a0)
  60              	.LVL7:
  61              		.loc 1 83 29
  62 0004 13972700 		slli	a4,a5,2
  63 0008 B7070000 		lui	a5,%hi(.LANCHOR0)
  64 000c 93870700 		addi	a5,a5,%lo(.LANCHOR0)
  65 0010 BA97     		add	a5,a5,a4
  66 0012 8CC3     		sw	a1,0(a5)
  84:arch/riscv/mach-gd32vf10x/drivers/gd32vf10x-uart.c **** }
  67              		.loc 1 84 1
  68 0014 8280     		ret
  69              		.cfi_endproc
  70              	.LFE18:
  72              		.section	.text.gd32vf10x_uart_probe,"ax",@progbits
  73              		.align	1
  75              	gd32vf10x_uart_probe:
  76              	.LFB13:
  43:arch/riscv/mach-gd32vf10x/drivers/gd32vf10x-uart.c ****     
  77              		.loc 1 43 1 is_stmt 1
  78              		.cfi_startproc
  79              	.LVL8:
  45:arch/riscv/mach-gd32vf10x/drivers/gd32vf10x-uart.c ****     rcu_periph_clock_enable(RCU_GPIOA);   //打开GPIOA时钟
  80              		.loc 1 45 5
  43:arch/riscv/mach-gd32vf10x/drivers/gd32vf10x-uart.c ****     
  81              		.loc 1 43 1 is_stmt 0
  82 0000 4111     		addi	sp,sp,-16
  83              	.LCFI0:
  84              		.cfi_def_cfa_offset 16
  85 0002 22C4     		sw	s0,8(sp)
  86              		.cfi_offset 8, -8
  87 0004 2A84     		mv	s0,a0
  45:arch/riscv/mach-gd32vf10x/drivers/gd32vf10x-uart.c ****     rcu_periph_clock_enable(RCU_GPIOA);   //打开GPIOA时钟
  88              		.loc 1 45 5
  89 0006 1305E060 		li	a0,1550
  90              	.LVL9:
  43:arch/riscv/mach-gd32vf10x/drivers/gd32vf10x-uart.c ****     
  91              		.loc 1 43 1
GAS LISTING C:\Users\test\AppData\Local\Temp\ccDvGdW2.s 			page 4


  92 000a 06C6     		sw	ra,12(sp)
  93              		.cfi_offset 1, -4
  45:arch/riscv/mach-gd32vf10x/drivers/gd32vf10x-uart.c ****     rcu_periph_clock_enable(RCU_GPIOA);   //打开GPIOA时钟
  94              		.loc 1 45 5
  95 000c 97000000 		call	rcu_periph_clock_enable
  95      E7800000 
  96              	.LVL10:
  46:arch/riscv/mach-gd32vf10x/drivers/gd32vf10x-uart.c ****     switch(dev->uart)
  97              		.loc 1 46 5 is_stmt 1
  98 0014 13052060 		li	a0,1538
  99 0018 97000000 		call	rcu_periph_clock_enable
  99      E7800000 
 100              	.LVL11:
  47:arch/riscv/mach-gd32vf10x/drivers/gd32vf10x-uart.c ****     {
 101              		.loc 1 47 5
  47:arch/riscv/mach-gd32vf10x/drivers/gd32vf10x-uart.c ****     {
 102              		.loc 1 47 15 is_stmt 0
 103 0020 83470400 		lbu	a5,0(s0)
  47:arch/riscv/mach-gd32vf10x/drivers/gd32vf10x-uart.c ****     {
 104              		.loc 1 47 5
 105 0024 95C3     		beq	a5,zero,.L7
 106 0026 1147     		li	a4,4
  55:arch/riscv/mach-gd32vf10x/drivers/gd32vf10x-uart.c ****     }
 107              		.loc 1 55 20
 108 0028 7D55     		li	a0,-1
  47:arch/riscv/mach-gd32vf10x/drivers/gd32vf10x-uart.c ****     {
 109              		.loc 1 47 5
 110 002a 636BF700 		bgtu	a5,a4,.L8
  53:arch/riscv/mach-gd32vf10x/drivers/gd32vf10x-uart.c ****         default:
 111              		.loc 1 53 13 is_stmt 1
  53:arch/riscv/mach-gd32vf10x/drivers/gd32vf10x-uart.c ****         default:
 112              		.loc 1 53 24 is_stmt 0
 113 002e B7160240 		li	a3,1073876992
 114 0032 D04E     		lw	a2,28(a3)
  53:arch/riscv/mach-gd32vf10x/drivers/gd32vf10x-uart.c ****         default:
 115              		.loc 1 53 34
 116 0034 C107     		addi	a5,a5,16
  53:arch/riscv/mach-gd32vf10x/drivers/gd32vf10x-uart.c ****         default:
 117              		.loc 1 53 29
 118 0036 0547     		li	a4,1
 119 0038 B317F700 		sll	a5,a4,a5
  53:arch/riscv/mach-gd32vf10x/drivers/gd32vf10x-uart.c ****         default:
 120              		.loc 1 53 24
 121 003c D18F     		or	a5,a5,a2
 122 003e DCCE     		sw	a5,28(a3)
 123              	.L8:
  59:arch/riscv/mach-gd32vf10x/drivers/gd32vf10x-uart.c **** 
 124              		.loc 1 59 1
 125 0040 B240     		lw	ra,12(sp)
 126              		.cfi_remember_state
 127              		.cfi_restore 1
 128 0042 2244     		lw	s0,8(sp)
 129              		.cfi_restore 8
 130              	.LVL12:
 131 0044 4101     		addi	sp,sp,16
 132              	.LCFI1:
 133              		.cfi_def_cfa_offset 0
GAS LISTING C:\Users\test\AppData\Local\Temp\ccDvGdW2.s 			page 5


 134 0046 8280     		jr	ra
 135              	.LVL13:
 136              	.L7:
 137              	.LCFI2:
 138              		.cfi_restore_state
 139              	.LBB4:
 140              	.LBB5:
  50:arch/riscv/mach-gd32vf10x/drivers/gd32vf10x-uart.c ****             break;
 141              		.loc 1 50 13 is_stmt 1
  50:arch/riscv/mach-gd32vf10x/drivers/gd32vf10x-uart.c ****             break;
 142              		.loc 1 50 24 is_stmt 0
 143 0048 37170240 		li	a4,1073876992
 144 004c 1C4F     		lw	a5,24(a4)
 145              	.LBE5:
 146              	.LBE4:
  59:arch/riscv/mach-gd32vf10x/drivers/gd32vf10x-uart.c **** 
 147              		.loc 1 59 1
 148 004e B240     		lw	ra,12(sp)
 149              		.cfi_restore 1
 150 0050 2244     		lw	s0,8(sp)
 151              		.cfi_restore 8
 152              	.LVL14:
 153              	.LBB7:
 154              	.LBB6:
  50:arch/riscv/mach-gd32vf10x/drivers/gd32vf10x-uart.c ****             break;
 155              		.loc 1 50 24
 156 0052 9166     		li	a3,16384
 157 0054 D58F     		or	a5,a5,a3
 158 0056 1CCF     		sw	a5,24(a4)
  51:arch/riscv/mach-gd32vf10x/drivers/gd32vf10x-uart.c ****         case 1 ... 4:
 159              		.loc 1 51 13 is_stmt 1
  58:arch/riscv/mach-gd32vf10x/drivers/gd32vf10x-uart.c **** }
 160              		.loc 1 58 5
 161              	.LVL15:
  50:arch/riscv/mach-gd32vf10x/drivers/gd32vf10x-uart.c ****             break;
 162              		.loc 1 50 24 is_stmt 0
 163 0058 0145     		li	a0,0
 164              	.LBE6:
 165              	.LBE7:
  59:arch/riscv/mach-gd32vf10x/drivers/gd32vf10x-uart.c **** 
 166              		.loc 1 59 1
 167 005a 4101     		addi	sp,sp,16
 168              	.LCFI3:
 169              		.cfi_def_cfa_offset 0
 170 005c 8280     		jr	ra
 171              		.cfi_endproc
 172              	.LFE13:
 174              		.section	.text.gd32vf10x_uart_poll_write,"ax",@progbits
 175              		.align	1
 177              	gd32vf10x_uart_poll_write:
 178              	.LFB21:
 179              		.cfi_startproc
 180 0000 0145     		li	a0,0
 181 0002 8280     		ret
 182              		.cfi_endproc
 183              	.LFE21:
 185              		.section	.text.USART0_IRQHandler,"ax",@progbits
GAS LISTING C:\Users\test\AppData\Local\Temp\ccDvGdW2.s 			page 6


 186              		.align	1
 187              		.globl	USART0_IRQHandler
 189              	USART0_IRQHandler:
 190              	.LFB8:
  18:arch/riscv/mach-gd32vf10x/drivers/gd32vf10x-uart.c ****     (*uart_handler[0])();
 191              		.loc 1 18 1 is_stmt 1
 192              		.cfi_startproc
  19:arch/riscv/mach-gd32vf10x/drivers/gd32vf10x-uart.c **** }
 193              		.loc 1 19 5
  19:arch/riscv/mach-gd32vf10x/drivers/gd32vf10x-uart.c **** }
 194              		.loc 1 19 6 is_stmt 0
 195 0000 B7070000 		lui	a5,%hi(.LANCHOR0)
 196 0004 03A30700 		lw	t1,%lo(.LANCHOR0)(a5)
 197 0008 0283     		jr	t1
 198              	.LVL16:
 199              		.cfi_endproc
 200              	.LFE8:
 202              		.section	.text.USART1_IRQHandler,"ax",@progbits
 203              		.align	1
 204              		.globl	USART1_IRQHandler
 206              	USART1_IRQHandler:
 207              	.LFB9:
  23:arch/riscv/mach-gd32vf10x/drivers/gd32vf10x-uart.c ****     (*uart_handler[1])();
 208              		.loc 1 23 1 is_stmt 1
 209              		.cfi_startproc
  24:arch/riscv/mach-gd32vf10x/drivers/gd32vf10x-uart.c **** }
 210              		.loc 1 24 5
  24:arch/riscv/mach-gd32vf10x/drivers/gd32vf10x-uart.c **** }
 211              		.loc 1 24 6 is_stmt 0
 212 0000 B7070000 		lui	a5,%hi(.LANCHOR0+4)
 213 0004 03A34700 		lw	t1,%lo(.LANCHOR0+4)(a5)
 214 0008 0283     		jr	t1
 215              	.LVL17:
 216              		.cfi_endproc
 217              	.LFE9:
 219              		.section	.text.USART2_IRQHandler,"ax",@progbits
 220              		.align	1
 221              		.globl	USART2_IRQHandler
 223              	USART2_IRQHandler:
 224              	.LFB10:
  28:arch/riscv/mach-gd32vf10x/drivers/gd32vf10x-uart.c ****     (*uart_handler[2])();
 225              		.loc 1 28 1 is_stmt 1
 226              		.cfi_startproc
  29:arch/riscv/mach-gd32vf10x/drivers/gd32vf10x-uart.c **** }
 227              		.loc 1 29 5
  29:arch/riscv/mach-gd32vf10x/drivers/gd32vf10x-uart.c **** }
 228              		.loc 1 29 6 is_stmt 0
 229 0000 B7070000 		lui	a5,%hi(.LANCHOR0+8)
 230 0004 03A38700 		lw	t1,%lo(.LANCHOR0+8)(a5)
 231 0008 0283     		jr	t1
 232              	.LVL18:
 233              		.cfi_endproc
 234              	.LFE10:
 236              		.section	.text.USART3_IRQHandler,"ax",@progbits
 237              		.align	1
 238              		.globl	USART3_IRQHandler
 240              	USART3_IRQHandler:
GAS LISTING C:\Users\test\AppData\Local\Temp\ccDvGdW2.s 			page 7


 241              	.LFB11:
  33:arch/riscv/mach-gd32vf10x/drivers/gd32vf10x-uart.c ****     (*uart_handler[3])();
 242              		.loc 1 33 1 is_stmt 1
 243              		.cfi_startproc
  34:arch/riscv/mach-gd32vf10x/drivers/gd32vf10x-uart.c **** }
 244              		.loc 1 34 5
  34:arch/riscv/mach-gd32vf10x/drivers/gd32vf10x-uart.c **** }
 245              		.loc 1 34 6 is_stmt 0
 246 0000 B7070000 		lui	a5,%hi(.LANCHOR0+12)
 247 0004 03A3C700 		lw	t1,%lo(.LANCHOR0+12)(a5)
 248 0008 0283     		jr	t1
 249              	.LVL19:
 250              		.cfi_endproc
 251              	.LFE11:
 253              		.section	.text.USART4_IRQHandler,"ax",@progbits
 254              		.align	1
 255              		.globl	USART4_IRQHandler
 257              	USART4_IRQHandler:
 258              	.LFB12:
  38:arch/riscv/mach-gd32vf10x/drivers/gd32vf10x-uart.c ****     (*uart_handler[4])();
 259              		.loc 1 38 1 is_stmt 1
 260              		.cfi_startproc
  39:arch/riscv/mach-gd32vf10x/drivers/gd32vf10x-uart.c **** }
 261              		.loc 1 39 5
  39:arch/riscv/mach-gd32vf10x/drivers/gd32vf10x-uart.c **** }
 262              		.loc 1 39 6 is_stmt 0
 263 0000 B7070000 		lui	a5,%hi(.LANCHOR0+16)
 264 0004 03A30701 		lw	t1,%lo(.LANCHOR0+16)(a5)
 265 0008 0283     		jr	t1
 266              	.LVL20:
 267              		.cfi_endproc
 268              	.LFE12:
 270              		.globl	gd32vf10x_uart_controller
 271              		.section	.__uart_core_init,"aw"
 272              		.align	2
 275              	gd32vf10x_uart_controller:
 276 0000 00000000 		.zero	4
 277 0004 00000000 		.word	gd32vf10x_uart_probe
 278 0008 00000000 		.word	gd32vf10x_uart_remove
 279 000c 00000000 		.word	gd32vf10x_uart_set_baud_rate
 280 0010 00000000 		.word	gd32vf10x_uart_poll_read
 281 0014 00000000 		.word	gd32vf10x_uart_poll_write
 282 0018 00000000 		.word	gd32vf10x_uart_set_handler
 283              		.section	.bss.uart_handler,"aw",@nobits
 284              		.align	2
 285              		.set	.LANCHOR0,. + 0
 288              	uart_handler:
 289 0000 00000000 		.zero	16
 289      00000000 
 289      00000000 
 289      00000000 
 290              		.text
 291              	.Letext0:
 292              		.file 2 "d:\\risc_v_gcc\\riscv-none-embed\\include\\machine\\_default_types.h"
 293              		.file 3 "d:\\risc_v_gcc\\riscv-none-embed\\include\\sys\\_stdint.h"
 294              		.file 4 "core/module.h"
 295              		.file 5 "core/uart-core.h"
GAS LISTING C:\Users\test\AppData\Local\Temp\ccDvGdW2.s 			page 8


 296              		.file 6 "arch/riscv/mach-gd32vf10x/system/system_gd32vf103.h"
 297              		.file 7 "arch/riscv/mach-gd32vf10x/bsp/gd32vf103_rcu.h"
GAS LISTING C:\Users\test\AppData\Local\Temp\ccDvGdW2.s 			page 9


DEFINED SYMBOLS
                            *ABS*:0000000000000000 gd32vf10x-uart.c
C:\Users\test\AppData\Local\Temp\ccDvGdW2.s:9      .text.gd32vf10x_uart_remove:0000000000000000 gd32vf10x_uart_remove
C:\Users\test\AppData\Local\Temp\ccDvGdW2.s:13     .text.gd32vf10x_uart_remove:0000000000000000 .L0 
C:\Users\test\AppData\Local\Temp\ccDvGdW2.s:15     .text.gd32vf10x_uart_remove:0000000000000000 .L0 
C:\Users\test\AppData\Local\Temp\ccDvGdW2.s:17     .text.gd32vf10x_uart_remove:0000000000000000 .L0 
C:\Users\test\AppData\Local\Temp\ccDvGdW2.s:18     .text.gd32vf10x_uart_remove:0000000000000002 .L0 
C:\Users\test\AppData\Local\Temp\ccDvGdW2.s:24     .text.gd32vf10x_uart_set_baud_rate:0000000000000000 gd32vf10x_uart_set_baud_rate
C:\Users\test\AppData\Local\Temp\ccDvGdW2.s:27     .text.gd32vf10x_uart_set_baud_rate:0000000000000000 .L0 
C:\Users\test\AppData\Local\Temp\ccDvGdW2.s:29     .text.gd32vf10x_uart_set_baud_rate:0000000000000000 .L0 
C:\Users\test\AppData\Local\Temp\ccDvGdW2.s:31     .text.gd32vf10x_uart_set_baud_rate:0000000000000000 .L0 
C:\Users\test\AppData\Local\Temp\ccDvGdW2.s:32     .text.gd32vf10x_uart_set_baud_rate:0000000000000002 .L0 
C:\Users\test\AppData\Local\Temp\ccDvGdW2.s:38     .text.gd32vf10x_uart_poll_read:0000000000000000 gd32vf10x_uart_poll_read
C:\Users\test\AppData\Local\Temp\ccDvGdW2.s:41     .text.gd32vf10x_uart_poll_read:0000000000000000 .L0 
C:\Users\test\AppData\Local\Temp\ccDvGdW2.s:43     .text.gd32vf10x_uart_poll_read:0000000000000000 .L0 
C:\Users\test\AppData\Local\Temp\ccDvGdW2.s:45     .text.gd32vf10x_uart_poll_read:0000000000000000 .L0 
C:\Users\test\AppData\Local\Temp\ccDvGdW2.s:46     .text.gd32vf10x_uart_poll_read:0000000000000002 .L0 
C:\Users\test\AppData\Local\Temp\ccDvGdW2.s:52     .text.gd32vf10x_uart_set_handler:0000000000000000 gd32vf10x_uart_set_handler
C:\Users\test\AppData\Local\Temp\ccDvGdW2.s:55     .text.gd32vf10x_uart_set_handler:0000000000000000 .L0 
C:\Users\test\AppData\Local\Temp\ccDvGdW2.s:57     .text.gd32vf10x_uart_set_handler:0000000000000000 .L0 
C:\Users\test\AppData\Local\Temp\ccDvGdW2.s:58     .text.gd32vf10x_uart_set_handler:0000000000000000 .L0 
C:\Users\test\AppData\Local\Temp\ccDvGdW2.s:59     .text.gd32vf10x_uart_set_handler:0000000000000000 .L0 
C:\Users\test\AppData\Local\Temp\ccDvGdW2.s:62     .text.gd32vf10x_uart_set_handler:0000000000000004 .L0 
C:\Users\test\AppData\Local\Temp\ccDvGdW2.s:68     .text.gd32vf10x_uart_set_handler:0000000000000014 .L0 
C:\Users\test\AppData\Local\Temp\ccDvGdW2.s:69     .text.gd32vf10x_uart_set_handler:0000000000000016 .L0 
C:\Users\test\AppData\Local\Temp\ccDvGdW2.s:75     .text.gd32vf10x_uart_probe:0000000000000000 gd32vf10x_uart_probe
C:\Users\test\AppData\Local\Temp\ccDvGdW2.s:78     .text.gd32vf10x_uart_probe:0000000000000000 .L0 
C:\Users\test\AppData\Local\Temp\ccDvGdW2.s:80     .text.gd32vf10x_uart_probe:0000000000000000 .L0 
C:\Users\test\AppData\Local\Temp\ccDvGdW2.s:81     .text.gd32vf10x_uart_probe:0000000000000000 .L0 
C:\Users\test\AppData\Local\Temp\ccDvGdW2.s:82     .text.gd32vf10x_uart_probe:0000000000000000 .L0 
C:\Users\test\AppData\Local\Temp\ccDvGdW2.s:84     .text.gd32vf10x_uart_probe:0000000000000002 .L0 
C:\Users\test\AppData\Local\Temp\ccDvGdW2.s:86     .text.gd32vf10x_uart_probe:0000000000000004 .L0 
C:\Users\test\AppData\Local\Temp\ccDvGdW2.s:89     .text.gd32vf10x_uart_probe:0000000000000006 .L0 
C:\Users\test\AppData\Local\Temp\ccDvGdW2.s:92     .text.gd32vf10x_uart_probe:000000000000000a .L0 
C:\Users\test\AppData\Local\Temp\ccDvGdW2.s:93     .text.gd32vf10x_uart_probe:000000000000000c .L0 
C:\Users\test\AppData\Local\Temp\ccDvGdW2.s:95     .text.gd32vf10x_uart_probe:000000000000000c .L0 
C:\Users\test\AppData\Local\Temp\ccDvGdW2.s:98     .text.gd32vf10x_uart_probe:0000000000000014 .L0 
C:\Users\test\AppData\Local\Temp\ccDvGdW2.s:102    .text.gd32vf10x_uart_probe:0000000000000020 .L0 
C:\Users\test\AppData\Local\Temp\ccDvGdW2.s:103    .text.gd32vf10x_uart_probe:0000000000000020 .L0 
C:\Users\test\AppData\Local\Temp\ccDvGdW2.s:105    .text.gd32vf10x_uart_probe:0000000000000024 .L0 
C:\Users\test\AppData\Local\Temp\ccDvGdW2.s:108    .text.gd32vf10x_uart_probe:0000000000000028 .L0 
C:\Users\test\AppData\Local\Temp\ccDvGdW2.s:110    .text.gd32vf10x_uart_probe:000000000000002a .L0 
C:\Users\test\AppData\Local\Temp\ccDvGdW2.s:112    .text.gd32vf10x_uart_probe:000000000000002e .L0 
C:\Users\test\AppData\Local\Temp\ccDvGdW2.s:113    .text.gd32vf10x_uart_probe:000000000000002e .L0 
C:\Users\test\AppData\Local\Temp\ccDvGdW2.s:116    .text.gd32vf10x_uart_probe:0000000000000034 .L0 
C:\Users\test\AppData\Local\Temp\ccDvGdW2.s:118    .text.gd32vf10x_uart_probe:0000000000000036 .L0 
C:\Users\test\AppData\Local\Temp\ccDvGdW2.s:121    .text.gd32vf10x_uart_probe:000000000000003c .L0 
C:\Users\test\AppData\Local\Temp\ccDvGdW2.s:125    .text.gd32vf10x_uart_probe:0000000000000040 .L0 
C:\Users\test\AppData\Local\Temp\ccDvGdW2.s:126    .text.gd32vf10x_uart_probe:0000000000000042 .L0 
C:\Users\test\AppData\Local\Temp\ccDvGdW2.s:127    .text.gd32vf10x_uart_probe:0000000000000042 .L0 
C:\Users\test\AppData\Local\Temp\ccDvGdW2.s:129    .text.gd32vf10x_uart_probe:0000000000000044 .L0 
C:\Users\test\AppData\Local\Temp\ccDvGdW2.s:133    .text.gd32vf10x_uart_probe:0000000000000046 .L0 
C:\Users\test\AppData\Local\Temp\ccDvGdW2.s:138    .text.gd32vf10x_uart_probe:0000000000000048 .L0 
C:\Users\test\AppData\Local\Temp\ccDvGdW2.s:142    .text.gd32vf10x_uart_probe:0000000000000048 .L0 
C:\Users\test\AppData\Local\Temp\ccDvGdW2.s:143    .text.gd32vf10x_uart_probe:0000000000000048 .L0 
C:\Users\test\AppData\Local\Temp\ccDvGdW2.s:148    .text.gd32vf10x_uart_probe:000000000000004e .L0 
C:\Users\test\AppData\Local\Temp\ccDvGdW2.s:149    .text.gd32vf10x_uart_probe:0000000000000050 .L0 
GAS LISTING C:\Users\test\AppData\Local\Temp\ccDvGdW2.s 			page 10


C:\Users\test\AppData\Local\Temp\ccDvGdW2.s:151    .text.gd32vf10x_uart_probe:0000000000000052 .L0 
C:\Users\test\AppData\Local\Temp\ccDvGdW2.s:156    .text.gd32vf10x_uart_probe:0000000000000052 .L0 
C:\Users\test\AppData\Local\Temp\ccDvGdW2.s:160    .text.gd32vf10x_uart_probe:0000000000000058 .L0 
C:\Users\test\AppData\Local\Temp\ccDvGdW2.s:162    .text.gd32vf10x_uart_probe:0000000000000058 .L0 
C:\Users\test\AppData\Local\Temp\ccDvGdW2.s:163    .text.gd32vf10x_uart_probe:0000000000000058 .L0 
C:\Users\test\AppData\Local\Temp\ccDvGdW2.s:167    .text.gd32vf10x_uart_probe:000000000000005a .L0 
C:\Users\test\AppData\Local\Temp\ccDvGdW2.s:169    .text.gd32vf10x_uart_probe:000000000000005c .L0 
C:\Users\test\AppData\Local\Temp\ccDvGdW2.s:171    .text.gd32vf10x_uart_probe:000000000000005e .L0 
C:\Users\test\AppData\Local\Temp\ccDvGdW2.s:177    .text.gd32vf10x_uart_poll_write:0000000000000000 gd32vf10x_uart_poll_write
C:\Users\test\AppData\Local\Temp\ccDvGdW2.s:179    .text.gd32vf10x_uart_poll_write:0000000000000000 .L0 
C:\Users\test\AppData\Local\Temp\ccDvGdW2.s:182    .text.gd32vf10x_uart_poll_write:0000000000000004 .L0 
C:\Users\test\AppData\Local\Temp\ccDvGdW2.s:189    .text.USART0_IRQHandler:0000000000000000 USART0_IRQHandler
C:\Users\test\AppData\Local\Temp\ccDvGdW2.s:192    .text.USART0_IRQHandler:0000000000000000 .L0 
C:\Users\test\AppData\Local\Temp\ccDvGdW2.s:193    .text.USART0_IRQHandler:0000000000000000 .L0 
C:\Users\test\AppData\Local\Temp\ccDvGdW2.s:194    .text.USART0_IRQHandler:0000000000000000 .L0 
C:\Users\test\AppData\Local\Temp\ccDvGdW2.s:195    .text.USART0_IRQHandler:0000000000000000 .L0 
C:\Users\test\AppData\Local\Temp\ccDvGdW2.s:199    .text.USART0_IRQHandler:000000000000000a .L0 
C:\Users\test\AppData\Local\Temp\ccDvGdW2.s:206    .text.USART1_IRQHandler:0000000000000000 USART1_IRQHandler
C:\Users\test\AppData\Local\Temp\ccDvGdW2.s:209    .text.USART1_IRQHandler:0000000000000000 .L0 
C:\Users\test\AppData\Local\Temp\ccDvGdW2.s:210    .text.USART1_IRQHandler:0000000000000000 .L0 
C:\Users\test\AppData\Local\Temp\ccDvGdW2.s:211    .text.USART1_IRQHandler:0000000000000000 .L0 
C:\Users\test\AppData\Local\Temp\ccDvGdW2.s:212    .text.USART1_IRQHandler:0000000000000000 .L0 
C:\Users\test\AppData\Local\Temp\ccDvGdW2.s:216    .text.USART1_IRQHandler:000000000000000a .L0 
C:\Users\test\AppData\Local\Temp\ccDvGdW2.s:223    .text.USART2_IRQHandler:0000000000000000 USART2_IRQHandler
C:\Users\test\AppData\Local\Temp\ccDvGdW2.s:226    .text.USART2_IRQHandler:0000000000000000 .L0 
C:\Users\test\AppData\Local\Temp\ccDvGdW2.s:227    .text.USART2_IRQHandler:0000000000000000 .L0 
C:\Users\test\AppData\Local\Temp\ccDvGdW2.s:228    .text.USART2_IRQHandler:0000000000000000 .L0 
C:\Users\test\AppData\Local\Temp\ccDvGdW2.s:229    .text.USART2_IRQHandler:0000000000000000 .L0 
C:\Users\test\AppData\Local\Temp\ccDvGdW2.s:233    .text.USART2_IRQHandler:000000000000000a .L0 
C:\Users\test\AppData\Local\Temp\ccDvGdW2.s:240    .text.USART3_IRQHandler:0000000000000000 USART3_IRQHandler
C:\Users\test\AppData\Local\Temp\ccDvGdW2.s:243    .text.USART3_IRQHandler:0000000000000000 .L0 
C:\Users\test\AppData\Local\Temp\ccDvGdW2.s:244    .text.USART3_IRQHandler:0000000000000000 .L0 
C:\Users\test\AppData\Local\Temp\ccDvGdW2.s:245    .text.USART3_IRQHandler:0000000000000000 .L0 
C:\Users\test\AppData\Local\Temp\ccDvGdW2.s:246    .text.USART3_IRQHandler:0000000000000000 .L0 
C:\Users\test\AppData\Local\Temp\ccDvGdW2.s:250    .text.USART3_IRQHandler:000000000000000a .L0 
C:\Users\test\AppData\Local\Temp\ccDvGdW2.s:257    .text.USART4_IRQHandler:0000000000000000 USART4_IRQHandler
C:\Users\test\AppData\Local\Temp\ccDvGdW2.s:260    .text.USART4_IRQHandler:0000000000000000 .L0 
C:\Users\test\AppData\Local\Temp\ccDvGdW2.s:261    .text.USART4_IRQHandler:0000000000000000 .L0 
C:\Users\test\AppData\Local\Temp\ccDvGdW2.s:262    .text.USART4_IRQHandler:0000000000000000 .L0 
C:\Users\test\AppData\Local\Temp\ccDvGdW2.s:263    .text.USART4_IRQHandler:0000000000000000 .L0 
C:\Users\test\AppData\Local\Temp\ccDvGdW2.s:267    .text.USART4_IRQHandler:000000000000000a .L0 
C:\Users\test\AppData\Local\Temp\ccDvGdW2.s:275    .__uart_core_init:0000000000000000 gd32vf10x_uart_controller
C:\Users\test\AppData\Local\Temp\ccDvGdW2.s:285    .bss.uart_handler:0000000000000000 .LANCHOR0
C:\Users\test\AppData\Local\Temp\ccDvGdW2.s:288    .bss.uart_handler:0000000000000000 uart_handler
C:\Users\test\AppData\Local\Temp\ccDvGdW2.s:21     .text.gd32vf10x_uart_remove:0000000000000002 .L0 
C:\Users\test\AppData\Local\Temp\ccDvGdW2.s:35     .text.gd32vf10x_uart_set_baud_rate:0000000000000002 .L0 
C:\Users\test\AppData\Local\Temp\ccDvGdW2.s:49     .text.gd32vf10x_uart_poll_read:0000000000000002 .L0 
C:\Users\test\AppData\Local\Temp\ccDvGdW2.s:72     .text.gd32vf10x_uart_set_handler:0000000000000016 .L0 
C:\Users\test\AppData\Local\Temp\ccDvGdW2.s:174    .text.gd32vf10x_uart_probe:000000000000005e .L0 
C:\Users\test\AppData\Local\Temp\ccDvGdW2.s:202    .text.USART0_IRQHandler:000000000000000a .L0 
C:\Users\test\AppData\Local\Temp\ccDvGdW2.s:219    .text.USART1_IRQHandler:000000000000000a .L0 
C:\Users\test\AppData\Local\Temp\ccDvGdW2.s:236    .text.USART2_IRQHandler:000000000000000a .L0 
C:\Users\test\AppData\Local\Temp\ccDvGdW2.s:253    .text.USART3_IRQHandler:000000000000000a .L0 
C:\Users\test\AppData\Local\Temp\ccDvGdW2.s:271    .text.USART4_IRQHandler:000000000000000a .L0 
                     .debug_frame:0000000000000000 .L0 
C:\Users\test\AppData\Local\Temp\ccDvGdW2.s:136    .text.gd32vf10x_uart_probe:0000000000000048 .L7
C:\Users\test\AppData\Local\Temp\ccDvGdW2.s:123    .text.gd32vf10x_uart_probe:0000000000000040 .L8
GAS LISTING C:\Users\test\AppData\Local\Temp\ccDvGdW2.s 			page 11


C:\Users\test\AppData\Local\Temp\ccDvGdW2.s:1147   .debug_abbrev:0000000000000000 .Ldebug_abbrev0
C:\Users\test\AppData\Local\Temp\ccDvGdW2.s:1980   .debug_str:000000000000025d .LASF94
C:\Users\test\AppData\Local\Temp\ccDvGdW2.s:2002   .debug_str:000000000000034a .LASF95
C:\Users\test\AppData\Local\Temp\ccDvGdW2.s:2058   .debug_str:00000000000004be .LASF96
C:\Users\test\AppData\Local\Temp\ccDvGdW2.s:1850   .debug_ranges:0000000000000000 .Ldebug_ranges0
C:\Users\test\AppData\Local\Temp\ccDvGdW2.s:1880   .debug_line:0000000000000000 .Ldebug_line0
C:\Users\test\AppData\Local\Temp\ccDvGdW2.s:2004   .debug_str:000000000000037d .LASF0
C:\Users\test\AppData\Local\Temp\ccDvGdW2.s:1974   .debug_str:0000000000000232 .LASF2
C:\Users\test\AppData\Local\Temp\ccDvGdW2.s:1986   .debug_str:00000000000002ed .LASF1
C:\Users\test\AppData\Local\Temp\ccDvGdW2.s:1962   .debug_str:00000000000001cb .LASF3
C:\Users\test\AppData\Local\Temp\ccDvGdW2.s:1914   .debug_str:00000000000000b3 .LASF4
C:\Users\test\AppData\Local\Temp\ccDvGdW2.s:2000   .debug_str:0000000000000337 .LASF5
C:\Users\test\AppData\Local\Temp\ccDvGdW2.s:2046   .debug_str:000000000000047f .LASF6
C:\Users\test\AppData\Local\Temp\ccDvGdW2.s:1932   .debug_str:0000000000000113 .LASF7
C:\Users\test\AppData\Local\Temp\ccDvGdW2.s:2040   .debug_str:0000000000000456 .LASF8
C:\Users\test\AppData\Local\Temp\ccDvGdW2.s:1988   .debug_str:00000000000002f7 .LASF9
C:\Users\test\AppData\Local\Temp\ccDvGdW2.s:1902   .debug_str:000000000000006a .LASF10
C:\Users\test\AppData\Local\Temp\ccDvGdW2.s:1978   .debug_str:0000000000000246 .LASF11
C:\Users\test\AppData\Local\Temp\ccDvGdW2.s:1984   .debug_str:00000000000002e0 .LASF12
C:\Users\test\AppData\Local\Temp\ccDvGdW2.s:1886   .debug_str:0000000000000019 .LASF13
C:\Users\test\AppData\Local\Temp\ccDvGdW2.s:1918   .debug_str:00000000000000cd .LASF14
C:\Users\test\AppData\Local\Temp\ccDvGdW2.s:1976   .debug_str:000000000000023e .LASF15
C:\Users\test\AppData\Local\Temp\ccDvGdW2.s:1982   .debug_str:00000000000002d7 .LASF16
C:\Users\test\AppData\Local\Temp\ccDvGdW2.s:2068   .debug_str:0000000000000530 .LASF17
C:\Users\test\AppData\Local\Temp\ccDvGdW2.s:1930   .debug_str:0000000000000103 .LASF18
C:\Users\test\AppData\Local\Temp\ccDvGdW2.s:2014   .debug_str:00000000000003af .LASF19
C:\Users\test\AppData\Local\Temp\ccDvGdW2.s:2028   .debug_str:0000000000000404 .LASF20
C:\Users\test\AppData\Local\Temp\ccDvGdW2.s:2072   .debug_str:000000000000054a .LASF21
C:\Users\test\AppData\Local\Temp\ccDvGdW2.s:2078   .debug_str:000000000000057c .LASF22
C:\Users\test\AppData\Local\Temp\ccDvGdW2.s:1958   .debug_str:00000000000001a2 .LASF23
C:\Users\test\AppData\Local\Temp\ccDvGdW2.s:2060   .debug_str:00000000000004ea .LASF24
C:\Users\test\AppData\Local\Temp\ccDvGdW2.s:1940   .debug_str:000000000000013c .LASF25
C:\Users\test\AppData\Local\Temp\ccDvGdW2.s:2064   .debug_str:000000000000050c .LASF26
C:\Users\test\AppData\Local\Temp\ccDvGdW2.s:2042   .debug_str:0000000000000461 .LASF30
C:\Users\test\AppData\Local\Temp\ccDvGdW2.s:1906   .debug_str:0000000000000095 .LASF27
C:\Users\test\AppData\Local\Temp\ccDvGdW2.s:1920   .debug_str:00000000000000d5 .LASF28
C:\Users\test\AppData\Local\Temp\ccDvGdW2.s:1926   .debug_str:00000000000000f1 .LASF29
C:\Users\test\AppData\Local\Temp\ccDvGdW2.s:1916   .debug_str:00000000000000bd .LASF31
C:\Users\test\AppData\Local\Temp\ccDvGdW2.s:1910   .debug_str:00000000000000a2 .LASF32
C:\Users\test\AppData\Local\Temp\ccDvGdW2.s:1990   .debug_str:0000000000000309 .LASF33
C:\Users\test\AppData\Local\Temp\ccDvGdW2.s:2034   .debug_str:0000000000000427 .LASF34
C:\Users\test\AppData\Local\Temp\ccDvGdW2.s:1934   .debug_str:000000000000011c .LASF35
C:\Users\test\AppData\Local\Temp\ccDvGdW2.s:1996   .debug_str:0000000000000325 .LASF36
C:\Users\test\AppData\Local\Temp\ccDvGdW2.s:2032   .debug_str:000000000000041c .LASF37
C:\Users\test\AppData\Local\Temp\ccDvGdW2.s:1994   .debug_str:0000000000000319 .LASF38
C:\Users\test\AppData\Local\Temp\ccDvGdW2.s:1900   .debug_str:000000000000005f .LASF39
C:\Users\test\AppData\Local\Temp\ccDvGdW2.s:1884   .debug_str:0000000000000009 .LASF40
C:\Users\test\AppData\Local\Temp\ccDvGdW2.s:2020   .debug_str:00000000000003e3 .LASF41
C:\Users\test\AppData\Local\Temp\ccDvGdW2.s:2022   .debug_str:00000000000003ec .LASF42
C:\Users\test\AppData\Local\Temp\ccDvGdW2.s:2074   .debug_str:000000000000055a .LASF43
C:\Users\test\AppData\Local\Temp\ccDvGdW2.s:2070   .debug_str:0000000000000541 .LASF44
C:\Users\test\AppData\Local\Temp\ccDvGdW2.s:2054   .debug_str:00000000000004aa .LASF45
C:\Users\test\AppData\Local\Temp\ccDvGdW2.s:1946   .debug_str:0000000000000162 .LASF46
C:\Users\test\AppData\Local\Temp\ccDvGdW2.s:1948   .debug_str:000000000000016d .LASF47
C:\Users\test\AppData\Local\Temp\ccDvGdW2.s:1950   .debug_str:0000000000000178 .LASF48
C:\Users\test\AppData\Local\Temp\ccDvGdW2.s:1942   .debug_str:000000000000014c .LASF49
C:\Users\test\AppData\Local\Temp\ccDvGdW2.s:1954   .debug_str:000000000000018c .LASF50
GAS LISTING C:\Users\test\AppData\Local\Temp\ccDvGdW2.s 			page 12


C:\Users\test\AppData\Local\Temp\ccDvGdW2.s:1956   .debug_str:0000000000000197 .LASF51
C:\Users\test\AppData\Local\Temp\ccDvGdW2.s:1928   .debug_str:00000000000000f9 .LASF52
C:\Users\test\AppData\Local\Temp\ccDvGdW2.s:1936   .debug_str:000000000000012a .LASF53
C:\Users\test\AppData\Local\Temp\ccDvGdW2.s:1938   .debug_str:0000000000000133 .LASF54
C:\Users\test\AppData\Local\Temp\ccDvGdW2.s:2050   .debug_str:0000000000000494 .LASF55
C:\Users\test\AppData\Local\Temp\ccDvGdW2.s:2052   .debug_str:000000000000049f .LASF56
C:\Users\test\AppData\Local\Temp\ccDvGdW2.s:1992   .debug_str:000000000000030f .LASF57
C:\Users\test\AppData\Local\Temp\ccDvGdW2.s:2056   .debug_str:00000000000004b4 .LASF58
C:\Users\test\AppData\Local\Temp\ccDvGdW2.s:2010   .debug_str:000000000000039d .LASF59
C:\Users\test\AppData\Local\Temp\ccDvGdW2.s:2012   .debug_str:00000000000003a6 .LASF60
C:\Users\test\AppData\Local\Temp\ccDvGdW2.s:1922   .debug_str:00000000000000df .LASF61
C:\Users\test\AppData\Local\Temp\ccDvGdW2.s:1924   .debug_str:00000000000000e8 .LASF62
C:\Users\test\AppData\Local\Temp\ccDvGdW2.s:1972   .debug_str:0000000000000229 .LASF63
C:\Users\test\AppData\Local\Temp\ccDvGdW2.s:1998   .debug_str:000000000000032f .LASF64
C:\Users\test\AppData\Local\Temp\ccDvGdW2.s:2024   .debug_str:00000000000003f5 .LASF65
C:\Users\test\AppData\Local\Temp\ccDvGdW2.s:1908   .debug_str:000000000000009a .LASF66
C:\Users\test\AppData\Local\Temp\ccDvGdW2.s:2030   .debug_str:0000000000000415 .LASF67
C:\Users\test\AppData\Local\Temp\ccDvGdW2.s:1888   .debug_str:0000000000000020 .LASF68
C:\Users\test\AppData\Local\Temp\ccDvGdW2.s:1890   .debug_str:000000000000002a .LASF69
C:\Users\test\AppData\Local\Temp\ccDvGdW2.s:1892   .debug_str:0000000000000034 .LASF70
C:\Users\test\AppData\Local\Temp\ccDvGdW2.s:1894   .debug_str:000000000000003e .LASF71
C:\Users\test\AppData\Local\Temp\ccDvGdW2.s:1896   .debug_str:0000000000000048 .LASF72
C:\Users\test\AppData\Local\Temp\ccDvGdW2.s:2018   .debug_str:00000000000003da .LASF73
C:\Users\test\AppData\Local\Temp\ccDvGdW2.s:1968   .debug_str:0000000000000206 .LASF74
C:\Users\test\AppData\Local\Temp\ccDvGdW2.s:1944   .debug_str:0000000000000157 .LASF75
C:\Users\test\AppData\Local\Temp\ccDvGdW2.s:1952   .debug_str:0000000000000183 .LASF76
C:\Users\test\AppData\Local\Temp\ccDvGdW2.s:2048   .debug_str:0000000000000489 .LASF77
C:\Users\test\AppData\Local\Temp\ccDvGdW2.s:2008   .debug_str:0000000000000398 .LASF78
C:\Users\test\AppData\Local\Temp\ccDvGdW2.s:1882   .debug_str:0000000000000000 .LASF79
C:\Users\test\AppData\Local\Temp\ccDvGdW2.s:1898   .debug_str:0000000000000052 .LASF80
C:\Users\test\AppData\Local\Temp\ccDvGdW2.s:1970   .debug_str:000000000000020f .LASF81
C:\Users\test\AppData\Local\Temp\ccDvGdW2.s:2016   .debug_str:00000000000003bf .LASF84
C:\Users\test\AppData\Local\Temp\ccDvGdW2.s:53     .text.gd32vf10x_uart_set_handler:0000000000000000 .LFB18
C:\Users\test\AppData\Local\Temp\ccDvGdW2.s:70     .text.gd32vf10x_uart_set_handler:0000000000000016 .LFE18
C:\Users\test\AppData\Local\Temp\ccDvGdW2.s:1692   .debug_loc:0000000000000000 .LLST3
C:\Users\test\AppData\Local\Temp\ccDvGdW2.s:1912   .debug_str:00000000000000ab .LASF82
C:\Users\test\AppData\Local\Temp\ccDvGdW2.s:2076   .debug_str:0000000000000562 .LASF97
C:\Users\test\AppData\Local\Temp\ccDvGdW2.s:2026   .debug_str:00000000000003fd .LASF83
C:\Users\test\AppData\Local\Temp\ccDvGdW2.s:1960   .debug_str:00000000000001b2 .LASF87
C:\Users\test\AppData\Local\Temp\ccDvGdW2.s:1904   .debug_str:0000000000000078 .LASF85
C:\Users\test\AppData\Local\Temp\ccDvGdW2.s:25     .text.gd32vf10x_uart_set_baud_rate:0000000000000000 .LFB15
C:\Users\test\AppData\Local\Temp\ccDvGdW2.s:33     .text.gd32vf10x_uart_set_baud_rate:0000000000000002 .LFE15
C:\Users\test\AppData\Local\Temp\ccDvGdW2.s:1706   .debug_loc:0000000000000021 .LLST1
C:\Users\test\AppData\Local\Temp\ccDvGdW2.s:2036   .debug_str:000000000000042e .LASF86
C:\Users\test\AppData\Local\Temp\ccDvGdW2.s:10     .text.gd32vf10x_uart_remove:0000000000000000 .LFB14
C:\Users\test\AppData\Local\Temp\ccDvGdW2.s:19     .text.gd32vf10x_uart_remove:0000000000000002 .LFE14
C:\Users\test\AppData\Local\Temp\ccDvGdW2.s:1720   .debug_loc:0000000000000042 .LLST0
C:\Users\test\AppData\Local\Temp\ccDvGdW2.s:1966   .debug_str:00000000000001f1 .LASF88
C:\Users\test\AppData\Local\Temp\ccDvGdW2.s:2066   .debug_str:000000000000051e .LASF89
C:\Users\test\AppData\Local\Temp\ccDvGdW2.s:258    .text.USART4_IRQHandler:0000000000000000 .LFB12
C:\Users\test\AppData\Local\Temp\ccDvGdW2.s:268    .text.USART4_IRQHandler:000000000000000a .LFE12
C:\Users\test\AppData\Local\Temp\ccDvGdW2.s:2062   .debug_str:00000000000004fa .LASF90
C:\Users\test\AppData\Local\Temp\ccDvGdW2.s:241    .text.USART3_IRQHandler:0000000000000000 .LFB11
C:\Users\test\AppData\Local\Temp\ccDvGdW2.s:251    .text.USART3_IRQHandler:000000000000000a .LFE11
C:\Users\test\AppData\Local\Temp\ccDvGdW2.s:2006   .debug_str:0000000000000386 .LASF91
C:\Users\test\AppData\Local\Temp\ccDvGdW2.s:224    .text.USART2_IRQHandler:0000000000000000 .LFB10
C:\Users\test\AppData\Local\Temp\ccDvGdW2.s:234    .text.USART2_IRQHandler:000000000000000a .LFE10
GAS LISTING C:\Users\test\AppData\Local\Temp\ccDvGdW2.s 			page 13


C:\Users\test\AppData\Local\Temp\ccDvGdW2.s:2044   .debug_str:000000000000046d .LASF92
C:\Users\test\AppData\Local\Temp\ccDvGdW2.s:207    .text.USART1_IRQHandler:0000000000000000 .LFB9
C:\Users\test\AppData\Local\Temp\ccDvGdW2.s:217    .text.USART1_IRQHandler:000000000000000a .LFE9
C:\Users\test\AppData\Local\Temp\ccDvGdW2.s:2038   .debug_str:0000000000000444 .LASF93
C:\Users\test\AppData\Local\Temp\ccDvGdW2.s:190    .text.USART0_IRQHandler:0000000000000000 .LFB8
C:\Users\test\AppData\Local\Temp\ccDvGdW2.s:200    .text.USART0_IRQHandler:000000000000000a .LFE8
C:\Users\test\AppData\Local\Temp\ccDvGdW2.s:39     .text.gd32vf10x_uart_poll_read:0000000000000000 .LFB16
C:\Users\test\AppData\Local\Temp\ccDvGdW2.s:47     .text.gd32vf10x_uart_poll_read:0000000000000002 .LFE16
C:\Users\test\AppData\Local\Temp\ccDvGdW2.s:1734   .debug_loc:0000000000000063 .LLST2
C:\Users\test\AppData\Local\Temp\ccDvGdW2.s:76     .text.gd32vf10x_uart_probe:0000000000000000 .LFB13
C:\Users\test\AppData\Local\Temp\ccDvGdW2.s:172    .text.gd32vf10x_uart_probe:000000000000005e .LFE13
C:\Users\test\AppData\Local\Temp\ccDvGdW2.s:1748   .debug_loc:0000000000000084 .LLST4
C:\Users\test\AppData\Local\Temp\ccDvGdW2.s:1776   .debug_loc:00000000000000c8 .LLST5
C:\Users\test\AppData\Local\Temp\ccDvGdW2.s:139    .text.gd32vf10x_uart_probe:0000000000000048 .LBB4
C:\Users\test\AppData\Local\Temp\ccDvGdW2.s:1805   .debug_loc:000000000000010d .LLST6
C:\Users\test\AppData\Local\Temp\ccDvGdW2.s:96     .text.gd32vf10x_uart_probe:0000000000000014 .LVL10
C:\Users\test\AppData\Local\Temp\ccDvGdW2.s:100    .text.gd32vf10x_uart_probe:0000000000000020 .LVL11
C:\Users\test\AppData\Local\Temp\ccDvGdW2.s:1964   .debug_str:00000000000001d9 .LASF98
C:\Users\test\AppData\Local\Temp\ccDvGdW2.s:56     .text.gd32vf10x_uart_set_handler:0000000000000000 .LVL6
C:\Users\test\AppData\Local\Temp\ccDvGdW2.s:60     .text.gd32vf10x_uart_set_handler:0000000000000004 .LVL7
C:\Users\test\AppData\Local\Temp\ccDvGdW2.s:28     .text.gd32vf10x_uart_set_baud_rate:0000000000000000 .LVL2
C:\Users\test\AppData\Local\Temp\ccDvGdW2.s:30     .text.gd32vf10x_uart_set_baud_rate:0000000000000000 .LVL3
C:\Users\test\AppData\Local\Temp\ccDvGdW2.s:14     .text.gd32vf10x_uart_remove:0000000000000000 .LVL0
C:\Users\test\AppData\Local\Temp\ccDvGdW2.s:16     .text.gd32vf10x_uart_remove:0000000000000000 .LVL1
C:\Users\test\AppData\Local\Temp\ccDvGdW2.s:42     .text.gd32vf10x_uart_poll_read:0000000000000000 .LVL4
C:\Users\test\AppData\Local\Temp\ccDvGdW2.s:44     .text.gd32vf10x_uart_poll_read:0000000000000000 .LVL5
C:\Users\test\AppData\Local\Temp\ccDvGdW2.s:83     .text.gd32vf10x_uart_probe:0000000000000002 .LCFI0
C:\Users\test\AppData\Local\Temp\ccDvGdW2.s:132    .text.gd32vf10x_uart_probe:0000000000000046 .LCFI1
C:\Users\test\AppData\Local\Temp\ccDvGdW2.s:137    .text.gd32vf10x_uart_probe:0000000000000048 .LCFI2
C:\Users\test\AppData\Local\Temp\ccDvGdW2.s:168    .text.gd32vf10x_uart_probe:000000000000005c .LCFI3
C:\Users\test\AppData\Local\Temp\ccDvGdW2.s:79     .text.gd32vf10x_uart_probe:0000000000000000 .LVL8
C:\Users\test\AppData\Local\Temp\ccDvGdW2.s:90     .text.gd32vf10x_uart_probe:000000000000000a .LVL9
C:\Users\test\AppData\Local\Temp\ccDvGdW2.s:130    .text.gd32vf10x_uart_probe:0000000000000044 .LVL12
C:\Users\test\AppData\Local\Temp\ccDvGdW2.s:135    .text.gd32vf10x_uart_probe:0000000000000048 .LVL13
C:\Users\test\AppData\Local\Temp\ccDvGdW2.s:152    .text.gd32vf10x_uart_probe:0000000000000052 .LVL14
C:\Users\test\AppData\Local\Temp\ccDvGdW2.s:161    .text.gd32vf10x_uart_probe:0000000000000058 .LVL15
C:\Users\test\AppData\Local\Temp\ccDvGdW2.s:299    .debug_info:0000000000000000 .Ldebug_info0
C:\Users\test\AppData\Local\Temp\ccDvGdW2.s:146    .text.gd32vf10x_uart_probe:000000000000004e .LBE4
C:\Users\test\AppData\Local\Temp\ccDvGdW2.s:153    .text.gd32vf10x_uart_probe:0000000000000052 .LBB7
C:\Users\test\AppData\Local\Temp\ccDvGdW2.s:165    .text.gd32vf10x_uart_probe:000000000000005a .LBE7

UNDEFINED SYMBOLS
rcu_periph_clock_enable
