GAS LISTING C:\Users\test\AppData\Local\Temp\ccMxCYS3.s 			page 1


   1              		.file	"gd32vf103_i2c.c"
   2              		.option nopic
   3              		.text
   4              	.Ltext0:
   5              		.cfi_sections	.debug_frame
   6              		.section	.text.i2c_deinit,"ax",@progbits
   7              		.align	1
   8              		.globl	i2c_deinit
  10              	i2c_deinit:
  11              	.LFB2:
  12              		.file 1 "arch/riscv/mach-gd32vf10x/bsp/gd32vf103_i2c.c"
   1:arch/riscv/mach-gd32vf10x/bsp/gd32vf103_i2c.c **** /*!
   2:arch/riscv/mach-gd32vf10x/bsp/gd32vf103_i2c.c ****     \file  gd32vf103_i2c.c
   3:arch/riscv/mach-gd32vf10x/bsp/gd32vf103_i2c.c ****     \brief I2C driver
   4:arch/riscv/mach-gd32vf10x/bsp/gd32vf103_i2c.c **** 
   5:arch/riscv/mach-gd32vf10x/bsp/gd32vf103_i2c.c ****     \version 2019-6-5, V1.0.0, firmware for GD32VF103
   6:arch/riscv/mach-gd32vf10x/bsp/gd32vf103_i2c.c **** */
   7:arch/riscv/mach-gd32vf10x/bsp/gd32vf103_i2c.c **** 
   8:arch/riscv/mach-gd32vf10x/bsp/gd32vf103_i2c.c **** /*
   9:arch/riscv/mach-gd32vf10x/bsp/gd32vf103_i2c.c ****     Copyright (c) 2019, GigaDevice Semiconductor Inc.
  10:arch/riscv/mach-gd32vf10x/bsp/gd32vf103_i2c.c **** 
  11:arch/riscv/mach-gd32vf10x/bsp/gd32vf103_i2c.c ****     Redistribution and use in source and binary forms, with or without modification, 
  12:arch/riscv/mach-gd32vf10x/bsp/gd32vf103_i2c.c **** are permitted provided that the following conditions are met:
  13:arch/riscv/mach-gd32vf10x/bsp/gd32vf103_i2c.c **** 
  14:arch/riscv/mach-gd32vf10x/bsp/gd32vf103_i2c.c ****     1. Redistributions of source code must retain the above copyright notice, this 
  15:arch/riscv/mach-gd32vf10x/bsp/gd32vf103_i2c.c ****        list of conditions and the following disclaimer.
  16:arch/riscv/mach-gd32vf10x/bsp/gd32vf103_i2c.c ****     2. Redistributions in binary form must reproduce the above copyright notice, 
  17:arch/riscv/mach-gd32vf10x/bsp/gd32vf103_i2c.c ****        this list of conditions and the following disclaimer in the documentation 
  18:arch/riscv/mach-gd32vf10x/bsp/gd32vf103_i2c.c ****        and/or other materials provided with the distribution.
  19:arch/riscv/mach-gd32vf10x/bsp/gd32vf103_i2c.c ****     3. Neither the name of the copyright holder nor the names of its contributors 
  20:arch/riscv/mach-gd32vf10x/bsp/gd32vf103_i2c.c ****        may be used to endorse or promote products derived from this software without 
  21:arch/riscv/mach-gd32vf10x/bsp/gd32vf103_i2c.c ****        specific prior written permission.
  22:arch/riscv/mach-gd32vf10x/bsp/gd32vf103_i2c.c **** 
  23:arch/riscv/mach-gd32vf10x/bsp/gd32vf103_i2c.c ****     THIS SOFTWARE IS PROVIDED BY THE COPYRIGHT HOLDERS AND CONTRIBUTORS "AS IS" 
  24:arch/riscv/mach-gd32vf10x/bsp/gd32vf103_i2c.c **** AND ANY EXPRESS OR IMPLIED WARRANTIES, INCLUDING, BUT NOT LIMITED TO, THE IMPLIED 
  25:arch/riscv/mach-gd32vf10x/bsp/gd32vf103_i2c.c **** WARRANTIES OF MERCHANTABILITY AND FITNESS FOR A PARTICULAR PURPOSE ARE DISCLAIMED. 
  26:arch/riscv/mach-gd32vf10x/bsp/gd32vf103_i2c.c **** IN NO EVENT SHALL THE COPYRIGHT HOLDER OR CONTRIBUTORS BE LIABLE FOR ANY DIRECT, 
  27:arch/riscv/mach-gd32vf10x/bsp/gd32vf103_i2c.c **** INDIRECT, INCIDENTAL, SPECIAL, EXEMPLARY, OR CONSEQUENTIAL DAMAGES (INCLUDING, BUT 
  28:arch/riscv/mach-gd32vf10x/bsp/gd32vf103_i2c.c **** NOT LIMITED TO, PROCUREMENT OF SUBSTITUTE GOODS OR SERVICES; LOSS OF USE, DATA, OR 
  29:arch/riscv/mach-gd32vf10x/bsp/gd32vf103_i2c.c **** PROFITS; OR BUSINESS INTERRUPTION) HOWEVER CAUSED AND ON ANY THEORY OF LIABILITY, 
  30:arch/riscv/mach-gd32vf10x/bsp/gd32vf103_i2c.c **** WHETHER IN CONTRACT, STRICT LIABILITY, OR TORT (INCLUDING NEGLIGENCE OR OTHERWISE) 
  31:arch/riscv/mach-gd32vf10x/bsp/gd32vf103_i2c.c **** ARISING IN ANY WAY OUT OF THE USE OF THIS SOFTWARE, EVEN IF ADVISED OF THE POSSIBILITY 
  32:arch/riscv/mach-gd32vf10x/bsp/gd32vf103_i2c.c **** OF SUCH DAMAGE.
  33:arch/riscv/mach-gd32vf10x/bsp/gd32vf103_i2c.c **** */
  34:arch/riscv/mach-gd32vf10x/bsp/gd32vf103_i2c.c **** 
  35:arch/riscv/mach-gd32vf10x/bsp/gd32vf103_i2c.c **** #include "gd32vf103_i2c.h"
  36:arch/riscv/mach-gd32vf10x/bsp/gd32vf103_i2c.c **** 
  37:arch/riscv/mach-gd32vf10x/bsp/gd32vf103_i2c.c **** /* I2C register bit mask */
  38:arch/riscv/mach-gd32vf10x/bsp/gd32vf103_i2c.c **** #define I2CCLK_MAX                    ((uint32_t)0x00000048U)             /*!< i2cclk maximum value
  39:arch/riscv/mach-gd32vf10x/bsp/gd32vf103_i2c.c **** #define I2CCLK_MIN                    ((uint32_t)0x00000002U)             /*!< i2cclk minimum value
  40:arch/riscv/mach-gd32vf10x/bsp/gd32vf103_i2c.c **** #define I2C_FLAG_MASK                 ((uint32_t)0x0000FFFFU)             /*!< i2c flag mask */
  41:arch/riscv/mach-gd32vf10x/bsp/gd32vf103_i2c.c **** #define I2C_ADDRESS_MASK              ((uint32_t)0x000003FFU)             /*!< i2c address mask */
  42:arch/riscv/mach-gd32vf10x/bsp/gd32vf103_i2c.c **** #define I2C_ADDRESS2_MASK             ((uint32_t)0x000000FEU)             /*!< the second i2c addre
  43:arch/riscv/mach-gd32vf10x/bsp/gd32vf103_i2c.c **** 
  44:arch/riscv/mach-gd32vf10x/bsp/gd32vf103_i2c.c **** /* I2C register bit offset */
  45:arch/riscv/mach-gd32vf10x/bsp/gd32vf103_i2c.c **** #define STAT1_PECV_OFFSET             ((uint32_t)8U)     /* bit offset of PECV in I2C_STAT1 */
  46:arch/riscv/mach-gd32vf10x/bsp/gd32vf103_i2c.c **** 
GAS LISTING C:\Users\test\AppData\Local\Temp\ccMxCYS3.s 			page 2


  47:arch/riscv/mach-gd32vf10x/bsp/gd32vf103_i2c.c **** /*!
  48:arch/riscv/mach-gd32vf10x/bsp/gd32vf103_i2c.c ****     \brief      reset I2C
  49:arch/riscv/mach-gd32vf10x/bsp/gd32vf103_i2c.c ****     \param[in]  i2c_periph: I2Cx(x=0,1)
  50:arch/riscv/mach-gd32vf10x/bsp/gd32vf103_i2c.c ****     \param[out] none
  51:arch/riscv/mach-gd32vf10x/bsp/gd32vf103_i2c.c ****     \retval     none
  52:arch/riscv/mach-gd32vf10x/bsp/gd32vf103_i2c.c ****  */
  53:arch/riscv/mach-gd32vf10x/bsp/gd32vf103_i2c.c **** void i2c_deinit(uint32_t i2c_periph) 
  54:arch/riscv/mach-gd32vf10x/bsp/gd32vf103_i2c.c **** {
  13              		.loc 1 54 1
  14              		.cfi_startproc
  15              	.LVL0:
  55:arch/riscv/mach-gd32vf10x/bsp/gd32vf103_i2c.c ****     switch (i2c_periph) {
  16              		.loc 1 55 5
  54:arch/riscv/mach-gd32vf10x/bsp/gd32vf103_i2c.c ****     switch (i2c_periph) {
  17              		.loc 1 54 1 is_stmt 0
  18 0000 4111     		addi	sp,sp,-16
  19              	.LCFI0:
  20              		.cfi_def_cfa_offset 16
  21              		.loc 1 55 5
  22 0002 B7570040 		li	a5,1073762304
  54:arch/riscv/mach-gd32vf10x/bsp/gd32vf103_i2c.c ****     switch (i2c_periph) {
  23              		.loc 1 54 1
  24 0006 06C6     		sw	ra,12(sp)
  25              		.cfi_offset 1, -4
  26              		.loc 1 55 5
  27 0008 93870740 		addi	a5,a5,1024
  28 000c 630BF500 		beq	a0,a5,.L2
  29 0010 B7670040 		li	a5,1073766400
  30 0014 93870780 		addi	a5,a5,-2048
  31 0018 6303F502 		beq	a0,a5,.L3
  56:arch/riscv/mach-gd32vf10x/bsp/gd32vf103_i2c.c ****     case I2C0:
  57:arch/riscv/mach-gd32vf10x/bsp/gd32vf103_i2c.c ****         /* reset I2C0 */
  58:arch/riscv/mach-gd32vf10x/bsp/gd32vf103_i2c.c ****         rcu_periph_reset_enable(RCU_I2C0RST);
  59:arch/riscv/mach-gd32vf10x/bsp/gd32vf103_i2c.c ****         rcu_periph_reset_disable(RCU_I2C0RST);
  60:arch/riscv/mach-gd32vf10x/bsp/gd32vf103_i2c.c ****         break;
  61:arch/riscv/mach-gd32vf10x/bsp/gd32vf103_i2c.c ****     case I2C1:
  62:arch/riscv/mach-gd32vf10x/bsp/gd32vf103_i2c.c ****         /* reset I2C1 */
  63:arch/riscv/mach-gd32vf10x/bsp/gd32vf103_i2c.c ****         rcu_periph_reset_enable(RCU_I2C1RST);
  64:arch/riscv/mach-gd32vf10x/bsp/gd32vf103_i2c.c ****         rcu_periph_reset_disable(RCU_I2C1RST);
  65:arch/riscv/mach-gd32vf10x/bsp/gd32vf103_i2c.c ****         break;
  66:arch/riscv/mach-gd32vf10x/bsp/gd32vf103_i2c.c ****     default:
  67:arch/riscv/mach-gd32vf10x/bsp/gd32vf103_i2c.c ****         break;
  68:arch/riscv/mach-gd32vf10x/bsp/gd32vf103_i2c.c ****     }
  69:arch/riscv/mach-gd32vf10x/bsp/gd32vf103_i2c.c **** }
  32              		.loc 1 69 1
  33 001c B240     		lw	ra,12(sp)
  34              		.cfi_remember_state
  35              		.cfi_restore 1
  36 001e 4101     		addi	sp,sp,16
  37              	.LCFI1:
  38              		.cfi_def_cfa_offset 0
  39 0020 8280     		jr	ra
  40              	.L2:
  41              	.LCFI2:
  42              		.cfi_restore_state
  58:arch/riscv/mach-gd32vf10x/bsp/gd32vf103_i2c.c ****         rcu_periph_reset_disable(RCU_I2C0RST);
  43              		.loc 1 58 9 is_stmt 1
GAS LISTING C:\Users\test\AppData\Local\Temp\ccMxCYS3.s 			page 3


  44 0022 13055041 		li	a0,1045
  45              	.LVL1:
  46 0026 97000000 		call	rcu_periph_reset_enable
  46      E7800000 
  47              	.LVL2:
  59:arch/riscv/mach-gd32vf10x/bsp/gd32vf103_i2c.c ****         break;
  48              		.loc 1 59 9
  49              		.loc 1 69 1 is_stmt 0
  50 002e B240     		lw	ra,12(sp)
  51              		.cfi_remember_state
  52              		.cfi_restore 1
  59:arch/riscv/mach-gd32vf10x/bsp/gd32vf103_i2c.c ****         break;
  53              		.loc 1 59 9
  54 0030 13055041 		li	a0,1045
  55              		.loc 1 69 1
  56 0034 4101     		addi	sp,sp,16
  57              	.LCFI3:
  58              		.cfi_def_cfa_offset 0
  59:arch/riscv/mach-gd32vf10x/bsp/gd32vf103_i2c.c ****         break;
  59              		.loc 1 59 9
  60 0036 17030000 		tail	rcu_periph_reset_disable
  60      67000300 
  61              	.LVL3:
  62              	.L3:
  63              	.LCFI4:
  64              		.cfi_restore_state
  63:arch/riscv/mach-gd32vf10x/bsp/gd32vf103_i2c.c ****         rcu_periph_reset_disable(RCU_I2C1RST);
  65              		.loc 1 63 9 is_stmt 1
  66 003e 13056041 		li	a0,1046
  67              	.LVL4:
  68 0042 97000000 		call	rcu_periph_reset_enable
  68      E7800000 
  69              	.LVL5:
  64:arch/riscv/mach-gd32vf10x/bsp/gd32vf103_i2c.c ****         break;
  70              		.loc 1 64 9
  71              		.loc 1 69 1 is_stmt 0
  72 004a B240     		lw	ra,12(sp)
  73              		.cfi_restore 1
  64:arch/riscv/mach-gd32vf10x/bsp/gd32vf103_i2c.c ****         break;
  74              		.loc 1 64 9
  75 004c 13056041 		li	a0,1046
  76              		.loc 1 69 1
  77 0050 4101     		addi	sp,sp,16
  78              	.LCFI5:
  79              		.cfi_def_cfa_offset 0
  64:arch/riscv/mach-gd32vf10x/bsp/gd32vf103_i2c.c ****         break;
  80              		.loc 1 64 9
  81 0052 17030000 		tail	rcu_periph_reset_disable
  81      67000300 
  82              	.LVL6:
  83              		.cfi_endproc
  84              	.LFE2:
  86              		.section	.text.i2c_clock_config,"ax",@progbits
  87              		.align	1
  88              		.globl	i2c_clock_config
  90              	i2c_clock_config:
  91              	.LFB3:
GAS LISTING C:\Users\test\AppData\Local\Temp\ccMxCYS3.s 			page 4


  70:arch/riscv/mach-gd32vf10x/bsp/gd32vf103_i2c.c **** 
  71:arch/riscv/mach-gd32vf10x/bsp/gd32vf103_i2c.c **** /*!
  72:arch/riscv/mach-gd32vf10x/bsp/gd32vf103_i2c.c ****     \brief      configure I2C clock
  73:arch/riscv/mach-gd32vf10x/bsp/gd32vf103_i2c.c ****     \param[in]  i2c_periph: I2Cx(x=0,1)
  74:arch/riscv/mach-gd32vf10x/bsp/gd32vf103_i2c.c ****     \param[in]  clkspeed: I2C clock speed, supports standard mode (up to 100 kHz), fast mode (up to
  75:arch/riscv/mach-gd32vf10x/bsp/gd32vf103_i2c.c ****     \param[in]  dutycyc: duty cycle in fast mode
  76:arch/riscv/mach-gd32vf10x/bsp/gd32vf103_i2c.c ****                 only one parameter can be selected which is shown as below:
  77:arch/riscv/mach-gd32vf10x/bsp/gd32vf103_i2c.c ****     \arg        I2C_DTCY_2: T_low/T_high=2 
  78:arch/riscv/mach-gd32vf10x/bsp/gd32vf103_i2c.c ****     \arg        I2C_DTCY_16_9: T_low/T_high=16/9
  79:arch/riscv/mach-gd32vf10x/bsp/gd32vf103_i2c.c ****     \param[out] none
  80:arch/riscv/mach-gd32vf10x/bsp/gd32vf103_i2c.c ****     \retval     none
  81:arch/riscv/mach-gd32vf10x/bsp/gd32vf103_i2c.c ****  */
  82:arch/riscv/mach-gd32vf10x/bsp/gd32vf103_i2c.c **** void i2c_clock_config(uint32_t i2c_periph, uint32_t clkspeed, uint32_t dutycyc) 
  83:arch/riscv/mach-gd32vf10x/bsp/gd32vf103_i2c.c **** {
  92              		.loc 1 83 1 is_stmt 1
  93              		.cfi_startproc
  94              	.LVL7:
  84:arch/riscv/mach-gd32vf10x/bsp/gd32vf103_i2c.c ****     uint32_t pclk1, clkc, freq, risetime;
  95              		.loc 1 84 5
  85:arch/riscv/mach-gd32vf10x/bsp/gd32vf103_i2c.c ****     uint32_t temp;
  96              		.loc 1 85 5
  86:arch/riscv/mach-gd32vf10x/bsp/gd32vf103_i2c.c **** 
  87:arch/riscv/mach-gd32vf10x/bsp/gd32vf103_i2c.c ****     pclk1 = rcu_clock_freq_get(CK_APB1);
  97              		.loc 1 87 5
  83:arch/riscv/mach-gd32vf10x/bsp/gd32vf103_i2c.c ****     uint32_t pclk1, clkc, freq, risetime;
  98              		.loc 1 83 1 is_stmt 0
  99 0000 4111     		addi	sp,sp,-16
 100              	.LCFI6:
 101              		.cfi_def_cfa_offset 16
 102 0002 26C2     		sw	s1,4(sp)
 103              		.cfi_offset 9, -12
 104 0004 AA84     		mv	s1,a0
 105              		.loc 1 87 13
 106 0006 0945     		li	a0,2
 107              	.LVL8:
  83:arch/riscv/mach-gd32vf10x/bsp/gd32vf103_i2c.c ****     uint32_t pclk1, clkc, freq, risetime;
 108              		.loc 1 83 1
 109 0008 22C4     		sw	s0,8(sp)
 110 000a 4AC0     		sw	s2,0(sp)
 111 000c 06C6     		sw	ra,12(sp)
 112              		.cfi_offset 8, -8
 113              		.cfi_offset 18, -16
 114              		.cfi_offset 1, -4
  83:arch/riscv/mach-gd32vf10x/bsp/gd32vf103_i2c.c ****     uint32_t pclk1, clkc, freq, risetime;
 115              		.loc 1 83 1
 116 000e 2E84     		mv	s0,a1
 117 0010 3289     		mv	s2,a2
 118              		.loc 1 87 13
 119 0012 97000000 		call	rcu_clock_freq_get
 119      E7800000 
 120              	.LVL9:
  88:arch/riscv/mach-gd32vf10x/bsp/gd32vf103_i2c.c ****     /* I2C peripheral clock frequency */
  89:arch/riscv/mach-gd32vf10x/bsp/gd32vf103_i2c.c ****     freq = (uint32_t) (pclk1 / 1000000U);
 121              		.loc 1 89 5 is_stmt 1
 122              		.loc 1 89 10 is_stmt 0
 123 001a B7470F00 		li	a5,999424
  90:arch/riscv/mach-gd32vf10x/bsp/gd32vf103_i2c.c ****     if (freq >= I2CCLK_MAX) {
GAS LISTING C:\Users\test\AppData\Local\Temp\ccMxCYS3.s 			page 5


 124              		.loc 1 90 8
 125 001e 37A74A04 		li	a4,71999488
  89:arch/riscv/mach-gd32vf10x/bsp/gd32vf103_i2c.c ****     if (freq >= I2CCLK_MAX) {
 126              		.loc 1 89 10
 127 0022 93870724 		addi	a5,a5,576
 128              		.loc 1 90 8
 129 0026 1307F71F 		addi	a4,a4,511
  89:arch/riscv/mach-gd32vf10x/bsp/gd32vf103_i2c.c ****     if (freq >= I2CCLK_MAX) {
 130              		.loc 1 89 10
 131 002a B357F502 		divu	a5,a0,a5
 132              	.LVL10:
 133              		.loc 1 90 5 is_stmt 1
  91:arch/riscv/mach-gd32vf10x/bsp/gd32vf103_i2c.c ****         freq = I2CCLK_MAX;
 134              		.loc 1 91 14 is_stmt 0
 135 002e 93068004 		li	a3,72
  90:arch/riscv/mach-gd32vf10x/bsp/gd32vf103_i2c.c ****     if (freq >= I2CCLK_MAX) {
 136              		.loc 1 90 8
 137 0032 6363A700 		bgtu	a0,a4,.L9
 138 0036 BE86     		mv	a3,a5
 139              	.L9:
 140              	.LVL11:
  92:arch/riscv/mach-gd32vf10x/bsp/gd32vf103_i2c.c ****     }
  93:arch/riscv/mach-gd32vf10x/bsp/gd32vf103_i2c.c ****     temp = I2C_CTL1(i2c_periph);
 141              		.loc 1 93 5 is_stmt 1
 142              		.loc 1 93 10 is_stmt 0
 143 0038 D840     		lw	a4,4(s1)
 144              	.LVL12:
  94:arch/riscv/mach-gd32vf10x/bsp/gd32vf103_i2c.c ****     temp &= ~I2C_CTL1_I2CCLK;
 145              		.loc 1 94 5 is_stmt 1
  95:arch/riscv/mach-gd32vf10x/bsp/gd32vf103_i2c.c ****     temp |= freq;
  96:arch/riscv/mach-gd32vf10x/bsp/gd32vf103_i2c.c **** 
  97:arch/riscv/mach-gd32vf10x/bsp/gd32vf103_i2c.c ****     I2C_CTL1(i2c_periph) = temp;
  98:arch/riscv/mach-gd32vf10x/bsp/gd32vf103_i2c.c **** 
  99:arch/riscv/mach-gd32vf10x/bsp/gd32vf103_i2c.c ****     if (100000U >= clkspeed) {
 146              		.loc 1 99 8 is_stmt 0
 147 003a 6166     		li	a2,98304
 148 003c 1306066A 		addi	a2,a2,1696
  94:arch/riscv/mach-gd32vf10x/bsp/gd32vf103_i2c.c ****     temp &= ~I2C_CTL1_I2CCLK;
 149              		.loc 1 94 10
 150 0040 137707FC 		andi	a4,a4,-64
 151              	.LVL13:
  95:arch/riscv/mach-gd32vf10x/bsp/gd32vf103_i2c.c ****     temp |= freq;
 152              		.loc 1 95 5 is_stmt 1
  95:arch/riscv/mach-gd32vf10x/bsp/gd32vf103_i2c.c ****     temp |= freq;
 153              		.loc 1 95 10 is_stmt 0
 154 0044 558F     		or	a4,a3,a4
 155              	.LVL14:
  97:arch/riscv/mach-gd32vf10x/bsp/gd32vf103_i2c.c **** 
 156              		.loc 1 97 5 is_stmt 1
  97:arch/riscv/mach-gd32vf10x/bsp/gd32vf103_i2c.c **** 
 157              		.loc 1 97 26 is_stmt 0
 158 0046 D8C0     		sw	a4,4(s1)
 159              		.loc 1 99 5 is_stmt 1
 160              		.loc 1 99 8 is_stmt 0
 161 0048 63618604 		bgtu	s0,a2,.L10
 100:arch/riscv/mach-gd32vf10x/bsp/gd32vf103_i2c.c ****         /* the maximum SCL rise time is 1000ns in standard mode */
 101:arch/riscv/mach-gd32vf10x/bsp/gd32vf103_i2c.c ****         risetime = (uint32_t) ((pclk1 / 1000000U) + 1U);
GAS LISTING C:\Users\test\AppData\Local\Temp\ccMxCYS3.s 			page 6


 162              		.loc 1 101 9 is_stmt 1
 163              		.loc 1 101 18 is_stmt 0
 164 004c 8507     		addi	a5,a5,1
 165              	.LVL15:
 102:arch/riscv/mach-gd32vf10x/bsp/gd32vf103_i2c.c ****         if (risetime >= I2CCLK_MAX) {
 166              		.loc 1 102 9 is_stmt 1
 167              		.loc 1 102 12 is_stmt 0
 168 004e 13077004 		li	a4,71
 169              	.LVL16:
 170 0052 6377F702 		bleu	a5,a4,.L11
 103:arch/riscv/mach-gd32vf10x/bsp/gd32vf103_i2c.c ****             I2C_RT(i2c_periph) = I2CCLK_MAX;
 171              		.loc 1 103 13 is_stmt 1
 172              		.loc 1 103 32 is_stmt 0
 173 0056 93078004 		li	a5,72
 174              	.LVL17:
 175 005a 9CD0     		sw	a5,32(s1)
 176              	.LVL18:
 177              	.L12:
 104:arch/riscv/mach-gd32vf10x/bsp/gd32vf103_i2c.c ****         } else if (risetime <= I2CCLK_MIN) {
 105:arch/riscv/mach-gd32vf10x/bsp/gd32vf103_i2c.c ****             I2C_RT(i2c_periph) = I2CCLK_MIN;
 106:arch/riscv/mach-gd32vf10x/bsp/gd32vf103_i2c.c ****         } else {
 107:arch/riscv/mach-gd32vf10x/bsp/gd32vf103_i2c.c ****             I2C_RT(i2c_periph) = risetime;
 108:arch/riscv/mach-gd32vf10x/bsp/gd32vf103_i2c.c ****         }
 109:arch/riscv/mach-gd32vf10x/bsp/gd32vf103_i2c.c ****         clkc = (uint32_t) (pclk1 / (clkspeed * 2U));
 178              		.loc 1 109 9 is_stmt 1
 179              		.loc 1 109 46 is_stmt 0
 180 005c 0604     		slli	s0,s0,1
 181              	.LVL19:
 110:arch/riscv/mach-gd32vf10x/bsp/gd32vf103_i2c.c ****         if (clkc < 0x04U) {
 182              		.loc 1 110 9 is_stmt 1
 111:arch/riscv/mach-gd32vf10x/bsp/gd32vf103_i2c.c ****             /* the CLKC in standard mode minmum value is 4 */
 112:arch/riscv/mach-gd32vf10x/bsp/gd32vf103_i2c.c ****             clkc = 0x04U;
 113:arch/riscv/mach-gd32vf10x/bsp/gd32vf103_i2c.c ****         }
 114:arch/riscv/mach-gd32vf10x/bsp/gd32vf103_i2c.c ****         I2C_CKCFG(i2c_periph) |= (I2C_CKCFG_CLKC & clkc);
 183              		.loc 1 114 9
 184              		.loc 1 114 50 is_stmt 0
 185 005e 9147     		li	a5,4
 186 0060 33558502 		divu	a0,a0,s0
 187              	.LVL20:
 188              		.loc 1 114 31
 189 0064 C04C     		lw	s0,28(s1)
 190              		.loc 1 114 50
 191 0066 6373F500 		bgeu	a0,a5,.L14
 192 006a 1145     		li	a0,4
 193              	.LVL21:
 194              	.L14:
 195 006c 5205     		slli	a0,a0,20
 196 006e 5181     		srli	a0,a0,20
 197              		.loc 1 114 31
 198 0070 418D     		or	a0,a0,s0
 199 0072 C8CC     		sw	a0,28(s1)
 200              	.L8:
 115:arch/riscv/mach-gd32vf10x/bsp/gd32vf103_i2c.c **** 
 116:arch/riscv/mach-gd32vf10x/bsp/gd32vf103_i2c.c ****     } else if (400000U >= clkspeed) {
 117:arch/riscv/mach-gd32vf10x/bsp/gd32vf103_i2c.c ****         /* the maximum SCL rise time is 300ns in fast mode */
 118:arch/riscv/mach-gd32vf10x/bsp/gd32vf103_i2c.c ****         I2C_RT(i2c_periph) = (uint32_t) (((freq * (uint32_t) 300U)
 119:arch/riscv/mach-gd32vf10x/bsp/gd32vf103_i2c.c ****                 / (uint32_t) 1000U) + (uint32_t) 1U);
GAS LISTING C:\Users\test\AppData\Local\Temp\ccMxCYS3.s 			page 7


 120:arch/riscv/mach-gd32vf10x/bsp/gd32vf103_i2c.c ****         if (I2C_DTCY_2 == dutycyc) {
 121:arch/riscv/mach-gd32vf10x/bsp/gd32vf103_i2c.c ****             /* I2C duty cycle is 2 */
 122:arch/riscv/mach-gd32vf10x/bsp/gd32vf103_i2c.c ****             clkc = (uint32_t) (pclk1 / (clkspeed * 3U));
 123:arch/riscv/mach-gd32vf10x/bsp/gd32vf103_i2c.c ****             I2C_CKCFG(i2c_periph) &= ~I2C_CKCFG_DTCY;
 124:arch/riscv/mach-gd32vf10x/bsp/gd32vf103_i2c.c ****         } else {
 125:arch/riscv/mach-gd32vf10x/bsp/gd32vf103_i2c.c ****             /* I2C duty cycle is 16/9 */
 126:arch/riscv/mach-gd32vf10x/bsp/gd32vf103_i2c.c ****             clkc = (uint32_t) (pclk1 / (clkspeed * 25U));
 127:arch/riscv/mach-gd32vf10x/bsp/gd32vf103_i2c.c ****             I2C_CKCFG(i2c_periph) |= I2C_CKCFG_DTCY;
 128:arch/riscv/mach-gd32vf10x/bsp/gd32vf103_i2c.c ****         }
 129:arch/riscv/mach-gd32vf10x/bsp/gd32vf103_i2c.c ****         if (0U == (clkc & I2C_CKCFG_CLKC)) {
 130:arch/riscv/mach-gd32vf10x/bsp/gd32vf103_i2c.c ****             /* the CLKC in fast mode minmum value is 1 */
 131:arch/riscv/mach-gd32vf10x/bsp/gd32vf103_i2c.c ****             clkc |= 0x0001U;
 132:arch/riscv/mach-gd32vf10x/bsp/gd32vf103_i2c.c ****         }
 133:arch/riscv/mach-gd32vf10x/bsp/gd32vf103_i2c.c ****         I2C_CKCFG(i2c_periph) |= I2C_CKCFG_FAST;
 134:arch/riscv/mach-gd32vf10x/bsp/gd32vf103_i2c.c ****         I2C_CKCFG(i2c_periph) |= clkc;
 135:arch/riscv/mach-gd32vf10x/bsp/gd32vf103_i2c.c ****     } else {
 136:arch/riscv/mach-gd32vf10x/bsp/gd32vf103_i2c.c ****     }
 137:arch/riscv/mach-gd32vf10x/bsp/gd32vf103_i2c.c **** }
 201              		.loc 1 137 1
 202 0074 B240     		lw	ra,12(sp)
 203              		.cfi_remember_state
 204              		.cfi_restore 1
 205 0076 2244     		lw	s0,8(sp)
 206              		.cfi_restore 8
 207 0078 9244     		lw	s1,4(sp)
 208              		.cfi_restore 9
 209              	.LVL22:
 210 007a 0249     		lw	s2,0(sp)
 211              		.cfi_restore 18
 212              	.LVL23:
 213 007c 4101     		addi	sp,sp,16
 214              	.LCFI7:
 215              		.cfi_def_cfa_offset 0
 216 007e 8280     		jr	ra
 217              	.LVL24:
 218              	.L11:
 219              	.LCFI8:
 220              		.cfi_restore_state
 104:arch/riscv/mach-gd32vf10x/bsp/gd32vf103_i2c.c ****             I2C_RT(i2c_periph) = I2CCLK_MIN;
 221              		.loc 1 104 16 is_stmt 1
 104:arch/riscv/mach-gd32vf10x/bsp/gd32vf103_i2c.c ****             I2C_RT(i2c_periph) = I2CCLK_MIN;
 222              		.loc 1 104 19 is_stmt 0
 223 0080 0947     		li	a4,2
 224 0082 636EF706 		bgtu	a5,a4,.L13
 105:arch/riscv/mach-gd32vf10x/bsp/gd32vf103_i2c.c ****         } else {
 225              		.loc 1 105 13 is_stmt 1
 105:arch/riscv/mach-gd32vf10x/bsp/gd32vf103_i2c.c ****         } else {
 226              		.loc 1 105 32 is_stmt 0
 227 0086 98D0     		sw	a4,32(s1)
 228              	.LVL25:
 229 0088 D1BF     		j	.L12
 230              	.LVL26:
 231              	.L10:
 116:arch/riscv/mach-gd32vf10x/bsp/gd32vf103_i2c.c ****         /* the maximum SCL rise time is 300ns in fast mode */
 232              		.loc 1 116 12 is_stmt 1
 116:arch/riscv/mach-gd32vf10x/bsp/gd32vf103_i2c.c ****         /* the maximum SCL rise time is 300ns in fast mode */
 233              		.loc 1 116 15 is_stmt 0
GAS LISTING C:\Users\test\AppData\Local\Temp\ccMxCYS3.s 			page 8


 234 008a B7270600 		li	a5,401408
 235 008e 938707A8 		addi	a5,a5,-1408
 236 0092 E3E187FE 		bgtu	s0,a5,.L8
 118:arch/riscv/mach-gd32vf10x/bsp/gd32vf103_i2c.c ****                 / (uint32_t) 1000U) + (uint32_t) 1U);
 237              		.loc 1 118 9 is_stmt 1
 118:arch/riscv/mach-gd32vf10x/bsp/gd32vf103_i2c.c ****                 / (uint32_t) 1000U) + (uint32_t) 1U);
 238              		.loc 1 118 49 is_stmt 0
 239 0096 9307C012 		li	a5,300
 240 009a B386F602 		mul	a3,a3,a5
 241              	.LVL27:
 119:arch/riscv/mach-gd32vf10x/bsp/gd32vf103_i2c.c ****         if (I2C_DTCY_2 == dutycyc) {
 242              		.loc 1 119 17
 243 009e 9307803E 		li	a5,1000
 122:arch/riscv/mach-gd32vf10x/bsp/gd32vf103_i2c.c ****             I2C_CKCFG(i2c_periph) &= ~I2C_CKCFG_DTCY;
 244              		.loc 1 122 50
 245 00a2 93151400 		slli	a1,s0,1
 119:arch/riscv/mach-gd32vf10x/bsp/gd32vf103_i2c.c ****         if (I2C_DTCY_2 == dutycyc) {
 246              		.loc 1 119 17
 247 00a6 B3D6F602 		divu	a3,a3,a5
 118:arch/riscv/mach-gd32vf10x/bsp/gd32vf103_i2c.c ****                 / (uint32_t) 1000U) + (uint32_t) 1U);
 248              		.loc 1 118 30
 249 00aa 8506     		addi	a3,a3,1
 118:arch/riscv/mach-gd32vf10x/bsp/gd32vf103_i2c.c ****                 / (uint32_t) 1000U) + (uint32_t) 1U);
 250              		.loc 1 118 28
 251 00ac 94D0     		sw	a3,32(s1)
 120:arch/riscv/mach-gd32vf10x/bsp/gd32vf103_i2c.c ****             /* I2C duty cycle is 2 */
 252              		.loc 1 120 9 is_stmt 1
 120:arch/riscv/mach-gd32vf10x/bsp/gd32vf103_i2c.c ****             /* I2C duty cycle is 2 */
 253              		.loc 1 120 12 is_stmt 0
 254 00ae 631D0902 		bne	s2,zero,.L16
 122:arch/riscv/mach-gd32vf10x/bsp/gd32vf103_i2c.c ****             I2C_CKCFG(i2c_periph) &= ~I2C_CKCFG_DTCY;
 255              		.loc 1 122 13 is_stmt 1
 122:arch/riscv/mach-gd32vf10x/bsp/gd32vf103_i2c.c ****             I2C_CKCFG(i2c_periph) &= ~I2C_CKCFG_DTCY;
 256              		.loc 1 122 50 is_stmt 0
 257 00b2 2E94     		add	s0,a1,s0
 258              	.LVL28:
 122:arch/riscv/mach-gd32vf10x/bsp/gd32vf103_i2c.c ****             I2C_CKCFG(i2c_periph) &= ~I2C_CKCFG_DTCY;
 259              		.loc 1 122 18
 260 00b4 33558502 		divu	a0,a0,s0
 261              	.LVL29:
 123:arch/riscv/mach-gd32vf10x/bsp/gd32vf103_i2c.c ****         } else {
 262              		.loc 1 123 13 is_stmt 1
 123:arch/riscv/mach-gd32vf10x/bsp/gd32vf103_i2c.c ****         } else {
 263              		.loc 1 123 35 is_stmt 0
 264 00b8 DC4C     		lw	a5,28(s1)
 265 00ba 7177     		li	a4,-16384
 266              	.LVL30:
 267 00bc 7D17     		addi	a4,a4,-1
 268 00be F98F     		and	a5,a5,a4
 269 00c0 DCCC     		sw	a5,28(s1)
 270 00c2 93174501 		slli	a5,a0,20
 271 00c6 D183     		srli	a5,a5,20
 272              	.L17:
 129:arch/riscv/mach-gd32vf10x/bsp/gd32vf103_i2c.c ****             /* the CLKC in fast mode minmum value is 1 */
 273              		.loc 1 129 9 is_stmt 1
 129:arch/riscv/mach-gd32vf10x/bsp/gd32vf103_i2c.c ****             /* the CLKC in fast mode minmum value is 1 */
 274              		.loc 1 129 12 is_stmt 0
GAS LISTING C:\Users\test\AppData\Local\Temp\ccMxCYS3.s 			page 9


 275 00c8 99E3     		bne	a5,zero,.L18
 131:arch/riscv/mach-gd32vf10x/bsp/gd32vf103_i2c.c ****         }
 276              		.loc 1 131 13 is_stmt 1
 131:arch/riscv/mach-gd32vf10x/bsp/gd32vf103_i2c.c ****         }
 277              		.loc 1 131 18 is_stmt 0
 278 00ca 13651500 		ori	a0,a0,1
 279              	.LVL31:
 280              	.L18:
 133:arch/riscv/mach-gd32vf10x/bsp/gd32vf103_i2c.c ****         I2C_CKCFG(i2c_periph) |= clkc;
 281              		.loc 1 133 9 is_stmt 1
 133:arch/riscv/mach-gd32vf10x/bsp/gd32vf103_i2c.c ****         I2C_CKCFG(i2c_periph) |= clkc;
 282              		.loc 1 133 31 is_stmt 0
 283 00ce DC4C     		lw	a5,28(s1)
 284 00d0 2167     		li	a4,32768
 285              		.loc 1 137 1
 286 00d2 B240     		lw	ra,12(sp)
 287              		.cfi_remember_state
 288              		.cfi_restore 1
 133:arch/riscv/mach-gd32vf10x/bsp/gd32vf103_i2c.c ****         I2C_CKCFG(i2c_periph) |= clkc;
 289              		.loc 1 133 31
 290 00d4 D98F     		or	a5,a5,a4
 291 00d6 DCCC     		sw	a5,28(s1)
 134:arch/riscv/mach-gd32vf10x/bsp/gd32vf103_i2c.c ****     } else {
 292              		.loc 1 134 9 is_stmt 1
 134:arch/riscv/mach-gd32vf10x/bsp/gd32vf103_i2c.c ****     } else {
 293              		.loc 1 134 31 is_stmt 0
 294 00d8 C04C     		lw	s0,28(s1)
 295              		.loc 1 137 1
 296 00da 0249     		lw	s2,0(sp)
 297              		.cfi_restore 18
 298              	.LVL32:
 134:arch/riscv/mach-gd32vf10x/bsp/gd32vf103_i2c.c ****     } else {
 299              		.loc 1 134 31
 300 00dc 418D     		or	a0,s0,a0
 301              	.LVL33:
 302              		.loc 1 137 1
 303 00de 2244     		lw	s0,8(sp)
 304              		.cfi_restore 8
 134:arch/riscv/mach-gd32vf10x/bsp/gd32vf103_i2c.c ****     } else {
 305              		.loc 1 134 31
 306 00e0 C8CC     		sw	a0,28(s1)
 136:arch/riscv/mach-gd32vf10x/bsp/gd32vf103_i2c.c **** }
 307              		.loc 1 136 5 is_stmt 1
 308              		.loc 1 137 1 is_stmt 0
 309 00e2 9244     		lw	s1,4(sp)
 310              		.cfi_restore 9
 311              	.LVL34:
 312 00e4 4101     		addi	sp,sp,16
 313              	.LCFI9:
 314              		.cfi_def_cfa_offset 0
 315 00e6 8280     		jr	ra
 316              	.LVL35:
 317              	.L16:
 318              	.LCFI10:
 319              		.cfi_restore_state
 126:arch/riscv/mach-gd32vf10x/bsp/gd32vf103_i2c.c ****             I2C_CKCFG(i2c_periph) |= I2C_CKCFG_DTCY;
 320              		.loc 1 126 13 is_stmt 1
GAS LISTING C:\Users\test\AppData\Local\Temp\ccMxCYS3.s 			page 10


 126:arch/riscv/mach-gd32vf10x/bsp/gd32vf103_i2c.c ****             I2C_CKCFG(i2c_periph) |= I2C_CKCFG_DTCY;
 321              		.loc 1 126 50 is_stmt 0
 322 00e8 A295     		add	a1,a1,s0
 323 00ea 8E05     		slli	a1,a1,3
 324 00ec 2E94     		add	s0,a1,s0
 325              	.LVL36:
 126:arch/riscv/mach-gd32vf10x/bsp/gd32vf103_i2c.c ****             I2C_CKCFG(i2c_periph) |= I2C_CKCFG_DTCY;
 326              		.loc 1 126 18
 327 00ee 33558502 		divu	a0,a0,s0
 328              	.LVL37:
 127:arch/riscv/mach-gd32vf10x/bsp/gd32vf103_i2c.c ****         }
 329              		.loc 1 127 13 is_stmt 1
 127:arch/riscv/mach-gd32vf10x/bsp/gd32vf103_i2c.c ****         }
 330              		.loc 1 127 35 is_stmt 0
 331 00f2 DC4C     		lw	a5,28(s1)
 332 00f4 1167     		li	a4,16384
 333              	.LVL38:
 334 00f6 D98F     		or	a5,a5,a4
 335 00f8 DCCC     		sw	a5,28(s1)
 336 00fa AA87     		mv	a5,a0
 337 00fc F1B7     		j	.L17
 338              	.LVL39:
 339              	.L13:
 107:arch/riscv/mach-gd32vf10x/bsp/gd32vf103_i2c.c ****         }
 340              		.loc 1 107 13 is_stmt 1
 107:arch/riscv/mach-gd32vf10x/bsp/gd32vf103_i2c.c ****         }
 341              		.loc 1 107 32 is_stmt 0
 342 00fe 9CD0     		sw	a5,32(s1)
 343              	.LVL40:
 344 0100 B1BF     		j	.L12
 345              		.cfi_endproc
 346              	.LFE3:
 348              		.section	.text.i2c_mode_addr_config,"ax",@progbits
 349              		.align	1
 350              		.globl	i2c_mode_addr_config
 352              	i2c_mode_addr_config:
 353              	.LFB4:
 138:arch/riscv/mach-gd32vf10x/bsp/gd32vf103_i2c.c **** 
 139:arch/riscv/mach-gd32vf10x/bsp/gd32vf103_i2c.c **** /*!
 140:arch/riscv/mach-gd32vf10x/bsp/gd32vf103_i2c.c ****     \brief      configure I2C address 
 141:arch/riscv/mach-gd32vf10x/bsp/gd32vf103_i2c.c ****     \param[in]  i2c_periph: I2Cx(x=0,1)
 142:arch/riscv/mach-gd32vf10x/bsp/gd32vf103_i2c.c ****     \param[in]  mode:
 143:arch/riscv/mach-gd32vf10x/bsp/gd32vf103_i2c.c ****                 only one parameter can be selected which is shown as below:
 144:arch/riscv/mach-gd32vf10x/bsp/gd32vf103_i2c.c ****     \arg        I2C_I2CMODE_ENABLE: I2C mode
 145:arch/riscv/mach-gd32vf10x/bsp/gd32vf103_i2c.c ****     \arg        I2C_SMBUSMODE_ENABLE: SMBus mode
 146:arch/riscv/mach-gd32vf10x/bsp/gd32vf103_i2c.c ****     \param[in]  addformat: 7bits or 10bits
 147:arch/riscv/mach-gd32vf10x/bsp/gd32vf103_i2c.c ****                 only one parameter can be selected which is shown as below:
 148:arch/riscv/mach-gd32vf10x/bsp/gd32vf103_i2c.c ****     \arg        I2C_ADDFORMAT_7BITS: 7bits
 149:arch/riscv/mach-gd32vf10x/bsp/gd32vf103_i2c.c ****     \arg        I2C_ADDFORMAT_10BITS: 10bits
 150:arch/riscv/mach-gd32vf10x/bsp/gd32vf103_i2c.c ****     \param[in]  addr: I2C address
 151:arch/riscv/mach-gd32vf10x/bsp/gd32vf103_i2c.c ****     \param[out] none
 152:arch/riscv/mach-gd32vf10x/bsp/gd32vf103_i2c.c ****     \retval     none
 153:arch/riscv/mach-gd32vf10x/bsp/gd32vf103_i2c.c ****  */
 154:arch/riscv/mach-gd32vf10x/bsp/gd32vf103_i2c.c **** void i2c_mode_addr_config(uint32_t i2c_periph, uint32_t mode,uint32_t addformat, uint32_t addr) 
 155:arch/riscv/mach-gd32vf10x/bsp/gd32vf103_i2c.c **** {
 354              		.loc 1 155 1 is_stmt 1
 355              		.cfi_startproc
GAS LISTING C:\Users\test\AppData\Local\Temp\ccMxCYS3.s 			page 11


 356              	.LVL41:
 156:arch/riscv/mach-gd32vf10x/bsp/gd32vf103_i2c.c ****     /* SMBus/I2C mode selected */
 157:arch/riscv/mach-gd32vf10x/bsp/gd32vf103_i2c.c ****     uint32_t ctl = 0U;
 357              		.loc 1 157 5
 158:arch/riscv/mach-gd32vf10x/bsp/gd32vf103_i2c.c **** 
 159:arch/riscv/mach-gd32vf10x/bsp/gd32vf103_i2c.c ****     ctl = I2C_CTL0(i2c_periph);
 358              		.loc 1 159 5
 359              		.loc 1 159 9 is_stmt 0
 360 0000 1C41     		lw	a5,0(a0)
 361              	.LVL42:
 160:arch/riscv/mach-gd32vf10x/bsp/gd32vf103_i2c.c ****     ctl &= ~(I2C_CTL0_SMBEN);
 362              		.loc 1 160 5 is_stmt 1
 161:arch/riscv/mach-gd32vf10x/bsp/gd32vf103_i2c.c ****     ctl |= mode;
 162:arch/riscv/mach-gd32vf10x/bsp/gd32vf103_i2c.c ****     I2C_CTL0(i2c_periph) = ctl;
 163:arch/riscv/mach-gd32vf10x/bsp/gd32vf103_i2c.c ****     /* configure address */
 164:arch/riscv/mach-gd32vf10x/bsp/gd32vf103_i2c.c ****     addr = addr & I2C_ADDRESS_MASK;
 363              		.loc 1 164 10 is_stmt 0
 364 0002 93F6F63F 		andi	a3,a3,1023
 365              	.LVL43:
 165:arch/riscv/mach-gd32vf10x/bsp/gd32vf103_i2c.c ****     I2C_SADDR0(i2c_periph) = (addformat | addr);
 366              		.loc 1 165 41
 367 0006 D18E     		or	a3,a3,a2
 160:arch/riscv/mach-gd32vf10x/bsp/gd32vf103_i2c.c ****     ctl &= ~(I2C_CTL0_SMBEN);
 368              		.loc 1 160 9
 369 0008 F59B     		andi	a5,a5,-3
 370              	.LVL44:
 161:arch/riscv/mach-gd32vf10x/bsp/gd32vf103_i2c.c ****     ctl |= mode;
 371              		.loc 1 161 5 is_stmt 1
 161:arch/riscv/mach-gd32vf10x/bsp/gd32vf103_i2c.c ****     ctl |= mode;
 372              		.loc 1 161 9 is_stmt 0
 373 000a CD8F     		or	a5,a5,a1
 374              	.LVL45:
 162:arch/riscv/mach-gd32vf10x/bsp/gd32vf103_i2c.c ****     /* configure address */
 375              		.loc 1 162 5 is_stmt 1
 162:arch/riscv/mach-gd32vf10x/bsp/gd32vf103_i2c.c ****     /* configure address */
 376              		.loc 1 162 26 is_stmt 0
 377 000c 1CC1     		sw	a5,0(a0)
 164:arch/riscv/mach-gd32vf10x/bsp/gd32vf103_i2c.c ****     I2C_SADDR0(i2c_periph) = (addformat | addr);
 378              		.loc 1 164 5 is_stmt 1
 379              	.LVL46:
 380              		.loc 1 165 5
 381              		.loc 1 165 28 is_stmt 0
 382 000e 14C5     		sw	a3,8(a0)
 166:arch/riscv/mach-gd32vf10x/bsp/gd32vf103_i2c.c **** }
 383              		.loc 1 166 1
 384 0010 8280     		ret
 385              		.cfi_endproc
 386              	.LFE4:
 388              		.section	.text.i2c_smbus_type_config,"ax",@progbits
 389              		.align	1
 390              		.globl	i2c_smbus_type_config
 392              	i2c_smbus_type_config:
 393              	.LFB5:
 167:arch/riscv/mach-gd32vf10x/bsp/gd32vf103_i2c.c **** 
 168:arch/riscv/mach-gd32vf10x/bsp/gd32vf103_i2c.c **** /*!
 169:arch/riscv/mach-gd32vf10x/bsp/gd32vf103_i2c.c ****     \brief      SMBus type selection
 170:arch/riscv/mach-gd32vf10x/bsp/gd32vf103_i2c.c ****     \param[in]  i2c_periph: I2Cx(x=0,1)
GAS LISTING C:\Users\test\AppData\Local\Temp\ccMxCYS3.s 			page 12


 171:arch/riscv/mach-gd32vf10x/bsp/gd32vf103_i2c.c ****     \param[in]  type:
 172:arch/riscv/mach-gd32vf10x/bsp/gd32vf103_i2c.c ****                 only one parameter can be selected which is shown as below:
 173:arch/riscv/mach-gd32vf10x/bsp/gd32vf103_i2c.c ****     \arg        I2C_SMBUS_DEVICE: device
 174:arch/riscv/mach-gd32vf10x/bsp/gd32vf103_i2c.c ****     \arg        I2C_SMBUS_HOST: host
 175:arch/riscv/mach-gd32vf10x/bsp/gd32vf103_i2c.c ****     \param[out] none
 176:arch/riscv/mach-gd32vf10x/bsp/gd32vf103_i2c.c ****     \retval     none
 177:arch/riscv/mach-gd32vf10x/bsp/gd32vf103_i2c.c ****  */
 178:arch/riscv/mach-gd32vf10x/bsp/gd32vf103_i2c.c **** void i2c_smbus_type_config(uint32_t i2c_periph, uint32_t type)
 179:arch/riscv/mach-gd32vf10x/bsp/gd32vf103_i2c.c **** {
 394              		.loc 1 179 1 is_stmt 1
 395              		.cfi_startproc
 396              	.LVL47:
 180:arch/riscv/mach-gd32vf10x/bsp/gd32vf103_i2c.c ****     if (I2C_SMBUS_HOST == type) {
 397              		.loc 1 180 5
 398              		.loc 1 180 8 is_stmt 0
 399 0000 A147     		li	a5,8
 400 0002 6386F500 		beq	a1,a5,.L26
 181:arch/riscv/mach-gd32vf10x/bsp/gd32vf103_i2c.c ****         I2C_CTL0(i2c_periph) |= I2C_CTL0_SMBSEL;
 182:arch/riscv/mach-gd32vf10x/bsp/gd32vf103_i2c.c ****     } else {
 183:arch/riscv/mach-gd32vf10x/bsp/gd32vf103_i2c.c ****         I2C_CTL0(i2c_periph) &= ~(I2C_CTL0_SMBSEL);
 401              		.loc 1 183 9 is_stmt 1
 402              		.loc 1 183 30 is_stmt 0
 403 0006 1C41     		lw	a5,0(a0)
 404 0008 DD9B     		andi	a5,a5,-9
 405 000a 1CC1     		sw	a5,0(a0)
 184:arch/riscv/mach-gd32vf10x/bsp/gd32vf103_i2c.c ****     }
 185:arch/riscv/mach-gd32vf10x/bsp/gd32vf103_i2c.c **** }
 406              		.loc 1 185 1
 407 000c 8280     		ret
 408              	.L26:
 181:arch/riscv/mach-gd32vf10x/bsp/gd32vf103_i2c.c ****         I2C_CTL0(i2c_periph) |= I2C_CTL0_SMBSEL;
 409              		.loc 1 181 9 is_stmt 1
 181:arch/riscv/mach-gd32vf10x/bsp/gd32vf103_i2c.c ****         I2C_CTL0(i2c_periph) |= I2C_CTL0_SMBSEL;
 410              		.loc 1 181 30 is_stmt 0
 411 000e 1C41     		lw	a5,0(a0)
 412 0010 93E78700 		ori	a5,a5,8
 413 0014 1CC1     		sw	a5,0(a0)
 414 0016 8280     		ret
 415              		.cfi_endproc
 416              	.LFE5:
 418              		.section	.text.i2c_ack_config,"ax",@progbits
 419              		.align	1
 420              		.globl	i2c_ack_config
 422              	i2c_ack_config:
 423              	.LFB6:
 186:arch/riscv/mach-gd32vf10x/bsp/gd32vf103_i2c.c **** 
 187:arch/riscv/mach-gd32vf10x/bsp/gd32vf103_i2c.c **** /*!
 188:arch/riscv/mach-gd32vf10x/bsp/gd32vf103_i2c.c ****     \brief      whether or not to send an ACK
 189:arch/riscv/mach-gd32vf10x/bsp/gd32vf103_i2c.c ****     \param[in]  i2c_periph: I2Cx(x=0,1)
 190:arch/riscv/mach-gd32vf10x/bsp/gd32vf103_i2c.c ****     \param[in]  ack:
 191:arch/riscv/mach-gd32vf10x/bsp/gd32vf103_i2c.c ****                 only one parameter can be selected which is shown as below:
 192:arch/riscv/mach-gd32vf10x/bsp/gd32vf103_i2c.c ****     \arg        I2C_ACK_ENABLE: ACK will be sent
 193:arch/riscv/mach-gd32vf10x/bsp/gd32vf103_i2c.c ****     \arg        I2C_ACK_DISABLE: ACK will not be sent
 194:arch/riscv/mach-gd32vf10x/bsp/gd32vf103_i2c.c ****     \param[out] none
 195:arch/riscv/mach-gd32vf10x/bsp/gd32vf103_i2c.c ****     \retval     none
 196:arch/riscv/mach-gd32vf10x/bsp/gd32vf103_i2c.c ****  */
 197:arch/riscv/mach-gd32vf10x/bsp/gd32vf103_i2c.c **** void i2c_ack_config(uint32_t i2c_periph, uint32_t ack) 
GAS LISTING C:\Users\test\AppData\Local\Temp\ccMxCYS3.s 			page 13


 198:arch/riscv/mach-gd32vf10x/bsp/gd32vf103_i2c.c **** {
 424              		.loc 1 198 1 is_stmt 1
 425              		.cfi_startproc
 426              	.LVL48:
 199:arch/riscv/mach-gd32vf10x/bsp/gd32vf103_i2c.c ****     if (I2C_ACK_ENABLE == ack) {
 427              		.loc 1 199 5
 428              		.loc 1 199 8 is_stmt 0
 429 0000 8547     		li	a5,1
 430 0002 6387F500 		beq	a1,a5,.L30
 200:arch/riscv/mach-gd32vf10x/bsp/gd32vf103_i2c.c ****         I2C_CTL0(i2c_periph) |= I2C_CTL0_ACKEN;
 201:arch/riscv/mach-gd32vf10x/bsp/gd32vf103_i2c.c ****     } else {
 202:arch/riscv/mach-gd32vf10x/bsp/gd32vf103_i2c.c ****         I2C_CTL0(i2c_periph) &= ~(I2C_CTL0_ACKEN);
 431              		.loc 1 202 9 is_stmt 1
 432              		.loc 1 202 30 is_stmt 0
 433 0006 1C41     		lw	a5,0(a0)
 434 0008 93F7F7BF 		andi	a5,a5,-1025
 435 000c 1CC1     		sw	a5,0(a0)
 203:arch/riscv/mach-gd32vf10x/bsp/gd32vf103_i2c.c ****     }
 204:arch/riscv/mach-gd32vf10x/bsp/gd32vf103_i2c.c **** }
 436              		.loc 1 204 1
 437 000e 8280     		ret
 438              	.L30:
 200:arch/riscv/mach-gd32vf10x/bsp/gd32vf103_i2c.c ****         I2C_CTL0(i2c_periph) |= I2C_CTL0_ACKEN;
 439              		.loc 1 200 9 is_stmt 1
 200:arch/riscv/mach-gd32vf10x/bsp/gd32vf103_i2c.c ****         I2C_CTL0(i2c_periph) |= I2C_CTL0_ACKEN;
 440              		.loc 1 200 30 is_stmt 0
 441 0010 1C41     		lw	a5,0(a0)
 442 0012 93E70740 		ori	a5,a5,1024
 443 0016 1CC1     		sw	a5,0(a0)
 444 0018 8280     		ret
 445              		.cfi_endproc
 446              	.LFE6:
 448              		.section	.text.i2c_ackpos_config,"ax",@progbits
 449              		.align	1
 450              		.globl	i2c_ackpos_config
 452              	i2c_ackpos_config:
 453              	.LFB7:
 205:arch/riscv/mach-gd32vf10x/bsp/gd32vf103_i2c.c **** 
 206:arch/riscv/mach-gd32vf10x/bsp/gd32vf103_i2c.c **** /*!
 207:arch/riscv/mach-gd32vf10x/bsp/gd32vf103_i2c.c ****     \brief      configure I2C POAP position
 208:arch/riscv/mach-gd32vf10x/bsp/gd32vf103_i2c.c ****     \param[in]  i2c_periph: I2Cx(x=0,1)
 209:arch/riscv/mach-gd32vf10x/bsp/gd32vf103_i2c.c ****     \param[in]  pos:
 210:arch/riscv/mach-gd32vf10x/bsp/gd32vf103_i2c.c ****                 only one parameter can be selected which is shown as below:
 211:arch/riscv/mach-gd32vf10x/bsp/gd32vf103_i2c.c ****     \arg        I2C_ACKPOS_CURRENT: whether to send ACK or not for the current
 212:arch/riscv/mach-gd32vf10x/bsp/gd32vf103_i2c.c ****     \arg        I2C_ACKPOS_NEXT: whether to send ACK or not for the next byte
 213:arch/riscv/mach-gd32vf10x/bsp/gd32vf103_i2c.c ****     \param[out] none
 214:arch/riscv/mach-gd32vf10x/bsp/gd32vf103_i2c.c ****     \retval     none
 215:arch/riscv/mach-gd32vf10x/bsp/gd32vf103_i2c.c ****  */
 216:arch/riscv/mach-gd32vf10x/bsp/gd32vf103_i2c.c **** void i2c_ackpos_config(uint32_t i2c_periph, uint32_t pos) 
 217:arch/riscv/mach-gd32vf10x/bsp/gd32vf103_i2c.c **** {
 454              		.loc 1 217 1 is_stmt 1
 455              		.cfi_startproc
 456              	.LVL49:
 218:arch/riscv/mach-gd32vf10x/bsp/gd32vf103_i2c.c ****     /* configure I2C POAP position */
 219:arch/riscv/mach-gd32vf10x/bsp/gd32vf103_i2c.c ****     if (I2C_ACKPOS_NEXT == pos) {
 457              		.loc 1 219 5
 220:arch/riscv/mach-gd32vf10x/bsp/gd32vf103_i2c.c ****         I2C_CTL0(i2c_periph) |= I2C_CTL0_POAP;
GAS LISTING C:\Users\test\AppData\Local\Temp\ccMxCYS3.s 			page 14


 458              		.loc 1 220 30 is_stmt 0
 459 0000 1C41     		lw	a5,0(a0)
 219:arch/riscv/mach-gd32vf10x/bsp/gd32vf103_i2c.c ****         I2C_CTL0(i2c_periph) |= I2C_CTL0_POAP;
 460              		.loc 1 219 8
 461 0002 99E5     		bne	a1,zero,.L32
 462              		.loc 1 220 9 is_stmt 1
 463              		.loc 1 220 30 is_stmt 0
 464 0004 0567     		li	a4,4096
 465 0006 13070780 		addi	a4,a4,-2048
 466 000a D98F     		or	a5,a5,a4
 467 000c 1CC1     		sw	a5,0(a0)
 468 000e 8280     		ret
 469              	.L32:
 221:arch/riscv/mach-gd32vf10x/bsp/gd32vf103_i2c.c ****     } else {
 222:arch/riscv/mach-gd32vf10x/bsp/gd32vf103_i2c.c ****         I2C_CTL0(i2c_periph) &= ~(I2C_CTL0_POAP);
 470              		.loc 1 222 9 is_stmt 1
 471              		.loc 1 222 30 is_stmt 0
 472 0010 7D77     		li	a4,-4096
 473 0012 1307F77F 		addi	a4,a4,2047
 474 0016 F98F     		and	a5,a5,a4
 475 0018 1CC1     		sw	a5,0(a0)
 223:arch/riscv/mach-gd32vf10x/bsp/gd32vf103_i2c.c ****     }
 224:arch/riscv/mach-gd32vf10x/bsp/gd32vf103_i2c.c **** }
 476              		.loc 1 224 1
 477 001a 8280     		ret
 478              		.cfi_endproc
 479              	.LFE7:
 481              		.section	.text.i2c_master_addressing,"ax",@progbits
 482              		.align	1
 483              		.globl	i2c_master_addressing
 485              	i2c_master_addressing:
 486              	.LFB8:
 225:arch/riscv/mach-gd32vf10x/bsp/gd32vf103_i2c.c **** 
 226:arch/riscv/mach-gd32vf10x/bsp/gd32vf103_i2c.c **** /*!
 227:arch/riscv/mach-gd32vf10x/bsp/gd32vf103_i2c.c ****     \brief      master sends slave address
 228:arch/riscv/mach-gd32vf10x/bsp/gd32vf103_i2c.c ****     \param[in]  i2c_periph: I2Cx(x=0,1)
 229:arch/riscv/mach-gd32vf10x/bsp/gd32vf103_i2c.c ****     \param[in]  addr: slave address  
 230:arch/riscv/mach-gd32vf10x/bsp/gd32vf103_i2c.c ****     \param[in]  trandirection: transmitter or receiver
 231:arch/riscv/mach-gd32vf10x/bsp/gd32vf103_i2c.c ****                 only one parameter can be selected which is shown as below:
 232:arch/riscv/mach-gd32vf10x/bsp/gd32vf103_i2c.c ****     \arg        I2C_TRANSMITTER: transmitter  
 233:arch/riscv/mach-gd32vf10x/bsp/gd32vf103_i2c.c ****     \arg        I2C_RECEIVER:    receiver  
 234:arch/riscv/mach-gd32vf10x/bsp/gd32vf103_i2c.c ****     \param[out] none
 235:arch/riscv/mach-gd32vf10x/bsp/gd32vf103_i2c.c ****     \retval     none
 236:arch/riscv/mach-gd32vf10x/bsp/gd32vf103_i2c.c ****  */
 237:arch/riscv/mach-gd32vf10x/bsp/gd32vf103_i2c.c **** void i2c_master_addressing(uint32_t i2c_periph, uint32_t addr,uint32_t trandirection) 
 238:arch/riscv/mach-gd32vf10x/bsp/gd32vf103_i2c.c **** {
 487              		.loc 1 238 1 is_stmt 1
 488              		.cfi_startproc
 489              	.LVL50:
 239:arch/riscv/mach-gd32vf10x/bsp/gd32vf103_i2c.c ****     /* master is a transmitter or a receiver */
 240:arch/riscv/mach-gd32vf10x/bsp/gd32vf103_i2c.c ****     if (I2C_TRANSMITTER == trandirection) {
 490              		.loc 1 240 5
 491              		.loc 1 240 8 is_stmt 0
 492 0000 7957     		li	a4,-2
 241:arch/riscv/mach-gd32vf10x/bsp/gd32vf103_i2c.c ****         addr = addr & I2C_TRANSMITTER;
 242:arch/riscv/mach-gd32vf10x/bsp/gd32vf103_i2c.c ****     } else {
 243:arch/riscv/mach-gd32vf10x/bsp/gd32vf103_i2c.c ****         addr = addr | I2C_RECEIVER;
GAS LISTING C:\Users\test\AppData\Local\Temp\ccMxCYS3.s 			page 15


 493              		.loc 1 243 14
 494 0002 93E71500 		ori	a5,a1,1
 240:arch/riscv/mach-gd32vf10x/bsp/gd32vf103_i2c.c ****         addr = addr & I2C_TRANSMITTER;
 495              		.loc 1 240 8
 496 0006 6314E600 		bne	a2,a4,.L36
 241:arch/riscv/mach-gd32vf10x/bsp/gd32vf103_i2c.c ****         addr = addr & I2C_TRANSMITTER;
 497              		.loc 1 241 9 is_stmt 1
 241:arch/riscv/mach-gd32vf10x/bsp/gd32vf103_i2c.c ****         addr = addr & I2C_TRANSMITTER;
 498              		.loc 1 241 14 is_stmt 0
 499 000a 93F7E5FF 		andi	a5,a1,-2
 500              	.LVL51:
 501              	.L36:
 244:arch/riscv/mach-gd32vf10x/bsp/gd32vf103_i2c.c ****     }
 245:arch/riscv/mach-gd32vf10x/bsp/gd32vf103_i2c.c ****     /* send slave address */
 246:arch/riscv/mach-gd32vf10x/bsp/gd32vf103_i2c.c ****     I2C_DATA(i2c_periph) = addr;
 502              		.loc 1 246 5 is_stmt 1
 503              		.loc 1 246 26 is_stmt 0
 504 000e 1CC9     		sw	a5,16(a0)
 247:arch/riscv/mach-gd32vf10x/bsp/gd32vf103_i2c.c **** }
 505              		.loc 1 247 1
 506 0010 8280     		ret
 507              		.cfi_endproc
 508              	.LFE8:
 510              		.section	.text.i2c_saddr1_config,"ax",@progbits
 511              		.align	1
 512              		.globl	i2c_saddr1_config
 514              	i2c_saddr1_config:
 515              	.LFB9:
 248:arch/riscv/mach-gd32vf10x/bsp/gd32vf103_i2c.c **** 
 249:arch/riscv/mach-gd32vf10x/bsp/gd32vf103_i2c.c **** /*!
 250:arch/riscv/mach-gd32vf10x/bsp/gd32vf103_i2c.c ****     \brief      configure I2C saddress1
 251:arch/riscv/mach-gd32vf10x/bsp/gd32vf103_i2c.c ****     \param[in]  i2c_periph: I2Cx(x=0,1)
 252:arch/riscv/mach-gd32vf10x/bsp/gd32vf103_i2c.c ****     \param[in]  addr: I2C address
 253:arch/riscv/mach-gd32vf10x/bsp/gd32vf103_i2c.c ****     \param[out] none
 254:arch/riscv/mach-gd32vf10x/bsp/gd32vf103_i2c.c ****     \retval     none
 255:arch/riscv/mach-gd32vf10x/bsp/gd32vf103_i2c.c **** */
 256:arch/riscv/mach-gd32vf10x/bsp/gd32vf103_i2c.c **** void i2c_saddr1_config(uint32_t i2c_periph,uint32_t addr) 
 257:arch/riscv/mach-gd32vf10x/bsp/gd32vf103_i2c.c **** {
 516              		.loc 1 257 1 is_stmt 1
 517              		.cfi_startproc
 518              	.LVL52:
 258:arch/riscv/mach-gd32vf10x/bsp/gd32vf103_i2c.c ****     /* configure saddress1 */
 259:arch/riscv/mach-gd32vf10x/bsp/gd32vf103_i2c.c ****     I2C_SADDR1(i2c_periph) = (0xFE & addr);
 519              		.loc 1 259 5
 520              		.loc 1 259 36 is_stmt 0
 521 0000 93F5E50F 		andi	a1,a1,254
 522              	.LVL53:
 523              		.loc 1 259 28
 524 0004 4CC5     		sw	a1,12(a0)
 260:arch/riscv/mach-gd32vf10x/bsp/gd32vf103_i2c.c **** }
 525              		.loc 1 260 1
 526 0006 8280     		ret
 527              		.cfi_endproc
 528              	.LFE9:
 530              		.section	.text.i2c_dualaddr_enable,"ax",@progbits
 531              		.align	1
 532              		.globl	i2c_dualaddr_enable
GAS LISTING C:\Users\test\AppData\Local\Temp\ccMxCYS3.s 			page 16


 534              	i2c_dualaddr_enable:
 535              	.LFB10:
 261:arch/riscv/mach-gd32vf10x/bsp/gd32vf103_i2c.c **** 
 262:arch/riscv/mach-gd32vf10x/bsp/gd32vf103_i2c.c **** /*!
 263:arch/riscv/mach-gd32vf10x/bsp/gd32vf103_i2c.c ****     \brief      enable dual-address mode
 264:arch/riscv/mach-gd32vf10x/bsp/gd32vf103_i2c.c ****     \param[in]  i2c_periph: I2Cx(x=0,1)
 265:arch/riscv/mach-gd32vf10x/bsp/gd32vf103_i2c.c ****     \param[in]  addr: the second address in dual-address mode
 266:arch/riscv/mach-gd32vf10x/bsp/gd32vf103_i2c.c ****     \param[out] none
 267:arch/riscv/mach-gd32vf10x/bsp/gd32vf103_i2c.c ****     \retval     none
 268:arch/riscv/mach-gd32vf10x/bsp/gd32vf103_i2c.c **** */
 269:arch/riscv/mach-gd32vf10x/bsp/gd32vf103_i2c.c **** void i2c_dualaddr_enable(uint32_t i2c_periph, uint32_t addr) 
 270:arch/riscv/mach-gd32vf10x/bsp/gd32vf103_i2c.c **** {
 536              		.loc 1 270 1 is_stmt 1
 537              		.cfi_startproc
 538              	.LVL54:
 271:arch/riscv/mach-gd32vf10x/bsp/gd32vf103_i2c.c ****     /* configure address */
 272:arch/riscv/mach-gd32vf10x/bsp/gd32vf103_i2c.c ****     addr = addr & I2C_ADDRESS2_MASK;
 539              		.loc 1 272 5
 273:arch/riscv/mach-gd32vf10x/bsp/gd32vf103_i2c.c ****     I2C_SADDR1(i2c_periph) = (I2C_SADDR1_DUADEN | addr);
 540              		.loc 1 273 5
 272:arch/riscv/mach-gd32vf10x/bsp/gd32vf103_i2c.c ****     I2C_SADDR1(i2c_periph) = (I2C_SADDR1_DUADEN | addr);
 541              		.loc 1 272 10 is_stmt 0
 542 0000 93F5E50F 		andi	a1,a1,254
 543              	.LVL55:
 544              		.loc 1 273 49
 545 0004 93E51500 		ori	a1,a1,1
 546              	.LVL56:
 547              		.loc 1 273 28
 548 0008 4CC5     		sw	a1,12(a0)
 274:arch/riscv/mach-gd32vf10x/bsp/gd32vf103_i2c.c **** }
 549              		.loc 1 274 1
 550 000a 8280     		ret
 551              		.cfi_endproc
 552              	.LFE10:
 554              		.section	.text.i2c_dualaddr_disable,"ax",@progbits
 555              		.align	1
 556              		.globl	i2c_dualaddr_disable
 558              	i2c_dualaddr_disable:
 559              	.LFB11:
 275:arch/riscv/mach-gd32vf10x/bsp/gd32vf103_i2c.c **** 
 276:arch/riscv/mach-gd32vf10x/bsp/gd32vf103_i2c.c **** /*!
 277:arch/riscv/mach-gd32vf10x/bsp/gd32vf103_i2c.c ****     \brief      disable dual-address mode
 278:arch/riscv/mach-gd32vf10x/bsp/gd32vf103_i2c.c ****     \param[in]  i2c_periph: I2Cx(x=0,1) 
 279:arch/riscv/mach-gd32vf10x/bsp/gd32vf103_i2c.c ****     \param[out] none
 280:arch/riscv/mach-gd32vf10x/bsp/gd32vf103_i2c.c ****     \retval     none
 281:arch/riscv/mach-gd32vf10x/bsp/gd32vf103_i2c.c **** */
 282:arch/riscv/mach-gd32vf10x/bsp/gd32vf103_i2c.c **** void i2c_dualaddr_disable(uint32_t i2c_periph)
 283:arch/riscv/mach-gd32vf10x/bsp/gd32vf103_i2c.c **** {
 560              		.loc 1 283 1 is_stmt 1
 561              		.cfi_startproc
 562              	.LVL57:
 284:arch/riscv/mach-gd32vf10x/bsp/gd32vf103_i2c.c ****     I2C_SADDR1(i2c_periph) &= ~(I2C_SADDR1_DUADEN);
 563              		.loc 1 284 5
 564              		.loc 1 284 28 is_stmt 0
 565 0000 5C45     		lw	a5,12(a0)
 566 0002 F99B     		andi	a5,a5,-2
 567 0004 5CC5     		sw	a5,12(a0)
GAS LISTING C:\Users\test\AppData\Local\Temp\ccMxCYS3.s 			page 17


 285:arch/riscv/mach-gd32vf10x/bsp/gd32vf103_i2c.c **** }
 568              		.loc 1 285 1
 569 0006 8280     		ret
 570              		.cfi_endproc
 571              	.LFE11:
 573              		.section	.text.i2c_enable,"ax",@progbits
 574              		.align	1
 575              		.globl	i2c_enable
 577              	i2c_enable:
 578              	.LFB12:
 286:arch/riscv/mach-gd32vf10x/bsp/gd32vf103_i2c.c **** 
 287:arch/riscv/mach-gd32vf10x/bsp/gd32vf103_i2c.c **** /*!
 288:arch/riscv/mach-gd32vf10x/bsp/gd32vf103_i2c.c ****     \brief      enable I2C
 289:arch/riscv/mach-gd32vf10x/bsp/gd32vf103_i2c.c ****     \param[in]  i2c_periph: I2Cx(x=0,1) 
 290:arch/riscv/mach-gd32vf10x/bsp/gd32vf103_i2c.c ****     \param[out] none
 291:arch/riscv/mach-gd32vf10x/bsp/gd32vf103_i2c.c ****     \retval     none
 292:arch/riscv/mach-gd32vf10x/bsp/gd32vf103_i2c.c ****  */
 293:arch/riscv/mach-gd32vf10x/bsp/gd32vf103_i2c.c **** void i2c_enable(uint32_t i2c_periph) 
 294:arch/riscv/mach-gd32vf10x/bsp/gd32vf103_i2c.c **** {
 579              		.loc 1 294 1 is_stmt 1
 580              		.cfi_startproc
 581              	.LVL58:
 295:arch/riscv/mach-gd32vf10x/bsp/gd32vf103_i2c.c ****     I2C_CTL0(i2c_periph) |= I2C_CTL0_I2CEN;
 582              		.loc 1 295 5
 583              		.loc 1 295 26 is_stmt 0
 584 0000 1C41     		lw	a5,0(a0)
 585 0002 93E71700 		ori	a5,a5,1
 586 0006 1CC1     		sw	a5,0(a0)
 296:arch/riscv/mach-gd32vf10x/bsp/gd32vf103_i2c.c **** }
 587              		.loc 1 296 1
 588 0008 8280     		ret
 589              		.cfi_endproc
 590              	.LFE12:
 592              		.section	.text.i2c_disable,"ax",@progbits
 593              		.align	1
 594              		.globl	i2c_disable
 596              	i2c_disable:
 597              	.LFB13:
 297:arch/riscv/mach-gd32vf10x/bsp/gd32vf103_i2c.c **** 
 298:arch/riscv/mach-gd32vf10x/bsp/gd32vf103_i2c.c **** /*!
 299:arch/riscv/mach-gd32vf10x/bsp/gd32vf103_i2c.c ****     \brief      disable I2C
 300:arch/riscv/mach-gd32vf10x/bsp/gd32vf103_i2c.c ****     \param[in]  i2c_periph: I2Cx(x=0,1) 
 301:arch/riscv/mach-gd32vf10x/bsp/gd32vf103_i2c.c ****     \param[out] none
 302:arch/riscv/mach-gd32vf10x/bsp/gd32vf103_i2c.c ****     \retval     none
 303:arch/riscv/mach-gd32vf10x/bsp/gd32vf103_i2c.c ****  */
 304:arch/riscv/mach-gd32vf10x/bsp/gd32vf103_i2c.c **** void i2c_disable(uint32_t i2c_periph) 
 305:arch/riscv/mach-gd32vf10x/bsp/gd32vf103_i2c.c **** {
 598              		.loc 1 305 1 is_stmt 1
 599              		.cfi_startproc
 600              	.LVL59:
 306:arch/riscv/mach-gd32vf10x/bsp/gd32vf103_i2c.c ****     I2C_CTL0(i2c_periph) &= ~(I2C_CTL0_I2CEN);
 601              		.loc 1 306 5
 602              		.loc 1 306 26 is_stmt 0
 603 0000 1C41     		lw	a5,0(a0)
 604 0002 F99B     		andi	a5,a5,-2
 605 0004 1CC1     		sw	a5,0(a0)
 307:arch/riscv/mach-gd32vf10x/bsp/gd32vf103_i2c.c **** }
GAS LISTING C:\Users\test\AppData\Local\Temp\ccMxCYS3.s 			page 18


 606              		.loc 1 307 1
 607 0006 8280     		ret
 608              		.cfi_endproc
 609              	.LFE13:
 611              		.section	.text.i2c_start_on_bus,"ax",@progbits
 612              		.align	1
 613              		.globl	i2c_start_on_bus
 615              	i2c_start_on_bus:
 616              	.LFB14:
 308:arch/riscv/mach-gd32vf10x/bsp/gd32vf103_i2c.c **** 
 309:arch/riscv/mach-gd32vf10x/bsp/gd32vf103_i2c.c **** /*!
 310:arch/riscv/mach-gd32vf10x/bsp/gd32vf103_i2c.c ****     \brief      generate a START condition on I2C bus
 311:arch/riscv/mach-gd32vf10x/bsp/gd32vf103_i2c.c ****     \param[in]  i2c_periph: I2Cx(x=0,1)
 312:arch/riscv/mach-gd32vf10x/bsp/gd32vf103_i2c.c ****     \param[out] none
 313:arch/riscv/mach-gd32vf10x/bsp/gd32vf103_i2c.c ****     \retval     none
 314:arch/riscv/mach-gd32vf10x/bsp/gd32vf103_i2c.c ****  */
 315:arch/riscv/mach-gd32vf10x/bsp/gd32vf103_i2c.c **** void i2c_start_on_bus(uint32_t i2c_periph) 
 316:arch/riscv/mach-gd32vf10x/bsp/gd32vf103_i2c.c **** {
 617              		.loc 1 316 1 is_stmt 1
 618              		.cfi_startproc
 619              	.LVL60:
 317:arch/riscv/mach-gd32vf10x/bsp/gd32vf103_i2c.c ****     I2C_CTL0(i2c_periph) |= I2C_CTL0_START;
 620              		.loc 1 317 5
 621              		.loc 1 317 26 is_stmt 0
 622 0000 1C41     		lw	a5,0(a0)
 623 0002 93E70710 		ori	a5,a5,256
 624 0006 1CC1     		sw	a5,0(a0)
 318:arch/riscv/mach-gd32vf10x/bsp/gd32vf103_i2c.c **** }
 625              		.loc 1 318 1
 626 0008 8280     		ret
 627              		.cfi_endproc
 628              	.LFE14:
 630              		.section	.text.i2c_stop_on_bus,"ax",@progbits
 631              		.align	1
 632              		.globl	i2c_stop_on_bus
 634              	i2c_stop_on_bus:
 635              	.LFB15:
 319:arch/riscv/mach-gd32vf10x/bsp/gd32vf103_i2c.c **** 
 320:arch/riscv/mach-gd32vf10x/bsp/gd32vf103_i2c.c **** /*!
 321:arch/riscv/mach-gd32vf10x/bsp/gd32vf103_i2c.c ****     \brief      generate a STOP condition on I2C bus
 322:arch/riscv/mach-gd32vf10x/bsp/gd32vf103_i2c.c ****     \param[in]  i2c_periph: I2Cx(x=0,1)
 323:arch/riscv/mach-gd32vf10x/bsp/gd32vf103_i2c.c ****     \param[out] none
 324:arch/riscv/mach-gd32vf10x/bsp/gd32vf103_i2c.c ****     \retval     none
 325:arch/riscv/mach-gd32vf10x/bsp/gd32vf103_i2c.c ****  */
 326:arch/riscv/mach-gd32vf10x/bsp/gd32vf103_i2c.c **** void i2c_stop_on_bus(uint32_t i2c_periph)
 327:arch/riscv/mach-gd32vf10x/bsp/gd32vf103_i2c.c **** {
 636              		.loc 1 327 1 is_stmt 1
 637              		.cfi_startproc
 638              	.LVL61:
 328:arch/riscv/mach-gd32vf10x/bsp/gd32vf103_i2c.c ****     I2C_CTL0(i2c_periph) |= I2C_CTL0_STOP;
 639              		.loc 1 328 5
 640              		.loc 1 328 26 is_stmt 0
 641 0000 1C41     		lw	a5,0(a0)
 642 0002 93E70720 		ori	a5,a5,512
 643 0006 1CC1     		sw	a5,0(a0)
 329:arch/riscv/mach-gd32vf10x/bsp/gd32vf103_i2c.c **** }
 644              		.loc 1 329 1
GAS LISTING C:\Users\test\AppData\Local\Temp\ccMxCYS3.s 			page 19


 645 0008 8280     		ret
 646              		.cfi_endproc
 647              	.LFE15:
 649              		.section	.text.i2c_data_transmit,"ax",@progbits
 650              		.align	1
 651              		.globl	i2c_data_transmit
 653              	i2c_data_transmit:
 654              	.LFB16:
 330:arch/riscv/mach-gd32vf10x/bsp/gd32vf103_i2c.c **** 
 331:arch/riscv/mach-gd32vf10x/bsp/gd32vf103_i2c.c **** /*!
 332:arch/riscv/mach-gd32vf10x/bsp/gd32vf103_i2c.c ****     \brief      I2C transmit data function
 333:arch/riscv/mach-gd32vf10x/bsp/gd32vf103_i2c.c ****     \param[in]  i2c_periph: I2Cx(x=0,1)
 334:arch/riscv/mach-gd32vf10x/bsp/gd32vf103_i2c.c ****     \param[in]  data: data of transmission 
 335:arch/riscv/mach-gd32vf10x/bsp/gd32vf103_i2c.c ****     \param[out] none
 336:arch/riscv/mach-gd32vf10x/bsp/gd32vf103_i2c.c ****     \retval     none
 337:arch/riscv/mach-gd32vf10x/bsp/gd32vf103_i2c.c ****  */
 338:arch/riscv/mach-gd32vf10x/bsp/gd32vf103_i2c.c **** void i2c_data_transmit(uint32_t i2c_periph, uint8_t data) 
 339:arch/riscv/mach-gd32vf10x/bsp/gd32vf103_i2c.c **** {
 655              		.loc 1 339 1 is_stmt 1
 656              		.cfi_startproc
 657              	.LVL62:
 340:arch/riscv/mach-gd32vf10x/bsp/gd32vf103_i2c.c ****     I2C_DATA(i2c_periph) = DATA_TRANS(data);
 658              		.loc 1 340 5
 659              		.loc 1 340 26 is_stmt 0
 660 0000 0CC9     		sw	a1,16(a0)
 341:arch/riscv/mach-gd32vf10x/bsp/gd32vf103_i2c.c **** }
 661              		.loc 1 341 1
 662 0002 8280     		ret
 663              		.cfi_endproc
 664              	.LFE16:
 666              		.section	.text.i2c_data_receive,"ax",@progbits
 667              		.align	1
 668              		.globl	i2c_data_receive
 670              	i2c_data_receive:
 671              	.LFB17:
 342:arch/riscv/mach-gd32vf10x/bsp/gd32vf103_i2c.c **** 
 343:arch/riscv/mach-gd32vf10x/bsp/gd32vf103_i2c.c **** /*!
 344:arch/riscv/mach-gd32vf10x/bsp/gd32vf103_i2c.c ****     \brief      I2C receive data function
 345:arch/riscv/mach-gd32vf10x/bsp/gd32vf103_i2c.c ****     \param[in]  i2c_periph: I2Cx(x=0,1)
 346:arch/riscv/mach-gd32vf10x/bsp/gd32vf103_i2c.c ****     \param[out] none
 347:arch/riscv/mach-gd32vf10x/bsp/gd32vf103_i2c.c ****     \retval     data of received
 348:arch/riscv/mach-gd32vf10x/bsp/gd32vf103_i2c.c ****  */
 349:arch/riscv/mach-gd32vf10x/bsp/gd32vf103_i2c.c **** uint8_t i2c_data_receive(uint32_t i2c_periph) 
 350:arch/riscv/mach-gd32vf10x/bsp/gd32vf103_i2c.c **** {
 672              		.loc 1 350 1 is_stmt 1
 673              		.cfi_startproc
 674              	.LVL63:
 351:arch/riscv/mach-gd32vf10x/bsp/gd32vf103_i2c.c ****     return (uint8_t) DATA_RECV(I2C_DATA(i2c_periph));
 675              		.loc 1 351 5
 676              		.loc 1 351 22 is_stmt 0
 677 0000 0849     		lw	a0,16(a0)
 678              	.LVL64:
 352:arch/riscv/mach-gd32vf10x/bsp/gd32vf103_i2c.c **** }
 679              		.loc 1 352 1
 680 0002 1375F50F 		andi	a0,a0,0xff
 681 0006 8280     		ret
 682              		.cfi_endproc
GAS LISTING C:\Users\test\AppData\Local\Temp\ccMxCYS3.s 			page 20


 683              	.LFE17:
 685              		.section	.text.i2c_dma_enable,"ax",@progbits
 686              		.align	1
 687              		.globl	i2c_dma_enable
 689              	i2c_dma_enable:
 690              	.LFB18:
 353:arch/riscv/mach-gd32vf10x/bsp/gd32vf103_i2c.c **** 
 354:arch/riscv/mach-gd32vf10x/bsp/gd32vf103_i2c.c **** /*!
 355:arch/riscv/mach-gd32vf10x/bsp/gd32vf103_i2c.c ****     \brief      enable I2C DMA mode 
 356:arch/riscv/mach-gd32vf10x/bsp/gd32vf103_i2c.c ****     \param[in]  i2c_periph: I2Cx(x=0,1)
 357:arch/riscv/mach-gd32vf10x/bsp/gd32vf103_i2c.c ****     \param[in]  dmastate:
 358:arch/riscv/mach-gd32vf10x/bsp/gd32vf103_i2c.c ****                 only one parameter can be selected which is shown as below:
 359:arch/riscv/mach-gd32vf10x/bsp/gd32vf103_i2c.c ****     \arg        I2C_DMA_ON: DMA mode enable
 360:arch/riscv/mach-gd32vf10x/bsp/gd32vf103_i2c.c ****     \arg        I2C_DMA_OFF: DMA mode disable
 361:arch/riscv/mach-gd32vf10x/bsp/gd32vf103_i2c.c ****     \param[out] none
 362:arch/riscv/mach-gd32vf10x/bsp/gd32vf103_i2c.c ****     \retval     none
 363:arch/riscv/mach-gd32vf10x/bsp/gd32vf103_i2c.c ****  */
 364:arch/riscv/mach-gd32vf10x/bsp/gd32vf103_i2c.c **** void i2c_dma_enable(uint32_t i2c_periph, uint32_t dmastate) 
 365:arch/riscv/mach-gd32vf10x/bsp/gd32vf103_i2c.c **** {
 691              		.loc 1 365 1 is_stmt 1
 692              		.cfi_startproc
 693              	.LVL65:
 366:arch/riscv/mach-gd32vf10x/bsp/gd32vf103_i2c.c ****     /* configure I2C DMA function */
 367:arch/riscv/mach-gd32vf10x/bsp/gd32vf103_i2c.c ****     uint32_t ctl = 0U;
 694              		.loc 1 367 5
 368:arch/riscv/mach-gd32vf10x/bsp/gd32vf103_i2c.c **** 
 369:arch/riscv/mach-gd32vf10x/bsp/gd32vf103_i2c.c ****     ctl = I2C_CTL1(i2c_periph);
 695              		.loc 1 369 5
 696              		.loc 1 369 9 is_stmt 0
 697 0000 5C41     		lw	a5,4(a0)
 698              	.LVL66:
 370:arch/riscv/mach-gd32vf10x/bsp/gd32vf103_i2c.c ****     ctl &= ~(I2C_CTL1_DMAON);
 699              		.loc 1 370 5 is_stmt 1
 700              		.loc 1 370 9 is_stmt 0
 701 0002 7D77     		li	a4,-4096
 702 0004 1307F77F 		addi	a4,a4,2047
 703 0008 F98F     		and	a5,a5,a4
 704              	.LVL67:
 371:arch/riscv/mach-gd32vf10x/bsp/gd32vf103_i2c.c ****     ctl |= dmastate;
 705              		.loc 1 371 5 is_stmt 1
 706              		.loc 1 371 9 is_stmt 0
 707 000a DD8D     		or	a1,a5,a1
 708              	.LVL68:
 372:arch/riscv/mach-gd32vf10x/bsp/gd32vf103_i2c.c ****     I2C_CTL1(i2c_periph) = ctl;
 709              		.loc 1 372 5 is_stmt 1
 710              		.loc 1 372 26 is_stmt 0
 711 000c 4CC1     		sw	a1,4(a0)
 373:arch/riscv/mach-gd32vf10x/bsp/gd32vf103_i2c.c **** }
 712              		.loc 1 373 1
 713 000e 8280     		ret
 714              		.cfi_endproc
 715              	.LFE18:
 717              		.section	.text.i2c_dma_last_transfer_config,"ax",@progbits
 718              		.align	1
 719              		.globl	i2c_dma_last_transfer_config
 721              	i2c_dma_last_transfer_config:
 722              	.LFB19:
GAS LISTING C:\Users\test\AppData\Local\Temp\ccMxCYS3.s 			page 21


 374:arch/riscv/mach-gd32vf10x/bsp/gd32vf103_i2c.c **** 
 375:arch/riscv/mach-gd32vf10x/bsp/gd32vf103_i2c.c **** /*!
 376:arch/riscv/mach-gd32vf10x/bsp/gd32vf103_i2c.c ****     \brief      configure whether next DMA EOT is DMA last transfer or not
 377:arch/riscv/mach-gd32vf10x/bsp/gd32vf103_i2c.c ****     \param[in]  i2c_periph: I2Cx(x=0,1)
 378:arch/riscv/mach-gd32vf10x/bsp/gd32vf103_i2c.c ****     \param[in]  dmalast:
 379:arch/riscv/mach-gd32vf10x/bsp/gd32vf103_i2c.c ****                 only one parameter can be selected which is shown as below:
 380:arch/riscv/mach-gd32vf10x/bsp/gd32vf103_i2c.c ****     \arg        I2C_DMALST_ON: next DMA EOT is the last transfer
 381:arch/riscv/mach-gd32vf10x/bsp/gd32vf103_i2c.c ****     \arg        I2C_DMALST_OFF: next DMA EOT is not the last transfer
 382:arch/riscv/mach-gd32vf10x/bsp/gd32vf103_i2c.c ****     \param[out] none
 383:arch/riscv/mach-gd32vf10x/bsp/gd32vf103_i2c.c ****     \retval     none
 384:arch/riscv/mach-gd32vf10x/bsp/gd32vf103_i2c.c ****  */
 385:arch/riscv/mach-gd32vf10x/bsp/gd32vf103_i2c.c **** void i2c_dma_last_transfer_config(uint32_t i2c_periph, uint32_t dmalast) 
 386:arch/riscv/mach-gd32vf10x/bsp/gd32vf103_i2c.c **** {
 723              		.loc 1 386 1 is_stmt 1
 724              		.cfi_startproc
 725              	.LVL69:
 387:arch/riscv/mach-gd32vf10x/bsp/gd32vf103_i2c.c ****     /* configure DMA last transfer */
 388:arch/riscv/mach-gd32vf10x/bsp/gd32vf103_i2c.c ****     uint32_t ctl = 0U;
 726              		.loc 1 388 5
 389:arch/riscv/mach-gd32vf10x/bsp/gd32vf103_i2c.c **** 
 390:arch/riscv/mach-gd32vf10x/bsp/gd32vf103_i2c.c ****     ctl = I2C_CTL1(i2c_periph);
 727              		.loc 1 390 5
 728              		.loc 1 390 9 is_stmt 0
 729 0000 5C41     		lw	a5,4(a0)
 730              	.LVL70:
 391:arch/riscv/mach-gd32vf10x/bsp/gd32vf103_i2c.c ****     ctl &= ~(I2C_CTL1_DMALST);
 731              		.loc 1 391 5 is_stmt 1
 732              		.loc 1 391 9 is_stmt 0
 733 0002 7D77     		li	a4,-4096
 734 0004 7D17     		addi	a4,a4,-1
 735 0006 F98F     		and	a5,a5,a4
 736              	.LVL71:
 392:arch/riscv/mach-gd32vf10x/bsp/gd32vf103_i2c.c ****     ctl |= dmalast;
 737              		.loc 1 392 5 is_stmt 1
 738              		.loc 1 392 9 is_stmt 0
 739 0008 DD8D     		or	a1,a5,a1
 740              	.LVL72:
 393:arch/riscv/mach-gd32vf10x/bsp/gd32vf103_i2c.c ****     I2C_CTL1(i2c_periph) = ctl;
 741              		.loc 1 393 5 is_stmt 1
 742              		.loc 1 393 26 is_stmt 0
 743 000a 4CC1     		sw	a1,4(a0)
 394:arch/riscv/mach-gd32vf10x/bsp/gd32vf103_i2c.c **** }
 744              		.loc 1 394 1
 745 000c 8280     		ret
 746              		.cfi_endproc
 747              	.LFE19:
 749              		.section	.text.i2c_stretch_scl_low_config,"ax",@progbits
 750              		.align	1
 751              		.globl	i2c_stretch_scl_low_config
 753              	i2c_stretch_scl_low_config:
 754              	.LFB20:
 395:arch/riscv/mach-gd32vf10x/bsp/gd32vf103_i2c.c **** 
 396:arch/riscv/mach-gd32vf10x/bsp/gd32vf103_i2c.c **** /*!
 397:arch/riscv/mach-gd32vf10x/bsp/gd32vf103_i2c.c ****     \brief      whether to stretch SCL low when data is not ready in slave mode 
 398:arch/riscv/mach-gd32vf10x/bsp/gd32vf103_i2c.c ****     \param[in]  i2c_periph: I2Cx(x=0,1)
 399:arch/riscv/mach-gd32vf10x/bsp/gd32vf103_i2c.c ****     \param[in]  stretchpara:
 400:arch/riscv/mach-gd32vf10x/bsp/gd32vf103_i2c.c ****                 only one parameter can be selected which is shown as below:
GAS LISTING C:\Users\test\AppData\Local\Temp\ccMxCYS3.s 			page 22


 401:arch/riscv/mach-gd32vf10x/bsp/gd32vf103_i2c.c ****     \arg        I2C_SCLSTRETCH_ENABLE: SCL stretching is enabled
 402:arch/riscv/mach-gd32vf10x/bsp/gd32vf103_i2c.c ****     \arg        I2C_SCLSTRETCH_DISABLE: SCL stretching is disabled
 403:arch/riscv/mach-gd32vf10x/bsp/gd32vf103_i2c.c ****     \param[out] none
 404:arch/riscv/mach-gd32vf10x/bsp/gd32vf103_i2c.c ****     \retval     none
 405:arch/riscv/mach-gd32vf10x/bsp/gd32vf103_i2c.c ****  */
 406:arch/riscv/mach-gd32vf10x/bsp/gd32vf103_i2c.c **** void i2c_stretch_scl_low_config(uint32_t i2c_periph, uint32_t stretchpara) 
 407:arch/riscv/mach-gd32vf10x/bsp/gd32vf103_i2c.c **** {
 755              		.loc 1 407 1 is_stmt 1
 756              		.cfi_startproc
 757              	.LVL73:
 408:arch/riscv/mach-gd32vf10x/bsp/gd32vf103_i2c.c ****     /* configure I2C SCL strerching enable or disable */
 409:arch/riscv/mach-gd32vf10x/bsp/gd32vf103_i2c.c ****     uint32_t ctl = 0U;
 758              		.loc 1 409 5
 410:arch/riscv/mach-gd32vf10x/bsp/gd32vf103_i2c.c **** 
 411:arch/riscv/mach-gd32vf10x/bsp/gd32vf103_i2c.c ****     ctl = I2C_CTL0(i2c_periph);
 759              		.loc 1 411 5
 760              		.loc 1 411 9 is_stmt 0
 761 0000 1C41     		lw	a5,0(a0)
 762              	.LVL74:
 412:arch/riscv/mach-gd32vf10x/bsp/gd32vf103_i2c.c ****     ctl &= ~(I2C_CTL0_SS);
 763              		.loc 1 412 5 is_stmt 1
 764              		.loc 1 412 9 is_stmt 0
 765 0002 93F7F7F7 		andi	a5,a5,-129
 766              	.LVL75:
 413:arch/riscv/mach-gd32vf10x/bsp/gd32vf103_i2c.c ****     ctl |= stretchpara;
 767              		.loc 1 413 5 is_stmt 1
 768              		.loc 1 413 9 is_stmt 0
 769 0006 DD8D     		or	a1,a5,a1
 770              	.LVL76:
 414:arch/riscv/mach-gd32vf10x/bsp/gd32vf103_i2c.c ****     I2C_CTL0(i2c_periph) = ctl;
 771              		.loc 1 414 5 is_stmt 1
 772              		.loc 1 414 26 is_stmt 0
 773 0008 0CC1     		sw	a1,0(a0)
 415:arch/riscv/mach-gd32vf10x/bsp/gd32vf103_i2c.c **** }
 774              		.loc 1 415 1
 775 000a 8280     		ret
 776              		.cfi_endproc
 777              	.LFE20:
 779              		.section	.text.i2c_slave_response_to_gcall_config,"ax",@progbits
 780              		.align	1
 781              		.globl	i2c_slave_response_to_gcall_config
 783              	i2c_slave_response_to_gcall_config:
 784              	.LFB21:
 416:arch/riscv/mach-gd32vf10x/bsp/gd32vf103_i2c.c **** 
 417:arch/riscv/mach-gd32vf10x/bsp/gd32vf103_i2c.c **** /*!
 418:arch/riscv/mach-gd32vf10x/bsp/gd32vf103_i2c.c ****     \brief      whether or not to response to a general call 
 419:arch/riscv/mach-gd32vf10x/bsp/gd32vf103_i2c.c ****     \param[in]  i2c_periph: I2Cx(x=0,1)
 420:arch/riscv/mach-gd32vf10x/bsp/gd32vf103_i2c.c ****     \param[in]  gcallpara:
 421:arch/riscv/mach-gd32vf10x/bsp/gd32vf103_i2c.c ****                 only one parameter can be selected which is shown as below:
 422:arch/riscv/mach-gd32vf10x/bsp/gd32vf103_i2c.c ****     \arg        I2C_GCEN_ENABLE: slave will response to a general call
 423:arch/riscv/mach-gd32vf10x/bsp/gd32vf103_i2c.c ****     \arg        I2C_GCEN_DISABLE: slave will not response to a general call
 424:arch/riscv/mach-gd32vf10x/bsp/gd32vf103_i2c.c ****     \param[out] none
 425:arch/riscv/mach-gd32vf10x/bsp/gd32vf103_i2c.c ****     \retval     none
 426:arch/riscv/mach-gd32vf10x/bsp/gd32vf103_i2c.c ****  */
 427:arch/riscv/mach-gd32vf10x/bsp/gd32vf103_i2c.c **** void i2c_slave_response_to_gcall_config(uint32_t i2c_periph, uint32_t gcallpara)
 428:arch/riscv/mach-gd32vf10x/bsp/gd32vf103_i2c.c **** {
 785              		.loc 1 428 1 is_stmt 1
GAS LISTING C:\Users\test\AppData\Local\Temp\ccMxCYS3.s 			page 23


 786              		.cfi_startproc
 787              	.LVL77:
 429:arch/riscv/mach-gd32vf10x/bsp/gd32vf103_i2c.c ****     /* configure slave response to a general call enable or disable */
 430:arch/riscv/mach-gd32vf10x/bsp/gd32vf103_i2c.c ****     uint32_t ctl = 0U;
 788              		.loc 1 430 5
 431:arch/riscv/mach-gd32vf10x/bsp/gd32vf103_i2c.c **** 
 432:arch/riscv/mach-gd32vf10x/bsp/gd32vf103_i2c.c ****     ctl = I2C_CTL0(i2c_periph);
 789              		.loc 1 432 5
 790              		.loc 1 432 9 is_stmt 0
 791 0000 1C41     		lw	a5,0(a0)
 792              	.LVL78:
 433:arch/riscv/mach-gd32vf10x/bsp/gd32vf103_i2c.c ****     ctl &= ~(I2C_CTL0_GCEN);
 793              		.loc 1 433 5 is_stmt 1
 794              		.loc 1 433 9 is_stmt 0
 795 0002 93F7F7FB 		andi	a5,a5,-65
 796              	.LVL79:
 434:arch/riscv/mach-gd32vf10x/bsp/gd32vf103_i2c.c ****     ctl |= gcallpara;
 797              		.loc 1 434 5 is_stmt 1
 798              		.loc 1 434 9 is_stmt 0
 799 0006 DD8D     		or	a1,a5,a1
 800              	.LVL80:
 435:arch/riscv/mach-gd32vf10x/bsp/gd32vf103_i2c.c ****     I2C_CTL0(i2c_periph) = ctl;
 801              		.loc 1 435 5 is_stmt 1
 802              		.loc 1 435 26 is_stmt 0
 803 0008 0CC1     		sw	a1,0(a0)
 436:arch/riscv/mach-gd32vf10x/bsp/gd32vf103_i2c.c **** }
 804              		.loc 1 436 1
 805 000a 8280     		ret
 806              		.cfi_endproc
 807              	.LFE21:
 809              		.section	.text.i2c_software_reset_config,"ax",@progbits
 810              		.align	1
 811              		.globl	i2c_software_reset_config
 813              	i2c_software_reset_config:
 814              	.LFB22:
 437:arch/riscv/mach-gd32vf10x/bsp/gd32vf103_i2c.c **** 
 438:arch/riscv/mach-gd32vf10x/bsp/gd32vf103_i2c.c **** /*!
 439:arch/riscv/mach-gd32vf10x/bsp/gd32vf103_i2c.c ****     \brief      software reset I2C 
 440:arch/riscv/mach-gd32vf10x/bsp/gd32vf103_i2c.c ****     \param[in]  i2c_periph: I2Cx(x=0,1)
 441:arch/riscv/mach-gd32vf10x/bsp/gd32vf103_i2c.c ****     \param[in]  sreset:
 442:arch/riscv/mach-gd32vf10x/bsp/gd32vf103_i2c.c ****                 only one parameter can be selected which is shown as below:
 443:arch/riscv/mach-gd32vf10x/bsp/gd32vf103_i2c.c ****     \arg        I2C_SRESET_SET: I2C is under reset
 444:arch/riscv/mach-gd32vf10x/bsp/gd32vf103_i2c.c ****     \arg        I2C_SRESET_RESET: I2C is not under reset
 445:arch/riscv/mach-gd32vf10x/bsp/gd32vf103_i2c.c ****     \param[out] none
 446:arch/riscv/mach-gd32vf10x/bsp/gd32vf103_i2c.c ****     \retval     none
 447:arch/riscv/mach-gd32vf10x/bsp/gd32vf103_i2c.c ****  */
 448:arch/riscv/mach-gd32vf10x/bsp/gd32vf103_i2c.c **** void i2c_software_reset_config(uint32_t i2c_periph, uint32_t sreset)
 449:arch/riscv/mach-gd32vf10x/bsp/gd32vf103_i2c.c **** {
 815              		.loc 1 449 1 is_stmt 1
 816              		.cfi_startproc
 817              	.LVL81:
 450:arch/riscv/mach-gd32vf10x/bsp/gd32vf103_i2c.c ****     /* modify CTL0 and configure software reset I2C state */
 451:arch/riscv/mach-gd32vf10x/bsp/gd32vf103_i2c.c ****     uint32_t ctl = 0U;
 818              		.loc 1 451 5
 452:arch/riscv/mach-gd32vf10x/bsp/gd32vf103_i2c.c **** 
 453:arch/riscv/mach-gd32vf10x/bsp/gd32vf103_i2c.c ****     ctl = I2C_CTL0(i2c_periph);
 819              		.loc 1 453 5
GAS LISTING C:\Users\test\AppData\Local\Temp\ccMxCYS3.s 			page 24


 820              		.loc 1 453 9 is_stmt 0
 821 0000 1C41     		lw	a5,0(a0)
 822              	.LVL82:
 454:arch/riscv/mach-gd32vf10x/bsp/gd32vf103_i2c.c ****     ctl &= ~(I2C_CTL0_SRESET);
 823              		.loc 1 454 5 is_stmt 1
 824              		.loc 1 454 9 is_stmt 0
 825 0002 6177     		li	a4,-32768
 826 0004 7D17     		addi	a4,a4,-1
 827 0006 F98F     		and	a5,a5,a4
 828              	.LVL83:
 455:arch/riscv/mach-gd32vf10x/bsp/gd32vf103_i2c.c ****     ctl |= sreset;
 829              		.loc 1 455 5 is_stmt 1
 830              		.loc 1 455 9 is_stmt 0
 831 0008 DD8D     		or	a1,a5,a1
 832              	.LVL84:
 456:arch/riscv/mach-gd32vf10x/bsp/gd32vf103_i2c.c ****     I2C_CTL0(i2c_periph) = ctl;
 833              		.loc 1 456 5 is_stmt 1
 834              		.loc 1 456 26 is_stmt 0
 835 000a 0CC1     		sw	a1,0(a0)
 457:arch/riscv/mach-gd32vf10x/bsp/gd32vf103_i2c.c **** }
 836              		.loc 1 457 1
 837 000c 8280     		ret
 838              		.cfi_endproc
 839              	.LFE22:
 841              		.section	.text.i2c_pec_enable,"ax",@progbits
 842              		.align	1
 843              		.globl	i2c_pec_enable
 845              	i2c_pec_enable:
 846              	.LFB23:
 458:arch/riscv/mach-gd32vf10x/bsp/gd32vf103_i2c.c **** 
 459:arch/riscv/mach-gd32vf10x/bsp/gd32vf103_i2c.c **** /*!
 460:arch/riscv/mach-gd32vf10x/bsp/gd32vf103_i2c.c ****     \brief      I2C PEC calculation on or off
 461:arch/riscv/mach-gd32vf10x/bsp/gd32vf103_i2c.c ****     \param[in]  i2c_periph: I2Cx(x=0,1)
 462:arch/riscv/mach-gd32vf10x/bsp/gd32vf103_i2c.c ****     \param[in]  pecpara:
 463:arch/riscv/mach-gd32vf10x/bsp/gd32vf103_i2c.c ****                 only one parameter can be selected which is shown as below:
 464:arch/riscv/mach-gd32vf10x/bsp/gd32vf103_i2c.c ****     \arg        I2C_PEC_ENABLE: PEC calculation on 
 465:arch/riscv/mach-gd32vf10x/bsp/gd32vf103_i2c.c ****     \arg        I2C_PEC_DISABLE: PEC calculation off 
 466:arch/riscv/mach-gd32vf10x/bsp/gd32vf103_i2c.c ****     \param[out] none
 467:arch/riscv/mach-gd32vf10x/bsp/gd32vf103_i2c.c ****     \retval     none
 468:arch/riscv/mach-gd32vf10x/bsp/gd32vf103_i2c.c ****  */
 469:arch/riscv/mach-gd32vf10x/bsp/gd32vf103_i2c.c **** void i2c_pec_enable(uint32_t i2c_periph, uint32_t pecstate) 
 470:arch/riscv/mach-gd32vf10x/bsp/gd32vf103_i2c.c **** {
 847              		.loc 1 470 1 is_stmt 1
 848              		.cfi_startproc
 849              	.LVL85:
 471:arch/riscv/mach-gd32vf10x/bsp/gd32vf103_i2c.c ****     /* on/off PEC calculation */
 472:arch/riscv/mach-gd32vf10x/bsp/gd32vf103_i2c.c ****     uint32_t ctl = 0U;
 850              		.loc 1 472 5
 473:arch/riscv/mach-gd32vf10x/bsp/gd32vf103_i2c.c **** 
 474:arch/riscv/mach-gd32vf10x/bsp/gd32vf103_i2c.c ****     ctl = I2C_CTL0(i2c_periph);
 851              		.loc 1 474 5
 852              		.loc 1 474 9 is_stmt 0
 853 0000 1C41     		lw	a5,0(a0)
 854              	.LVL86:
 475:arch/riscv/mach-gd32vf10x/bsp/gd32vf103_i2c.c ****     ctl &= ~(I2C_CTL0_PECEN);
 855              		.loc 1 475 5 is_stmt 1
 856              		.loc 1 475 9 is_stmt 0
GAS LISTING C:\Users\test\AppData\Local\Temp\ccMxCYS3.s 			page 25


 857 0002 93F7F7FD 		andi	a5,a5,-33
 858              	.LVL87:
 476:arch/riscv/mach-gd32vf10x/bsp/gd32vf103_i2c.c ****     ctl |= pecstate;
 859              		.loc 1 476 5 is_stmt 1
 860              		.loc 1 476 9 is_stmt 0
 861 0006 DD8D     		or	a1,a5,a1
 862              	.LVL88:
 477:arch/riscv/mach-gd32vf10x/bsp/gd32vf103_i2c.c ****     I2C_CTL0(i2c_periph) = ctl;
 863              		.loc 1 477 5 is_stmt 1
 864              		.loc 1 477 26 is_stmt 0
 865 0008 0CC1     		sw	a1,0(a0)
 478:arch/riscv/mach-gd32vf10x/bsp/gd32vf103_i2c.c **** }
 866              		.loc 1 478 1
 867 000a 8280     		ret
 868              		.cfi_endproc
 869              	.LFE23:
 871              		.section	.text.i2c_pec_transfer_enable,"ax",@progbits
 872              		.align	1
 873              		.globl	i2c_pec_transfer_enable
 875              	i2c_pec_transfer_enable:
 876              	.LFB24:
 479:arch/riscv/mach-gd32vf10x/bsp/gd32vf103_i2c.c **** 
 480:arch/riscv/mach-gd32vf10x/bsp/gd32vf103_i2c.c **** /*!
 481:arch/riscv/mach-gd32vf10x/bsp/gd32vf103_i2c.c ****     \brief      I2C whether to transfer PEC value
 482:arch/riscv/mach-gd32vf10x/bsp/gd32vf103_i2c.c ****     \param[in]  i2c_periph: I2Cx(x=0,1)
 483:arch/riscv/mach-gd32vf10x/bsp/gd32vf103_i2c.c ****     \param[in]  pecpara:
 484:arch/riscv/mach-gd32vf10x/bsp/gd32vf103_i2c.c ****                 only one parameter can be selected which is shown as below:
 485:arch/riscv/mach-gd32vf10x/bsp/gd32vf103_i2c.c ****     \arg        I2C_PECTRANS_ENABLE: transfer PEC 
 486:arch/riscv/mach-gd32vf10x/bsp/gd32vf103_i2c.c ****     \arg        I2C_PECTRANS_DISABLE: not transfer PEC 
 487:arch/riscv/mach-gd32vf10x/bsp/gd32vf103_i2c.c ****     \param[out] none
 488:arch/riscv/mach-gd32vf10x/bsp/gd32vf103_i2c.c ****     \retval     none
 489:arch/riscv/mach-gd32vf10x/bsp/gd32vf103_i2c.c ****  */
 490:arch/riscv/mach-gd32vf10x/bsp/gd32vf103_i2c.c **** void i2c_pec_transfer_enable(uint32_t i2c_periph, uint32_t pecpara) 
 491:arch/riscv/mach-gd32vf10x/bsp/gd32vf103_i2c.c **** {
 877              		.loc 1 491 1 is_stmt 1
 878              		.cfi_startproc
 879              	.LVL89:
 492:arch/riscv/mach-gd32vf10x/bsp/gd32vf103_i2c.c ****     /* whether to transfer PEC */
 493:arch/riscv/mach-gd32vf10x/bsp/gd32vf103_i2c.c ****     uint32_t ctl = 0U;
 880              		.loc 1 493 5
 494:arch/riscv/mach-gd32vf10x/bsp/gd32vf103_i2c.c **** 
 495:arch/riscv/mach-gd32vf10x/bsp/gd32vf103_i2c.c ****     ctl = I2C_CTL0(i2c_periph);
 881              		.loc 1 495 5
 882              		.loc 1 495 9 is_stmt 0
 883 0000 1C41     		lw	a5,0(a0)
 884              	.LVL90:
 496:arch/riscv/mach-gd32vf10x/bsp/gd32vf103_i2c.c ****     ctl &= ~(I2C_CTL0_PECTRANS);
 885              		.loc 1 496 5 is_stmt 1
 886              		.loc 1 496 9 is_stmt 0
 887 0002 7D77     		li	a4,-4096
 888 0004 7D17     		addi	a4,a4,-1
 889 0006 F98F     		and	a5,a5,a4
 890              	.LVL91:
 497:arch/riscv/mach-gd32vf10x/bsp/gd32vf103_i2c.c ****     ctl |= pecpara;
 891              		.loc 1 497 5 is_stmt 1
 892              		.loc 1 497 9 is_stmt 0
 893 0008 DD8D     		or	a1,a5,a1
GAS LISTING C:\Users\test\AppData\Local\Temp\ccMxCYS3.s 			page 26


 894              	.LVL92:
 498:arch/riscv/mach-gd32vf10x/bsp/gd32vf103_i2c.c ****     I2C_CTL0(i2c_periph) = ctl;
 895              		.loc 1 498 5 is_stmt 1
 896              		.loc 1 498 26 is_stmt 0
 897 000a 0CC1     		sw	a1,0(a0)
 499:arch/riscv/mach-gd32vf10x/bsp/gd32vf103_i2c.c **** }
 898              		.loc 1 499 1
 899 000c 8280     		ret
 900              		.cfi_endproc
 901              	.LFE24:
 903              		.section	.text.i2c_pec_value_get,"ax",@progbits
 904              		.align	1
 905              		.globl	i2c_pec_value_get
 907              	i2c_pec_value_get:
 908              	.LFB25:
 500:arch/riscv/mach-gd32vf10x/bsp/gd32vf103_i2c.c **** 
 501:arch/riscv/mach-gd32vf10x/bsp/gd32vf103_i2c.c **** /*!
 502:arch/riscv/mach-gd32vf10x/bsp/gd32vf103_i2c.c ****     \brief      get packet error checking value 
 503:arch/riscv/mach-gd32vf10x/bsp/gd32vf103_i2c.c ****     \param[in]  i2c_periph: I2Cx(x=0,1)
 504:arch/riscv/mach-gd32vf10x/bsp/gd32vf103_i2c.c ****     \param[out] none
 505:arch/riscv/mach-gd32vf10x/bsp/gd32vf103_i2c.c ****     \retval     PEC value
 506:arch/riscv/mach-gd32vf10x/bsp/gd32vf103_i2c.c ****  */
 507:arch/riscv/mach-gd32vf10x/bsp/gd32vf103_i2c.c **** uint8_t i2c_pec_value_get(uint32_t i2c_periph) 
 508:arch/riscv/mach-gd32vf10x/bsp/gd32vf103_i2c.c **** {
 909              		.loc 1 508 1 is_stmt 1
 910              		.cfi_startproc
 911              	.LVL93:
 509:arch/riscv/mach-gd32vf10x/bsp/gd32vf103_i2c.c ****     return (uint8_t) ((I2C_STAT1(i2c_periph) & I2C_STAT1_PECV)>> STAT1_PECV_OFFSET);
 912              		.loc 1 509 5
 913              		.loc 1 509 24 is_stmt 0
 914 0000 084D     		lw	a0,24(a0)
 915              	.LVL94:
 916              		.loc 1 509 63
 917 0002 2181     		srli	a0,a0,8
 510:arch/riscv/mach-gd32vf10x/bsp/gd32vf103_i2c.c **** }
 918              		.loc 1 510 1
 919 0004 1375F50F 		andi	a0,a0,0xff
 920 0008 8280     		ret
 921              		.cfi_endproc
 922              	.LFE25:
 924              		.section	.text.i2c_smbus_issue_alert,"ax",@progbits
 925              		.align	1
 926              		.globl	i2c_smbus_issue_alert
 928              	i2c_smbus_issue_alert:
 929              	.LFB26:
 511:arch/riscv/mach-gd32vf10x/bsp/gd32vf103_i2c.c **** 
 512:arch/riscv/mach-gd32vf10x/bsp/gd32vf103_i2c.c **** /*!
 513:arch/riscv/mach-gd32vf10x/bsp/gd32vf103_i2c.c ****     \brief      I2C issue alert through SMBA pin 
 514:arch/riscv/mach-gd32vf10x/bsp/gd32vf103_i2c.c ****     \param[in]  i2c_periph: I2Cx(x=0,1)
 515:arch/riscv/mach-gd32vf10x/bsp/gd32vf103_i2c.c ****     \param[in]  smbuspara:
 516:arch/riscv/mach-gd32vf10x/bsp/gd32vf103_i2c.c ****                 only one parameter can be selected which is shown as below:
 517:arch/riscv/mach-gd32vf10x/bsp/gd32vf103_i2c.c ****     \arg        I2C_SALTSEND_ENABLE: issue alert through SMBA pin 
 518:arch/riscv/mach-gd32vf10x/bsp/gd32vf103_i2c.c ****     \arg        I2C_SALTSEND_DISABLE: not issue alert through SMBA pin 
 519:arch/riscv/mach-gd32vf10x/bsp/gd32vf103_i2c.c ****     \param[out] none
 520:arch/riscv/mach-gd32vf10x/bsp/gd32vf103_i2c.c ****     \retval     none
 521:arch/riscv/mach-gd32vf10x/bsp/gd32vf103_i2c.c ****  */
 522:arch/riscv/mach-gd32vf10x/bsp/gd32vf103_i2c.c **** void i2c_smbus_issue_alert(uint32_t i2c_periph, uint32_t smbuspara) 
GAS LISTING C:\Users\test\AppData\Local\Temp\ccMxCYS3.s 			page 27


 523:arch/riscv/mach-gd32vf10x/bsp/gd32vf103_i2c.c **** {
 930              		.loc 1 523 1 is_stmt 1
 931              		.cfi_startproc
 932              	.LVL95:
 524:arch/riscv/mach-gd32vf10x/bsp/gd32vf103_i2c.c ****     /* issue alert through SMBA pin configure*/
 525:arch/riscv/mach-gd32vf10x/bsp/gd32vf103_i2c.c ****     uint32_t ctl = 0U;
 933              		.loc 1 525 5
 526:arch/riscv/mach-gd32vf10x/bsp/gd32vf103_i2c.c **** 
 527:arch/riscv/mach-gd32vf10x/bsp/gd32vf103_i2c.c ****     ctl = I2C_CTL0(i2c_periph);
 934              		.loc 1 527 5
 935              		.loc 1 527 9 is_stmt 0
 936 0000 1C41     		lw	a5,0(a0)
 937              	.LVL96:
 528:arch/riscv/mach-gd32vf10x/bsp/gd32vf103_i2c.c ****     ctl &= ~(I2C_CTL0_SALT);
 938              		.loc 1 528 5 is_stmt 1
 939              		.loc 1 528 9 is_stmt 0
 940 0002 7977     		li	a4,-8192
 941 0004 7D17     		addi	a4,a4,-1
 942 0006 F98F     		and	a5,a5,a4
 943              	.LVL97:
 529:arch/riscv/mach-gd32vf10x/bsp/gd32vf103_i2c.c ****     ctl |= smbuspara;
 944              		.loc 1 529 5 is_stmt 1
 945              		.loc 1 529 9 is_stmt 0
 946 0008 DD8D     		or	a1,a5,a1
 947              	.LVL98:
 530:arch/riscv/mach-gd32vf10x/bsp/gd32vf103_i2c.c ****     I2C_CTL0(i2c_periph) = ctl;
 948              		.loc 1 530 5 is_stmt 1
 949              		.loc 1 530 26 is_stmt 0
 950 000a 0CC1     		sw	a1,0(a0)
 531:arch/riscv/mach-gd32vf10x/bsp/gd32vf103_i2c.c **** }
 951              		.loc 1 531 1
 952 000c 8280     		ret
 953              		.cfi_endproc
 954              	.LFE26:
 956              		.section	.text.i2c_smbus_arp_enable,"ax",@progbits
 957              		.align	1
 958              		.globl	i2c_smbus_arp_enable
 960              	i2c_smbus_arp_enable:
 961              	.LFB27:
 532:arch/riscv/mach-gd32vf10x/bsp/gd32vf103_i2c.c **** 
 533:arch/riscv/mach-gd32vf10x/bsp/gd32vf103_i2c.c **** /*!
 534:arch/riscv/mach-gd32vf10x/bsp/gd32vf103_i2c.c ****     \brief      enable or disable I2C ARP protocol in SMBus switch
 535:arch/riscv/mach-gd32vf10x/bsp/gd32vf103_i2c.c ****     \param[in]  i2c_periph: I2Cx(x=0,1)
 536:arch/riscv/mach-gd32vf10x/bsp/gd32vf103_i2c.c ****     \param[in]  arpstate:
 537:arch/riscv/mach-gd32vf10x/bsp/gd32vf103_i2c.c ****                 only one parameter can be selected which is shown as below:
 538:arch/riscv/mach-gd32vf10x/bsp/gd32vf103_i2c.c ****     \arg        I2C_ARP_ENABLE: enable ARP
 539:arch/riscv/mach-gd32vf10x/bsp/gd32vf103_i2c.c ****     \arg        I2C_ARP_DISABLE: disable ARP
 540:arch/riscv/mach-gd32vf10x/bsp/gd32vf103_i2c.c ****     \param[out] none
 541:arch/riscv/mach-gd32vf10x/bsp/gd32vf103_i2c.c ****     \retval     none
 542:arch/riscv/mach-gd32vf10x/bsp/gd32vf103_i2c.c ****  */
 543:arch/riscv/mach-gd32vf10x/bsp/gd32vf103_i2c.c **** void i2c_smbus_arp_enable(uint32_t i2c_periph, uint32_t arpstate)
 544:arch/riscv/mach-gd32vf10x/bsp/gd32vf103_i2c.c **** {
 962              		.loc 1 544 1 is_stmt 1
 963              		.cfi_startproc
 964              	.LVL99:
 545:arch/riscv/mach-gd32vf10x/bsp/gd32vf103_i2c.c ****     /* enable or disable I2C ARP protocol*/
 546:arch/riscv/mach-gd32vf10x/bsp/gd32vf103_i2c.c ****     uint32_t ctl = 0U;
GAS LISTING C:\Users\test\AppData\Local\Temp\ccMxCYS3.s 			page 28


 965              		.loc 1 546 5
 547:arch/riscv/mach-gd32vf10x/bsp/gd32vf103_i2c.c **** 
 548:arch/riscv/mach-gd32vf10x/bsp/gd32vf103_i2c.c ****     ctl = I2C_CTL0(i2c_periph);
 966              		.loc 1 548 5
 967              		.loc 1 548 9 is_stmt 0
 968 0000 1C41     		lw	a5,0(a0)
 969              	.LVL100:
 549:arch/riscv/mach-gd32vf10x/bsp/gd32vf103_i2c.c ****     ctl &= ~(I2C_CTL0_ARPEN);
 970              		.loc 1 549 5 is_stmt 1
 971              		.loc 1 549 9 is_stmt 0
 972 0002 BD9B     		andi	a5,a5,-17
 973              	.LVL101:
 550:arch/riscv/mach-gd32vf10x/bsp/gd32vf103_i2c.c ****     ctl |= arpstate;
 974              		.loc 1 550 5 is_stmt 1
 975              		.loc 1 550 9 is_stmt 0
 976 0004 DD8D     		or	a1,a5,a1
 977              	.LVL102:
 551:arch/riscv/mach-gd32vf10x/bsp/gd32vf103_i2c.c ****     I2C_CTL0(i2c_periph) = ctl;
 978              		.loc 1 551 5 is_stmt 1
 979              		.loc 1 551 26 is_stmt 0
 980 0006 0CC1     		sw	a1,0(a0)
 552:arch/riscv/mach-gd32vf10x/bsp/gd32vf103_i2c.c **** }
 981              		.loc 1 552 1
 982 0008 8280     		ret
 983              		.cfi_endproc
 984              	.LFE27:
 986              		.section	.text.i2c_flag_get,"ax",@progbits
 987              		.align	1
 988              		.globl	i2c_flag_get
 990              	i2c_flag_get:
 991              	.LFB28:
 553:arch/riscv/mach-gd32vf10x/bsp/gd32vf103_i2c.c **** 
 554:arch/riscv/mach-gd32vf10x/bsp/gd32vf103_i2c.c **** /*!
 555:arch/riscv/mach-gd32vf10x/bsp/gd32vf103_i2c.c ****     \brief      check I2C flag is set or not
 556:arch/riscv/mach-gd32vf10x/bsp/gd32vf103_i2c.c ****     \param[in]  i2c_periph: I2Cx(x=0,1)
 557:arch/riscv/mach-gd32vf10x/bsp/gd32vf103_i2c.c ****     \param[in]  flag: I2C flags, refer to i2c_flag_enum
 558:arch/riscv/mach-gd32vf10x/bsp/gd32vf103_i2c.c ****                 only one parameter can be selected which is shown as below:
 559:arch/riscv/mach-gd32vf10x/bsp/gd32vf103_i2c.c ****     \arg        I2C_FLAG_SBSEND: start condition send out 
 560:arch/riscv/mach-gd32vf10x/bsp/gd32vf103_i2c.c ****     \arg        I2C_FLAG_ADDSEND: address is sent in master mode or received and matches in slave m
 561:arch/riscv/mach-gd32vf10x/bsp/gd32vf103_i2c.c ****     \arg        I2C_FLAG_BTC: byte transmission finishes
 562:arch/riscv/mach-gd32vf10x/bsp/gd32vf103_i2c.c ****     \arg        I2C_FLAG_ADD10SEND: header of 10-bit address is sent in master mode
 563:arch/riscv/mach-gd32vf10x/bsp/gd32vf103_i2c.c ****     \arg        I2C_FLAG_STPDET: stop condition detected in slave mode
 564:arch/riscv/mach-gd32vf10x/bsp/gd32vf103_i2c.c ****     \arg        I2C_FLAG_RBNE: I2C_DATA is not Empty during receiving
 565:arch/riscv/mach-gd32vf10x/bsp/gd32vf103_i2c.c ****     \arg        I2C_FLAG_TBE: I2C_DATA is empty during transmitting
 566:arch/riscv/mach-gd32vf10x/bsp/gd32vf103_i2c.c ****     \arg        I2C_FLAG_BERR: a bus error occurs indication a unexpected start or stop condition o
 567:arch/riscv/mach-gd32vf10x/bsp/gd32vf103_i2c.c ****     \arg        I2C_FLAG_LOSTARB: arbitration lost in master mode
 568:arch/riscv/mach-gd32vf10x/bsp/gd32vf103_i2c.c ****     \arg        I2C_FLAG_AERR: acknowledge error
 569:arch/riscv/mach-gd32vf10x/bsp/gd32vf103_i2c.c ****     \arg        I2C_FLAG_OUERR: overrun or underrun situation occurs in slave mode
 570:arch/riscv/mach-gd32vf10x/bsp/gd32vf103_i2c.c ****     \arg        I2C_FLAG_PECERR: PEC error when receiving data
 571:arch/riscv/mach-gd32vf10x/bsp/gd32vf103_i2c.c ****     \arg        I2C_FLAG_SMBTO: timeout signal in SMBus mode
 572:arch/riscv/mach-gd32vf10x/bsp/gd32vf103_i2c.c ****     \arg        I2C_FLAG_SMBALT: SMBus alert status
 573:arch/riscv/mach-gd32vf10x/bsp/gd32vf103_i2c.c ****     \arg        I2C_FLAG_MASTER: a flag indicating whether I2C block is in master or slave mode
 574:arch/riscv/mach-gd32vf10x/bsp/gd32vf103_i2c.c ****     \arg        I2C_FLAG_I2CBSY: busy flag
 575:arch/riscv/mach-gd32vf10x/bsp/gd32vf103_i2c.c ****     \arg        I2C_FLAG_TR: whether the I2C is a transmitter or a receiver
 576:arch/riscv/mach-gd32vf10x/bsp/gd32vf103_i2c.c ****     \arg        I2C_FLAG_RXGC: general call address (00h) received
 577:arch/riscv/mach-gd32vf10x/bsp/gd32vf103_i2c.c ****     \arg        I2C_FLAG_DEFSMB: default address of SMBus device
 578:arch/riscv/mach-gd32vf10x/bsp/gd32vf103_i2c.c ****     \arg        I2C_FLAG_HSTSMB: SMBus host header detected in slave mode
GAS LISTING C:\Users\test\AppData\Local\Temp\ccMxCYS3.s 			page 29


 579:arch/riscv/mach-gd32vf10x/bsp/gd32vf103_i2c.c ****     \arg        I2C_FLAG_DUMODF: dual flag in slave mode indicating which address is matched in dua
 580:arch/riscv/mach-gd32vf10x/bsp/gd32vf103_i2c.c ****     \param[out] none
 581:arch/riscv/mach-gd32vf10x/bsp/gd32vf103_i2c.c ****     \retval     FlagStatus: SET or RESET
 582:arch/riscv/mach-gd32vf10x/bsp/gd32vf103_i2c.c ****  */
 583:arch/riscv/mach-gd32vf10x/bsp/gd32vf103_i2c.c **** FlagStatus i2c_flag_get(uint32_t i2c_periph, i2c_flag_enum flag) 
 584:arch/riscv/mach-gd32vf10x/bsp/gd32vf103_i2c.c **** {
 992              		.loc 1 584 1 is_stmt 1
 993              		.cfi_startproc
 994              	.LVL103:
 585:arch/riscv/mach-gd32vf10x/bsp/gd32vf103_i2c.c ****     if (RESET != (I2C_REG_VAL(i2c_periph, flag) & BIT(I2C_BIT_POS(flag)))) {
 995              		.loc 1 585 5
 996              		.loc 1 585 19 is_stmt 0
 997 0000 93D76500 		srli	a5,a1,6
 998 0004 93F7F73F 		andi	a5,a5,1023
 999 0008 3E95     		add	a0,a5,a0
 1000              	.LVL104:
 1001 000a 0841     		lw	a0,0(a0)
 1002              		.loc 1 585 15
 1003 000c 3355B500 		srl	a0,a0,a1
 586:arch/riscv/mach-gd32vf10x/bsp/gd32vf103_i2c.c ****         return SET;
 587:arch/riscv/mach-gd32vf10x/bsp/gd32vf103_i2c.c ****     } else {
 588:arch/riscv/mach-gd32vf10x/bsp/gd32vf103_i2c.c ****         return RESET;
 589:arch/riscv/mach-gd32vf10x/bsp/gd32vf103_i2c.c ****     }
 590:arch/riscv/mach-gd32vf10x/bsp/gd32vf103_i2c.c **** }
 1004              		.loc 1 590 1
 1005 0010 0589     		andi	a0,a0,1
 1006 0012 8280     		ret
 1007              		.cfi_endproc
 1008              	.LFE28:
 1010              		.section	.text.i2c_flag_clear,"ax",@progbits
 1011              		.align	1
 1012              		.globl	i2c_flag_clear
 1014              	i2c_flag_clear:
 1015              	.LFB29:
 591:arch/riscv/mach-gd32vf10x/bsp/gd32vf103_i2c.c **** 
 592:arch/riscv/mach-gd32vf10x/bsp/gd32vf103_i2c.c **** /*!
 593:arch/riscv/mach-gd32vf10x/bsp/gd32vf103_i2c.c ****     \brief      clear I2C flag
 594:arch/riscv/mach-gd32vf10x/bsp/gd32vf103_i2c.c ****     \param[in]  i2c_periph: I2Cx(x=0,1)
 595:arch/riscv/mach-gd32vf10x/bsp/gd32vf103_i2c.c ****     \param[in]  flag: I2C flags, refer to i2c_flag_enum
 596:arch/riscv/mach-gd32vf10x/bsp/gd32vf103_i2c.c ****                 only one parameter can be selected which is shown as below:
 597:arch/riscv/mach-gd32vf10x/bsp/gd32vf103_i2c.c ****     \arg        I2C_FLAG_SMBALT: SMBus Alert status
 598:arch/riscv/mach-gd32vf10x/bsp/gd32vf103_i2c.c ****     \arg        I2C_FLAG_SMBTO: timeout signal in SMBus mode
 599:arch/riscv/mach-gd32vf10x/bsp/gd32vf103_i2c.c ****     \arg        I2C_FLAG_PECERR: PEC error when receiving data
 600:arch/riscv/mach-gd32vf10x/bsp/gd32vf103_i2c.c ****     \arg        I2C_FLAG_OUERR: over-run or under-run situation occurs in slave mode    
 601:arch/riscv/mach-gd32vf10x/bsp/gd32vf103_i2c.c ****     \arg        I2C_FLAG_AERR: acknowledge error
 602:arch/riscv/mach-gd32vf10x/bsp/gd32vf103_i2c.c ****     \arg        I2C_FLAG_LOSTARB: arbitration lost in master mode   
 603:arch/riscv/mach-gd32vf10x/bsp/gd32vf103_i2c.c ****     \arg        I2C_FLAG_BERR: a bus error   
 604:arch/riscv/mach-gd32vf10x/bsp/gd32vf103_i2c.c ****     \arg        I2C_FLAG_ADDSEND: cleared by reading I2C_STAT0 and reading I2C_STAT1
 605:arch/riscv/mach-gd32vf10x/bsp/gd32vf103_i2c.c ****     \param[out] none
 606:arch/riscv/mach-gd32vf10x/bsp/gd32vf103_i2c.c ****     \retval     none
 607:arch/riscv/mach-gd32vf10x/bsp/gd32vf103_i2c.c ****  */
 608:arch/riscv/mach-gd32vf10x/bsp/gd32vf103_i2c.c **** void i2c_flag_clear(uint32_t i2c_periph, i2c_flag_enum flag) 
 609:arch/riscv/mach-gd32vf10x/bsp/gd32vf103_i2c.c **** {
 1016              		.loc 1 609 1 is_stmt 1
 1017              		.cfi_startproc
 1018              	.LVL105:
 610:arch/riscv/mach-gd32vf10x/bsp/gd32vf103_i2c.c ****     uint32_t temp;
GAS LISTING C:\Users\test\AppData\Local\Temp\ccMxCYS3.s 			page 30


 1019              		.loc 1 610 5
 611:arch/riscv/mach-gd32vf10x/bsp/gd32vf103_i2c.c ****     if (I2C_FLAG_ADDSEND == flag) {
 1020              		.loc 1 611 5
 1021              		.loc 1 611 8 is_stmt 0
 1022 0000 93071050 		li	a5,1281
 1023 0004 6380F502 		beq	a1,a5,.L60
 612:arch/riscv/mach-gd32vf10x/bsp/gd32vf103_i2c.c ****         /* read I2C_STAT0 and then read I2C_STAT1 to clear ADDSEND */
 613:arch/riscv/mach-gd32vf10x/bsp/gd32vf103_i2c.c ****         temp = I2C_STAT0(i2c_periph);
 614:arch/riscv/mach-gd32vf10x/bsp/gd32vf103_i2c.c ****         temp = I2C_STAT1(i2c_periph);
 615:arch/riscv/mach-gd32vf10x/bsp/gd32vf103_i2c.c ****     } else {
 616:arch/riscv/mach-gd32vf10x/bsp/gd32vf103_i2c.c ****         I2C_REG_VAL(i2c_periph, flag) &= ~BIT(I2C_BIT_POS(flag));
 1024              		.loc 1 616 9 is_stmt 1
 1025              		.loc 1 616 39 is_stmt 0
 1026 0008 13D76500 		srli	a4,a1,6
 1027 000c 1377F73F 		andi	a4,a4,1023
 1028 0010 3A95     		add	a0,a4,a0
 1029              	.LVL106:
 1030 0012 1841     		lw	a4,0(a0)
 1031              		.loc 1 616 43
 1032 0014 8547     		li	a5,1
 1033 0016 B397B700 		sll	a5,a5,a1
 1034              		.loc 1 616 42
 1035 001a 93C7F7FF 		not	a5,a5
 1036              		.loc 1 616 39
 1037 001e F98F     		and	a5,a5,a4
 1038 0020 1CC1     		sw	a5,0(a0)
 617:arch/riscv/mach-gd32vf10x/bsp/gd32vf103_i2c.c ****     }
 618:arch/riscv/mach-gd32vf10x/bsp/gd32vf103_i2c.c **** }
 1039              		.loc 1 618 1
 1040 0022 8280     		ret
 1041              	.LVL107:
 1042              	.L60:
 613:arch/riscv/mach-gd32vf10x/bsp/gd32vf103_i2c.c ****         temp = I2C_STAT1(i2c_periph);
 1043              		.loc 1 613 9 is_stmt 1
 613:arch/riscv/mach-gd32vf10x/bsp/gd32vf103_i2c.c ****         temp = I2C_STAT1(i2c_periph);
 1044              		.loc 1 613 14 is_stmt 0
 1045 0024 5C49     		lw	a5,20(a0)
 614:arch/riscv/mach-gd32vf10x/bsp/gd32vf103_i2c.c ****     } else {
 1046              		.loc 1 614 9 is_stmt 1
 614:arch/riscv/mach-gd32vf10x/bsp/gd32vf103_i2c.c ****     } else {
 1047              		.loc 1 614 14 is_stmt 0
 1048 0026 1C4D     		lw	a5,24(a0)
 1049 0028 8280     		ret
 1050              		.cfi_endproc
 1051              	.LFE29:
 1053              		.section	.text.i2c_interrupt_enable,"ax",@progbits
 1054              		.align	1
 1055              		.globl	i2c_interrupt_enable
 1057              	i2c_interrupt_enable:
 1058              	.LFB30:
 619:arch/riscv/mach-gd32vf10x/bsp/gd32vf103_i2c.c **** 
 620:arch/riscv/mach-gd32vf10x/bsp/gd32vf103_i2c.c **** /*!
 621:arch/riscv/mach-gd32vf10x/bsp/gd32vf103_i2c.c ****     \brief      enable I2C interrupt
 622:arch/riscv/mach-gd32vf10x/bsp/gd32vf103_i2c.c ****     \param[in]  i2c_periph: I2Cx(x=0,1)
 623:arch/riscv/mach-gd32vf10x/bsp/gd32vf103_i2c.c ****     \param[in]  interrupt: I2C interrupts, refer to i2c_interrupt_enum
 624:arch/riscv/mach-gd32vf10x/bsp/gd32vf103_i2c.c ****                 only one parameter can be selected which is shown as below:
 625:arch/riscv/mach-gd32vf10x/bsp/gd32vf103_i2c.c ****     \arg        I2C_INT_ERR: error interrupt enable 
GAS LISTING C:\Users\test\AppData\Local\Temp\ccMxCYS3.s 			page 31


 626:arch/riscv/mach-gd32vf10x/bsp/gd32vf103_i2c.c ****     \arg        I2C_INT_EV: event interrupt enable 
 627:arch/riscv/mach-gd32vf10x/bsp/gd32vf103_i2c.c ****     \arg        I2C_INT_BUF: buffer interrupt enable
 628:arch/riscv/mach-gd32vf10x/bsp/gd32vf103_i2c.c ****     \param[out] none
 629:arch/riscv/mach-gd32vf10x/bsp/gd32vf103_i2c.c ****     \retval     none
 630:arch/riscv/mach-gd32vf10x/bsp/gd32vf103_i2c.c ****  */
 631:arch/riscv/mach-gd32vf10x/bsp/gd32vf103_i2c.c **** void i2c_interrupt_enable(uint32_t i2c_periph, i2c_interrupt_enum interrupt) 
 632:arch/riscv/mach-gd32vf10x/bsp/gd32vf103_i2c.c **** {
 1059              		.loc 1 632 1 is_stmt 1
 1060              		.cfi_startproc
 1061              	.LVL108:
 633:arch/riscv/mach-gd32vf10x/bsp/gd32vf103_i2c.c ****     I2C_REG_VAL(i2c_periph, interrupt) |= BIT(I2C_BIT_POS(interrupt));
 1062              		.loc 1 633 5
 1063              		.loc 1 633 40 is_stmt 0
 1064 0000 93D76500 		srli	a5,a1,6
 1065 0004 93F7F73F 		andi	a5,a5,1023
 1066 0008 3E95     		add	a0,a5,a0
 1067              	.LVL109:
 1068 000a 1841     		lw	a4,0(a0)
 1069              		.loc 1 633 43
 1070 000c 8547     		li	a5,1
 1071 000e B397B700 		sll	a5,a5,a1
 1072              		.loc 1 633 40
 1073 0012 D98F     		or	a5,a5,a4
 1074 0014 1CC1     		sw	a5,0(a0)
 634:arch/riscv/mach-gd32vf10x/bsp/gd32vf103_i2c.c **** }
 1075              		.loc 1 634 1
 1076 0016 8280     		ret
 1077              		.cfi_endproc
 1078              	.LFE30:
 1080              		.section	.text.i2c_interrupt_disable,"ax",@progbits
 1081              		.align	1
 1082              		.globl	i2c_interrupt_disable
 1084              	i2c_interrupt_disable:
 1085              	.LFB31:
 635:arch/riscv/mach-gd32vf10x/bsp/gd32vf103_i2c.c **** 
 636:arch/riscv/mach-gd32vf10x/bsp/gd32vf103_i2c.c **** /*!
 637:arch/riscv/mach-gd32vf10x/bsp/gd32vf103_i2c.c ****     \brief      disable I2C interrupt
 638:arch/riscv/mach-gd32vf10x/bsp/gd32vf103_i2c.c ****     \param[in]  i2c_periph: I2Cx(x=0,1)
 639:arch/riscv/mach-gd32vf10x/bsp/gd32vf103_i2c.c ****     \param[in]  interrupt: I2C interrupts, refer to i2c_flag_enum
 640:arch/riscv/mach-gd32vf10x/bsp/gd32vf103_i2c.c ****                 only one parameter can be selected which is shown as below:
 641:arch/riscv/mach-gd32vf10x/bsp/gd32vf103_i2c.c ****     \arg        I2C_INT_ERR: error interrupt enable 
 642:arch/riscv/mach-gd32vf10x/bsp/gd32vf103_i2c.c ****     \arg        I2C_INT_EV: event interrupt enable 
 643:arch/riscv/mach-gd32vf10x/bsp/gd32vf103_i2c.c ****     \arg        I2C_INT_BUF: buffer interrupt enable
 644:arch/riscv/mach-gd32vf10x/bsp/gd32vf103_i2c.c ****     \param[out] none
 645:arch/riscv/mach-gd32vf10x/bsp/gd32vf103_i2c.c ****     \retval     none
 646:arch/riscv/mach-gd32vf10x/bsp/gd32vf103_i2c.c ****  */
 647:arch/riscv/mach-gd32vf10x/bsp/gd32vf103_i2c.c **** void i2c_interrupt_disable(uint32_t i2c_periph, i2c_interrupt_enum interrupt) 
 648:arch/riscv/mach-gd32vf10x/bsp/gd32vf103_i2c.c **** {
 1086              		.loc 1 648 1 is_stmt 1
 1087              		.cfi_startproc
 1088              	.LVL110:
 649:arch/riscv/mach-gd32vf10x/bsp/gd32vf103_i2c.c ****     I2C_REG_VAL(i2c_periph, interrupt) &= ~BIT(I2C_BIT_POS(interrupt));
 1089              		.loc 1 649 5
 1090              		.loc 1 649 40 is_stmt 0
 1091 0000 13D76500 		srli	a4,a1,6
 1092 0004 1377F73F 		andi	a4,a4,1023
 1093 0008 3A95     		add	a0,a4,a0
GAS LISTING C:\Users\test\AppData\Local\Temp\ccMxCYS3.s 			page 32


 1094              	.LVL111:
 1095 000a 1841     		lw	a4,0(a0)
 1096              		.loc 1 649 44
 1097 000c 8547     		li	a5,1
 1098 000e B397B700 		sll	a5,a5,a1
 1099              		.loc 1 649 43
 1100 0012 93C7F7FF 		not	a5,a5
 1101              		.loc 1 649 40
 1102 0016 F98F     		and	a5,a5,a4
 1103 0018 1CC1     		sw	a5,0(a0)
 650:arch/riscv/mach-gd32vf10x/bsp/gd32vf103_i2c.c **** }
 1104              		.loc 1 650 1
 1105 001a 8280     		ret
 1106              		.cfi_endproc
 1107              	.LFE31:
 1109              		.section	.text.i2c_interrupt_flag_get,"ax",@progbits
 1110              		.align	1
 1111              		.globl	i2c_interrupt_flag_get
 1113              	i2c_interrupt_flag_get:
 1114              	.LFB32:
 651:arch/riscv/mach-gd32vf10x/bsp/gd32vf103_i2c.c **** 
 652:arch/riscv/mach-gd32vf10x/bsp/gd32vf103_i2c.c **** /*!
 653:arch/riscv/mach-gd32vf10x/bsp/gd32vf103_i2c.c ****     \brief      check I2C interrupt flag
 654:arch/riscv/mach-gd32vf10x/bsp/gd32vf103_i2c.c ****     \param[in]  i2c_periph: I2Cx(x=0,1)
 655:arch/riscv/mach-gd32vf10x/bsp/gd32vf103_i2c.c ****     \param[in]  int_flag: I2C interrupt flags, refer to i2c_interrupt_flag_enum
 656:arch/riscv/mach-gd32vf10x/bsp/gd32vf103_i2c.c ****                 only one parameter can be selected which is shown as below:
 657:arch/riscv/mach-gd32vf10x/bsp/gd32vf103_i2c.c ****     \arg        I2C_INT_FLAG_SBSEND: start condition sent out in master mode interrupt flag
 658:arch/riscv/mach-gd32vf10x/bsp/gd32vf103_i2c.c ****     \arg        I2C_INT_FLAG_ADDSEND: address is sent in master mode or received and matches in sla
 659:arch/riscv/mach-gd32vf10x/bsp/gd32vf103_i2c.c ****     \arg        I2C_INT_FLAG_BTC: byte transmission finishes
 660:arch/riscv/mach-gd32vf10x/bsp/gd32vf103_i2c.c ****     \arg        I2C_INT_FLAG_ADD10SEND: header of 10-bit address is sent in master mode interrupt f
 661:arch/riscv/mach-gd32vf10x/bsp/gd32vf103_i2c.c ****     \arg        I2C_INT_FLAG_STPDET: etop condition detected in slave mode interrupt flag
 662:arch/riscv/mach-gd32vf10x/bsp/gd32vf103_i2c.c ****     \arg        I2C_INT_FLAG_RBNE: I2C_DATA is not Empty during receiving interrupt flag
 663:arch/riscv/mach-gd32vf10x/bsp/gd32vf103_i2c.c ****     \arg        I2C_INT_FLAG_TBE: I2C_DATA is empty during transmitting interrupt flag
 664:arch/riscv/mach-gd32vf10x/bsp/gd32vf103_i2c.c ****     \arg        I2C_INT_FLAG_BERR: a bus error occurs indication a unexpected start or stop conditi
 665:arch/riscv/mach-gd32vf10x/bsp/gd32vf103_i2c.c ****     \arg        I2C_INT_FLAG_LOSTARB: arbitration lost in master mode interrupt flag
 666:arch/riscv/mach-gd32vf10x/bsp/gd32vf103_i2c.c ****     \arg        I2C_INT_FLAG_AERR: acknowledge error interrupt flag
 667:arch/riscv/mach-gd32vf10x/bsp/gd32vf103_i2c.c ****     \arg        I2C_INT_FLAG_OUERR: over-run or under-run situation occurs in slave mode interrupt 
 668:arch/riscv/mach-gd32vf10x/bsp/gd32vf103_i2c.c ****     \arg        I2C_INT_FLAG_PECERR: PEC error when receiving data interrupt flag
 669:arch/riscv/mach-gd32vf10x/bsp/gd32vf103_i2c.c ****     \arg        I2C_INT_FLAG_SMBTO: timeout signal in SMBus mode interrupt flag
 670:arch/riscv/mach-gd32vf10x/bsp/gd32vf103_i2c.c ****     \arg        I2C_INT_FLAG_SMBALT: SMBus Alert status interrupt flag
 671:arch/riscv/mach-gd32vf10x/bsp/gd32vf103_i2c.c ****     \param[out] none
 672:arch/riscv/mach-gd32vf10x/bsp/gd32vf103_i2c.c ****     \retval     FlagStatus: SET or RESET
 673:arch/riscv/mach-gd32vf10x/bsp/gd32vf103_i2c.c ****  */
 674:arch/riscv/mach-gd32vf10x/bsp/gd32vf103_i2c.c **** FlagStatus i2c_interrupt_flag_get(uint32_t i2c_periph,i2c_interrupt_flag_enum int_flag) 
 675:arch/riscv/mach-gd32vf10x/bsp/gd32vf103_i2c.c **** {
 1115              		.loc 1 675 1 is_stmt 1
 1116              		.cfi_startproc
 1117              	.LVL112:
 676:arch/riscv/mach-gd32vf10x/bsp/gd32vf103_i2c.c ****     uint32_t intenable = 0U, flagstatus = 0U, bufie;
 1118              		.loc 1 676 5
 677:arch/riscv/mach-gd32vf10x/bsp/gd32vf103_i2c.c **** 
 678:arch/riscv/mach-gd32vf10x/bsp/gd32vf103_i2c.c ****     /* check BUFIE */
 679:arch/riscv/mach-gd32vf10x/bsp/gd32vf103_i2c.c ****     bufie = I2C_CTL1(i2c_periph) & I2C_CTL1_BUFIE;
 1119              		.loc 1 679 5
 680:arch/riscv/mach-gd32vf10x/bsp/gd32vf103_i2c.c **** 
 681:arch/riscv/mach-gd32vf10x/bsp/gd32vf103_i2c.c ****     /* get the interrupt enable bit status */
 682:arch/riscv/mach-gd32vf10x/bsp/gd32vf103_i2c.c ****     intenable = (I2C_REG_VAL(i2c_periph, int_flag) & BIT(I2C_BIT_POS(int_flag)));
GAS LISTING C:\Users\test\AppData\Local\Temp\ccMxCYS3.s 			page 33


 1120              		.loc 1 682 18 is_stmt 0
 1121 0000 93D76500 		srli	a5,a1,6
 683:arch/riscv/mach-gd32vf10x/bsp/gd32vf103_i2c.c ****     /* get the corresponding flag bit status */
 684:arch/riscv/mach-gd32vf10x/bsp/gd32vf103_i2c.c ****     flagstatus = (I2C_REG_VAL2(i2c_periph, int_flag)& BIT(I2C_BIT_POS2(int_flag)));
 1122              		.loc 1 684 19
 1123 0004 13D76501 		srli	a4,a1,22
 682:arch/riscv/mach-gd32vf10x/bsp/gd32vf103_i2c.c ****     /* get the corresponding flag bit status */
 1124              		.loc 1 682 18
 1125 0008 93F7F73F 		andi	a5,a5,1023
 1126 000c AA97     		add	a5,a5,a0
 1127              		.loc 1 684 19
 1128 000e 2A97     		add	a4,a4,a0
 679:arch/riscv/mach-gd32vf10x/bsp/gd32vf103_i2c.c **** 
 1129              		.loc 1 679 13
 1130 0010 03284500 		lw	a6,4(a0)
 1131              	.LVL113:
 682:arch/riscv/mach-gd32vf10x/bsp/gd32vf103_i2c.c ****     /* get the corresponding flag bit status */
 1132              		.loc 1 682 5 is_stmt 1
 682:arch/riscv/mach-gd32vf10x/bsp/gd32vf103_i2c.c ****     /* get the corresponding flag bit status */
 1133              		.loc 1 682 18 is_stmt 0
 1134 0014 9043     		lw	a2,0(a5)
 1135              		.loc 1 684 19
 1136 0016 1443     		lw	a3,0(a4)
 682:arch/riscv/mach-gd32vf10x/bsp/gd32vf103_i2c.c ****     /* get the corresponding flag bit status */
 1137              		.loc 1 682 54
 1138 0018 8547     		li	a5,1
 1139              		.loc 1 684 55
 1140 001a 13D70501 		srli	a4,a1,16
 682:arch/riscv/mach-gd32vf10x/bsp/gd32vf103_i2c.c ****     /* get the corresponding flag bit status */
 1141              		.loc 1 682 54
 1142 001e 3395B700 		sll	a0,a5,a1
 1143              	.LVL114:
 1144              		.loc 1 684 55
 1145 0022 B397E700 		sll	a5,a5,a4
 685:arch/riscv/mach-gd32vf10x/bsp/gd32vf103_i2c.c **** 
 686:arch/riscv/mach-gd32vf10x/bsp/gd32vf103_i2c.c ****     if ((I2C_INT_FLAG_RBNE == int_flag) || (I2C_INT_FLAG_TBE == int_flag)) {
 1146              		.loc 1 686 8
 1147 0026 4177     		li	a4,-65536
 1148 0028 7D17     		addi	a4,a4,-1
 1149 002a F98D     		and	a1,a1,a4
 1150              	.LVL115:
 1151 002c 37070605 		li	a4,84279296
 1152 0030 13079710 		addi	a4,a4,265
 682:arch/riscv/mach-gd32vf10x/bsp/gd32vf103_i2c.c ****     /* get the corresponding flag bit status */
 1153              		.loc 1 682 15
 1154 0034 718D     		and	a0,a0,a2
 1155              	.LVL116:
 684:arch/riscv/mach-gd32vf10x/bsp/gd32vf103_i2c.c **** 
 1156              		.loc 1 684 5 is_stmt 1
 684:arch/riscv/mach-gd32vf10x/bsp/gd32vf103_i2c.c **** 
 1157              		.loc 1 684 16 is_stmt 0
 1158 0036 F58F     		and	a5,a5,a3
 1159              	.LVL117:
 1160              		.loc 1 686 5 is_stmt 1
 1161              		.loc 1 686 8 is_stmt 0
 1162 0038 6386E500 		beq	a1,a4,.L73
 687:arch/riscv/mach-gd32vf10x/bsp/gd32vf103_i2c.c ****         if (intenable && bufie) {
GAS LISTING C:\Users\test\AppData\Local\Temp\ccMxCYS3.s 			page 34


 688:arch/riscv/mach-gd32vf10x/bsp/gd32vf103_i2c.c ****             intenable = 1U;
 689:arch/riscv/mach-gd32vf10x/bsp/gd32vf103_i2c.c ****         } else {
 690:arch/riscv/mach-gd32vf10x/bsp/gd32vf103_i2c.c ****             intenable = 0U;
 691:arch/riscv/mach-gd32vf10x/bsp/gd32vf103_i2c.c ****         }
 692:arch/riscv/mach-gd32vf10x/bsp/gd32vf103_i2c.c ****     }
 693:arch/riscv/mach-gd32vf10x/bsp/gd32vf103_i2c.c ****     if ((0U != flagstatus) && (0U != intenable)) {
 1163              		.loc 1 693 5 is_stmt 1
 1164              		.loc 1 693 8 is_stmt 0
 1165 003c 99CB     		beq	a5,zero,.L66
 1166              		.loc 1 693 28 discriminator 1
 1167 003e 3335A000 		snez	a0,a0
 1168              	.LVL118:
 1169 0042 8280     		ret
 1170              	.LVL119:
 1171              	.L73:
 687:arch/riscv/mach-gd32vf10x/bsp/gd32vf103_i2c.c ****         if (intenable && bufie) {
 1172              		.loc 1 687 9 is_stmt 1
 687:arch/riscv/mach-gd32vf10x/bsp/gd32vf103_i2c.c ****         if (intenable && bufie) {
 1173              		.loc 1 687 12 is_stmt 0
 1174 0044 01C9     		beq	a0,zero,.L63
 679:arch/riscv/mach-gd32vf10x/bsp/gd32vf103_i2c.c **** 
 1175              		.loc 1 679 11 discriminator 1
 1176 0046 13750840 		andi	a0,a6,1024
 1177              	.LVL120:
 687:arch/riscv/mach-gd32vf10x/bsp/gd32vf103_i2c.c ****         if (intenable && bufie) {
 1178              		.loc 1 687 23 discriminator 1
 1179 004a 09C5     		beq	a0,zero,.L63
 1180              	.LVL121:
 1181              		.loc 1 693 5 is_stmt 1
 1182              		.loc 1 693 8 is_stmt 0
 1183 004c 3335F000 		snez	a0,a5
 1184 0050 8280     		ret
 1185              	.LVL122:
 1186              	.L66:
 694:arch/riscv/mach-gd32vf10x/bsp/gd32vf103_i2c.c ****         return SET;
 695:arch/riscv/mach-gd32vf10x/bsp/gd32vf103_i2c.c ****     } else {
 696:arch/riscv/mach-gd32vf10x/bsp/gd32vf103_i2c.c ****         return RESET;
 1187              		.loc 1 696 16
 1188 0052 0145     		li	a0,0
 1189              	.LVL123:
 1190              	.L63:
 697:arch/riscv/mach-gd32vf10x/bsp/gd32vf103_i2c.c ****     }
 698:arch/riscv/mach-gd32vf10x/bsp/gd32vf103_i2c.c **** }
 1191              		.loc 1 698 1
 1192 0054 8280     		ret
 1193              		.cfi_endproc
 1194              	.LFE32:
 1196              		.section	.text.i2c_interrupt_flag_clear,"ax",@progbits
 1197              		.align	1
 1198              		.globl	i2c_interrupt_flag_clear
 1200              	i2c_interrupt_flag_clear:
 1201              	.LFB33:
 699:arch/riscv/mach-gd32vf10x/bsp/gd32vf103_i2c.c **** 
 700:arch/riscv/mach-gd32vf10x/bsp/gd32vf103_i2c.c **** /*!
 701:arch/riscv/mach-gd32vf10x/bsp/gd32vf103_i2c.c ****     \brief      clear I2C interrupt flag
 702:arch/riscv/mach-gd32vf10x/bsp/gd32vf103_i2c.c ****     \param[in]  i2c_periph: I2Cx(x=0,1)
 703:arch/riscv/mach-gd32vf10x/bsp/gd32vf103_i2c.c ****     \param[in]  int_flag: I2C interrupt flags, refer to i2c_interrupt_flag_enum
GAS LISTING C:\Users\test\AppData\Local\Temp\ccMxCYS3.s 			page 35


 704:arch/riscv/mach-gd32vf10x/bsp/gd32vf103_i2c.c ****                 only one parameter can be selected which is shown as below:
 705:arch/riscv/mach-gd32vf10x/bsp/gd32vf103_i2c.c ****     \arg        I2C_INT_FLAG_ADDSEND: address is sent in master mode or received and matches in sla
 706:arch/riscv/mach-gd32vf10x/bsp/gd32vf103_i2c.c ****     \arg        I2C_INT_FLAG_BERR: a bus error occurs indication a unexpected start or stop conditi
 707:arch/riscv/mach-gd32vf10x/bsp/gd32vf103_i2c.c ****     \arg        I2C_INT_FLAG_LOSTARB: arbitration lost in master mode interrupt flag
 708:arch/riscv/mach-gd32vf10x/bsp/gd32vf103_i2c.c ****     \arg        I2C_INT_FLAG_AERR: acknowledge error interrupt flag
 709:arch/riscv/mach-gd32vf10x/bsp/gd32vf103_i2c.c ****     \arg        I2C_INT_FLAG_OUERR: over-run or under-run situation occurs in slave mode interrupt 
 710:arch/riscv/mach-gd32vf10x/bsp/gd32vf103_i2c.c ****     \arg        I2C_INT_FLAG_PECERR: PEC error when receiving data interrupt flag
 711:arch/riscv/mach-gd32vf10x/bsp/gd32vf103_i2c.c ****     \arg        I2C_INT_FLAG_SMBTO: timeout signal in SMBus mode interrupt flag
 712:arch/riscv/mach-gd32vf10x/bsp/gd32vf103_i2c.c ****     \arg        I2C_INT_FLAG_SMBALT: SMBus Alert status interrupt flag
 713:arch/riscv/mach-gd32vf10x/bsp/gd32vf103_i2c.c ****     \param[out] none
 714:arch/riscv/mach-gd32vf10x/bsp/gd32vf103_i2c.c ****     \retval     none
 715:arch/riscv/mach-gd32vf10x/bsp/gd32vf103_i2c.c ****  */
 716:arch/riscv/mach-gd32vf10x/bsp/gd32vf103_i2c.c **** void i2c_interrupt_flag_clear(uint32_t i2c_periph,i2c_interrupt_flag_enum int_flag) 
 717:arch/riscv/mach-gd32vf10x/bsp/gd32vf103_i2c.c **** {
 1202              		.loc 1 717 1 is_stmt 1
 1203              		.cfi_startproc
 1204              	.LVL124:
 718:arch/riscv/mach-gd32vf10x/bsp/gd32vf103_i2c.c ****     uint32_t temp;
 1205              		.loc 1 718 5
 719:arch/riscv/mach-gd32vf10x/bsp/gd32vf103_i2c.c ****     if (I2C_INT_FLAG_ADDSEND == int_flag) {
 1206              		.loc 1 719 5
 1207              		.loc 1 719 8 is_stmt 0
 1208 0000 B7070105 		li	a5,83951616
 1209 0004 93879710 		addi	a5,a5,265
 1210 0008 638FF500 		beq	a1,a5,.L77
 720:arch/riscv/mach-gd32vf10x/bsp/gd32vf103_i2c.c ****         /* read I2C_STAT0 and then read I2C_STAT1 to clear ADDSEND */
 721:arch/riscv/mach-gd32vf10x/bsp/gd32vf103_i2c.c ****         temp = I2C_STAT0(i2c_periph);
 722:arch/riscv/mach-gd32vf10x/bsp/gd32vf103_i2c.c ****         temp = I2C_STAT1(i2c_periph);
 723:arch/riscv/mach-gd32vf10x/bsp/gd32vf103_i2c.c ****     } else {
 724:arch/riscv/mach-gd32vf10x/bsp/gd32vf103_i2c.c ****         I2C_REG_VAL2(i2c_periph, int_flag) &= ~BIT(I2C_BIT_POS2(int_flag));
 1211              		.loc 1 724 9 is_stmt 1
 1212              		.loc 1 724 44 is_stmt 0
 1213 000c 93D76501 		srli	a5,a1,22
 1214 0010 3E95     		add	a0,a5,a0
 1215              	.LVL125:
 1216 0012 1841     		lw	a4,0(a0)
 1217              		.loc 1 724 48
 1218 0014 C181     		srli	a1,a1,16
 1219              	.LVL126:
 1220 0016 8547     		li	a5,1
 1221 0018 B397B700 		sll	a5,a5,a1
 1222              		.loc 1 724 47
 1223 001c 93C7F7FF 		not	a5,a5
 1224              		.loc 1 724 44
 1225 0020 F98F     		and	a5,a5,a4
 1226 0022 1CC1     		sw	a5,0(a0)
 725:arch/riscv/mach-gd32vf10x/bsp/gd32vf103_i2c.c ****     }
 726:arch/riscv/mach-gd32vf10x/bsp/gd32vf103_i2c.c **** }
 1227              		.loc 1 726 1
 1228 0024 8280     		ret
 1229              	.LVL127:
 1230              	.L77:
 721:arch/riscv/mach-gd32vf10x/bsp/gd32vf103_i2c.c ****         temp = I2C_STAT1(i2c_periph);
 1231              		.loc 1 721 9 is_stmt 1
 721:arch/riscv/mach-gd32vf10x/bsp/gd32vf103_i2c.c ****         temp = I2C_STAT1(i2c_periph);
 1232              		.loc 1 721 14 is_stmt 0
 1233 0026 5C49     		lw	a5,20(a0)
GAS LISTING C:\Users\test\AppData\Local\Temp\ccMxCYS3.s 			page 36


 722:arch/riscv/mach-gd32vf10x/bsp/gd32vf103_i2c.c ****     } else {
 1234              		.loc 1 722 9 is_stmt 1
 722:arch/riscv/mach-gd32vf10x/bsp/gd32vf103_i2c.c ****     } else {
 1235              		.loc 1 722 14 is_stmt 0
 1236 0028 1C4D     		lw	a5,24(a0)
 1237 002a 8280     		ret
 1238              		.cfi_endproc
 1239              	.LFE33:
 1241              		.text
 1242              	.Letext0:
 1243              		.file 2 "d:\\risc_v_gcc\\riscv-none-embed\\include\\machine\\_default_types.h"
 1244              		.file 3 "d:\\risc_v_gcc\\riscv-none-embed\\include\\sys\\_stdint.h"
 1245              		.file 4 "arch/riscv/mach-gd32vf10x/system/gd32vf103.h"
 1246              		.file 5 "arch/riscv/mach-gd32vf10x/bsp/gd32vf103_rcu.h"
 1247              		.file 6 "arch/riscv/mach-gd32vf10x/bsp/gd32vf103_i2c.h"
 1248              		.file 7 "arch/riscv/mach-gd32vf10x/system/system_gd32vf103.h"
GAS LISTING C:\Users\test\AppData\Local\Temp\ccMxCYS3.s 			page 37


DEFINED SYMBOLS
                            *ABS*:0000000000000000 gd32vf103_i2c.c
C:\Users\test\AppData\Local\Temp\ccMxCYS3.s:10     .text.i2c_deinit:0000000000000000 i2c_deinit
C:\Users\test\AppData\Local\Temp\ccMxCYS3.s:14     .text.i2c_deinit:0000000000000000 .L0 
C:\Users\test\AppData\Local\Temp\ccMxCYS3.s:16     .text.i2c_deinit:0000000000000000 .L0 
C:\Users\test\AppData\Local\Temp\ccMxCYS3.s:17     .text.i2c_deinit:0000000000000000 .L0 
C:\Users\test\AppData\Local\Temp\ccMxCYS3.s:18     .text.i2c_deinit:0000000000000000 .L0 
C:\Users\test\AppData\Local\Temp\ccMxCYS3.s:20     .text.i2c_deinit:0000000000000002 .L0 
C:\Users\test\AppData\Local\Temp\ccMxCYS3.s:22     .text.i2c_deinit:0000000000000002 .L0 
C:\Users\test\AppData\Local\Temp\ccMxCYS3.s:24     .text.i2c_deinit:0000000000000006 .L0 
C:\Users\test\AppData\Local\Temp\ccMxCYS3.s:25     .text.i2c_deinit:0000000000000008 .L0 
C:\Users\test\AppData\Local\Temp\ccMxCYS3.s:27     .text.i2c_deinit:0000000000000008 .L0 
C:\Users\test\AppData\Local\Temp\ccMxCYS3.s:33     .text.i2c_deinit:000000000000001c .L0 
C:\Users\test\AppData\Local\Temp\ccMxCYS3.s:34     .text.i2c_deinit:000000000000001e .L0 
C:\Users\test\AppData\Local\Temp\ccMxCYS3.s:35     .text.i2c_deinit:000000000000001e .L0 
C:\Users\test\AppData\Local\Temp\ccMxCYS3.s:38     .text.i2c_deinit:0000000000000020 .L0 
C:\Users\test\AppData\Local\Temp\ccMxCYS3.s:42     .text.i2c_deinit:0000000000000022 .L0 
C:\Users\test\AppData\Local\Temp\ccMxCYS3.s:44     .text.i2c_deinit:0000000000000022 .L0 
C:\Users\test\AppData\Local\Temp\ccMxCYS3.s:49     .text.i2c_deinit:000000000000002e .L0 
C:\Users\test\AppData\Local\Temp\ccMxCYS3.s:50     .text.i2c_deinit:000000000000002e .L0 
C:\Users\test\AppData\Local\Temp\ccMxCYS3.s:51     .text.i2c_deinit:0000000000000030 .L0 
C:\Users\test\AppData\Local\Temp\ccMxCYS3.s:52     .text.i2c_deinit:0000000000000030 .L0 
C:\Users\test\AppData\Local\Temp\ccMxCYS3.s:54     .text.i2c_deinit:0000000000000030 .L0 
C:\Users\test\AppData\Local\Temp\ccMxCYS3.s:56     .text.i2c_deinit:0000000000000034 .L0 
C:\Users\test\AppData\Local\Temp\ccMxCYS3.s:58     .text.i2c_deinit:0000000000000036 .L0 
C:\Users\test\AppData\Local\Temp\ccMxCYS3.s:60     .text.i2c_deinit:0000000000000036 .L0 
C:\Users\test\AppData\Local\Temp\ccMxCYS3.s:64     .text.i2c_deinit:000000000000003e .L0 
C:\Users\test\AppData\Local\Temp\ccMxCYS3.s:66     .text.i2c_deinit:000000000000003e .L0 
C:\Users\test\AppData\Local\Temp\ccMxCYS3.s:71     .text.i2c_deinit:000000000000004a .L0 
C:\Users\test\AppData\Local\Temp\ccMxCYS3.s:72     .text.i2c_deinit:000000000000004a .L0 
C:\Users\test\AppData\Local\Temp\ccMxCYS3.s:73     .text.i2c_deinit:000000000000004c .L0 
C:\Users\test\AppData\Local\Temp\ccMxCYS3.s:75     .text.i2c_deinit:000000000000004c .L0 
C:\Users\test\AppData\Local\Temp\ccMxCYS3.s:77     .text.i2c_deinit:0000000000000050 .L0 
C:\Users\test\AppData\Local\Temp\ccMxCYS3.s:79     .text.i2c_deinit:0000000000000052 .L0 
C:\Users\test\AppData\Local\Temp\ccMxCYS3.s:81     .text.i2c_deinit:0000000000000052 .L0 
C:\Users\test\AppData\Local\Temp\ccMxCYS3.s:83     .text.i2c_deinit:000000000000005a .L0 
C:\Users\test\AppData\Local\Temp\ccMxCYS3.s:90     .text.i2c_clock_config:0000000000000000 i2c_clock_config
C:\Users\test\AppData\Local\Temp\ccMxCYS3.s:93     .text.i2c_clock_config:0000000000000000 .L0 
C:\Users\test\AppData\Local\Temp\ccMxCYS3.s:95     .text.i2c_clock_config:0000000000000000 .L0 
C:\Users\test\AppData\Local\Temp\ccMxCYS3.s:96     .text.i2c_clock_config:0000000000000000 .L0 
C:\Users\test\AppData\Local\Temp\ccMxCYS3.s:97     .text.i2c_clock_config:0000000000000000 .L0 
C:\Users\test\AppData\Local\Temp\ccMxCYS3.s:98     .text.i2c_clock_config:0000000000000000 .L0 
C:\Users\test\AppData\Local\Temp\ccMxCYS3.s:99     .text.i2c_clock_config:0000000000000000 .L0 
C:\Users\test\AppData\Local\Temp\ccMxCYS3.s:101    .text.i2c_clock_config:0000000000000002 .L0 
C:\Users\test\AppData\Local\Temp\ccMxCYS3.s:103    .text.i2c_clock_config:0000000000000004 .L0 
C:\Users\test\AppData\Local\Temp\ccMxCYS3.s:106    .text.i2c_clock_config:0000000000000006 .L0 
C:\Users\test\AppData\Local\Temp\ccMxCYS3.s:109    .text.i2c_clock_config:0000000000000008 .L0 
C:\Users\test\AppData\Local\Temp\ccMxCYS3.s:112    .text.i2c_clock_config:000000000000000e .L0 
C:\Users\test\AppData\Local\Temp\ccMxCYS3.s:113    .text.i2c_clock_config:000000000000000e .L0 
C:\Users\test\AppData\Local\Temp\ccMxCYS3.s:114    .text.i2c_clock_config:000000000000000e .L0 
C:\Users\test\AppData\Local\Temp\ccMxCYS3.s:116    .text.i2c_clock_config:000000000000000e .L0 
C:\Users\test\AppData\Local\Temp\ccMxCYS3.s:119    .text.i2c_clock_config:0000000000000012 .L0 
C:\Users\test\AppData\Local\Temp\ccMxCYS3.s:122    .text.i2c_clock_config:000000000000001a .L0 
C:\Users\test\AppData\Local\Temp\ccMxCYS3.s:123    .text.i2c_clock_config:000000000000001a .L0 
C:\Users\test\AppData\Local\Temp\ccMxCYS3.s:125    .text.i2c_clock_config:000000000000001e .L0 
C:\Users\test\AppData\Local\Temp\ccMxCYS3.s:127    .text.i2c_clock_config:0000000000000022 .L0 
C:\Users\test\AppData\Local\Temp\ccMxCYS3.s:129    .text.i2c_clock_config:0000000000000026 .L0 
GAS LISTING C:\Users\test\AppData\Local\Temp\ccMxCYS3.s 			page 38


C:\Users\test\AppData\Local\Temp\ccMxCYS3.s:131    .text.i2c_clock_config:000000000000002a .L0 
C:\Users\test\AppData\Local\Temp\ccMxCYS3.s:134    .text.i2c_clock_config:000000000000002e .L0 
C:\Users\test\AppData\Local\Temp\ccMxCYS3.s:135    .text.i2c_clock_config:000000000000002e .L0 
C:\Users\test\AppData\Local\Temp\ccMxCYS3.s:137    .text.i2c_clock_config:0000000000000032 .L0 
C:\Users\test\AppData\Local\Temp\ccMxCYS3.s:142    .text.i2c_clock_config:0000000000000038 .L0 
C:\Users\test\AppData\Local\Temp\ccMxCYS3.s:143    .text.i2c_clock_config:0000000000000038 .L0 
C:\Users\test\AppData\Local\Temp\ccMxCYS3.s:146    .text.i2c_clock_config:000000000000003a .L0 
C:\Users\test\AppData\Local\Temp\ccMxCYS3.s:147    .text.i2c_clock_config:000000000000003a .L0 
C:\Users\test\AppData\Local\Temp\ccMxCYS3.s:150    .text.i2c_clock_config:0000000000000040 .L0 
C:\Users\test\AppData\Local\Temp\ccMxCYS3.s:153    .text.i2c_clock_config:0000000000000044 .L0 
C:\Users\test\AppData\Local\Temp\ccMxCYS3.s:154    .text.i2c_clock_config:0000000000000044 .L0 
C:\Users\test\AppData\Local\Temp\ccMxCYS3.s:157    .text.i2c_clock_config:0000000000000046 .L0 
C:\Users\test\AppData\Local\Temp\ccMxCYS3.s:158    .text.i2c_clock_config:0000000000000046 .L0 
C:\Users\test\AppData\Local\Temp\ccMxCYS3.s:160    .text.i2c_clock_config:0000000000000048 .L0 
C:\Users\test\AppData\Local\Temp\ccMxCYS3.s:161    .text.i2c_clock_config:0000000000000048 .L0 
C:\Users\test\AppData\Local\Temp\ccMxCYS3.s:163    .text.i2c_clock_config:000000000000004c .L0 
C:\Users\test\AppData\Local\Temp\ccMxCYS3.s:164    .text.i2c_clock_config:000000000000004c .L0 
C:\Users\test\AppData\Local\Temp\ccMxCYS3.s:167    .text.i2c_clock_config:000000000000004e .L0 
C:\Users\test\AppData\Local\Temp\ccMxCYS3.s:168    .text.i2c_clock_config:000000000000004e .L0 
C:\Users\test\AppData\Local\Temp\ccMxCYS3.s:172    .text.i2c_clock_config:0000000000000056 .L0 
C:\Users\test\AppData\Local\Temp\ccMxCYS3.s:173    .text.i2c_clock_config:0000000000000056 .L0 
C:\Users\test\AppData\Local\Temp\ccMxCYS3.s:179    .text.i2c_clock_config:000000000000005c .L0 
C:\Users\test\AppData\Local\Temp\ccMxCYS3.s:180    .text.i2c_clock_config:000000000000005c .L0 
C:\Users\test\AppData\Local\Temp\ccMxCYS3.s:183    .text.i2c_clock_config:000000000000005e .L0 
C:\Users\test\AppData\Local\Temp\ccMxCYS3.s:184    .text.i2c_clock_config:000000000000005e .L0 
C:\Users\test\AppData\Local\Temp\ccMxCYS3.s:185    .text.i2c_clock_config:000000000000005e .L0 
C:\Users\test\AppData\Local\Temp\ccMxCYS3.s:189    .text.i2c_clock_config:0000000000000064 .L0 
C:\Users\test\AppData\Local\Temp\ccMxCYS3.s:191    .text.i2c_clock_config:0000000000000066 .L0 
C:\Users\test\AppData\Local\Temp\ccMxCYS3.s:198    .text.i2c_clock_config:0000000000000070 .L0 
C:\Users\test\AppData\Local\Temp\ccMxCYS3.s:202    .text.i2c_clock_config:0000000000000074 .L0 
C:\Users\test\AppData\Local\Temp\ccMxCYS3.s:203    .text.i2c_clock_config:0000000000000076 .L0 
C:\Users\test\AppData\Local\Temp\ccMxCYS3.s:204    .text.i2c_clock_config:0000000000000076 .L0 
C:\Users\test\AppData\Local\Temp\ccMxCYS3.s:206    .text.i2c_clock_config:0000000000000078 .L0 
C:\Users\test\AppData\Local\Temp\ccMxCYS3.s:208    .text.i2c_clock_config:000000000000007a .L0 
C:\Users\test\AppData\Local\Temp\ccMxCYS3.s:211    .text.i2c_clock_config:000000000000007c .L0 
C:\Users\test\AppData\Local\Temp\ccMxCYS3.s:215    .text.i2c_clock_config:000000000000007e .L0 
C:\Users\test\AppData\Local\Temp\ccMxCYS3.s:220    .text.i2c_clock_config:0000000000000080 .L0 
C:\Users\test\AppData\Local\Temp\ccMxCYS3.s:222    .text.i2c_clock_config:0000000000000080 .L0 
C:\Users\test\AppData\Local\Temp\ccMxCYS3.s:223    .text.i2c_clock_config:0000000000000080 .L0 
C:\Users\test\AppData\Local\Temp\ccMxCYS3.s:226    .text.i2c_clock_config:0000000000000086 .L0 
C:\Users\test\AppData\Local\Temp\ccMxCYS3.s:227    .text.i2c_clock_config:0000000000000086 .L0 
C:\Users\test\AppData\Local\Temp\ccMxCYS3.s:233    .text.i2c_clock_config:000000000000008a .L0 
C:\Users\test\AppData\Local\Temp\ccMxCYS3.s:234    .text.i2c_clock_config:000000000000008a .L0 
C:\Users\test\AppData\Local\Temp\ccMxCYS3.s:238    .text.i2c_clock_config:0000000000000096 .L0 
C:\Users\test\AppData\Local\Temp\ccMxCYS3.s:239    .text.i2c_clock_config:0000000000000096 .L0 
C:\Users\test\AppData\Local\Temp\ccMxCYS3.s:243    .text.i2c_clock_config:000000000000009e .L0 
C:\Users\test\AppData\Local\Temp\ccMxCYS3.s:245    .text.i2c_clock_config:00000000000000a2 .L0 
C:\Users\test\AppData\Local\Temp\ccMxCYS3.s:247    .text.i2c_clock_config:00000000000000a6 .L0 
C:\Users\test\AppData\Local\Temp\ccMxCYS3.s:249    .text.i2c_clock_config:00000000000000aa .L0 
C:\Users\test\AppData\Local\Temp\ccMxCYS3.s:251    .text.i2c_clock_config:00000000000000ac .L0 
C:\Users\test\AppData\Local\Temp\ccMxCYS3.s:253    .text.i2c_clock_config:00000000000000ae .L0 
C:\Users\test\AppData\Local\Temp\ccMxCYS3.s:254    .text.i2c_clock_config:00000000000000ae .L0 
C:\Users\test\AppData\Local\Temp\ccMxCYS3.s:256    .text.i2c_clock_config:00000000000000b2 .L0 
C:\Users\test\AppData\Local\Temp\ccMxCYS3.s:257    .text.i2c_clock_config:00000000000000b2 .L0 
C:\Users\test\AppData\Local\Temp\ccMxCYS3.s:260    .text.i2c_clock_config:00000000000000b4 .L0 
C:\Users\test\AppData\Local\Temp\ccMxCYS3.s:263    .text.i2c_clock_config:00000000000000b8 .L0 
C:\Users\test\AppData\Local\Temp\ccMxCYS3.s:264    .text.i2c_clock_config:00000000000000b8 .L0 
GAS LISTING C:\Users\test\AppData\Local\Temp\ccMxCYS3.s 			page 39


C:\Users\test\AppData\Local\Temp\ccMxCYS3.s:274    .text.i2c_clock_config:00000000000000c8 .L0 
C:\Users\test\AppData\Local\Temp\ccMxCYS3.s:275    .text.i2c_clock_config:00000000000000c8 .L0 
C:\Users\test\AppData\Local\Temp\ccMxCYS3.s:277    .text.i2c_clock_config:00000000000000ca .L0 
C:\Users\test\AppData\Local\Temp\ccMxCYS3.s:278    .text.i2c_clock_config:00000000000000ca .L0 
C:\Users\test\AppData\Local\Temp\ccMxCYS3.s:282    .text.i2c_clock_config:00000000000000ce .L0 
C:\Users\test\AppData\Local\Temp\ccMxCYS3.s:283    .text.i2c_clock_config:00000000000000ce .L0 
C:\Users\test\AppData\Local\Temp\ccMxCYS3.s:286    .text.i2c_clock_config:00000000000000d2 .L0 
C:\Users\test\AppData\Local\Temp\ccMxCYS3.s:287    .text.i2c_clock_config:00000000000000d4 .L0 
C:\Users\test\AppData\Local\Temp\ccMxCYS3.s:288    .text.i2c_clock_config:00000000000000d4 .L0 
C:\Users\test\AppData\Local\Temp\ccMxCYS3.s:290    .text.i2c_clock_config:00000000000000d4 .L0 
C:\Users\test\AppData\Local\Temp\ccMxCYS3.s:293    .text.i2c_clock_config:00000000000000d8 .L0 
C:\Users\test\AppData\Local\Temp\ccMxCYS3.s:294    .text.i2c_clock_config:00000000000000d8 .L0 
C:\Users\test\AppData\Local\Temp\ccMxCYS3.s:296    .text.i2c_clock_config:00000000000000da .L0 
C:\Users\test\AppData\Local\Temp\ccMxCYS3.s:297    .text.i2c_clock_config:00000000000000dc .L0 
C:\Users\test\AppData\Local\Temp\ccMxCYS3.s:300    .text.i2c_clock_config:00000000000000dc .L0 
C:\Users\test\AppData\Local\Temp\ccMxCYS3.s:303    .text.i2c_clock_config:00000000000000de .L0 
C:\Users\test\AppData\Local\Temp\ccMxCYS3.s:304    .text.i2c_clock_config:00000000000000e0 .L0 
C:\Users\test\AppData\Local\Temp\ccMxCYS3.s:306    .text.i2c_clock_config:00000000000000e0 .L0 
C:\Users\test\AppData\Local\Temp\ccMxCYS3.s:308    .text.i2c_clock_config:00000000000000e2 .L0 
C:\Users\test\AppData\Local\Temp\ccMxCYS3.s:309    .text.i2c_clock_config:00000000000000e2 .L0 
C:\Users\test\AppData\Local\Temp\ccMxCYS3.s:310    .text.i2c_clock_config:00000000000000e4 .L0 
C:\Users\test\AppData\Local\Temp\ccMxCYS3.s:314    .text.i2c_clock_config:00000000000000e6 .L0 
C:\Users\test\AppData\Local\Temp\ccMxCYS3.s:319    .text.i2c_clock_config:00000000000000e8 .L0 
C:\Users\test\AppData\Local\Temp\ccMxCYS3.s:321    .text.i2c_clock_config:00000000000000e8 .L0 
C:\Users\test\AppData\Local\Temp\ccMxCYS3.s:322    .text.i2c_clock_config:00000000000000e8 .L0 
C:\Users\test\AppData\Local\Temp\ccMxCYS3.s:327    .text.i2c_clock_config:00000000000000ee .L0 
C:\Users\test\AppData\Local\Temp\ccMxCYS3.s:330    .text.i2c_clock_config:00000000000000f2 .L0 
C:\Users\test\AppData\Local\Temp\ccMxCYS3.s:331    .text.i2c_clock_config:00000000000000f2 .L0 
C:\Users\test\AppData\Local\Temp\ccMxCYS3.s:341    .text.i2c_clock_config:00000000000000fe .L0 
C:\Users\test\AppData\Local\Temp\ccMxCYS3.s:342    .text.i2c_clock_config:00000000000000fe .L0 
C:\Users\test\AppData\Local\Temp\ccMxCYS3.s:345    .text.i2c_clock_config:0000000000000102 .L0 
C:\Users\test\AppData\Local\Temp\ccMxCYS3.s:352    .text.i2c_mode_addr_config:0000000000000000 i2c_mode_addr_config
C:\Users\test\AppData\Local\Temp\ccMxCYS3.s:355    .text.i2c_mode_addr_config:0000000000000000 .L0 
C:\Users\test\AppData\Local\Temp\ccMxCYS3.s:357    .text.i2c_mode_addr_config:0000000000000000 .L0 
C:\Users\test\AppData\Local\Temp\ccMxCYS3.s:358    .text.i2c_mode_addr_config:0000000000000000 .L0 
C:\Users\test\AppData\Local\Temp\ccMxCYS3.s:359    .text.i2c_mode_addr_config:0000000000000000 .L0 
C:\Users\test\AppData\Local\Temp\ccMxCYS3.s:360    .text.i2c_mode_addr_config:0000000000000000 .L0 
C:\Users\test\AppData\Local\Temp\ccMxCYS3.s:363    .text.i2c_mode_addr_config:0000000000000002 .L0 
C:\Users\test\AppData\Local\Temp\ccMxCYS3.s:364    .text.i2c_mode_addr_config:0000000000000002 .L0 
C:\Users\test\AppData\Local\Temp\ccMxCYS3.s:367    .text.i2c_mode_addr_config:0000000000000006 .L0 
C:\Users\test\AppData\Local\Temp\ccMxCYS3.s:369    .text.i2c_mode_addr_config:0000000000000008 .L0 
C:\Users\test\AppData\Local\Temp\ccMxCYS3.s:372    .text.i2c_mode_addr_config:000000000000000a .L0 
C:\Users\test\AppData\Local\Temp\ccMxCYS3.s:373    .text.i2c_mode_addr_config:000000000000000a .L0 
C:\Users\test\AppData\Local\Temp\ccMxCYS3.s:376    .text.i2c_mode_addr_config:000000000000000c .L0 
C:\Users\test\AppData\Local\Temp\ccMxCYS3.s:377    .text.i2c_mode_addr_config:000000000000000c .L0 
C:\Users\test\AppData\Local\Temp\ccMxCYS3.s:380    .text.i2c_mode_addr_config:000000000000000e .L0 
C:\Users\test\AppData\Local\Temp\ccMxCYS3.s:381    .text.i2c_mode_addr_config:000000000000000e .L0 
C:\Users\test\AppData\Local\Temp\ccMxCYS3.s:382    .text.i2c_mode_addr_config:000000000000000e .L0 
C:\Users\test\AppData\Local\Temp\ccMxCYS3.s:384    .text.i2c_mode_addr_config:0000000000000010 .L0 
C:\Users\test\AppData\Local\Temp\ccMxCYS3.s:385    .text.i2c_mode_addr_config:0000000000000012 .L0 
C:\Users\test\AppData\Local\Temp\ccMxCYS3.s:392    .text.i2c_smbus_type_config:0000000000000000 i2c_smbus_type_config
C:\Users\test\AppData\Local\Temp\ccMxCYS3.s:395    .text.i2c_smbus_type_config:0000000000000000 .L0 
C:\Users\test\AppData\Local\Temp\ccMxCYS3.s:397    .text.i2c_smbus_type_config:0000000000000000 .L0 
C:\Users\test\AppData\Local\Temp\ccMxCYS3.s:398    .text.i2c_smbus_type_config:0000000000000000 .L0 
C:\Users\test\AppData\Local\Temp\ccMxCYS3.s:399    .text.i2c_smbus_type_config:0000000000000000 .L0 
C:\Users\test\AppData\Local\Temp\ccMxCYS3.s:402    .text.i2c_smbus_type_config:0000000000000006 .L0 
C:\Users\test\AppData\Local\Temp\ccMxCYS3.s:403    .text.i2c_smbus_type_config:0000000000000006 .L0 
GAS LISTING C:\Users\test\AppData\Local\Temp\ccMxCYS3.s 			page 40


C:\Users\test\AppData\Local\Temp\ccMxCYS3.s:407    .text.i2c_smbus_type_config:000000000000000c .L0 
C:\Users\test\AppData\Local\Temp\ccMxCYS3.s:410    .text.i2c_smbus_type_config:000000000000000e .L0 
C:\Users\test\AppData\Local\Temp\ccMxCYS3.s:411    .text.i2c_smbus_type_config:000000000000000e .L0 
C:\Users\test\AppData\Local\Temp\ccMxCYS3.s:415    .text.i2c_smbus_type_config:0000000000000018 .L0 
C:\Users\test\AppData\Local\Temp\ccMxCYS3.s:422    .text.i2c_ack_config:0000000000000000 i2c_ack_config
C:\Users\test\AppData\Local\Temp\ccMxCYS3.s:425    .text.i2c_ack_config:0000000000000000 .L0 
C:\Users\test\AppData\Local\Temp\ccMxCYS3.s:427    .text.i2c_ack_config:0000000000000000 .L0 
C:\Users\test\AppData\Local\Temp\ccMxCYS3.s:428    .text.i2c_ack_config:0000000000000000 .L0 
C:\Users\test\AppData\Local\Temp\ccMxCYS3.s:429    .text.i2c_ack_config:0000000000000000 .L0 
C:\Users\test\AppData\Local\Temp\ccMxCYS3.s:432    .text.i2c_ack_config:0000000000000006 .L0 
C:\Users\test\AppData\Local\Temp\ccMxCYS3.s:433    .text.i2c_ack_config:0000000000000006 .L0 
C:\Users\test\AppData\Local\Temp\ccMxCYS3.s:437    .text.i2c_ack_config:000000000000000e .L0 
C:\Users\test\AppData\Local\Temp\ccMxCYS3.s:440    .text.i2c_ack_config:0000000000000010 .L0 
C:\Users\test\AppData\Local\Temp\ccMxCYS3.s:441    .text.i2c_ack_config:0000000000000010 .L0 
C:\Users\test\AppData\Local\Temp\ccMxCYS3.s:445    .text.i2c_ack_config:000000000000001a .L0 
C:\Users\test\AppData\Local\Temp\ccMxCYS3.s:452    .text.i2c_ackpos_config:0000000000000000 i2c_ackpos_config
C:\Users\test\AppData\Local\Temp\ccMxCYS3.s:455    .text.i2c_ackpos_config:0000000000000000 .L0 
C:\Users\test\AppData\Local\Temp\ccMxCYS3.s:457    .text.i2c_ackpos_config:0000000000000000 .L0 
C:\Users\test\AppData\Local\Temp\ccMxCYS3.s:458    .text.i2c_ackpos_config:0000000000000000 .L0 
C:\Users\test\AppData\Local\Temp\ccMxCYS3.s:459    .text.i2c_ackpos_config:0000000000000000 .L0 
C:\Users\test\AppData\Local\Temp\ccMxCYS3.s:461    .text.i2c_ackpos_config:0000000000000002 .L0 
C:\Users\test\AppData\Local\Temp\ccMxCYS3.s:463    .text.i2c_ackpos_config:0000000000000004 .L0 
C:\Users\test\AppData\Local\Temp\ccMxCYS3.s:464    .text.i2c_ackpos_config:0000000000000004 .L0 
C:\Users\test\AppData\Local\Temp\ccMxCYS3.s:471    .text.i2c_ackpos_config:0000000000000010 .L0 
C:\Users\test\AppData\Local\Temp\ccMxCYS3.s:472    .text.i2c_ackpos_config:0000000000000010 .L0 
C:\Users\test\AppData\Local\Temp\ccMxCYS3.s:477    .text.i2c_ackpos_config:000000000000001a .L0 
C:\Users\test\AppData\Local\Temp\ccMxCYS3.s:478    .text.i2c_ackpos_config:000000000000001c .L0 
C:\Users\test\AppData\Local\Temp\ccMxCYS3.s:485    .text.i2c_master_addressing:0000000000000000 i2c_master_addressing
C:\Users\test\AppData\Local\Temp\ccMxCYS3.s:488    .text.i2c_master_addressing:0000000000000000 .L0 
C:\Users\test\AppData\Local\Temp\ccMxCYS3.s:490    .text.i2c_master_addressing:0000000000000000 .L0 
C:\Users\test\AppData\Local\Temp\ccMxCYS3.s:491    .text.i2c_master_addressing:0000000000000000 .L0 
C:\Users\test\AppData\Local\Temp\ccMxCYS3.s:492    .text.i2c_master_addressing:0000000000000000 .L0 
C:\Users\test\AppData\Local\Temp\ccMxCYS3.s:494    .text.i2c_master_addressing:0000000000000002 .L0 
C:\Users\test\AppData\Local\Temp\ccMxCYS3.s:496    .text.i2c_master_addressing:0000000000000006 .L0 
C:\Users\test\AppData\Local\Temp\ccMxCYS3.s:498    .text.i2c_master_addressing:000000000000000a .L0 
C:\Users\test\AppData\Local\Temp\ccMxCYS3.s:499    .text.i2c_master_addressing:000000000000000a .L0 
C:\Users\test\AppData\Local\Temp\ccMxCYS3.s:503    .text.i2c_master_addressing:000000000000000e .L0 
C:\Users\test\AppData\Local\Temp\ccMxCYS3.s:504    .text.i2c_master_addressing:000000000000000e .L0 
C:\Users\test\AppData\Local\Temp\ccMxCYS3.s:506    .text.i2c_master_addressing:0000000000000010 .L0 
C:\Users\test\AppData\Local\Temp\ccMxCYS3.s:507    .text.i2c_master_addressing:0000000000000012 .L0 
C:\Users\test\AppData\Local\Temp\ccMxCYS3.s:514    .text.i2c_saddr1_config:0000000000000000 i2c_saddr1_config
C:\Users\test\AppData\Local\Temp\ccMxCYS3.s:517    .text.i2c_saddr1_config:0000000000000000 .L0 
C:\Users\test\AppData\Local\Temp\ccMxCYS3.s:519    .text.i2c_saddr1_config:0000000000000000 .L0 
C:\Users\test\AppData\Local\Temp\ccMxCYS3.s:520    .text.i2c_saddr1_config:0000000000000000 .L0 
C:\Users\test\AppData\Local\Temp\ccMxCYS3.s:521    .text.i2c_saddr1_config:0000000000000000 .L0 
C:\Users\test\AppData\Local\Temp\ccMxCYS3.s:524    .text.i2c_saddr1_config:0000000000000004 .L0 
C:\Users\test\AppData\Local\Temp\ccMxCYS3.s:526    .text.i2c_saddr1_config:0000000000000006 .L0 
C:\Users\test\AppData\Local\Temp\ccMxCYS3.s:527    .text.i2c_saddr1_config:0000000000000008 .L0 
C:\Users\test\AppData\Local\Temp\ccMxCYS3.s:534    .text.i2c_dualaddr_enable:0000000000000000 i2c_dualaddr_enable
C:\Users\test\AppData\Local\Temp\ccMxCYS3.s:537    .text.i2c_dualaddr_enable:0000000000000000 .L0 
C:\Users\test\AppData\Local\Temp\ccMxCYS3.s:539    .text.i2c_dualaddr_enable:0000000000000000 .L0 
C:\Users\test\AppData\Local\Temp\ccMxCYS3.s:540    .text.i2c_dualaddr_enable:0000000000000000 .L0 
C:\Users\test\AppData\Local\Temp\ccMxCYS3.s:541    .text.i2c_dualaddr_enable:0000000000000000 .L0 
C:\Users\test\AppData\Local\Temp\ccMxCYS3.s:542    .text.i2c_dualaddr_enable:0000000000000000 .L0 
C:\Users\test\AppData\Local\Temp\ccMxCYS3.s:545    .text.i2c_dualaddr_enable:0000000000000004 .L0 
C:\Users\test\AppData\Local\Temp\ccMxCYS3.s:548    .text.i2c_dualaddr_enable:0000000000000008 .L0 
C:\Users\test\AppData\Local\Temp\ccMxCYS3.s:550    .text.i2c_dualaddr_enable:000000000000000a .L0 
GAS LISTING C:\Users\test\AppData\Local\Temp\ccMxCYS3.s 			page 41


C:\Users\test\AppData\Local\Temp\ccMxCYS3.s:551    .text.i2c_dualaddr_enable:000000000000000c .L0 
C:\Users\test\AppData\Local\Temp\ccMxCYS3.s:558    .text.i2c_dualaddr_disable:0000000000000000 i2c_dualaddr_disable
C:\Users\test\AppData\Local\Temp\ccMxCYS3.s:561    .text.i2c_dualaddr_disable:0000000000000000 .L0 
C:\Users\test\AppData\Local\Temp\ccMxCYS3.s:563    .text.i2c_dualaddr_disable:0000000000000000 .L0 
C:\Users\test\AppData\Local\Temp\ccMxCYS3.s:564    .text.i2c_dualaddr_disable:0000000000000000 .L0 
C:\Users\test\AppData\Local\Temp\ccMxCYS3.s:565    .text.i2c_dualaddr_disable:0000000000000000 .L0 
C:\Users\test\AppData\Local\Temp\ccMxCYS3.s:569    .text.i2c_dualaddr_disable:0000000000000006 .L0 
C:\Users\test\AppData\Local\Temp\ccMxCYS3.s:570    .text.i2c_dualaddr_disable:0000000000000008 .L0 
C:\Users\test\AppData\Local\Temp\ccMxCYS3.s:577    .text.i2c_enable:0000000000000000 i2c_enable
C:\Users\test\AppData\Local\Temp\ccMxCYS3.s:580    .text.i2c_enable:0000000000000000 .L0 
C:\Users\test\AppData\Local\Temp\ccMxCYS3.s:582    .text.i2c_enable:0000000000000000 .L0 
C:\Users\test\AppData\Local\Temp\ccMxCYS3.s:583    .text.i2c_enable:0000000000000000 .L0 
C:\Users\test\AppData\Local\Temp\ccMxCYS3.s:584    .text.i2c_enable:0000000000000000 .L0 
C:\Users\test\AppData\Local\Temp\ccMxCYS3.s:588    .text.i2c_enable:0000000000000008 .L0 
C:\Users\test\AppData\Local\Temp\ccMxCYS3.s:589    .text.i2c_enable:000000000000000a .L0 
C:\Users\test\AppData\Local\Temp\ccMxCYS3.s:596    .text.i2c_disable:0000000000000000 i2c_disable
C:\Users\test\AppData\Local\Temp\ccMxCYS3.s:599    .text.i2c_disable:0000000000000000 .L0 
C:\Users\test\AppData\Local\Temp\ccMxCYS3.s:601    .text.i2c_disable:0000000000000000 .L0 
C:\Users\test\AppData\Local\Temp\ccMxCYS3.s:602    .text.i2c_disable:0000000000000000 .L0 
C:\Users\test\AppData\Local\Temp\ccMxCYS3.s:603    .text.i2c_disable:0000000000000000 .L0 
C:\Users\test\AppData\Local\Temp\ccMxCYS3.s:607    .text.i2c_disable:0000000000000006 .L0 
C:\Users\test\AppData\Local\Temp\ccMxCYS3.s:608    .text.i2c_disable:0000000000000008 .L0 
C:\Users\test\AppData\Local\Temp\ccMxCYS3.s:615    .text.i2c_start_on_bus:0000000000000000 i2c_start_on_bus
C:\Users\test\AppData\Local\Temp\ccMxCYS3.s:618    .text.i2c_start_on_bus:0000000000000000 .L0 
C:\Users\test\AppData\Local\Temp\ccMxCYS3.s:620    .text.i2c_start_on_bus:0000000000000000 .L0 
C:\Users\test\AppData\Local\Temp\ccMxCYS3.s:621    .text.i2c_start_on_bus:0000000000000000 .L0 
C:\Users\test\AppData\Local\Temp\ccMxCYS3.s:622    .text.i2c_start_on_bus:0000000000000000 .L0 
C:\Users\test\AppData\Local\Temp\ccMxCYS3.s:626    .text.i2c_start_on_bus:0000000000000008 .L0 
C:\Users\test\AppData\Local\Temp\ccMxCYS3.s:627    .text.i2c_start_on_bus:000000000000000a .L0 
C:\Users\test\AppData\Local\Temp\ccMxCYS3.s:634    .text.i2c_stop_on_bus:0000000000000000 i2c_stop_on_bus
C:\Users\test\AppData\Local\Temp\ccMxCYS3.s:637    .text.i2c_stop_on_bus:0000000000000000 .L0 
C:\Users\test\AppData\Local\Temp\ccMxCYS3.s:639    .text.i2c_stop_on_bus:0000000000000000 .L0 
C:\Users\test\AppData\Local\Temp\ccMxCYS3.s:640    .text.i2c_stop_on_bus:0000000000000000 .L0 
C:\Users\test\AppData\Local\Temp\ccMxCYS3.s:641    .text.i2c_stop_on_bus:0000000000000000 .L0 
C:\Users\test\AppData\Local\Temp\ccMxCYS3.s:645    .text.i2c_stop_on_bus:0000000000000008 .L0 
C:\Users\test\AppData\Local\Temp\ccMxCYS3.s:646    .text.i2c_stop_on_bus:000000000000000a .L0 
C:\Users\test\AppData\Local\Temp\ccMxCYS3.s:653    .text.i2c_data_transmit:0000000000000000 i2c_data_transmit
C:\Users\test\AppData\Local\Temp\ccMxCYS3.s:656    .text.i2c_data_transmit:0000000000000000 .L0 
C:\Users\test\AppData\Local\Temp\ccMxCYS3.s:658    .text.i2c_data_transmit:0000000000000000 .L0 
C:\Users\test\AppData\Local\Temp\ccMxCYS3.s:659    .text.i2c_data_transmit:0000000000000000 .L0 
C:\Users\test\AppData\Local\Temp\ccMxCYS3.s:660    .text.i2c_data_transmit:0000000000000000 .L0 
C:\Users\test\AppData\Local\Temp\ccMxCYS3.s:662    .text.i2c_data_transmit:0000000000000002 .L0 
C:\Users\test\AppData\Local\Temp\ccMxCYS3.s:663    .text.i2c_data_transmit:0000000000000004 .L0 
C:\Users\test\AppData\Local\Temp\ccMxCYS3.s:670    .text.i2c_data_receive:0000000000000000 i2c_data_receive
C:\Users\test\AppData\Local\Temp\ccMxCYS3.s:673    .text.i2c_data_receive:0000000000000000 .L0 
C:\Users\test\AppData\Local\Temp\ccMxCYS3.s:675    .text.i2c_data_receive:0000000000000000 .L0 
C:\Users\test\AppData\Local\Temp\ccMxCYS3.s:676    .text.i2c_data_receive:0000000000000000 .L0 
C:\Users\test\AppData\Local\Temp\ccMxCYS3.s:677    .text.i2c_data_receive:0000000000000000 .L0 
C:\Users\test\AppData\Local\Temp\ccMxCYS3.s:680    .text.i2c_data_receive:0000000000000002 .L0 
C:\Users\test\AppData\Local\Temp\ccMxCYS3.s:682    .text.i2c_data_receive:0000000000000008 .L0 
C:\Users\test\AppData\Local\Temp\ccMxCYS3.s:689    .text.i2c_dma_enable:0000000000000000 i2c_dma_enable
C:\Users\test\AppData\Local\Temp\ccMxCYS3.s:692    .text.i2c_dma_enable:0000000000000000 .L0 
C:\Users\test\AppData\Local\Temp\ccMxCYS3.s:694    .text.i2c_dma_enable:0000000000000000 .L0 
C:\Users\test\AppData\Local\Temp\ccMxCYS3.s:695    .text.i2c_dma_enable:0000000000000000 .L0 
C:\Users\test\AppData\Local\Temp\ccMxCYS3.s:696    .text.i2c_dma_enable:0000000000000000 .L0 
C:\Users\test\AppData\Local\Temp\ccMxCYS3.s:697    .text.i2c_dma_enable:0000000000000000 .L0 
C:\Users\test\AppData\Local\Temp\ccMxCYS3.s:700    .text.i2c_dma_enable:0000000000000002 .L0 
GAS LISTING C:\Users\test\AppData\Local\Temp\ccMxCYS3.s 			page 42


C:\Users\test\AppData\Local\Temp\ccMxCYS3.s:701    .text.i2c_dma_enable:0000000000000002 .L0 
C:\Users\test\AppData\Local\Temp\ccMxCYS3.s:706    .text.i2c_dma_enable:000000000000000a .L0 
C:\Users\test\AppData\Local\Temp\ccMxCYS3.s:707    .text.i2c_dma_enable:000000000000000a .L0 
C:\Users\test\AppData\Local\Temp\ccMxCYS3.s:710    .text.i2c_dma_enable:000000000000000c .L0 
C:\Users\test\AppData\Local\Temp\ccMxCYS3.s:711    .text.i2c_dma_enable:000000000000000c .L0 
C:\Users\test\AppData\Local\Temp\ccMxCYS3.s:713    .text.i2c_dma_enable:000000000000000e .L0 
C:\Users\test\AppData\Local\Temp\ccMxCYS3.s:714    .text.i2c_dma_enable:0000000000000010 .L0 
C:\Users\test\AppData\Local\Temp\ccMxCYS3.s:721    .text.i2c_dma_last_transfer_config:0000000000000000 i2c_dma_last_transfer_config
C:\Users\test\AppData\Local\Temp\ccMxCYS3.s:724    .text.i2c_dma_last_transfer_config:0000000000000000 .L0 
C:\Users\test\AppData\Local\Temp\ccMxCYS3.s:726    .text.i2c_dma_last_transfer_config:0000000000000000 .L0 
C:\Users\test\AppData\Local\Temp\ccMxCYS3.s:727    .text.i2c_dma_last_transfer_config:0000000000000000 .L0 
C:\Users\test\AppData\Local\Temp\ccMxCYS3.s:728    .text.i2c_dma_last_transfer_config:0000000000000000 .L0 
C:\Users\test\AppData\Local\Temp\ccMxCYS3.s:729    .text.i2c_dma_last_transfer_config:0000000000000000 .L0 
C:\Users\test\AppData\Local\Temp\ccMxCYS3.s:732    .text.i2c_dma_last_transfer_config:0000000000000002 .L0 
C:\Users\test\AppData\Local\Temp\ccMxCYS3.s:733    .text.i2c_dma_last_transfer_config:0000000000000002 .L0 
C:\Users\test\AppData\Local\Temp\ccMxCYS3.s:738    .text.i2c_dma_last_transfer_config:0000000000000008 .L0 
C:\Users\test\AppData\Local\Temp\ccMxCYS3.s:739    .text.i2c_dma_last_transfer_config:0000000000000008 .L0 
C:\Users\test\AppData\Local\Temp\ccMxCYS3.s:742    .text.i2c_dma_last_transfer_config:000000000000000a .L0 
C:\Users\test\AppData\Local\Temp\ccMxCYS3.s:743    .text.i2c_dma_last_transfer_config:000000000000000a .L0 
C:\Users\test\AppData\Local\Temp\ccMxCYS3.s:745    .text.i2c_dma_last_transfer_config:000000000000000c .L0 
C:\Users\test\AppData\Local\Temp\ccMxCYS3.s:746    .text.i2c_dma_last_transfer_config:000000000000000e .L0 
C:\Users\test\AppData\Local\Temp\ccMxCYS3.s:753    .text.i2c_stretch_scl_low_config:0000000000000000 i2c_stretch_scl_low_config
C:\Users\test\AppData\Local\Temp\ccMxCYS3.s:756    .text.i2c_stretch_scl_low_config:0000000000000000 .L0 
C:\Users\test\AppData\Local\Temp\ccMxCYS3.s:758    .text.i2c_stretch_scl_low_config:0000000000000000 .L0 
C:\Users\test\AppData\Local\Temp\ccMxCYS3.s:759    .text.i2c_stretch_scl_low_config:0000000000000000 .L0 
C:\Users\test\AppData\Local\Temp\ccMxCYS3.s:760    .text.i2c_stretch_scl_low_config:0000000000000000 .L0 
C:\Users\test\AppData\Local\Temp\ccMxCYS3.s:761    .text.i2c_stretch_scl_low_config:0000000000000000 .L0 
C:\Users\test\AppData\Local\Temp\ccMxCYS3.s:764    .text.i2c_stretch_scl_low_config:0000000000000002 .L0 
C:\Users\test\AppData\Local\Temp\ccMxCYS3.s:765    .text.i2c_stretch_scl_low_config:0000000000000002 .L0 
C:\Users\test\AppData\Local\Temp\ccMxCYS3.s:768    .text.i2c_stretch_scl_low_config:0000000000000006 .L0 
C:\Users\test\AppData\Local\Temp\ccMxCYS3.s:769    .text.i2c_stretch_scl_low_config:0000000000000006 .L0 
C:\Users\test\AppData\Local\Temp\ccMxCYS3.s:772    .text.i2c_stretch_scl_low_config:0000000000000008 .L0 
C:\Users\test\AppData\Local\Temp\ccMxCYS3.s:773    .text.i2c_stretch_scl_low_config:0000000000000008 .L0 
C:\Users\test\AppData\Local\Temp\ccMxCYS3.s:775    .text.i2c_stretch_scl_low_config:000000000000000a .L0 
C:\Users\test\AppData\Local\Temp\ccMxCYS3.s:776    .text.i2c_stretch_scl_low_config:000000000000000c .L0 
C:\Users\test\AppData\Local\Temp\ccMxCYS3.s:783    .text.i2c_slave_response_to_gcall_config:0000000000000000 i2c_slave_response_to_gcall_config
C:\Users\test\AppData\Local\Temp\ccMxCYS3.s:786    .text.i2c_slave_response_to_gcall_config:0000000000000000 .L0 
C:\Users\test\AppData\Local\Temp\ccMxCYS3.s:788    .text.i2c_slave_response_to_gcall_config:0000000000000000 .L0 
C:\Users\test\AppData\Local\Temp\ccMxCYS3.s:789    .text.i2c_slave_response_to_gcall_config:0000000000000000 .L0 
C:\Users\test\AppData\Local\Temp\ccMxCYS3.s:790    .text.i2c_slave_response_to_gcall_config:0000000000000000 .L0 
C:\Users\test\AppData\Local\Temp\ccMxCYS3.s:791    .text.i2c_slave_response_to_gcall_config:0000000000000000 .L0 
C:\Users\test\AppData\Local\Temp\ccMxCYS3.s:794    .text.i2c_slave_response_to_gcall_config:0000000000000002 .L0 
C:\Users\test\AppData\Local\Temp\ccMxCYS3.s:795    .text.i2c_slave_response_to_gcall_config:0000000000000002 .L0 
C:\Users\test\AppData\Local\Temp\ccMxCYS3.s:798    .text.i2c_slave_response_to_gcall_config:0000000000000006 .L0 
C:\Users\test\AppData\Local\Temp\ccMxCYS3.s:799    .text.i2c_slave_response_to_gcall_config:0000000000000006 .L0 
C:\Users\test\AppData\Local\Temp\ccMxCYS3.s:802    .text.i2c_slave_response_to_gcall_config:0000000000000008 .L0 
C:\Users\test\AppData\Local\Temp\ccMxCYS3.s:803    .text.i2c_slave_response_to_gcall_config:0000000000000008 .L0 
C:\Users\test\AppData\Local\Temp\ccMxCYS3.s:805    .text.i2c_slave_response_to_gcall_config:000000000000000a .L0 
C:\Users\test\AppData\Local\Temp\ccMxCYS3.s:806    .text.i2c_slave_response_to_gcall_config:000000000000000c .L0 
C:\Users\test\AppData\Local\Temp\ccMxCYS3.s:813    .text.i2c_software_reset_config:0000000000000000 i2c_software_reset_config
C:\Users\test\AppData\Local\Temp\ccMxCYS3.s:816    .text.i2c_software_reset_config:0000000000000000 .L0 
C:\Users\test\AppData\Local\Temp\ccMxCYS3.s:818    .text.i2c_software_reset_config:0000000000000000 .L0 
C:\Users\test\AppData\Local\Temp\ccMxCYS3.s:819    .text.i2c_software_reset_config:0000000000000000 .L0 
C:\Users\test\AppData\Local\Temp\ccMxCYS3.s:820    .text.i2c_software_reset_config:0000000000000000 .L0 
C:\Users\test\AppData\Local\Temp\ccMxCYS3.s:821    .text.i2c_software_reset_config:0000000000000000 .L0 
C:\Users\test\AppData\Local\Temp\ccMxCYS3.s:824    .text.i2c_software_reset_config:0000000000000002 .L0 
C:\Users\test\AppData\Local\Temp\ccMxCYS3.s:825    .text.i2c_software_reset_config:0000000000000002 .L0 
GAS LISTING C:\Users\test\AppData\Local\Temp\ccMxCYS3.s 			page 43


C:\Users\test\AppData\Local\Temp\ccMxCYS3.s:830    .text.i2c_software_reset_config:0000000000000008 .L0 
C:\Users\test\AppData\Local\Temp\ccMxCYS3.s:831    .text.i2c_software_reset_config:0000000000000008 .L0 
C:\Users\test\AppData\Local\Temp\ccMxCYS3.s:834    .text.i2c_software_reset_config:000000000000000a .L0 
C:\Users\test\AppData\Local\Temp\ccMxCYS3.s:835    .text.i2c_software_reset_config:000000000000000a .L0 
C:\Users\test\AppData\Local\Temp\ccMxCYS3.s:837    .text.i2c_software_reset_config:000000000000000c .L0 
C:\Users\test\AppData\Local\Temp\ccMxCYS3.s:838    .text.i2c_software_reset_config:000000000000000e .L0 
C:\Users\test\AppData\Local\Temp\ccMxCYS3.s:845    .text.i2c_pec_enable:0000000000000000 i2c_pec_enable
C:\Users\test\AppData\Local\Temp\ccMxCYS3.s:848    .text.i2c_pec_enable:0000000000000000 .L0 
C:\Users\test\AppData\Local\Temp\ccMxCYS3.s:850    .text.i2c_pec_enable:0000000000000000 .L0 
C:\Users\test\AppData\Local\Temp\ccMxCYS3.s:851    .text.i2c_pec_enable:0000000000000000 .L0 
C:\Users\test\AppData\Local\Temp\ccMxCYS3.s:852    .text.i2c_pec_enable:0000000000000000 .L0 
C:\Users\test\AppData\Local\Temp\ccMxCYS3.s:853    .text.i2c_pec_enable:0000000000000000 .L0 
C:\Users\test\AppData\Local\Temp\ccMxCYS3.s:856    .text.i2c_pec_enable:0000000000000002 .L0 
C:\Users\test\AppData\Local\Temp\ccMxCYS3.s:857    .text.i2c_pec_enable:0000000000000002 .L0 
C:\Users\test\AppData\Local\Temp\ccMxCYS3.s:860    .text.i2c_pec_enable:0000000000000006 .L0 
C:\Users\test\AppData\Local\Temp\ccMxCYS3.s:861    .text.i2c_pec_enable:0000000000000006 .L0 
C:\Users\test\AppData\Local\Temp\ccMxCYS3.s:864    .text.i2c_pec_enable:0000000000000008 .L0 
C:\Users\test\AppData\Local\Temp\ccMxCYS3.s:865    .text.i2c_pec_enable:0000000000000008 .L0 
C:\Users\test\AppData\Local\Temp\ccMxCYS3.s:867    .text.i2c_pec_enable:000000000000000a .L0 
C:\Users\test\AppData\Local\Temp\ccMxCYS3.s:868    .text.i2c_pec_enable:000000000000000c .L0 
C:\Users\test\AppData\Local\Temp\ccMxCYS3.s:875    .text.i2c_pec_transfer_enable:0000000000000000 i2c_pec_transfer_enable
C:\Users\test\AppData\Local\Temp\ccMxCYS3.s:878    .text.i2c_pec_transfer_enable:0000000000000000 .L0 
C:\Users\test\AppData\Local\Temp\ccMxCYS3.s:880    .text.i2c_pec_transfer_enable:0000000000000000 .L0 
C:\Users\test\AppData\Local\Temp\ccMxCYS3.s:881    .text.i2c_pec_transfer_enable:0000000000000000 .L0 
C:\Users\test\AppData\Local\Temp\ccMxCYS3.s:882    .text.i2c_pec_transfer_enable:0000000000000000 .L0 
C:\Users\test\AppData\Local\Temp\ccMxCYS3.s:883    .text.i2c_pec_transfer_enable:0000000000000000 .L0 
C:\Users\test\AppData\Local\Temp\ccMxCYS3.s:886    .text.i2c_pec_transfer_enable:0000000000000002 .L0 
C:\Users\test\AppData\Local\Temp\ccMxCYS3.s:887    .text.i2c_pec_transfer_enable:0000000000000002 .L0 
C:\Users\test\AppData\Local\Temp\ccMxCYS3.s:892    .text.i2c_pec_transfer_enable:0000000000000008 .L0 
C:\Users\test\AppData\Local\Temp\ccMxCYS3.s:893    .text.i2c_pec_transfer_enable:0000000000000008 .L0 
C:\Users\test\AppData\Local\Temp\ccMxCYS3.s:896    .text.i2c_pec_transfer_enable:000000000000000a .L0 
C:\Users\test\AppData\Local\Temp\ccMxCYS3.s:897    .text.i2c_pec_transfer_enable:000000000000000a .L0 
C:\Users\test\AppData\Local\Temp\ccMxCYS3.s:899    .text.i2c_pec_transfer_enable:000000000000000c .L0 
C:\Users\test\AppData\Local\Temp\ccMxCYS3.s:900    .text.i2c_pec_transfer_enable:000000000000000e .L0 
C:\Users\test\AppData\Local\Temp\ccMxCYS3.s:907    .text.i2c_pec_value_get:0000000000000000 i2c_pec_value_get
C:\Users\test\AppData\Local\Temp\ccMxCYS3.s:910    .text.i2c_pec_value_get:0000000000000000 .L0 
C:\Users\test\AppData\Local\Temp\ccMxCYS3.s:912    .text.i2c_pec_value_get:0000000000000000 .L0 
C:\Users\test\AppData\Local\Temp\ccMxCYS3.s:913    .text.i2c_pec_value_get:0000000000000000 .L0 
C:\Users\test\AppData\Local\Temp\ccMxCYS3.s:914    .text.i2c_pec_value_get:0000000000000000 .L0 
C:\Users\test\AppData\Local\Temp\ccMxCYS3.s:917    .text.i2c_pec_value_get:0000000000000002 .L0 
C:\Users\test\AppData\Local\Temp\ccMxCYS3.s:919    .text.i2c_pec_value_get:0000000000000004 .L0 
C:\Users\test\AppData\Local\Temp\ccMxCYS3.s:921    .text.i2c_pec_value_get:000000000000000a .L0 
C:\Users\test\AppData\Local\Temp\ccMxCYS3.s:928    .text.i2c_smbus_issue_alert:0000000000000000 i2c_smbus_issue_alert
C:\Users\test\AppData\Local\Temp\ccMxCYS3.s:931    .text.i2c_smbus_issue_alert:0000000000000000 .L0 
C:\Users\test\AppData\Local\Temp\ccMxCYS3.s:933    .text.i2c_smbus_issue_alert:0000000000000000 .L0 
C:\Users\test\AppData\Local\Temp\ccMxCYS3.s:934    .text.i2c_smbus_issue_alert:0000000000000000 .L0 
C:\Users\test\AppData\Local\Temp\ccMxCYS3.s:935    .text.i2c_smbus_issue_alert:0000000000000000 .L0 
C:\Users\test\AppData\Local\Temp\ccMxCYS3.s:936    .text.i2c_smbus_issue_alert:0000000000000000 .L0 
C:\Users\test\AppData\Local\Temp\ccMxCYS3.s:939    .text.i2c_smbus_issue_alert:0000000000000002 .L0 
C:\Users\test\AppData\Local\Temp\ccMxCYS3.s:940    .text.i2c_smbus_issue_alert:0000000000000002 .L0 
C:\Users\test\AppData\Local\Temp\ccMxCYS3.s:945    .text.i2c_smbus_issue_alert:0000000000000008 .L0 
C:\Users\test\AppData\Local\Temp\ccMxCYS3.s:946    .text.i2c_smbus_issue_alert:0000000000000008 .L0 
C:\Users\test\AppData\Local\Temp\ccMxCYS3.s:949    .text.i2c_smbus_issue_alert:000000000000000a .L0 
C:\Users\test\AppData\Local\Temp\ccMxCYS3.s:950    .text.i2c_smbus_issue_alert:000000000000000a .L0 
C:\Users\test\AppData\Local\Temp\ccMxCYS3.s:952    .text.i2c_smbus_issue_alert:000000000000000c .L0 
C:\Users\test\AppData\Local\Temp\ccMxCYS3.s:953    .text.i2c_smbus_issue_alert:000000000000000e .L0 
C:\Users\test\AppData\Local\Temp\ccMxCYS3.s:960    .text.i2c_smbus_arp_enable:0000000000000000 i2c_smbus_arp_enable
GAS LISTING C:\Users\test\AppData\Local\Temp\ccMxCYS3.s 			page 44


C:\Users\test\AppData\Local\Temp\ccMxCYS3.s:963    .text.i2c_smbus_arp_enable:0000000000000000 .L0 
C:\Users\test\AppData\Local\Temp\ccMxCYS3.s:965    .text.i2c_smbus_arp_enable:0000000000000000 .L0 
C:\Users\test\AppData\Local\Temp\ccMxCYS3.s:966    .text.i2c_smbus_arp_enable:0000000000000000 .L0 
C:\Users\test\AppData\Local\Temp\ccMxCYS3.s:967    .text.i2c_smbus_arp_enable:0000000000000000 .L0 
C:\Users\test\AppData\Local\Temp\ccMxCYS3.s:968    .text.i2c_smbus_arp_enable:0000000000000000 .L0 
C:\Users\test\AppData\Local\Temp\ccMxCYS3.s:971    .text.i2c_smbus_arp_enable:0000000000000002 .L0 
C:\Users\test\AppData\Local\Temp\ccMxCYS3.s:972    .text.i2c_smbus_arp_enable:0000000000000002 .L0 
C:\Users\test\AppData\Local\Temp\ccMxCYS3.s:975    .text.i2c_smbus_arp_enable:0000000000000004 .L0 
C:\Users\test\AppData\Local\Temp\ccMxCYS3.s:976    .text.i2c_smbus_arp_enable:0000000000000004 .L0 
C:\Users\test\AppData\Local\Temp\ccMxCYS3.s:979    .text.i2c_smbus_arp_enable:0000000000000006 .L0 
C:\Users\test\AppData\Local\Temp\ccMxCYS3.s:980    .text.i2c_smbus_arp_enable:0000000000000006 .L0 
C:\Users\test\AppData\Local\Temp\ccMxCYS3.s:982    .text.i2c_smbus_arp_enable:0000000000000008 .L0 
C:\Users\test\AppData\Local\Temp\ccMxCYS3.s:983    .text.i2c_smbus_arp_enable:000000000000000a .L0 
C:\Users\test\AppData\Local\Temp\ccMxCYS3.s:990    .text.i2c_flag_get:0000000000000000 i2c_flag_get
C:\Users\test\AppData\Local\Temp\ccMxCYS3.s:993    .text.i2c_flag_get:0000000000000000 .L0 
C:\Users\test\AppData\Local\Temp\ccMxCYS3.s:995    .text.i2c_flag_get:0000000000000000 .L0 
C:\Users\test\AppData\Local\Temp\ccMxCYS3.s:996    .text.i2c_flag_get:0000000000000000 .L0 
C:\Users\test\AppData\Local\Temp\ccMxCYS3.s:997    .text.i2c_flag_get:0000000000000000 .L0 
C:\Users\test\AppData\Local\Temp\ccMxCYS3.s:1003   .text.i2c_flag_get:000000000000000c .L0 
C:\Users\test\AppData\Local\Temp\ccMxCYS3.s:1005   .text.i2c_flag_get:0000000000000010 .L0 
C:\Users\test\AppData\Local\Temp\ccMxCYS3.s:1007   .text.i2c_flag_get:0000000000000014 .L0 
C:\Users\test\AppData\Local\Temp\ccMxCYS3.s:1014   .text.i2c_flag_clear:0000000000000000 i2c_flag_clear
C:\Users\test\AppData\Local\Temp\ccMxCYS3.s:1017   .text.i2c_flag_clear:0000000000000000 .L0 
C:\Users\test\AppData\Local\Temp\ccMxCYS3.s:1019   .text.i2c_flag_clear:0000000000000000 .L0 
C:\Users\test\AppData\Local\Temp\ccMxCYS3.s:1020   .text.i2c_flag_clear:0000000000000000 .L0 
C:\Users\test\AppData\Local\Temp\ccMxCYS3.s:1021   .text.i2c_flag_clear:0000000000000000 .L0 
C:\Users\test\AppData\Local\Temp\ccMxCYS3.s:1022   .text.i2c_flag_clear:0000000000000000 .L0 
C:\Users\test\AppData\Local\Temp\ccMxCYS3.s:1025   .text.i2c_flag_clear:0000000000000008 .L0 
C:\Users\test\AppData\Local\Temp\ccMxCYS3.s:1026   .text.i2c_flag_clear:0000000000000008 .L0 
C:\Users\test\AppData\Local\Temp\ccMxCYS3.s:1032   .text.i2c_flag_clear:0000000000000014 .L0 
C:\Users\test\AppData\Local\Temp\ccMxCYS3.s:1035   .text.i2c_flag_clear:000000000000001a .L0 
C:\Users\test\AppData\Local\Temp\ccMxCYS3.s:1037   .text.i2c_flag_clear:000000000000001e .L0 
C:\Users\test\AppData\Local\Temp\ccMxCYS3.s:1040   .text.i2c_flag_clear:0000000000000022 .L0 
C:\Users\test\AppData\Local\Temp\ccMxCYS3.s:1044   .text.i2c_flag_clear:0000000000000024 .L0 
C:\Users\test\AppData\Local\Temp\ccMxCYS3.s:1045   .text.i2c_flag_clear:0000000000000024 .L0 
C:\Users\test\AppData\Local\Temp\ccMxCYS3.s:1047   .text.i2c_flag_clear:0000000000000026 .L0 
C:\Users\test\AppData\Local\Temp\ccMxCYS3.s:1048   .text.i2c_flag_clear:0000000000000026 .L0 
C:\Users\test\AppData\Local\Temp\ccMxCYS3.s:1050   .text.i2c_flag_clear:000000000000002a .L0 
C:\Users\test\AppData\Local\Temp\ccMxCYS3.s:1057   .text.i2c_interrupt_enable:0000000000000000 i2c_interrupt_enable
C:\Users\test\AppData\Local\Temp\ccMxCYS3.s:1060   .text.i2c_interrupt_enable:0000000000000000 .L0 
C:\Users\test\AppData\Local\Temp\ccMxCYS3.s:1062   .text.i2c_interrupt_enable:0000000000000000 .L0 
C:\Users\test\AppData\Local\Temp\ccMxCYS3.s:1063   .text.i2c_interrupt_enable:0000000000000000 .L0 
C:\Users\test\AppData\Local\Temp\ccMxCYS3.s:1064   .text.i2c_interrupt_enable:0000000000000000 .L0 
C:\Users\test\AppData\Local\Temp\ccMxCYS3.s:1070   .text.i2c_interrupt_enable:000000000000000c .L0 
C:\Users\test\AppData\Local\Temp\ccMxCYS3.s:1073   .text.i2c_interrupt_enable:0000000000000012 .L0 
C:\Users\test\AppData\Local\Temp\ccMxCYS3.s:1076   .text.i2c_interrupt_enable:0000000000000016 .L0 
C:\Users\test\AppData\Local\Temp\ccMxCYS3.s:1077   .text.i2c_interrupt_enable:0000000000000018 .L0 
C:\Users\test\AppData\Local\Temp\ccMxCYS3.s:1084   .text.i2c_interrupt_disable:0000000000000000 i2c_interrupt_disable
C:\Users\test\AppData\Local\Temp\ccMxCYS3.s:1087   .text.i2c_interrupt_disable:0000000000000000 .L0 
C:\Users\test\AppData\Local\Temp\ccMxCYS3.s:1089   .text.i2c_interrupt_disable:0000000000000000 .L0 
C:\Users\test\AppData\Local\Temp\ccMxCYS3.s:1090   .text.i2c_interrupt_disable:0000000000000000 .L0 
C:\Users\test\AppData\Local\Temp\ccMxCYS3.s:1091   .text.i2c_interrupt_disable:0000000000000000 .L0 
C:\Users\test\AppData\Local\Temp\ccMxCYS3.s:1097   .text.i2c_interrupt_disable:000000000000000c .L0 
C:\Users\test\AppData\Local\Temp\ccMxCYS3.s:1100   .text.i2c_interrupt_disable:0000000000000012 .L0 
C:\Users\test\AppData\Local\Temp\ccMxCYS3.s:1102   .text.i2c_interrupt_disable:0000000000000016 .L0 
C:\Users\test\AppData\Local\Temp\ccMxCYS3.s:1105   .text.i2c_interrupt_disable:000000000000001a .L0 
C:\Users\test\AppData\Local\Temp\ccMxCYS3.s:1106   .text.i2c_interrupt_disable:000000000000001c .L0 
GAS LISTING C:\Users\test\AppData\Local\Temp\ccMxCYS3.s 			page 45


C:\Users\test\AppData\Local\Temp\ccMxCYS3.s:1113   .text.i2c_interrupt_flag_get:0000000000000000 i2c_interrupt_flag_get
C:\Users\test\AppData\Local\Temp\ccMxCYS3.s:1116   .text.i2c_interrupt_flag_get:0000000000000000 .L0 
C:\Users\test\AppData\Local\Temp\ccMxCYS3.s:1118   .text.i2c_interrupt_flag_get:0000000000000000 .L0 
C:\Users\test\AppData\Local\Temp\ccMxCYS3.s:1119   .text.i2c_interrupt_flag_get:0000000000000000 .L0 
C:\Users\test\AppData\Local\Temp\ccMxCYS3.s:1120   .text.i2c_interrupt_flag_get:0000000000000000 .L0 
C:\Users\test\AppData\Local\Temp\ccMxCYS3.s:1121   .text.i2c_interrupt_flag_get:0000000000000000 .L0 
C:\Users\test\AppData\Local\Temp\ccMxCYS3.s:1123   .text.i2c_interrupt_flag_get:0000000000000004 .L0 
C:\Users\test\AppData\Local\Temp\ccMxCYS3.s:1125   .text.i2c_interrupt_flag_get:0000000000000008 .L0 
C:\Users\test\AppData\Local\Temp\ccMxCYS3.s:1128   .text.i2c_interrupt_flag_get:000000000000000e .L0 
C:\Users\test\AppData\Local\Temp\ccMxCYS3.s:1130   .text.i2c_interrupt_flag_get:0000000000000010 .L0 
C:\Users\test\AppData\Local\Temp\ccMxCYS3.s:1133   .text.i2c_interrupt_flag_get:0000000000000014 .L0 
C:\Users\test\AppData\Local\Temp\ccMxCYS3.s:1134   .text.i2c_interrupt_flag_get:0000000000000014 .L0 
C:\Users\test\AppData\Local\Temp\ccMxCYS3.s:1136   .text.i2c_interrupt_flag_get:0000000000000016 .L0 
C:\Users\test\AppData\Local\Temp\ccMxCYS3.s:1138   .text.i2c_interrupt_flag_get:0000000000000018 .L0 
C:\Users\test\AppData\Local\Temp\ccMxCYS3.s:1140   .text.i2c_interrupt_flag_get:000000000000001a .L0 
C:\Users\test\AppData\Local\Temp\ccMxCYS3.s:1142   .text.i2c_interrupt_flag_get:000000000000001e .L0 
C:\Users\test\AppData\Local\Temp\ccMxCYS3.s:1145   .text.i2c_interrupt_flag_get:0000000000000022 .L0 
C:\Users\test\AppData\Local\Temp\ccMxCYS3.s:1147   .text.i2c_interrupt_flag_get:0000000000000026 .L0 
C:\Users\test\AppData\Local\Temp\ccMxCYS3.s:1154   .text.i2c_interrupt_flag_get:0000000000000034 .L0 
C:\Users\test\AppData\Local\Temp\ccMxCYS3.s:1157   .text.i2c_interrupt_flag_get:0000000000000036 .L0 
C:\Users\test\AppData\Local\Temp\ccMxCYS3.s:1158   .text.i2c_interrupt_flag_get:0000000000000036 .L0 
C:\Users\test\AppData\Local\Temp\ccMxCYS3.s:1161   .text.i2c_interrupt_flag_get:0000000000000038 .L0 
C:\Users\test\AppData\Local\Temp\ccMxCYS3.s:1162   .text.i2c_interrupt_flag_get:0000000000000038 .L0 
C:\Users\test\AppData\Local\Temp\ccMxCYS3.s:1164   .text.i2c_interrupt_flag_get:000000000000003c .L0 
C:\Users\test\AppData\Local\Temp\ccMxCYS3.s:1165   .text.i2c_interrupt_flag_get:000000000000003c .L0 
C:\Users\test\AppData\Local\Temp\ccMxCYS3.s:1167   .text.i2c_interrupt_flag_get:000000000000003e .L0 
C:\Users\test\AppData\Local\Temp\ccMxCYS3.s:1173   .text.i2c_interrupt_flag_get:0000000000000044 .L0 
C:\Users\test\AppData\Local\Temp\ccMxCYS3.s:1174   .text.i2c_interrupt_flag_get:0000000000000044 .L0 
C:\Users\test\AppData\Local\Temp\ccMxCYS3.s:1176   .text.i2c_interrupt_flag_get:0000000000000046 .L0 
C:\Users\test\AppData\Local\Temp\ccMxCYS3.s:1179   .text.i2c_interrupt_flag_get:000000000000004a .L0 
C:\Users\test\AppData\Local\Temp\ccMxCYS3.s:1182   .text.i2c_interrupt_flag_get:000000000000004c .L0 
C:\Users\test\AppData\Local\Temp\ccMxCYS3.s:1183   .text.i2c_interrupt_flag_get:000000000000004c .L0 
C:\Users\test\AppData\Local\Temp\ccMxCYS3.s:1188   .text.i2c_interrupt_flag_get:0000000000000052 .L0 
C:\Users\test\AppData\Local\Temp\ccMxCYS3.s:1192   .text.i2c_interrupt_flag_get:0000000000000054 .L0 
C:\Users\test\AppData\Local\Temp\ccMxCYS3.s:1193   .text.i2c_interrupt_flag_get:0000000000000056 .L0 
C:\Users\test\AppData\Local\Temp\ccMxCYS3.s:1200   .text.i2c_interrupt_flag_clear:0000000000000000 i2c_interrupt_flag_clear
C:\Users\test\AppData\Local\Temp\ccMxCYS3.s:1203   .text.i2c_interrupt_flag_clear:0000000000000000 .L0 
C:\Users\test\AppData\Local\Temp\ccMxCYS3.s:1205   .text.i2c_interrupt_flag_clear:0000000000000000 .L0 
C:\Users\test\AppData\Local\Temp\ccMxCYS3.s:1206   .text.i2c_interrupt_flag_clear:0000000000000000 .L0 
C:\Users\test\AppData\Local\Temp\ccMxCYS3.s:1207   .text.i2c_interrupt_flag_clear:0000000000000000 .L0 
C:\Users\test\AppData\Local\Temp\ccMxCYS3.s:1208   .text.i2c_interrupt_flag_clear:0000000000000000 .L0 
C:\Users\test\AppData\Local\Temp\ccMxCYS3.s:1212   .text.i2c_interrupt_flag_clear:000000000000000c .L0 
C:\Users\test\AppData\Local\Temp\ccMxCYS3.s:1213   .text.i2c_interrupt_flag_clear:000000000000000c .L0 
C:\Users\test\AppData\Local\Temp\ccMxCYS3.s:1218   .text.i2c_interrupt_flag_clear:0000000000000014 .L0 
C:\Users\test\AppData\Local\Temp\ccMxCYS3.s:1223   .text.i2c_interrupt_flag_clear:000000000000001c .L0 
C:\Users\test\AppData\Local\Temp\ccMxCYS3.s:1225   .text.i2c_interrupt_flag_clear:0000000000000020 .L0 
C:\Users\test\AppData\Local\Temp\ccMxCYS3.s:1228   .text.i2c_interrupt_flag_clear:0000000000000024 .L0 
C:\Users\test\AppData\Local\Temp\ccMxCYS3.s:1232   .text.i2c_interrupt_flag_clear:0000000000000026 .L0 
C:\Users\test\AppData\Local\Temp\ccMxCYS3.s:1233   .text.i2c_interrupt_flag_clear:0000000000000026 .L0 
C:\Users\test\AppData\Local\Temp\ccMxCYS3.s:1235   .text.i2c_interrupt_flag_clear:0000000000000028 .L0 
C:\Users\test\AppData\Local\Temp\ccMxCYS3.s:1236   .text.i2c_interrupt_flag_clear:0000000000000028 .L0 
C:\Users\test\AppData\Local\Temp\ccMxCYS3.s:1238   .text.i2c_interrupt_flag_clear:000000000000002c .L0 
C:\Users\test\AppData\Local\Temp\ccMxCYS3.s:86     .text.i2c_deinit:000000000000005a .L0 
C:\Users\test\AppData\Local\Temp\ccMxCYS3.s:348    .text.i2c_clock_config:0000000000000102 .L0 
C:\Users\test\AppData\Local\Temp\ccMxCYS3.s:388    .text.i2c_mode_addr_config:0000000000000012 .L0 
C:\Users\test\AppData\Local\Temp\ccMxCYS3.s:418    .text.i2c_smbus_type_config:0000000000000018 .L0 
C:\Users\test\AppData\Local\Temp\ccMxCYS3.s:448    .text.i2c_ack_config:000000000000001a .L0 
GAS LISTING C:\Users\test\AppData\Local\Temp\ccMxCYS3.s 			page 46


C:\Users\test\AppData\Local\Temp\ccMxCYS3.s:481    .text.i2c_ackpos_config:000000000000001c .L0 
C:\Users\test\AppData\Local\Temp\ccMxCYS3.s:510    .text.i2c_master_addressing:0000000000000012 .L0 
C:\Users\test\AppData\Local\Temp\ccMxCYS3.s:530    .text.i2c_saddr1_config:0000000000000008 .L0 
C:\Users\test\AppData\Local\Temp\ccMxCYS3.s:554    .text.i2c_dualaddr_enable:000000000000000c .L0 
C:\Users\test\AppData\Local\Temp\ccMxCYS3.s:573    .text.i2c_dualaddr_disable:0000000000000008 .L0 
C:\Users\test\AppData\Local\Temp\ccMxCYS3.s:592    .text.i2c_enable:000000000000000a .L0 
C:\Users\test\AppData\Local\Temp\ccMxCYS3.s:611    .text.i2c_disable:0000000000000008 .L0 
C:\Users\test\AppData\Local\Temp\ccMxCYS3.s:630    .text.i2c_start_on_bus:000000000000000a .L0 
C:\Users\test\AppData\Local\Temp\ccMxCYS3.s:649    .text.i2c_stop_on_bus:000000000000000a .L0 
C:\Users\test\AppData\Local\Temp\ccMxCYS3.s:666    .text.i2c_data_transmit:0000000000000004 .L0 
C:\Users\test\AppData\Local\Temp\ccMxCYS3.s:685    .text.i2c_data_receive:0000000000000008 .L0 
C:\Users\test\AppData\Local\Temp\ccMxCYS3.s:717    .text.i2c_dma_enable:0000000000000010 .L0 
C:\Users\test\AppData\Local\Temp\ccMxCYS3.s:749    .text.i2c_dma_last_transfer_config:000000000000000e .L0 
C:\Users\test\AppData\Local\Temp\ccMxCYS3.s:779    .text.i2c_stretch_scl_low_config:000000000000000c .L0 
C:\Users\test\AppData\Local\Temp\ccMxCYS3.s:809    .text.i2c_slave_response_to_gcall_config:000000000000000c .L0 
C:\Users\test\AppData\Local\Temp\ccMxCYS3.s:841    .text.i2c_software_reset_config:000000000000000e .L0 
C:\Users\test\AppData\Local\Temp\ccMxCYS3.s:871    .text.i2c_pec_enable:000000000000000c .L0 
C:\Users\test\AppData\Local\Temp\ccMxCYS3.s:903    .text.i2c_pec_transfer_enable:000000000000000e .L0 
C:\Users\test\AppData\Local\Temp\ccMxCYS3.s:924    .text.i2c_pec_value_get:000000000000000a .L0 
C:\Users\test\AppData\Local\Temp\ccMxCYS3.s:956    .text.i2c_smbus_issue_alert:000000000000000e .L0 
C:\Users\test\AppData\Local\Temp\ccMxCYS3.s:986    .text.i2c_smbus_arp_enable:000000000000000a .L0 
C:\Users\test\AppData\Local\Temp\ccMxCYS3.s:1010   .text.i2c_flag_get:0000000000000014 .L0 
C:\Users\test\AppData\Local\Temp\ccMxCYS3.s:1053   .text.i2c_flag_clear:000000000000002a .L0 
C:\Users\test\AppData\Local\Temp\ccMxCYS3.s:1080   .text.i2c_interrupt_enable:0000000000000018 .L0 
C:\Users\test\AppData\Local\Temp\ccMxCYS3.s:1109   .text.i2c_interrupt_disable:000000000000001c .L0 
C:\Users\test\AppData\Local\Temp\ccMxCYS3.s:1196   .text.i2c_interrupt_flag_get:0000000000000056 .L0 
C:\Users\test\AppData\Local\Temp\ccMxCYS3.s:1241   .text.i2c_interrupt_flag_clear:000000000000002c .L0 
                     .debug_frame:0000000000000000 .L0 
C:\Users\test\AppData\Local\Temp\ccMxCYS3.s:40     .text.i2c_deinit:0000000000000022 .L2
C:\Users\test\AppData\Local\Temp\ccMxCYS3.s:62     .text.i2c_deinit:000000000000003e .L3
C:\Users\test\AppData\Local\Temp\ccMxCYS3.s:139    .text.i2c_clock_config:0000000000000038 .L9
C:\Users\test\AppData\Local\Temp\ccMxCYS3.s:231    .text.i2c_clock_config:000000000000008a .L10
C:\Users\test\AppData\Local\Temp\ccMxCYS3.s:218    .text.i2c_clock_config:0000000000000080 .L11
C:\Users\test\AppData\Local\Temp\ccMxCYS3.s:194    .text.i2c_clock_config:000000000000006c .L14
C:\Users\test\AppData\Local\Temp\ccMxCYS3.s:339    .text.i2c_clock_config:00000000000000fe .L13
C:\Users\test\AppData\Local\Temp\ccMxCYS3.s:177    .text.i2c_clock_config:000000000000005c .L12
C:\Users\test\AppData\Local\Temp\ccMxCYS3.s:200    .text.i2c_clock_config:0000000000000074 .L8
C:\Users\test\AppData\Local\Temp\ccMxCYS3.s:317    .text.i2c_clock_config:00000000000000e8 .L16
C:\Users\test\AppData\Local\Temp\ccMxCYS3.s:280    .text.i2c_clock_config:00000000000000ce .L18
C:\Users\test\AppData\Local\Temp\ccMxCYS3.s:272    .text.i2c_clock_config:00000000000000c8 .L17
C:\Users\test\AppData\Local\Temp\ccMxCYS3.s:408    .text.i2c_smbus_type_config:000000000000000e .L26
C:\Users\test\AppData\Local\Temp\ccMxCYS3.s:438    .text.i2c_ack_config:0000000000000010 .L30
C:\Users\test\AppData\Local\Temp\ccMxCYS3.s:469    .text.i2c_ackpos_config:0000000000000010 .L32
C:\Users\test\AppData\Local\Temp\ccMxCYS3.s:501    .text.i2c_master_addressing:000000000000000e .L36
C:\Users\test\AppData\Local\Temp\ccMxCYS3.s:1042   .text.i2c_flag_clear:0000000000000024 .L60
C:\Users\test\AppData\Local\Temp\ccMxCYS3.s:1171   .text.i2c_interrupt_flag_get:0000000000000044 .L73
C:\Users\test\AppData\Local\Temp\ccMxCYS3.s:1186   .text.i2c_interrupt_flag_get:0000000000000052 .L66
C:\Users\test\AppData\Local\Temp\ccMxCYS3.s:1190   .text.i2c_interrupt_flag_get:0000000000000054 .L63
C:\Users\test\AppData\Local\Temp\ccMxCYS3.s:1230   .text.i2c_interrupt_flag_clear:0000000000000026 .L77
C:\Users\test\AppData\Local\Temp\ccMxCYS3.s:2802   .debug_abbrev:0000000000000000 .Ldebug_abbrev0
C:\Users\test\AppData\Local\Temp\ccMxCYS3.s:4603   .debug_str:00000000000004e3 .LASF156
C:\Users\test\AppData\Local\Temp\ccMxCYS3.s:4605   .debug_str:000000000000055d .LASF157
C:\Users\test\AppData\Local\Temp\ccMxCYS3.s:4683   .debug_str:0000000000000752 .LASF158
C:\Users\test\AppData\Local\Temp\ccMxCYS3.s:4371   .debug_ranges:0000000000000000 .Ldebug_ranges0
C:\Users\test\AppData\Local\Temp\ccMxCYS3.s:4439   .debug_line:0000000000000000 .Ldebug_line0
C:\Users\test\AppData\Local\Temp\ccMxCYS3.s:4461   .debug_str:00000000000000be .LASF0
C:\Users\test\AppData\Local\Temp\ccMxCYS3.s:4725   .debug_str:000000000000088b .LASF1
GAS LISTING C:\Users\test\AppData\Local\Temp\ccMxCYS3.s 			page 47


C:\Users\test\AppData\Local\Temp\ccMxCYS3.s:4675   .debug_str:0000000000000720 .LASF6
C:\Users\test\AppData\Local\Temp\ccMxCYS3.s:4701   .debug_str:00000000000007e8 .LASF2
C:\Users\test\AppData\Local\Temp\ccMxCYS3.s:4643   .debug_str:000000000000067e .LASF3
C:\Users\test\AppData\Local\Temp\ccMxCYS3.s:4729   .debug_str:000000000000089f .LASF4
C:\Users\test\AppData\Local\Temp\ccMxCYS3.s:4649   .debug_str:00000000000006a0 .LASF5
C:\Users\test\AppData\Local\Temp\ccMxCYS3.s:4703   .debug_str:00000000000007f6 .LASF7
C:\Users\test\AppData\Local\Temp\ccMxCYS3.s:4691   .debug_str:00000000000007a2 .LASF8
C:\Users\test\AppData\Local\Temp\ccMxCYS3.s:4589   .debug_str:0000000000000472 .LASF9
C:\Users\test\AppData\Local\Temp\ccMxCYS3.s:4509   .debug_str:000000000000021d .LASF10
C:\Users\test\AppData\Local\Temp\ccMxCYS3.s:4577   .debug_str:0000000000000424 .LASF11
C:\Users\test\AppData\Local\Temp\ccMxCYS3.s:4485   .debug_str:000000000000016d .LASF12
C:\Users\test\AppData\Local\Temp\ccMxCYS3.s:4627   .debug_str:0000000000000611 .LASF159
C:\Users\test\AppData\Local\Temp\ccMxCYS3.s:4661   .debug_str:00000000000006db .LASF13
C:\Users\test\AppData\Local\Temp\ccMxCYS3.s:4475   .debug_str:000000000000011c .LASF14
C:\Users\test\AppData\Local\Temp\ccMxCYS3.s:4579   .debug_str:000000000000042c .LASF15
C:\Users\test\AppData\Local\Temp\ccMxCYS3.s:4537   .debug_str:0000000000000304 .LASF16
C:\Users\test\AppData\Local\Temp\ccMxCYS3.s:4723   .debug_str:000000000000087d .LASF17
C:\Users\test\AppData\Local\Temp\ccMxCYS3.s:4587   .debug_str:0000000000000464 .LASF18
C:\Users\test\AppData\Local\Temp\ccMxCYS3.s:4453   .debug_str:000000000000006e .LASF19
C:\Users\test\AppData\Local\Temp\ccMxCYS3.s:4633   .debug_str:000000000000063e .LASF20
C:\Users\test\AppData\Local\Temp\ccMxCYS3.s:4495   .debug_str:00000000000001ad .LASF21
C:\Users\test\AppData\Local\Temp\ccMxCYS3.s:4713   .debug_str:0000000000000841 .LASF22
C:\Users\test\AppData\Local\Temp\ccMxCYS3.s:4463   .debug_str:00000000000000cb .LASF23
C:\Users\test\AppData\Local\Temp\ccMxCYS3.s:4641   .debug_str:0000000000000672 .LASF24
C:\Users\test\AppData\Local\Temp\ccMxCYS3.s:4685   .debug_str:000000000000077e .LASF25
C:\Users\test\AppData\Local\Temp\ccMxCYS3.s:4545   .debug_str:0000000000000342 .LASF26
C:\Users\test\AppData\Local\Temp\ccMxCYS3.s:4679   .debug_str:0000000000000738 .LASF27
C:\Users\test\AppData\Local\Temp\ccMxCYS3.s:4541   .debug_str:0000000000000321 .LASF28
C:\Users\test\AppData\Local\Temp\ccMxCYS3.s:4711   .debug_str:0000000000000835 .LASF29
C:\Users\test\AppData\Local\Temp\ccMxCYS3.s:4569   .debug_str:00000000000003f1 .LASF30
C:\Users\test\AppData\Local\Temp\ccMxCYS3.s:4653   .debug_str:00000000000006b2 .LASF31
C:\Users\test\AppData\Local\Temp\ccMxCYS3.s:4521   .debug_str:0000000000000285 .LASF32
C:\Users\test\AppData\Local\Temp\ccMxCYS3.s:4733   .debug_str:00000000000008c0 .LASF33
C:\Users\test\AppData\Local\Temp\ccMxCYS3.s:4593   .debug_str:0000000000000492 .LASF34
C:\Users\test\AppData\Local\Temp\ccMxCYS3.s:4457   .debug_str:0000000000000099 .LASF35
C:\Users\test\AppData\Local\Temp\ccMxCYS3.s:4645   .debug_str:0000000000000688 .LASF36
C:\Users\test\AppData\Local\Temp\ccMxCYS3.s:4583   .debug_str:0000000000000447 .LASF37
C:\Users\test\AppData\Local\Temp\ccMxCYS3.s:4449   .debug_str:0000000000000057 .LASF38
C:\Users\test\AppData\Local\Temp\ccMxCYS3.s:4621   .debug_str:00000000000005e9 .LASF39
C:\Users\test\AppData\Local\Temp\ccMxCYS3.s:4483   .debug_str:0000000000000160 .LASF40
C:\Users\test\AppData\Local\Temp\ccMxCYS3.s:4681   .debug_str:0000000000000745 .LASF41
C:\Users\test\AppData\Local\Temp\ccMxCYS3.s:4533   .debug_str:00000000000002e4 .LASF42
C:\Users\test\AppData\Local\Temp\ccMxCYS3.s:4721   .debug_str:0000000000000871 .LASF43
C:\Users\test\AppData\Local\Temp\ccMxCYS3.s:4677   .debug_str:000000000000072a .LASF44
C:\Users\test\AppData\Local\Temp\ccMxCYS3.s:4599   .debug_str:00000000000004c3 .LASF45
C:\Users\test\AppData\Local\Temp\ccMxCYS3.s:4487   .debug_str:0000000000000176 .LASF46
C:\Users\test\AppData\Local\Temp\ccMxCYS3.s:4613   .debug_str:00000000000005be .LASF47
C:\Users\test\AppData\Local\Temp\ccMxCYS3.s:4529   .debug_str:00000000000002cd .LASF48
C:\Users\test\AppData\Local\Temp\ccMxCYS3.s:4665   .debug_str:00000000000006f1 .LASF49
C:\Users\test\AppData\Local\Temp\ccMxCYS3.s:4667   .debug_str:00000000000006f9 .LASF50
C:\Users\test\AppData\Local\Temp\ccMxCYS3.s:4491   .debug_str:000000000000018c .LASF51
C:\Users\test\AppData\Local\Temp\ccMxCYS3.s:4697   .debug_str:00000000000007d2 .LASF52
C:\Users\test\AppData\Local\Temp\ccMxCYS3.s:4553   .debug_str:0000000000000378 .LASF53
C:\Users\test\AppData\Local\Temp\ccMxCYS3.s:4515   .debug_str:000000000000025a .LASF54
C:\Users\test\AppData\Local\Temp\ccMxCYS3.s:4501   .debug_str:00000000000001d5 .LASF55
C:\Users\test\AppData\Local\Temp\ccMxCYS3.s:4581   .debug_str:0000000000000439 .LASF56
C:\Users\test\AppData\Local\Temp\ccMxCYS3.s:4547   .debug_str:0000000000000350 .LASF57
GAS LISTING C:\Users\test\AppData\Local\Temp\ccMxCYS3.s 			page 48


C:\Users\test\AppData\Local\Temp\ccMxCYS3.s:4655   .debug_str:00000000000006be .LASF58
C:\Users\test\AppData\Local\Temp\ccMxCYS3.s:4637   .debug_str:0000000000000651 .LASF59
C:\Users\test\AppData\Local\Temp\ccMxCYS3.s:4471   .debug_str:00000000000000f8 .LASF60
C:\Users\test\AppData\Local\Temp\ccMxCYS3.s:4539   .debug_str:0000000000000312 .LASF61
C:\Users\test\AppData\Local\Temp\ccMxCYS3.s:4555   .debug_str:0000000000000385 .LASF62
C:\Users\test\AppData\Local\Temp\ccMxCYS3.s:4517   .debug_str:000000000000026d .LASF63
C:\Users\test\AppData\Local\Temp\ccMxCYS3.s:4663   .debug_str:00000000000006e1 .LASF64
C:\Users\test\AppData\Local\Temp\ccMxCYS3.s:4531   .debug_str:00000000000002d4 .LASF65
C:\Users\test\AppData\Local\Temp\ccMxCYS3.s:4639   .debug_str:0000000000000662 .LASF66
C:\Users\test\AppData\Local\Temp\ccMxCYS3.s:4625   .debug_str:0000000000000605 .LASF67
C:\Users\test\AppData\Local\Temp\ccMxCYS3.s:4669   .debug_str:0000000000000701 .LASF68
C:\Users\test\AppData\Local\Temp\ccMxCYS3.s:4753   .debug_str:0000000000000964 .LASF69
C:\Users\test\AppData\Local\Temp\ccMxCYS3.s:4631   .debug_str:000000000000062e .LASF70
C:\Users\test\AppData\Local\Temp\ccMxCYS3.s:4523   .debug_str:0000000000000291 .LASF71
C:\Users\test\AppData\Local\Temp\ccMxCYS3.s:4647   .debug_str:0000000000000692 .LASF72
C:\Users\test\AppData\Local\Temp\ccMxCYS3.s:4535   .debug_str:00000000000002f0 .LASF73
C:\Users\test\AppData\Local\Temp\ccMxCYS3.s:4563   .debug_str:00000000000003b5 .LASF74
C:\Users\test\AppData\Local\Temp\ccMxCYS3.s:4511   .debug_str:0000000000000234 .LASF75
C:\Users\test\AppData\Local\Temp\ccMxCYS3.s:4505   .debug_str:00000000000001f7 .LASF76
C:\Users\test\AppData\Local\Temp\ccMxCYS3.s:4543   .debug_str:000000000000032e .LASF77
C:\Users\test\AppData\Local\Temp\ccMxCYS3.s:4709   .debug_str:0000000000000823 .LASF78
C:\Users\test\AppData\Local\Temp\ccMxCYS3.s:4493   .debug_str:000000000000019c .LASF79
C:\Users\test\AppData\Local\Temp\ccMxCYS3.s:4503   .debug_str:00000000000001e5 .LASF80
C:\Users\test\AppData\Local\Temp\ccMxCYS3.s:4513   .debug_str:0000000000000245 .LASF81
C:\Users\test\AppData\Local\Temp\ccMxCYS3.s:4591   .debug_str:0000000000000480 .LASF82
C:\Users\test\AppData\Local\Temp\ccMxCYS3.s:4757   .debug_str:000000000000097f .LASF83
C:\Users\test\AppData\Local\Temp\ccMxCYS3.s:4601   .debug_str:00000000000004cf .LASF84
C:\Users\test\AppData\Local\Temp\ccMxCYS3.s:4735   .debug_str:00000000000008cc .LASF85
C:\Users\test\AppData\Local\Temp\ccMxCYS3.s:4745   .debug_str:0000000000000928 .LASF86
C:\Users\test\AppData\Local\Temp\ccMxCYS3.s:4575   .debug_str:000000000000040c .LASF87
C:\Users\test\AppData\Local\Temp\ccMxCYS3.s:4467   .debug_str:00000000000000e3 .LASF88
C:\Users\test\AppData\Local\Temp\ccMxCYS3.s:4751   .debug_str:0000000000000959 .LASF89
C:\Users\test\AppData\Local\Temp\ccMxCYS3.s:4465   .debug_str:00000000000000d7 .LASF90
C:\Users\test\AppData\Local\Temp\ccMxCYS3.s:4717   .debug_str:0000000000000853 .LASF91
C:\Users\test\AppData\Local\Temp\ccMxCYS3.s:4741   .debug_str:00000000000008fa .LASF97
C:\Users\test\AppData\Local\Temp\ccMxCYS3.s:1201   .text.i2c_interrupt_flag_clear:0000000000000000 .LFB33
C:\Users\test\AppData\Local\Temp\ccMxCYS3.s:1239   .text.i2c_interrupt_flag_clear:000000000000002c .LFE33
C:\Users\test\AppData\Local\Temp\ccMxCYS3.s:4719   .debug_str:0000000000000866 .LASF92
C:\Users\test\AppData\Local\Temp\ccMxCYS3.s:3333   .debug_loc:0000000000000000 .LLST44
C:\Users\test\AppData\Local\Temp\ccMxCYS3.s:4497   .debug_str:00000000000001bb .LASF93
C:\Users\test\AppData\Local\Temp\ccMxCYS3.s:3351   .debug_loc:000000000000002c .LLST45
C:\Users\test\AppData\Local\Temp\ccMxCYS3.s:4659   .debug_str:00000000000006d6 .LASF103
C:\Users\test\AppData\Local\Temp\ccMxCYS3.s:4609   .debug_str:000000000000059d .LASF104
C:\Users\test\AppData\Local\Temp\ccMxCYS3.s:1114   .text.i2c_interrupt_flag_get:0000000000000000 .LFB32
C:\Users\test\AppData\Local\Temp\ccMxCYS3.s:1194   .text.i2c_interrupt_flag_get:0000000000000056 .LFE32
C:\Users\test\AppData\Local\Temp\ccMxCYS3.s:3369   .debug_loc:0000000000000058 .LLST40
C:\Users\test\AppData\Local\Temp\ccMxCYS3.s:3383   .debug_loc:0000000000000079 .LLST41
C:\Users\test\AppData\Local\Temp\ccMxCYS3.s:4611   .debug_str:00000000000005b4 .LASF94
C:\Users\test\AppData\Local\Temp\ccMxCYS3.s:3397   .debug_loc:000000000000009a .LLST42
C:\Users\test\AppData\Local\Temp\ccMxCYS3.s:4747   .debug_str:000000000000093c .LASF95
C:\Users\test\AppData\Local\Temp\ccMxCYS3.s:3467   .debug_loc:000000000000011d .LLST43
C:\Users\test\AppData\Local\Temp\ccMxCYS3.s:4673   .debug_str:000000000000071a .LASF96
C:\Users\test\AppData\Local\Temp\ccMxCYS3.s:4551   .debug_str:0000000000000362 .LASF98
C:\Users\test\AppData\Local\Temp\ccMxCYS3.s:1085   .text.i2c_interrupt_disable:0000000000000000 .LFB31
C:\Users\test\AppData\Local\Temp\ccMxCYS3.s:1107   .text.i2c_interrupt_disable:000000000000001c .LFE31
C:\Users\test\AppData\Local\Temp\ccMxCYS3.s:3479   .debug_loc:000000000000013c .LLST39
C:\Users\test\AppData\Local\Temp\ccMxCYS3.s:4689   .debug_str:0000000000000798 .LASF99
GAS LISTING C:\Users\test\AppData\Local\Temp\ccMxCYS3.s 			page 49


C:\Users\test\AppData\Local\Temp\ccMxCYS3.s:4737   .debug_str:00000000000008df .LASF100
C:\Users\test\AppData\Local\Temp\ccMxCYS3.s:1058   .text.i2c_interrupt_enable:0000000000000000 .LFB30
C:\Users\test\AppData\Local\Temp\ccMxCYS3.s:1078   .text.i2c_interrupt_enable:0000000000000018 .LFE30
C:\Users\test\AppData\Local\Temp\ccMxCYS3.s:3493   .debug_loc:000000000000015d .LLST38
C:\Users\test\AppData\Local\Temp\ccMxCYS3.s:4507   .debug_str:000000000000020e .LASF101
C:\Users\test\AppData\Local\Temp\ccMxCYS3.s:1015   .text.i2c_flag_clear:0000000000000000 .LFB29
C:\Users\test\AppData\Local\Temp\ccMxCYS3.s:1051   .text.i2c_flag_clear:000000000000002a .LFE29
C:\Users\test\AppData\Local\Temp\ccMxCYS3.s:3507   .debug_loc:000000000000017e .LLST37
C:\Users\test\AppData\Local\Temp\ccMxCYS3.s:4559   .debug_str:00000000000003a7 .LASF102
C:\Users\test\AppData\Local\Temp\ccMxCYS3.s:4629   .debug_str:0000000000000621 .LASF105
C:\Users\test\AppData\Local\Temp\ccMxCYS3.s:991    .text.i2c_flag_get:0000000000000000 .LFB28
C:\Users\test\AppData\Local\Temp\ccMxCYS3.s:1008   .text.i2c_flag_get:0000000000000014 .LFE28
C:\Users\test\AppData\Local\Temp\ccMxCYS3.s:3525   .debug_loc:00000000000001aa .LLST36
C:\Users\test\AppData\Local\Temp\ccMxCYS3.s:4743   .debug_str:0000000000000913 .LASF106
C:\Users\test\AppData\Local\Temp\ccMxCYS3.s:961    .text.i2c_smbus_arp_enable:0000000000000000 .LFB27
C:\Users\test\AppData\Local\Temp\ccMxCYS3.s:984    .text.i2c_smbus_arp_enable:000000000000000a .LFE27
C:\Users\test\AppData\Local\Temp\ccMxCYS3.s:4469   .debug_str:00000000000000ef .LASF107
C:\Users\test\AppData\Local\Temp\ccMxCYS3.s:3539   .debug_loc:00000000000001cb .LLST34
C:\Users\test\AppData\Local\Temp\ccMxCYS3.s:3553   .debug_loc:00000000000001ec .LLST35
C:\Users\test\AppData\Local\Temp\ccMxCYS3.s:4567   .debug_str:00000000000003db .LASF108
C:\Users\test\AppData\Local\Temp\ccMxCYS3.s:929    .text.i2c_smbus_issue_alert:0000000000000000 .LFB26
C:\Users\test\AppData\Local\Temp\ccMxCYS3.s:954    .text.i2c_smbus_issue_alert:000000000000000e .LFE26
C:\Users\test\AppData\Local\Temp\ccMxCYS3.s:4657   .debug_str:00000000000006cc .LASF109
C:\Users\test\AppData\Local\Temp\ccMxCYS3.s:3569   .debug_loc:0000000000000216 .LLST32
C:\Users\test\AppData\Local\Temp\ccMxCYS3.s:3583   .debug_loc:0000000000000237 .LLST33
C:\Users\test\AppData\Local\Temp\ccMxCYS3.s:4749   .debug_str:0000000000000947 .LASF110
C:\Users\test\AppData\Local\Temp\ccMxCYS3.s:908    .text.i2c_pec_value_get:0000000000000000 .LFB25
C:\Users\test\AppData\Local\Temp\ccMxCYS3.s:922    .text.i2c_pec_value_get:000000000000000a .LFE25
C:\Users\test\AppData\Local\Temp\ccMxCYS3.s:3599   .debug_loc:0000000000000261 .LLST31
C:\Users\test\AppData\Local\Temp\ccMxCYS3.s:4441   .debug_str:0000000000000000 .LASF111
C:\Users\test\AppData\Local\Temp\ccMxCYS3.s:876    .text.i2c_pec_transfer_enable:0000000000000000 .LFB24
C:\Users\test\AppData\Local\Temp\ccMxCYS3.s:901    .text.i2c_pec_transfer_enable:000000000000000e .LFE24
C:\Users\test\AppData\Local\Temp\ccMxCYS3.s:4489   .debug_str:0000000000000184 .LASF112
C:\Users\test\AppData\Local\Temp\ccMxCYS3.s:3613   .debug_loc:0000000000000282 .LLST29
C:\Users\test\AppData\Local\Temp\ccMxCYS3.s:3627   .debug_loc:00000000000002a3 .LLST30
C:\Users\test\AppData\Local\Temp\ccMxCYS3.s:4695   .debug_str:00000000000007c3 .LASF113
C:\Users\test\AppData\Local\Temp\ccMxCYS3.s:846    .text.i2c_pec_enable:0000000000000000 .LFB23
C:\Users\test\AppData\Local\Temp\ccMxCYS3.s:869    .text.i2c_pec_enable:000000000000000c .LFE23
C:\Users\test\AppData\Local\Temp\ccMxCYS3.s:4561   .debug_str:00000000000003ac .LASF114
C:\Users\test\AppData\Local\Temp\ccMxCYS3.s:3643   .debug_loc:00000000000002cd .LLST27
C:\Users\test\AppData\Local\Temp\ccMxCYS3.s:3657   .debug_loc:00000000000002ee .LLST28
C:\Users\test\AppData\Local\Temp\ccMxCYS3.s:4459   .debug_str:00000000000000a4 .LASF115
C:\Users\test\AppData\Local\Temp\ccMxCYS3.s:814    .text.i2c_software_reset_config:0000000000000000 .LFB22
C:\Users\test\AppData\Local\Temp\ccMxCYS3.s:839    .text.i2c_software_reset_config:000000000000000e .LFE22
C:\Users\test\AppData\Local\Temp\ccMxCYS3.s:4443   .debug_str:0000000000000018 .LASF116
C:\Users\test\AppData\Local\Temp\ccMxCYS3.s:3673   .debug_loc:0000000000000318 .LLST25
C:\Users\test\AppData\Local\Temp\ccMxCYS3.s:3687   .debug_loc:0000000000000339 .LLST26
C:\Users\test\AppData\Local\Temp\ccMxCYS3.s:4447   .debug_str:0000000000000034 .LASF117
C:\Users\test\AppData\Local\Temp\ccMxCYS3.s:784    .text.i2c_slave_response_to_gcall_config:0000000000000000 .LFB21
C:\Users\test\AppData\Local\Temp\ccMxCYS3.s:807    .text.i2c_slave_response_to_gcall_config:000000000000000c .LFE21
C:\Users\test\AppData\Local\Temp\ccMxCYS3.s:4451   .debug_str:0000000000000064 .LASF118
C:\Users\test\AppData\Local\Temp\ccMxCYS3.s:3703   .debug_loc:0000000000000363 .LLST23
C:\Users\test\AppData\Local\Temp\ccMxCYS3.s:3717   .debug_loc:0000000000000384 .LLST24
C:\Users\test\AppData\Local\Temp\ccMxCYS3.s:4481   .debug_str:0000000000000145 .LASF119
C:\Users\test\AppData\Local\Temp\ccMxCYS3.s:754    .text.i2c_stretch_scl_low_config:0000000000000000 .LFB20
C:\Users\test\AppData\Local\Temp\ccMxCYS3.s:777    .text.i2c_stretch_scl_low_config:000000000000000c .LFE20
C:\Users\test\AppData\Local\Temp\ccMxCYS3.s:4705   .debug_str:0000000000000801 .LASF120
GAS LISTING C:\Users\test\AppData\Local\Temp\ccMxCYS3.s 			page 50


C:\Users\test\AppData\Local\Temp\ccMxCYS3.s:3733   .debug_loc:00000000000003ae .LLST21
C:\Users\test\AppData\Local\Temp\ccMxCYS3.s:3747   .debug_loc:00000000000003cf .LLST22
C:\Users\test\AppData\Local\Temp\ccMxCYS3.s:4455   .debug_str:000000000000007c .LASF121
C:\Users\test\AppData\Local\Temp\ccMxCYS3.s:722    .text.i2c_dma_last_transfer_config:0000000000000000 .LFB19
C:\Users\test\AppData\Local\Temp\ccMxCYS3.s:747    .text.i2c_dma_last_transfer_config:000000000000000e .LFE19
C:\Users\test\AppData\Local\Temp\ccMxCYS3.s:4727   .debug_str:0000000000000897 .LASF122
C:\Users\test\AppData\Local\Temp\ccMxCYS3.s:3763   .debug_loc:00000000000003f9 .LLST19
C:\Users\test\AppData\Local\Temp\ccMxCYS3.s:3777   .debug_loc:000000000000041a .LLST20
C:\Users\test\AppData\Local\Temp\ccMxCYS3.s:4623   .debug_str:00000000000005f6 .LASF123
C:\Users\test\AppData\Local\Temp\ccMxCYS3.s:690    .text.i2c_dma_enable:0000000000000000 .LFB18
C:\Users\test\AppData\Local\Temp\ccMxCYS3.s:715    .text.i2c_dma_enable:0000000000000010 .LFE18
C:\Users\test\AppData\Local\Temp\ccMxCYS3.s:4519   .debug_str:000000000000027c .LASF124
C:\Users\test\AppData\Local\Temp\ccMxCYS3.s:3793   .debug_loc:0000000000000444 .LLST17
C:\Users\test\AppData\Local\Temp\ccMxCYS3.s:3807   .debug_loc:0000000000000465 .LLST18
C:\Users\test\AppData\Local\Temp\ccMxCYS3.s:4499   .debug_str:00000000000001c4 .LASF125
C:\Users\test\AppData\Local\Temp\ccMxCYS3.s:671    .text.i2c_data_receive:0000000000000000 .LFB17
C:\Users\test\AppData\Local\Temp\ccMxCYS3.s:683    .text.i2c_data_receive:0000000000000008 .LFE17
C:\Users\test\AppData\Local\Temp\ccMxCYS3.s:3823   .debug_loc:000000000000048f .LLST16
C:\Users\test\AppData\Local\Temp\ccMxCYS3.s:4557   .debug_str:0000000000000395 .LASF126
C:\Users\test\AppData\Local\Temp\ccMxCYS3.s:654    .text.i2c_data_transmit:0000000000000000 .LFB16
C:\Users\test\AppData\Local\Temp\ccMxCYS3.s:664    .text.i2c_data_transmit:0000000000000004 .LFE16
C:\Users\test\AppData\Local\Temp\ccMxCYS3.s:4571   .debug_str:00000000000003fd .LASF127
C:\Users\test\AppData\Local\Temp\ccMxCYS3.s:4585   .debug_str:0000000000000454 .LASF128
C:\Users\test\AppData\Local\Temp\ccMxCYS3.s:635    .text.i2c_stop_on_bus:0000000000000000 .LFB15
C:\Users\test\AppData\Local\Temp\ccMxCYS3.s:647    .text.i2c_stop_on_bus:000000000000000a .LFE15
C:\Users\test\AppData\Local\Temp\ccMxCYS3.s:4595   .debug_str:000000000000049d .LASF129
C:\Users\test\AppData\Local\Temp\ccMxCYS3.s:616    .text.i2c_start_on_bus:0000000000000000 .LFB14
C:\Users\test\AppData\Local\Temp\ccMxCYS3.s:628    .text.i2c_start_on_bus:000000000000000a .LFE14
C:\Users\test\AppData\Local\Temp\ccMxCYS3.s:4687   .debug_str:000000000000078c .LASF130
C:\Users\test\AppData\Local\Temp\ccMxCYS3.s:597    .text.i2c_disable:0000000000000000 .LFB13
C:\Users\test\AppData\Local\Temp\ccMxCYS3.s:609    .text.i2c_disable:0000000000000008 .LFE13
C:\Users\test\AppData\Local\Temp\ccMxCYS3.s:4671   .debug_str:000000000000070f .LASF131
C:\Users\test\AppData\Local\Temp\ccMxCYS3.s:578    .text.i2c_enable:0000000000000000 .LFB12
C:\Users\test\AppData\Local\Temp\ccMxCYS3.s:590    .text.i2c_enable:000000000000000a .LFE12
C:\Users\test\AppData\Local\Temp\ccMxCYS3.s:4445   .debug_str:000000000000001f .LASF132
C:\Users\test\AppData\Local\Temp\ccMxCYS3.s:559    .text.i2c_dualaddr_disable:0000000000000000 .LFB11
C:\Users\test\AppData\Local\Temp\ccMxCYS3.s:571    .text.i2c_dualaddr_disable:0000000000000008 .LFE11
C:\Users\test\AppData\Local\Temp\ccMxCYS3.s:4527   .debug_str:00000000000002b9 .LASF133
C:\Users\test\AppData\Local\Temp\ccMxCYS3.s:535    .text.i2c_dualaddr_enable:0000000000000000 .LFB10
C:\Users\test\AppData\Local\Temp\ccMxCYS3.s:552    .text.i2c_dualaddr_enable:000000000000000c .LFE10
C:\Users\test\AppData\Local\Temp\ccMxCYS3.s:4715   .debug_str:000000000000084e .LASF134
C:\Users\test\AppData\Local\Temp\ccMxCYS3.s:3837   .debug_loc:00000000000004b0 .LLST15
C:\Users\test\AppData\Local\Temp\ccMxCYS3.s:4759   .debug_str:0000000000000992 .LASF135
C:\Users\test\AppData\Local\Temp\ccMxCYS3.s:515    .text.i2c_saddr1_config:0000000000000000 .LFB9
C:\Users\test\AppData\Local\Temp\ccMxCYS3.s:528    .text.i2c_saddr1_config:0000000000000008 .LFE9
C:\Users\test\AppData\Local\Temp\ccMxCYS3.s:3867   .debug_loc:00000000000004ef .LLST14
C:\Users\test\AppData\Local\Temp\ccMxCYS3.s:4707   .debug_str:000000000000080d .LASF136
C:\Users\test\AppData\Local\Temp\ccMxCYS3.s:486    .text.i2c_master_addressing:0000000000000000 .LFB8
C:\Users\test\AppData\Local\Temp\ccMxCYS3.s:508    .text.i2c_master_addressing:0000000000000012 .LFE8
C:\Users\test\AppData\Local\Temp\ccMxCYS3.s:3881   .debug_loc:0000000000000510 .LLST13
C:\Users\test\AppData\Local\Temp\ccMxCYS3.s:4731   .debug_str:00000000000008b2 .LASF137
C:\Users\test\AppData\Local\Temp\ccMxCYS3.s:4607   .debug_str:000000000000058b .LASF138
C:\Users\test\AppData\Local\Temp\ccMxCYS3.s:453    .text.i2c_ackpos_config:0000000000000000 .LFB7
C:\Users\test\AppData\Local\Temp\ccMxCYS3.s:479    .text.i2c_ackpos_config:000000000000001c .LFE7
C:\Users\test\AppData\Local\Temp\ccMxCYS3.s:4693   .debug_str:00000000000007b4 .LASF139
C:\Users\test\AppData\Local\Temp\ccMxCYS3.s:423    .text.i2c_ack_config:0000000000000000 .LFB6
C:\Users\test\AppData\Local\Temp\ccMxCYS3.s:446    .text.i2c_ack_config:000000000000001a .LFE6
GAS LISTING C:\Users\test\AppData\Local\Temp\ccMxCYS3.s 			page 51


C:\Users\test\AppData\Local\Temp\ccMxCYS3.s:4473   .debug_str:0000000000000106 .LASF140
C:\Users\test\AppData\Local\Temp\ccMxCYS3.s:393    .text.i2c_smbus_type_config:0000000000000000 .LFB5
C:\Users\test\AppData\Local\Temp\ccMxCYS3.s:416    .text.i2c_smbus_type_config:0000000000000018 .LFE5
C:\Users\test\AppData\Local\Temp\ccMxCYS3.s:4699   .debug_str:00000000000007e3 .LASF141
C:\Users\test\AppData\Local\Temp\ccMxCYS3.s:4597   .debug_str:00000000000004ae .LASF142
C:\Users\test\AppData\Local\Temp\ccMxCYS3.s:353    .text.i2c_mode_addr_config:0000000000000000 .LFB4
C:\Users\test\AppData\Local\Temp\ccMxCYS3.s:386    .text.i2c_mode_addr_config:0000000000000012 .LFE4
C:\Users\test\AppData\Local\Temp\ccMxCYS3.s:4477   .debug_str:0000000000000127 .LASF143
C:\Users\test\AppData\Local\Temp\ccMxCYS3.s:4573   .debug_str:0000000000000402 .LASF144
C:\Users\test\AppData\Local\Temp\ccMxCYS3.s:3892   .debug_loc:000000000000052e .LLST11
C:\Users\test\AppData\Local\Temp\ccMxCYS3.s:3916   .debug_loc:0000000000000561 .LLST12
C:\Users\test\AppData\Local\Temp\ccMxCYS3.s:4565   .debug_str:00000000000003ca .LASF145
C:\Users\test\AppData\Local\Temp\ccMxCYS3.s:91     .text.i2c_clock_config:0000000000000000 .LFB3
C:\Users\test\AppData\Local\Temp\ccMxCYS3.s:346    .text.i2c_clock_config:0000000000000102 .LFE3
C:\Users\test\AppData\Local\Temp\ccMxCYS3.s:3928   .debug_loc:0000000000000580 .LLST2
C:\Users\test\AppData\Local\Temp\ccMxCYS3.s:3961   .debug_loc:00000000000005d0 .LLST3
C:\Users\test\AppData\Local\Temp\ccMxCYS3.s:4651   .debug_str:00000000000006a9 .LASF146
C:\Users\test\AppData\Local\Temp\ccMxCYS3.s:3994   .debug_loc:0000000000000620 .LLST4
C:\Users\test\AppData\Local\Temp\ccMxCYS3.s:4619   .debug_str:00000000000005e1 .LASF147
C:\Users\test\AppData\Local\Temp\ccMxCYS3.s:4038   .debug_loc:0000000000000689 .LLST5
C:\Users\test\AppData\Local\Temp\ccMxCYS3.s:4739   .debug_str:00000000000008f4 .LASF148
C:\Users\test\AppData\Local\Temp\ccMxCYS3.s:4071   .debug_loc:00000000000006d9 .LLST6
C:\Users\test\AppData\Local\Temp\ccMxCYS3.s:4635   .debug_str:000000000000064c .LASF149
C:\Users\test\AppData\Local\Temp\ccMxCYS3.s:4090   .debug_loc:000000000000070d .LLST7
C:\Users\test\AppData\Local\Temp\ccMxCYS3.s:4549   .debug_str:000000000000035d .LASF150
C:\Users\test\AppData\Local\Temp\ccMxCYS3.s:4156   .debug_loc:0000000000000772 .LLST8
C:\Users\test\AppData\Local\Temp\ccMxCYS3.s:4617   .debug_str:00000000000005d8 .LASF151
C:\Users\test\AppData\Local\Temp\ccMxCYS3.s:4171   .debug_loc:000000000000079b .LLST9
C:\Users\test\AppData\Local\Temp\ccMxCYS3.s:4203   .debug_loc:00000000000007df .LLST10
C:\Users\test\AppData\Local\Temp\ccMxCYS3.s:120    .text.i2c_clock_config:000000000000001a .LVL9
C:\Users\test\AppData\Local\Temp\ccMxCYS3.s:4755   .debug_str:0000000000000974 .LASF152
C:\Users\test\AppData\Local\Temp\ccMxCYS3.s:11     .text.i2c_deinit:0000000000000000 .LFB2
C:\Users\test\AppData\Local\Temp\ccMxCYS3.s:84     .text.i2c_deinit:000000000000005a .LFE2
C:\Users\test\AppData\Local\Temp\ccMxCYS3.s:4233   .debug_loc:000000000000082c .LLST0
C:\Users\test\AppData\Local\Temp\ccMxCYS3.s:4271   .debug_loc:0000000000000888 .LLST1
C:\Users\test\AppData\Local\Temp\ccMxCYS3.s:47     .text.i2c_deinit:000000000000002e .LVL2
C:\Users\test\AppData\Local\Temp\ccMxCYS3.s:61     .text.i2c_deinit:000000000000003e .LVL3
C:\Users\test\AppData\Local\Temp\ccMxCYS3.s:69     .text.i2c_deinit:000000000000004a .LVL5
C:\Users\test\AppData\Local\Temp\ccMxCYS3.s:82     .text.i2c_deinit:000000000000005a .LVL6
C:\Users\test\AppData\Local\Temp\ccMxCYS3.s:4615   .debug_str:00000000000005c5 .LASF153
C:\Users\test\AppData\Local\Temp\ccMxCYS3.s:4525   .debug_str:00000000000002a1 .LASF154
C:\Users\test\AppData\Local\Temp\ccMxCYS3.s:4479   .debug_str:000000000000012c .LASF155
C:\Users\test\AppData\Local\Temp\ccMxCYS3.s:1204   .text.i2c_interrupt_flag_clear:0000000000000000 .LVL124
C:\Users\test\AppData\Local\Temp\ccMxCYS3.s:1215   .text.i2c_interrupt_flag_clear:0000000000000012 .LVL125
C:\Users\test\AppData\Local\Temp\ccMxCYS3.s:1229   .text.i2c_interrupt_flag_clear:0000000000000026 .LVL127
C:\Users\test\AppData\Local\Temp\ccMxCYS3.s:1219   .text.i2c_interrupt_flag_clear:0000000000000016 .LVL126
C:\Users\test\AppData\Local\Temp\ccMxCYS3.s:1117   .text.i2c_interrupt_flag_get:0000000000000000 .LVL112
C:\Users\test\AppData\Local\Temp\ccMxCYS3.s:1143   .text.i2c_interrupt_flag_get:0000000000000022 .LVL114
C:\Users\test\AppData\Local\Temp\ccMxCYS3.s:1150   .text.i2c_interrupt_flag_get:000000000000002c .LVL115
C:\Users\test\AppData\Local\Temp\ccMxCYS3.s:1155   .text.i2c_interrupt_flag_get:0000000000000036 .LVL116
C:\Users\test\AppData\Local\Temp\ccMxCYS3.s:1168   .text.i2c_interrupt_flag_get:0000000000000042 .LVL118
C:\Users\test\AppData\Local\Temp\ccMxCYS3.s:1170   .text.i2c_interrupt_flag_get:0000000000000044 .LVL119
C:\Users\test\AppData\Local\Temp\ccMxCYS3.s:1177   .text.i2c_interrupt_flag_get:000000000000004a .LVL120
C:\Users\test\AppData\Local\Temp\ccMxCYS3.s:1180   .text.i2c_interrupt_flag_get:000000000000004c .LVL121
C:\Users\test\AppData\Local\Temp\ccMxCYS3.s:1185   .text.i2c_interrupt_flag_get:0000000000000052 .LVL122
C:\Users\test\AppData\Local\Temp\ccMxCYS3.s:1189   .text.i2c_interrupt_flag_get:0000000000000054 .LVL123
C:\Users\test\AppData\Local\Temp\ccMxCYS3.s:1159   .text.i2c_interrupt_flag_get:0000000000000038 .LVL117
GAS LISTING C:\Users\test\AppData\Local\Temp\ccMxCYS3.s 			page 52


C:\Users\test\AppData\Local\Temp\ccMxCYS3.s:1088   .text.i2c_interrupt_disable:0000000000000000 .LVL110
C:\Users\test\AppData\Local\Temp\ccMxCYS3.s:1094   .text.i2c_interrupt_disable:000000000000000a .LVL111
C:\Users\test\AppData\Local\Temp\ccMxCYS3.s:1061   .text.i2c_interrupt_enable:0000000000000000 .LVL108
C:\Users\test\AppData\Local\Temp\ccMxCYS3.s:1067   .text.i2c_interrupt_enable:000000000000000a .LVL109
C:\Users\test\AppData\Local\Temp\ccMxCYS3.s:1018   .text.i2c_flag_clear:0000000000000000 .LVL105
C:\Users\test\AppData\Local\Temp\ccMxCYS3.s:1029   .text.i2c_flag_clear:0000000000000012 .LVL106
C:\Users\test\AppData\Local\Temp\ccMxCYS3.s:1041   .text.i2c_flag_clear:0000000000000024 .LVL107
C:\Users\test\AppData\Local\Temp\ccMxCYS3.s:994    .text.i2c_flag_get:0000000000000000 .LVL103
C:\Users\test\AppData\Local\Temp\ccMxCYS3.s:1000   .text.i2c_flag_get:000000000000000a .LVL104
C:\Users\test\AppData\Local\Temp\ccMxCYS3.s:964    .text.i2c_smbus_arp_enable:0000000000000000 .LVL99
C:\Users\test\AppData\Local\Temp\ccMxCYS3.s:977    .text.i2c_smbus_arp_enable:0000000000000006 .LVL102
C:\Users\test\AppData\Local\Temp\ccMxCYS3.s:969    .text.i2c_smbus_arp_enable:0000000000000002 .LVL100
C:\Users\test\AppData\Local\Temp\ccMxCYS3.s:932    .text.i2c_smbus_issue_alert:0000000000000000 .LVL95
C:\Users\test\AppData\Local\Temp\ccMxCYS3.s:947    .text.i2c_smbus_issue_alert:000000000000000a .LVL98
C:\Users\test\AppData\Local\Temp\ccMxCYS3.s:937    .text.i2c_smbus_issue_alert:0000000000000002 .LVL96
C:\Users\test\AppData\Local\Temp\ccMxCYS3.s:911    .text.i2c_pec_value_get:0000000000000000 .LVL93
C:\Users\test\AppData\Local\Temp\ccMxCYS3.s:915    .text.i2c_pec_value_get:0000000000000002 .LVL94
C:\Users\test\AppData\Local\Temp\ccMxCYS3.s:879    .text.i2c_pec_transfer_enable:0000000000000000 .LVL89
C:\Users\test\AppData\Local\Temp\ccMxCYS3.s:894    .text.i2c_pec_transfer_enable:000000000000000a .LVL92
C:\Users\test\AppData\Local\Temp\ccMxCYS3.s:884    .text.i2c_pec_transfer_enable:0000000000000002 .LVL90
C:\Users\test\AppData\Local\Temp\ccMxCYS3.s:849    .text.i2c_pec_enable:0000000000000000 .LVL85
C:\Users\test\AppData\Local\Temp\ccMxCYS3.s:862    .text.i2c_pec_enable:0000000000000008 .LVL88
C:\Users\test\AppData\Local\Temp\ccMxCYS3.s:854    .text.i2c_pec_enable:0000000000000002 .LVL86
C:\Users\test\AppData\Local\Temp\ccMxCYS3.s:817    .text.i2c_software_reset_config:0000000000000000 .LVL81
C:\Users\test\AppData\Local\Temp\ccMxCYS3.s:832    .text.i2c_software_reset_config:000000000000000a .LVL84
C:\Users\test\AppData\Local\Temp\ccMxCYS3.s:822    .text.i2c_software_reset_config:0000000000000002 .LVL82
C:\Users\test\AppData\Local\Temp\ccMxCYS3.s:787    .text.i2c_slave_response_to_gcall_config:0000000000000000 .LVL77
C:\Users\test\AppData\Local\Temp\ccMxCYS3.s:800    .text.i2c_slave_response_to_gcall_config:0000000000000008 .LVL80
C:\Users\test\AppData\Local\Temp\ccMxCYS3.s:792    .text.i2c_slave_response_to_gcall_config:0000000000000002 .LVL78
C:\Users\test\AppData\Local\Temp\ccMxCYS3.s:757    .text.i2c_stretch_scl_low_config:0000000000000000 .LVL73
C:\Users\test\AppData\Local\Temp\ccMxCYS3.s:770    .text.i2c_stretch_scl_low_config:0000000000000008 .LVL76
C:\Users\test\AppData\Local\Temp\ccMxCYS3.s:762    .text.i2c_stretch_scl_low_config:0000000000000002 .LVL74
C:\Users\test\AppData\Local\Temp\ccMxCYS3.s:725    .text.i2c_dma_last_transfer_config:0000000000000000 .LVL69
C:\Users\test\AppData\Local\Temp\ccMxCYS3.s:740    .text.i2c_dma_last_transfer_config:000000000000000a .LVL72
C:\Users\test\AppData\Local\Temp\ccMxCYS3.s:730    .text.i2c_dma_last_transfer_config:0000000000000002 .LVL70
C:\Users\test\AppData\Local\Temp\ccMxCYS3.s:693    .text.i2c_dma_enable:0000000000000000 .LVL65
C:\Users\test\AppData\Local\Temp\ccMxCYS3.s:708    .text.i2c_dma_enable:000000000000000c .LVL68
C:\Users\test\AppData\Local\Temp\ccMxCYS3.s:698    .text.i2c_dma_enable:0000000000000002 .LVL66
C:\Users\test\AppData\Local\Temp\ccMxCYS3.s:674    .text.i2c_data_receive:0000000000000000 .LVL63
C:\Users\test\AppData\Local\Temp\ccMxCYS3.s:678    .text.i2c_data_receive:0000000000000002 .LVL64
C:\Users\test\AppData\Local\Temp\ccMxCYS3.s:538    .text.i2c_dualaddr_enable:0000000000000000 .LVL54
C:\Users\test\AppData\Local\Temp\ccMxCYS3.s:543    .text.i2c_dualaddr_enable:0000000000000004 .LVL55
C:\Users\test\AppData\Local\Temp\ccMxCYS3.s:546    .text.i2c_dualaddr_enable:0000000000000008 .LVL56
C:\Users\test\AppData\Local\Temp\ccMxCYS3.s:518    .text.i2c_saddr1_config:0000000000000000 .LVL52
C:\Users\test\AppData\Local\Temp\ccMxCYS3.s:522    .text.i2c_saddr1_config:0000000000000004 .LVL53
C:\Users\test\AppData\Local\Temp\ccMxCYS3.s:489    .text.i2c_master_addressing:0000000000000000 .LVL50
C:\Users\test\AppData\Local\Temp\ccMxCYS3.s:500    .text.i2c_master_addressing:000000000000000e .LVL51
C:\Users\test\AppData\Local\Temp\ccMxCYS3.s:356    .text.i2c_mode_addr_config:0000000000000000 .LVL41
C:\Users\test\AppData\Local\Temp\ccMxCYS3.s:365    .text.i2c_mode_addr_config:0000000000000006 .LVL43
C:\Users\test\AppData\Local\Temp\ccMxCYS3.s:379    .text.i2c_mode_addr_config:000000000000000e .LVL46
C:\Users\test\AppData\Local\Temp\ccMxCYS3.s:361    .text.i2c_mode_addr_config:0000000000000002 .LVL42
C:\Users\test\AppData\Local\Temp\ccMxCYS3.s:100    .text.i2c_clock_config:0000000000000002 .LCFI6
C:\Users\test\AppData\Local\Temp\ccMxCYS3.s:214    .text.i2c_clock_config:000000000000007e .LCFI7
C:\Users\test\AppData\Local\Temp\ccMxCYS3.s:219    .text.i2c_clock_config:0000000000000080 .LCFI8
C:\Users\test\AppData\Local\Temp\ccMxCYS3.s:313    .text.i2c_clock_config:00000000000000e6 .LCFI9
C:\Users\test\AppData\Local\Temp\ccMxCYS3.s:318    .text.i2c_clock_config:00000000000000e8 .LCFI10
C:\Users\test\AppData\Local\Temp\ccMxCYS3.s:94     .text.i2c_clock_config:0000000000000000 .LVL7
GAS LISTING C:\Users\test\AppData\Local\Temp\ccMxCYS3.s 			page 53


C:\Users\test\AppData\Local\Temp\ccMxCYS3.s:107    .text.i2c_clock_config:0000000000000008 .LVL8
C:\Users\test\AppData\Local\Temp\ccMxCYS3.s:209    .text.i2c_clock_config:000000000000007a .LVL22
C:\Users\test\AppData\Local\Temp\ccMxCYS3.s:217    .text.i2c_clock_config:0000000000000080 .LVL24
C:\Users\test\AppData\Local\Temp\ccMxCYS3.s:311    .text.i2c_clock_config:00000000000000e4 .LVL34
C:\Users\test\AppData\Local\Temp\ccMxCYS3.s:316    .text.i2c_clock_config:00000000000000e8 .LVL35
C:\Users\test\AppData\Local\Temp\ccMxCYS3.s:181    .text.i2c_clock_config:000000000000005e .LVL19
C:\Users\test\AppData\Local\Temp\ccMxCYS3.s:258    .text.i2c_clock_config:00000000000000b4 .LVL28
C:\Users\test\AppData\Local\Temp\ccMxCYS3.s:325    .text.i2c_clock_config:00000000000000ee .LVL36
C:\Users\test\AppData\Local\Temp\ccMxCYS3.s:338    .text.i2c_clock_config:00000000000000fe .LVL39
C:\Users\test\AppData\Local\Temp\ccMxCYS3.s:212    .text.i2c_clock_config:000000000000007c .LVL23
C:\Users\test\AppData\Local\Temp\ccMxCYS3.s:298    .text.i2c_clock_config:00000000000000dc .LVL32
C:\Users\test\AppData\Local\Temp\ccMxCYS3.s:187    .text.i2c_clock_config:0000000000000064 .LVL20
C:\Users\test\AppData\Local\Temp\ccMxCYS3.s:261    .text.i2c_clock_config:00000000000000b8 .LVL29
C:\Users\test\AppData\Local\Temp\ccMxCYS3.s:328    .text.i2c_clock_config:00000000000000f2 .LVL37
C:\Users\test\AppData\Local\Temp\ccMxCYS3.s:193    .text.i2c_clock_config:000000000000006c .LVL21
C:\Users\test\AppData\Local\Temp\ccMxCYS3.s:301    .text.i2c_clock_config:00000000000000de .LVL33
C:\Users\test\AppData\Local\Temp\ccMxCYS3.s:132    .text.i2c_clock_config:000000000000002e .LVL10
C:\Users\test\AppData\Local\Temp\ccMxCYS3.s:140    .text.i2c_clock_config:0000000000000038 .LVL11
C:\Users\test\AppData\Local\Temp\ccMxCYS3.s:241    .text.i2c_clock_config:000000000000009e .LVL27
C:\Users\test\AppData\Local\Temp\ccMxCYS3.s:165    .text.i2c_clock_config:000000000000004e .LVL15
C:\Users\test\AppData\Local\Temp\ccMxCYS3.s:174    .text.i2c_clock_config:000000000000005a .LVL17
C:\Users\test\AppData\Local\Temp\ccMxCYS3.s:230    .text.i2c_clock_config:000000000000008a .LVL26
C:\Users\test\AppData\Local\Temp\ccMxCYS3.s:144    .text.i2c_clock_config:000000000000003a .LVL12
C:\Users\test\AppData\Local\Temp\ccMxCYS3.s:169    .text.i2c_clock_config:0000000000000052 .LVL16
C:\Users\test\AppData\Local\Temp\ccMxCYS3.s:176    .text.i2c_clock_config:000000000000005c .LVL18
C:\Users\test\AppData\Local\Temp\ccMxCYS3.s:228    .text.i2c_clock_config:0000000000000088 .LVL25
C:\Users\test\AppData\Local\Temp\ccMxCYS3.s:266    .text.i2c_clock_config:00000000000000bc .LVL30
C:\Users\test\AppData\Local\Temp\ccMxCYS3.s:333    .text.i2c_clock_config:00000000000000f6 .LVL38
C:\Users\test\AppData\Local\Temp\ccMxCYS3.s:343    .text.i2c_clock_config:0000000000000100 .LVL40
C:\Users\test\AppData\Local\Temp\ccMxCYS3.s:19     .text.i2c_deinit:0000000000000002 .LCFI0
C:\Users\test\AppData\Local\Temp\ccMxCYS3.s:37     .text.i2c_deinit:0000000000000020 .LCFI1
C:\Users\test\AppData\Local\Temp\ccMxCYS3.s:41     .text.i2c_deinit:0000000000000022 .LCFI2
C:\Users\test\AppData\Local\Temp\ccMxCYS3.s:57     .text.i2c_deinit:0000000000000036 .LCFI3
C:\Users\test\AppData\Local\Temp\ccMxCYS3.s:63     .text.i2c_deinit:000000000000003e .LCFI4
C:\Users\test\AppData\Local\Temp\ccMxCYS3.s:78     .text.i2c_deinit:0000000000000052 .LCFI5
C:\Users\test\AppData\Local\Temp\ccMxCYS3.s:15     .text.i2c_deinit:0000000000000000 .LVL0
C:\Users\test\AppData\Local\Temp\ccMxCYS3.s:45     .text.i2c_deinit:0000000000000026 .LVL1
C:\Users\test\AppData\Local\Temp\ccMxCYS3.s:67     .text.i2c_deinit:0000000000000042 .LVL4
C:\Users\test\AppData\Local\Temp\ccMxCYS3.s:1250   .debug_info:0000000000000000 .Ldebug_info0

UNDEFINED SYMBOLS
rcu_periph_reset_enable
rcu_periph_reset_disable
rcu_clock_freq_get
