GAS LISTING C:\Users\test\AppData\Local\Temp\cciHZyrV.s 			page 1


   1              		.file	"gd32vf103_rcu.c"
   2              		.option nopic
   3              		.text
   4              	.Ltext0:
   5              		.cfi_sections	.debug_frame
   6              		.section	.text.rcu_deinit,"ax",@progbits
   7              		.align	1
   8              		.globl	rcu_deinit
  10              	rcu_deinit:
  11              	.LFB2:
  12              		.file 1 "arch/riscv/mach-gd32vf10x/bsp/gd32vf103_rcu.c"
   1:arch/riscv/mach-gd32vf10x/bsp/gd32vf103_rcu.c **** /*!
   2:arch/riscv/mach-gd32vf10x/bsp/gd32vf103_rcu.c ****     \file    gd32vf103_rcu.c
   3:arch/riscv/mach-gd32vf10x/bsp/gd32vf103_rcu.c ****     \brief   RCU driver
   4:arch/riscv/mach-gd32vf10x/bsp/gd32vf103_rcu.c **** 
   5:arch/riscv/mach-gd32vf10x/bsp/gd32vf103_rcu.c ****     \version 2019-6-5, V1.0.0, firmware for GD32VF103
   6:arch/riscv/mach-gd32vf10x/bsp/gd32vf103_rcu.c **** */
   7:arch/riscv/mach-gd32vf10x/bsp/gd32vf103_rcu.c **** 
   8:arch/riscv/mach-gd32vf10x/bsp/gd32vf103_rcu.c **** /*
   9:arch/riscv/mach-gd32vf10x/bsp/gd32vf103_rcu.c ****     Copyright (c) 2019, GigaDevice Semiconductor Inc.
  10:arch/riscv/mach-gd32vf10x/bsp/gd32vf103_rcu.c **** 
  11:arch/riscv/mach-gd32vf10x/bsp/gd32vf103_rcu.c ****     Redistribution and use in source and binary forms, with or without modification, 
  12:arch/riscv/mach-gd32vf10x/bsp/gd32vf103_rcu.c **** are permitted provided that the following conditions are met:
  13:arch/riscv/mach-gd32vf10x/bsp/gd32vf103_rcu.c **** 
  14:arch/riscv/mach-gd32vf10x/bsp/gd32vf103_rcu.c ****     1. Redistributions of source code must retain the above copyright notice, this 
  15:arch/riscv/mach-gd32vf10x/bsp/gd32vf103_rcu.c ****        list of conditions and the following disclaimer.
  16:arch/riscv/mach-gd32vf10x/bsp/gd32vf103_rcu.c ****     2. Redistributions in binary form must reproduce the above copyright notice, 
  17:arch/riscv/mach-gd32vf10x/bsp/gd32vf103_rcu.c ****        this list of conditions and the following disclaimer in the documentation 
  18:arch/riscv/mach-gd32vf10x/bsp/gd32vf103_rcu.c ****        and/or other materials provided with the distribution.
  19:arch/riscv/mach-gd32vf10x/bsp/gd32vf103_rcu.c ****     3. Neither the name of the copyright holder nor the names of its contributors 
  20:arch/riscv/mach-gd32vf10x/bsp/gd32vf103_rcu.c ****        may be used to endorse or promote products derived from this software without 
  21:arch/riscv/mach-gd32vf10x/bsp/gd32vf103_rcu.c ****        specific prior written permission.
  22:arch/riscv/mach-gd32vf10x/bsp/gd32vf103_rcu.c **** 
  23:arch/riscv/mach-gd32vf10x/bsp/gd32vf103_rcu.c ****     THIS SOFTWARE IS PROVIDED BY THE COPYRIGHT HOLDERS AND CONTRIBUTORS "AS IS" 
  24:arch/riscv/mach-gd32vf10x/bsp/gd32vf103_rcu.c **** AND ANY EXPRESS OR IMPLIED WARRANTIES, INCLUDING, BUT NOT LIMITED TO, THE IMPLIED 
  25:arch/riscv/mach-gd32vf10x/bsp/gd32vf103_rcu.c **** WARRANTIES OF MERCHANTABILITY AND FITNESS FOR A PARTICULAR PURPOSE ARE DISCLAIMED. 
  26:arch/riscv/mach-gd32vf10x/bsp/gd32vf103_rcu.c **** IN NO EVENT SHALL THE COPYRIGHT HOLDER OR CONTRIBUTORS BE LIABLE FOR ANY DIRECT, 
  27:arch/riscv/mach-gd32vf10x/bsp/gd32vf103_rcu.c **** INDIRECT, INCIDENTAL, SPECIAL, EXEMPLARY, OR CONSEQUENTIAL DAMAGES (INCLUDING, BUT 
  28:arch/riscv/mach-gd32vf10x/bsp/gd32vf103_rcu.c **** NOT LIMITED TO, PROCUREMENT OF SUBSTITUTE GOODS OR SERVICES; LOSS OF USE, DATA, OR 
  29:arch/riscv/mach-gd32vf10x/bsp/gd32vf103_rcu.c **** PROFITS; OR BUSINESS INTERRUPTION) HOWEVER CAUSED AND ON ANY THEORY OF LIABILITY, 
  30:arch/riscv/mach-gd32vf10x/bsp/gd32vf103_rcu.c **** WHETHER IN CONTRACT, STRICT LIABILITY, OR TORT (INCLUDING NEGLIGENCE OR OTHERWISE) 
  31:arch/riscv/mach-gd32vf10x/bsp/gd32vf103_rcu.c **** ARISING IN ANY WAY OUT OF THE USE OF THIS SOFTWARE, EVEN IF ADVISED OF THE POSSIBILITY 
  32:arch/riscv/mach-gd32vf10x/bsp/gd32vf103_rcu.c **** OF SUCH DAMAGE.
  33:arch/riscv/mach-gd32vf10x/bsp/gd32vf103_rcu.c **** */
  34:arch/riscv/mach-gd32vf10x/bsp/gd32vf103_rcu.c **** 
  35:arch/riscv/mach-gd32vf10x/bsp/gd32vf103_rcu.c **** #include "gd32vf103_rcu.h"
  36:arch/riscv/mach-gd32vf10x/bsp/gd32vf103_rcu.c **** 
  37:arch/riscv/mach-gd32vf10x/bsp/gd32vf103_rcu.c **** /* define clock source */
  38:arch/riscv/mach-gd32vf10x/bsp/gd32vf103_rcu.c **** #define SEL_IRC8M                   ((uint16_t)0U)
  39:arch/riscv/mach-gd32vf10x/bsp/gd32vf103_rcu.c **** #define SEL_HXTAL                   ((uint16_t)1U)
  40:arch/riscv/mach-gd32vf10x/bsp/gd32vf103_rcu.c **** #define SEL_PLL                     ((uint16_t)2U)
  41:arch/riscv/mach-gd32vf10x/bsp/gd32vf103_rcu.c **** 
  42:arch/riscv/mach-gd32vf10x/bsp/gd32vf103_rcu.c **** /* define startup timeout count */
  43:arch/riscv/mach-gd32vf10x/bsp/gd32vf103_rcu.c **** #define OSC_STARTUP_TIMEOUT         ((uint32_t)0xFFFFFU)
  44:arch/riscv/mach-gd32vf10x/bsp/gd32vf103_rcu.c **** #define LXTAL_STARTUP_TIMEOUT       ((uint32_t)0x3FFFFFFU)
  45:arch/riscv/mach-gd32vf10x/bsp/gd32vf103_rcu.c **** 
  46:arch/riscv/mach-gd32vf10x/bsp/gd32vf103_rcu.c **** /*!
GAS LISTING C:\Users\test\AppData\Local\Temp\cciHZyrV.s 			page 2


  47:arch/riscv/mach-gd32vf10x/bsp/gd32vf103_rcu.c ****     \brief      deinitialize the RCU
  48:arch/riscv/mach-gd32vf10x/bsp/gd32vf103_rcu.c ****     \param[in]  none
  49:arch/riscv/mach-gd32vf10x/bsp/gd32vf103_rcu.c ****     \param[out] none
  50:arch/riscv/mach-gd32vf10x/bsp/gd32vf103_rcu.c ****     \retval     none
  51:arch/riscv/mach-gd32vf10x/bsp/gd32vf103_rcu.c **** */
  52:arch/riscv/mach-gd32vf10x/bsp/gd32vf103_rcu.c **** void rcu_deinit(void)
  53:arch/riscv/mach-gd32vf10x/bsp/gd32vf103_rcu.c **** {
  13              		.loc 1 53 1
  14              		.cfi_startproc
  54:arch/riscv/mach-gd32vf10x/bsp/gd32vf103_rcu.c ****     /* enable IRC8M */
  55:arch/riscv/mach-gd32vf10x/bsp/gd32vf103_rcu.c ****     RCU_CTL |= RCU_CTL_IRC8MEN;
  15              		.loc 1 55 5
  16              		.loc 1 55 13 is_stmt 0
  17 0000 37160240 		li	a2,1073876992
  18 0004 1C42     		lw	a5,0(a2)
  19 0006 13070050 		li	a4,1280
  20              	.LBB60:
  21              	.LBB61:
  22              	.LBB62:
  23              	.LBB63:
  56:arch/riscv/mach-gd32vf10x/bsp/gd32vf103_rcu.c ****     rcu_osci_stab_wait(RCU_IRC8M);
  57:arch/riscv/mach-gd32vf10x/bsp/gd32vf103_rcu.c **** 
  58:arch/riscv/mach-gd32vf10x/bsp/gd32vf103_rcu.c ****     /* reset CFG0 register */
  59:arch/riscv/mach-gd32vf10x/bsp/gd32vf103_rcu.c ****     RCU_CFG0 &= ~(RCU_CFG0_SCS | RCU_CFG0_AHBPSC | RCU_CFG0_APB1PSC | RCU_CFG0_APB2PSC |
  60:arch/riscv/mach-gd32vf10x/bsp/gd32vf103_rcu.c ****                   RCU_CFG0_ADCPSC | RCU_CFG0_PLLSEL | RCU_CFG0_PREDV0_LSB | RCU_CFG0_PLLMF |
  61:arch/riscv/mach-gd32vf10x/bsp/gd32vf103_rcu.c ****                   RCU_CFG0_USBFSPSC | RCU_CFG0_CKOUT0SEL | RCU_CFG0_ADCPSC_2 | RCU_CFG0_PLLMF_4);
  62:arch/riscv/mach-gd32vf10x/bsp/gd32vf103_rcu.c ****     /* reset CTL register */
  63:arch/riscv/mach-gd32vf10x/bsp/gd32vf103_rcu.c ****     RCU_CTL &= ~(RCU_CTL_HXTALEN | RCU_CTL_CKMEN | RCU_CTL_PLLEN);
  64:arch/riscv/mach-gd32vf10x/bsp/gd32vf103_rcu.c ****     RCU_CTL &= ~RCU_CTL_HXTALBPS;
  65:arch/riscv/mach-gd32vf10x/bsp/gd32vf103_rcu.c ****     RCU_CTL &= ~(RCU_CTL_PLL1EN | RCU_CTL_PLL2EN);
  66:arch/riscv/mach-gd32vf10x/bsp/gd32vf103_rcu.c ****     /* reset INT and CFG1 register */
  67:arch/riscv/mach-gd32vf10x/bsp/gd32vf103_rcu.c ****     RCU_INT = 0x00ff0000U;
  68:arch/riscv/mach-gd32vf10x/bsp/gd32vf103_rcu.c ****     RCU_CFG1 &= ~(RCU_CFG1_PREDV0 | RCU_CFG1_PREDV1 | RCU_CFG1_PLL1MF | RCU_CFG1_PLL2MF |
  69:arch/riscv/mach-gd32vf10x/bsp/gd32vf103_rcu.c ****                   RCU_CFG1_PREDV0SEL | RCU_CFG1_I2S1SEL | RCU_CFG1_I2S2SEL);
  70:arch/riscv/mach-gd32vf10x/bsp/gd32vf103_rcu.c **** }
  71:arch/riscv/mach-gd32vf10x/bsp/gd32vf103_rcu.c **** 
  72:arch/riscv/mach-gd32vf10x/bsp/gd32vf103_rcu.c **** /*!
  73:arch/riscv/mach-gd32vf10x/bsp/gd32vf103_rcu.c ****     \brief      enable the peripherals clock
  74:arch/riscv/mach-gd32vf10x/bsp/gd32vf103_rcu.c ****     \param[in]  periph: RCU peripherals, refer to rcu_periph_enum
  75:arch/riscv/mach-gd32vf10x/bsp/gd32vf103_rcu.c ****                 only one parameter can be selected which is shown as below:
  76:arch/riscv/mach-gd32vf10x/bsp/gd32vf103_rcu.c ****       \arg        RCU_GPIOx (x=A,B,C,D,E): GPIO ports clock
  77:arch/riscv/mach-gd32vf10x/bsp/gd32vf103_rcu.c ****       \arg        RCU_AF : alternate function clock
  78:arch/riscv/mach-gd32vf10x/bsp/gd32vf103_rcu.c ****       \arg        RCU_CRC: CRC clock
  79:arch/riscv/mach-gd32vf10x/bsp/gd32vf103_rcu.c ****       \arg        RCU_DMAx (x=0,1): DMA clock
  80:arch/riscv/mach-gd32vf10x/bsp/gd32vf103_rcu.c ****       \arg        RCU_USBFS: USBFS clock
  81:arch/riscv/mach-gd32vf10x/bsp/gd32vf103_rcu.c ****       \arg        RCU_EXMC: EXMC clock
  82:arch/riscv/mach-gd32vf10x/bsp/gd32vf103_rcu.c ****       \arg        RCU_TIMERx (x=0,1,2,3,4,5,6): TIMER clock
  83:arch/riscv/mach-gd32vf10x/bsp/gd32vf103_rcu.c ****       \arg        RCU_WWDGT: WWDGT clock
  84:arch/riscv/mach-gd32vf10x/bsp/gd32vf103_rcu.c ****       \arg        RCU_SPIx (x=0,1,2): SPI clock
  85:arch/riscv/mach-gd32vf10x/bsp/gd32vf103_rcu.c ****       \arg        RCU_USARTx (x=0,1,2): USART clock
  86:arch/riscv/mach-gd32vf10x/bsp/gd32vf103_rcu.c ****       \arg        RCU_UARTx (x=3,4): UART clock
  87:arch/riscv/mach-gd32vf10x/bsp/gd32vf103_rcu.c ****       \arg        RCU_I2Cx (x=0,1): I2C clock
  88:arch/riscv/mach-gd32vf10x/bsp/gd32vf103_rcu.c ****       \arg        RCU_CANx (x=0,1): CAN clock
  89:arch/riscv/mach-gd32vf10x/bsp/gd32vf103_rcu.c ****       \arg        RCU_PMU: PMU clock
  90:arch/riscv/mach-gd32vf10x/bsp/gd32vf103_rcu.c ****       \arg        RCU_DAC: DAC clock
  91:arch/riscv/mach-gd32vf10x/bsp/gd32vf103_rcu.c ****       \arg        RCU_RTC: RTC clock
  92:arch/riscv/mach-gd32vf10x/bsp/gd32vf103_rcu.c ****       \arg        RCU_ADCx (x=0,1): ADC clock
GAS LISTING C:\Users\test\AppData\Local\Temp\cciHZyrV.s 			page 3


  93:arch/riscv/mach-gd32vf10x/bsp/gd32vf103_rcu.c ****       \arg        RCU_BKPI: BKP interface clock
  94:arch/riscv/mach-gd32vf10x/bsp/gd32vf103_rcu.c ****     \param[out] none
  95:arch/riscv/mach-gd32vf10x/bsp/gd32vf103_rcu.c ****     \retval     none
  96:arch/riscv/mach-gd32vf10x/bsp/gd32vf103_rcu.c **** */
  97:arch/riscv/mach-gd32vf10x/bsp/gd32vf103_rcu.c **** void rcu_periph_clock_enable(rcu_periph_enum periph)
  98:arch/riscv/mach-gd32vf10x/bsp/gd32vf103_rcu.c **** {
  99:arch/riscv/mach-gd32vf10x/bsp/gd32vf103_rcu.c ****     RCU_REG_VAL(periph) |= BIT(RCU_BIT_POS(periph));
 100:arch/riscv/mach-gd32vf10x/bsp/gd32vf103_rcu.c **** }
 101:arch/riscv/mach-gd32vf10x/bsp/gd32vf103_rcu.c **** 
 102:arch/riscv/mach-gd32vf10x/bsp/gd32vf103_rcu.c **** /*!
 103:arch/riscv/mach-gd32vf10x/bsp/gd32vf103_rcu.c ****     \brief      disable the peripherals clock
 104:arch/riscv/mach-gd32vf10x/bsp/gd32vf103_rcu.c ****     \param[in]  periph: RCU peripherals, refer to rcu_periph_enum
 105:arch/riscv/mach-gd32vf10x/bsp/gd32vf103_rcu.c ****                 only one parameter can be selected which is shown as below:
 106:arch/riscv/mach-gd32vf10x/bsp/gd32vf103_rcu.c ****       \arg        RCU_GPIOx (x=A,B,C,D,E): GPIO ports clock
 107:arch/riscv/mach-gd32vf10x/bsp/gd32vf103_rcu.c ****       \arg        RCU_AF: alternate function clock
 108:arch/riscv/mach-gd32vf10x/bsp/gd32vf103_rcu.c ****       \arg        RCU_CRC: CRC clock
 109:arch/riscv/mach-gd32vf10x/bsp/gd32vf103_rcu.c ****       \arg        RCU_DMAx (x=0,1): DMA clock
 110:arch/riscv/mach-gd32vf10x/bsp/gd32vf103_rcu.c ****       \arg        RCU_USBFS: USBFS clock
 111:arch/riscv/mach-gd32vf10x/bsp/gd32vf103_rcu.c ****       \arg        RCU_EXMC: EXMC clock
 112:arch/riscv/mach-gd32vf10x/bsp/gd32vf103_rcu.c ****       \arg        RCU_TIMERx (x=0,1,2,3,4,5,6): TIMER clock
 113:arch/riscv/mach-gd32vf10x/bsp/gd32vf103_rcu.c ****       \arg        RCU_WWDGT: WWDGT clock
 114:arch/riscv/mach-gd32vf10x/bsp/gd32vf103_rcu.c ****       \arg        RCU_SPIx (x=0,1,2): SPI clock
 115:arch/riscv/mach-gd32vf10x/bsp/gd32vf103_rcu.c ****       \arg        RCU_USARTx (x=0,1,2): USART clock
 116:arch/riscv/mach-gd32vf10x/bsp/gd32vf103_rcu.c ****       \arg        RCU_UARTx (x=3,4): UART clock
 117:arch/riscv/mach-gd32vf10x/bsp/gd32vf103_rcu.c ****       \arg        RCU_I2Cx (x=0,1): I2C clock
 118:arch/riscv/mach-gd32vf10x/bsp/gd32vf103_rcu.c ****       \arg        RCU_CANx (x=0,1): CAN clock
 119:arch/riscv/mach-gd32vf10x/bsp/gd32vf103_rcu.c ****       \arg        RCU_PMU: PMU clock
 120:arch/riscv/mach-gd32vf10x/bsp/gd32vf103_rcu.c ****       \arg        RCU_DAC: DAC clock
 121:arch/riscv/mach-gd32vf10x/bsp/gd32vf103_rcu.c ****       \arg        RCU_RTC: RTC clock
 122:arch/riscv/mach-gd32vf10x/bsp/gd32vf103_rcu.c ****       \arg        RCU_ADCx (x=0,1): ADC clock
 123:arch/riscv/mach-gd32vf10x/bsp/gd32vf103_rcu.c ****       \arg        RCU_BKPI: BKP interface clock
 124:arch/riscv/mach-gd32vf10x/bsp/gd32vf103_rcu.c ****     \param[out] none
 125:arch/riscv/mach-gd32vf10x/bsp/gd32vf103_rcu.c ****     \retval     none
 126:arch/riscv/mach-gd32vf10x/bsp/gd32vf103_rcu.c **** */
 127:arch/riscv/mach-gd32vf10x/bsp/gd32vf103_rcu.c **** void rcu_periph_clock_disable(rcu_periph_enum periph)
 128:arch/riscv/mach-gd32vf10x/bsp/gd32vf103_rcu.c **** {
 129:arch/riscv/mach-gd32vf10x/bsp/gd32vf103_rcu.c ****     RCU_REG_VAL(periph) &= ~BIT(RCU_BIT_POS(periph));
 130:arch/riscv/mach-gd32vf10x/bsp/gd32vf103_rcu.c **** }
 131:arch/riscv/mach-gd32vf10x/bsp/gd32vf103_rcu.c **** 
 132:arch/riscv/mach-gd32vf10x/bsp/gd32vf103_rcu.c **** /*!
 133:arch/riscv/mach-gd32vf10x/bsp/gd32vf103_rcu.c ****     \brief      enable the peripherals clock when sleep mode
 134:arch/riscv/mach-gd32vf10x/bsp/gd32vf103_rcu.c ****     \param[in]  periph: RCU peripherals, refer to rcu_periph_sleep_enum
 135:arch/riscv/mach-gd32vf10x/bsp/gd32vf103_rcu.c ****                 only one parameter can be selected which is shown as below:
 136:arch/riscv/mach-gd32vf10x/bsp/gd32vf103_rcu.c ****       \arg        RCU_FMC_SLP: FMC clock
 137:arch/riscv/mach-gd32vf10x/bsp/gd32vf103_rcu.c ****       \arg        RCU_SRAM_SLP: SRAM clock
 138:arch/riscv/mach-gd32vf10x/bsp/gd32vf103_rcu.c ****     \param[out] none
 139:arch/riscv/mach-gd32vf10x/bsp/gd32vf103_rcu.c ****     \retval     none
 140:arch/riscv/mach-gd32vf10x/bsp/gd32vf103_rcu.c **** */
 141:arch/riscv/mach-gd32vf10x/bsp/gd32vf103_rcu.c **** void rcu_periph_clock_sleep_enable(rcu_periph_sleep_enum periph)
 142:arch/riscv/mach-gd32vf10x/bsp/gd32vf103_rcu.c **** {
 143:arch/riscv/mach-gd32vf10x/bsp/gd32vf103_rcu.c ****     RCU_REG_VAL(periph) |= BIT(RCU_BIT_POS(periph));
 144:arch/riscv/mach-gd32vf10x/bsp/gd32vf103_rcu.c **** }
 145:arch/riscv/mach-gd32vf10x/bsp/gd32vf103_rcu.c **** 
 146:arch/riscv/mach-gd32vf10x/bsp/gd32vf103_rcu.c **** /*!
 147:arch/riscv/mach-gd32vf10x/bsp/gd32vf103_rcu.c ****     \brief      disable the peripherals clock when sleep mode
 148:arch/riscv/mach-gd32vf10x/bsp/gd32vf103_rcu.c ****     \param[in]  periph: RCU peripherals, refer to rcu_periph_sleep_enum
 149:arch/riscv/mach-gd32vf10x/bsp/gd32vf103_rcu.c ****                 only one parameter can be selected which is shown as below:
GAS LISTING C:\Users\test\AppData\Local\Temp\cciHZyrV.s 			page 4


 150:arch/riscv/mach-gd32vf10x/bsp/gd32vf103_rcu.c ****       \arg        RCU_FMC_SLP: FMC clock
 151:arch/riscv/mach-gd32vf10x/bsp/gd32vf103_rcu.c ****       \arg        RCU_SRAM_SLP: SRAM clock
 152:arch/riscv/mach-gd32vf10x/bsp/gd32vf103_rcu.c ****     \param[out] none
 153:arch/riscv/mach-gd32vf10x/bsp/gd32vf103_rcu.c ****     \retval     none
 154:arch/riscv/mach-gd32vf10x/bsp/gd32vf103_rcu.c **** */
 155:arch/riscv/mach-gd32vf10x/bsp/gd32vf103_rcu.c **** void rcu_periph_clock_sleep_disable(rcu_periph_sleep_enum periph)
 156:arch/riscv/mach-gd32vf10x/bsp/gd32vf103_rcu.c **** {
 157:arch/riscv/mach-gd32vf10x/bsp/gd32vf103_rcu.c ****     RCU_REG_VAL(periph) &= ~BIT(RCU_BIT_POS(periph));
 158:arch/riscv/mach-gd32vf10x/bsp/gd32vf103_rcu.c **** }
 159:arch/riscv/mach-gd32vf10x/bsp/gd32vf103_rcu.c **** 
 160:arch/riscv/mach-gd32vf10x/bsp/gd32vf103_rcu.c **** /*!
 161:arch/riscv/mach-gd32vf10x/bsp/gd32vf103_rcu.c ****     \brief      reset the peripherals
 162:arch/riscv/mach-gd32vf10x/bsp/gd32vf103_rcu.c ****     \param[in]  periph_reset: RCU peripherals reset, refer to rcu_periph_reset_enum
 163:arch/riscv/mach-gd32vf10x/bsp/gd32vf103_rcu.c ****                 only one parameter can be selected which is shown as below:
 164:arch/riscv/mach-gd32vf10x/bsp/gd32vf103_rcu.c ****       \arg        RCU_GPIOxRST (x=A,B,C,D,E): reset GPIO ports
 165:arch/riscv/mach-gd32vf10x/bsp/gd32vf103_rcu.c ****       \arg        RCU_AFRST : reset alternate function clock
 166:arch/riscv/mach-gd32vf10x/bsp/gd32vf103_rcu.c ****       \arg        RCU_USBFSRST: reset USBFS
 167:arch/riscv/mach-gd32vf10x/bsp/gd32vf103_rcu.c ****       \arg        RCU_TIMERxRST (x=0,1,2,3,4,5,6): reset TIMER
 168:arch/riscv/mach-gd32vf10x/bsp/gd32vf103_rcu.c ****       \arg        RCU_WWDGTRST: reset WWDGT
 169:arch/riscv/mach-gd32vf10x/bsp/gd32vf103_rcu.c ****       \arg        RCU_SPIxRST (x=0,1,2): reset SPI
 170:arch/riscv/mach-gd32vf10x/bsp/gd32vf103_rcu.c ****       \arg        RCU_USARTxRST (x=0,1,2): reset USART
 171:arch/riscv/mach-gd32vf10x/bsp/gd32vf103_rcu.c ****       \arg        RCU_UARTxRST (x=3,4): reset UART
 172:arch/riscv/mach-gd32vf10x/bsp/gd32vf103_rcu.c ****       \arg        RCU_I2CxRST (x=0,1): reset I2C
 173:arch/riscv/mach-gd32vf10x/bsp/gd32vf103_rcu.c ****       \arg        RCU_CANxRST (x=0,1): reset CAN
 174:arch/riscv/mach-gd32vf10x/bsp/gd32vf103_rcu.c ****       \arg        RCU_PMURST: reset PMU
 175:arch/riscv/mach-gd32vf10x/bsp/gd32vf103_rcu.c ****       \arg        RCU_DACRST: reset DAC
 176:arch/riscv/mach-gd32vf10x/bsp/gd32vf103_rcu.c ****       \arg        RCU_ADCxRST (x=0,1): reset ADC
 177:arch/riscv/mach-gd32vf10x/bsp/gd32vf103_rcu.c ****       \arg        RCU_BKPIRST: reset BKPI
 178:arch/riscv/mach-gd32vf10x/bsp/gd32vf103_rcu.c ****     \param[out] none
 179:arch/riscv/mach-gd32vf10x/bsp/gd32vf103_rcu.c ****     \retval     none
 180:arch/riscv/mach-gd32vf10x/bsp/gd32vf103_rcu.c **** */
 181:arch/riscv/mach-gd32vf10x/bsp/gd32vf103_rcu.c **** void rcu_periph_reset_enable(rcu_periph_reset_enum periph_reset)
 182:arch/riscv/mach-gd32vf10x/bsp/gd32vf103_rcu.c **** {
 183:arch/riscv/mach-gd32vf10x/bsp/gd32vf103_rcu.c ****     RCU_REG_VAL(periph_reset) |= BIT(RCU_BIT_POS(periph_reset));
 184:arch/riscv/mach-gd32vf10x/bsp/gd32vf103_rcu.c **** }
 185:arch/riscv/mach-gd32vf10x/bsp/gd32vf103_rcu.c **** 
 186:arch/riscv/mach-gd32vf10x/bsp/gd32vf103_rcu.c **** /*!
 187:arch/riscv/mach-gd32vf10x/bsp/gd32vf103_rcu.c ****     \brief      disable reset the peripheral
 188:arch/riscv/mach-gd32vf10x/bsp/gd32vf103_rcu.c ****     \param[in]  periph_reset: RCU peripherals reset, refer to rcu_periph_reset_enum
 189:arch/riscv/mach-gd32vf10x/bsp/gd32vf103_rcu.c ****                 only one parameter can be selected which is shown as below:
 190:arch/riscv/mach-gd32vf10x/bsp/gd32vf103_rcu.c ****       \arg        RCU_GPIOxRST (x=A,B,C,D,E): reset GPIO ports
 191:arch/riscv/mach-gd32vf10x/bsp/gd32vf103_rcu.c ****       \arg        RCU_AFRST : reset alternate function clock
 192:arch/riscv/mach-gd32vf10x/bsp/gd32vf103_rcu.c ****       \arg        RCU_USBFSRST: reset USBFS
 193:arch/riscv/mach-gd32vf10x/bsp/gd32vf103_rcu.c ****       \arg        RCU_TIMERxRST (x=0,1,2,3,4,5,6): reset TIMER
 194:arch/riscv/mach-gd32vf10x/bsp/gd32vf103_rcu.c ****       \arg        RCU_WWDGTRST: reset WWDGT
 195:arch/riscv/mach-gd32vf10x/bsp/gd32vf103_rcu.c ****       \arg        RCU_SPIxRST (x=0,1,2): reset SPI
 196:arch/riscv/mach-gd32vf10x/bsp/gd32vf103_rcu.c ****       \arg        RCU_USARTxRST (x=0,1,2): reset USART
 197:arch/riscv/mach-gd32vf10x/bsp/gd32vf103_rcu.c ****       \arg        RCU_UARTxRST (x=3,4): reset UART
 198:arch/riscv/mach-gd32vf10x/bsp/gd32vf103_rcu.c ****       \arg        RCU_I2CxRST (x=0,1): reset I2C
 199:arch/riscv/mach-gd32vf10x/bsp/gd32vf103_rcu.c ****       \arg        RCU_CANxRST (x=0,1): reset CAN
 200:arch/riscv/mach-gd32vf10x/bsp/gd32vf103_rcu.c ****       \arg        RCU_PMURST: reset PMU
 201:arch/riscv/mach-gd32vf10x/bsp/gd32vf103_rcu.c ****       \arg        RCU_DACRST: reset DAC
 202:arch/riscv/mach-gd32vf10x/bsp/gd32vf103_rcu.c ****       \arg        RCU_ADCxRST (x=0,1): reset ADC
 203:arch/riscv/mach-gd32vf10x/bsp/gd32vf103_rcu.c ****       \arg        RCU_BKPIRST: reset BKPI
 204:arch/riscv/mach-gd32vf10x/bsp/gd32vf103_rcu.c ****     \param[out] none
 205:arch/riscv/mach-gd32vf10x/bsp/gd32vf103_rcu.c ****     \retval     none
 206:arch/riscv/mach-gd32vf10x/bsp/gd32vf103_rcu.c **** */
GAS LISTING C:\Users\test\AppData\Local\Temp\cciHZyrV.s 			page 5


 207:arch/riscv/mach-gd32vf10x/bsp/gd32vf103_rcu.c **** void rcu_periph_reset_disable(rcu_periph_reset_enum periph_reset)
 208:arch/riscv/mach-gd32vf10x/bsp/gd32vf103_rcu.c **** {
 209:arch/riscv/mach-gd32vf10x/bsp/gd32vf103_rcu.c ****     RCU_REG_VAL(periph_reset) &= ~BIT(RCU_BIT_POS(periph_reset));
 210:arch/riscv/mach-gd32vf10x/bsp/gd32vf103_rcu.c **** }
 211:arch/riscv/mach-gd32vf10x/bsp/gd32vf103_rcu.c **** 
 212:arch/riscv/mach-gd32vf10x/bsp/gd32vf103_rcu.c **** /*!
 213:arch/riscv/mach-gd32vf10x/bsp/gd32vf103_rcu.c ****     \brief      reset the BKP domain
 214:arch/riscv/mach-gd32vf10x/bsp/gd32vf103_rcu.c ****     \param[in]  none
 215:arch/riscv/mach-gd32vf10x/bsp/gd32vf103_rcu.c ****     \param[out] none
 216:arch/riscv/mach-gd32vf10x/bsp/gd32vf103_rcu.c ****     \retval     none
 217:arch/riscv/mach-gd32vf10x/bsp/gd32vf103_rcu.c **** */
 218:arch/riscv/mach-gd32vf10x/bsp/gd32vf103_rcu.c **** void rcu_bkp_reset_enable(void)
 219:arch/riscv/mach-gd32vf10x/bsp/gd32vf103_rcu.c **** {
 220:arch/riscv/mach-gd32vf10x/bsp/gd32vf103_rcu.c ****     RCU_BDCTL |= RCU_BDCTL_BKPRST;
 221:arch/riscv/mach-gd32vf10x/bsp/gd32vf103_rcu.c **** }
 222:arch/riscv/mach-gd32vf10x/bsp/gd32vf103_rcu.c **** 
 223:arch/riscv/mach-gd32vf10x/bsp/gd32vf103_rcu.c **** /*!
 224:arch/riscv/mach-gd32vf10x/bsp/gd32vf103_rcu.c ****     \brief      disable the BKP domain reset
 225:arch/riscv/mach-gd32vf10x/bsp/gd32vf103_rcu.c ****     \param[in]  none
 226:arch/riscv/mach-gd32vf10x/bsp/gd32vf103_rcu.c ****     \param[out] none
 227:arch/riscv/mach-gd32vf10x/bsp/gd32vf103_rcu.c ****     \retval     none
 228:arch/riscv/mach-gd32vf10x/bsp/gd32vf103_rcu.c **** */
 229:arch/riscv/mach-gd32vf10x/bsp/gd32vf103_rcu.c **** void rcu_bkp_reset_disable(void)
 230:arch/riscv/mach-gd32vf10x/bsp/gd32vf103_rcu.c **** {
 231:arch/riscv/mach-gd32vf10x/bsp/gd32vf103_rcu.c ****     RCU_BDCTL &= ~RCU_BDCTL_BKPRST;
 232:arch/riscv/mach-gd32vf10x/bsp/gd32vf103_rcu.c **** }
 233:arch/riscv/mach-gd32vf10x/bsp/gd32vf103_rcu.c **** 
 234:arch/riscv/mach-gd32vf10x/bsp/gd32vf103_rcu.c **** /*!
 235:arch/riscv/mach-gd32vf10x/bsp/gd32vf103_rcu.c ****     \brief      configure the system clock source
 236:arch/riscv/mach-gd32vf10x/bsp/gd32vf103_rcu.c ****     \param[in]  ck_sys: system clock source select
 237:arch/riscv/mach-gd32vf10x/bsp/gd32vf103_rcu.c ****                 only one parameter can be selected which is shown as below:
 238:arch/riscv/mach-gd32vf10x/bsp/gd32vf103_rcu.c ****       \arg        RCU_CKSYSSRC_IRC8M: select CK_IRC8M as the CK_SYS source
 239:arch/riscv/mach-gd32vf10x/bsp/gd32vf103_rcu.c ****       \arg        RCU_CKSYSSRC_HXTAL: select CK_HXTAL as the CK_SYS source
 240:arch/riscv/mach-gd32vf10x/bsp/gd32vf103_rcu.c ****       \arg        RCU_CKSYSSRC_PLL: select CK_PLL as the CK_SYS source
 241:arch/riscv/mach-gd32vf10x/bsp/gd32vf103_rcu.c ****     \param[out] none
 242:arch/riscv/mach-gd32vf10x/bsp/gd32vf103_rcu.c ****     \retval     none
 243:arch/riscv/mach-gd32vf10x/bsp/gd32vf103_rcu.c **** */
 244:arch/riscv/mach-gd32vf10x/bsp/gd32vf103_rcu.c **** void rcu_system_clock_source_config(uint32_t ck_sys)
 245:arch/riscv/mach-gd32vf10x/bsp/gd32vf103_rcu.c **** {
 246:arch/riscv/mach-gd32vf10x/bsp/gd32vf103_rcu.c ****     uint32_t reg;
 247:arch/riscv/mach-gd32vf10x/bsp/gd32vf103_rcu.c ****     
 248:arch/riscv/mach-gd32vf10x/bsp/gd32vf103_rcu.c ****     reg = RCU_CFG0;
 249:arch/riscv/mach-gd32vf10x/bsp/gd32vf103_rcu.c ****     /* reset the SCS bits and set according to ck_sys */
 250:arch/riscv/mach-gd32vf10x/bsp/gd32vf103_rcu.c ****     reg &= ~RCU_CFG0_SCS;
 251:arch/riscv/mach-gd32vf10x/bsp/gd32vf103_rcu.c ****     RCU_CFG0 = (reg | ck_sys);
 252:arch/riscv/mach-gd32vf10x/bsp/gd32vf103_rcu.c **** }
 253:arch/riscv/mach-gd32vf10x/bsp/gd32vf103_rcu.c **** 
 254:arch/riscv/mach-gd32vf10x/bsp/gd32vf103_rcu.c **** /*!
 255:arch/riscv/mach-gd32vf10x/bsp/gd32vf103_rcu.c ****     \brief      get the system clock source
 256:arch/riscv/mach-gd32vf10x/bsp/gd32vf103_rcu.c ****     \param[in]  none
 257:arch/riscv/mach-gd32vf10x/bsp/gd32vf103_rcu.c ****     \param[out] none
 258:arch/riscv/mach-gd32vf10x/bsp/gd32vf103_rcu.c ****     \retval     which clock is selected as CK_SYS source
 259:arch/riscv/mach-gd32vf10x/bsp/gd32vf103_rcu.c ****       \arg        RCU_SCSS_IRC8M: CK_IRC8M is selected as the CK_SYS source
 260:arch/riscv/mach-gd32vf10x/bsp/gd32vf103_rcu.c ****       \arg        RCU_SCSS_HXTAL: CK_HXTAL is selected as the CK_SYS source
 261:arch/riscv/mach-gd32vf10x/bsp/gd32vf103_rcu.c ****       \arg        RCU_SCSS_PLL: CK_PLL is selected as the CK_SYS source
 262:arch/riscv/mach-gd32vf10x/bsp/gd32vf103_rcu.c **** */
 263:arch/riscv/mach-gd32vf10x/bsp/gd32vf103_rcu.c **** uint32_t rcu_system_clock_source_get(void)
GAS LISTING C:\Users\test\AppData\Local\Temp\cciHZyrV.s 			page 6


 264:arch/riscv/mach-gd32vf10x/bsp/gd32vf103_rcu.c **** {
 265:arch/riscv/mach-gd32vf10x/bsp/gd32vf103_rcu.c ****     return (RCU_CFG0 & RCU_CFG0_SCSS);
 266:arch/riscv/mach-gd32vf10x/bsp/gd32vf103_rcu.c **** }
 267:arch/riscv/mach-gd32vf10x/bsp/gd32vf103_rcu.c **** 
 268:arch/riscv/mach-gd32vf10x/bsp/gd32vf103_rcu.c **** /*!
 269:arch/riscv/mach-gd32vf10x/bsp/gd32vf103_rcu.c ****     \brief      configure the AHB clock prescaler selection
 270:arch/riscv/mach-gd32vf10x/bsp/gd32vf103_rcu.c ****     \param[in]  ck_ahb: AHB clock prescaler selection
 271:arch/riscv/mach-gd32vf10x/bsp/gd32vf103_rcu.c ****                 only one parameter can be selected which is shown as below:
 272:arch/riscv/mach-gd32vf10x/bsp/gd32vf103_rcu.c ****       \arg        RCU_AHB_CKSYS_DIVx, x=1, 2, 4, 8, 16, 64, 128, 256, 512
 273:arch/riscv/mach-gd32vf10x/bsp/gd32vf103_rcu.c ****     \param[out] none
 274:arch/riscv/mach-gd32vf10x/bsp/gd32vf103_rcu.c ****     \retval     none
 275:arch/riscv/mach-gd32vf10x/bsp/gd32vf103_rcu.c **** */
 276:arch/riscv/mach-gd32vf10x/bsp/gd32vf103_rcu.c **** void rcu_ahb_clock_config(uint32_t ck_ahb)
 277:arch/riscv/mach-gd32vf10x/bsp/gd32vf103_rcu.c **** {
 278:arch/riscv/mach-gd32vf10x/bsp/gd32vf103_rcu.c ****     uint32_t reg;
 279:arch/riscv/mach-gd32vf10x/bsp/gd32vf103_rcu.c ****     
 280:arch/riscv/mach-gd32vf10x/bsp/gd32vf103_rcu.c ****     reg = RCU_CFG0;
 281:arch/riscv/mach-gd32vf10x/bsp/gd32vf103_rcu.c **** 
 282:arch/riscv/mach-gd32vf10x/bsp/gd32vf103_rcu.c ****     /* reset the AHBPSC bits and set according to ck_ahb */
 283:arch/riscv/mach-gd32vf10x/bsp/gd32vf103_rcu.c ****     reg &= ~RCU_CFG0_AHBPSC;
 284:arch/riscv/mach-gd32vf10x/bsp/gd32vf103_rcu.c ****     RCU_CFG0 = (reg | ck_ahb);
 285:arch/riscv/mach-gd32vf10x/bsp/gd32vf103_rcu.c **** }
 286:arch/riscv/mach-gd32vf10x/bsp/gd32vf103_rcu.c **** 
 287:arch/riscv/mach-gd32vf10x/bsp/gd32vf103_rcu.c **** /*!
 288:arch/riscv/mach-gd32vf10x/bsp/gd32vf103_rcu.c ****     \brief      configure the APB1 clock prescaler selection
 289:arch/riscv/mach-gd32vf10x/bsp/gd32vf103_rcu.c ****     \param[in]  ck_apb1: APB1 clock prescaler selection
 290:arch/riscv/mach-gd32vf10x/bsp/gd32vf103_rcu.c ****                 only one parameter can be selected which is shown as below:
 291:arch/riscv/mach-gd32vf10x/bsp/gd32vf103_rcu.c ****       \arg        RCU_APB1_CKAHB_DIV1: select CK_AHB as CK_APB1
 292:arch/riscv/mach-gd32vf10x/bsp/gd32vf103_rcu.c ****       \arg        RCU_APB1_CKAHB_DIV2: select CK_AHB/2 as CK_APB1
 293:arch/riscv/mach-gd32vf10x/bsp/gd32vf103_rcu.c ****       \arg        RCU_APB1_CKAHB_DIV4: select CK_AHB/4 as CK_APB1
 294:arch/riscv/mach-gd32vf10x/bsp/gd32vf103_rcu.c ****       \arg        RCU_APB1_CKAHB_DIV8: select CK_AHB/8 as CK_APB1
 295:arch/riscv/mach-gd32vf10x/bsp/gd32vf103_rcu.c ****       \arg        RCU_APB1_CKAHB_DIV16: select CK_AHB/16 as CK_APB1
 296:arch/riscv/mach-gd32vf10x/bsp/gd32vf103_rcu.c ****     \param[out] none
 297:arch/riscv/mach-gd32vf10x/bsp/gd32vf103_rcu.c ****     \retval     none
 298:arch/riscv/mach-gd32vf10x/bsp/gd32vf103_rcu.c **** */
 299:arch/riscv/mach-gd32vf10x/bsp/gd32vf103_rcu.c **** void rcu_apb1_clock_config(uint32_t ck_apb1)
 300:arch/riscv/mach-gd32vf10x/bsp/gd32vf103_rcu.c **** {
 301:arch/riscv/mach-gd32vf10x/bsp/gd32vf103_rcu.c ****     uint32_t reg;
 302:arch/riscv/mach-gd32vf10x/bsp/gd32vf103_rcu.c ****     
 303:arch/riscv/mach-gd32vf10x/bsp/gd32vf103_rcu.c ****     reg = RCU_CFG0;
 304:arch/riscv/mach-gd32vf10x/bsp/gd32vf103_rcu.c **** 
 305:arch/riscv/mach-gd32vf10x/bsp/gd32vf103_rcu.c ****     /* reset the APB1PSC and set according to ck_apb1 */
 306:arch/riscv/mach-gd32vf10x/bsp/gd32vf103_rcu.c ****     reg &= ~RCU_CFG0_APB1PSC;
 307:arch/riscv/mach-gd32vf10x/bsp/gd32vf103_rcu.c ****     RCU_CFG0 = (reg | ck_apb1);
 308:arch/riscv/mach-gd32vf10x/bsp/gd32vf103_rcu.c **** }
 309:arch/riscv/mach-gd32vf10x/bsp/gd32vf103_rcu.c **** 
 310:arch/riscv/mach-gd32vf10x/bsp/gd32vf103_rcu.c **** /*!
 311:arch/riscv/mach-gd32vf10x/bsp/gd32vf103_rcu.c ****     \brief      configure the APB2 clock prescaler selection
 312:arch/riscv/mach-gd32vf10x/bsp/gd32vf103_rcu.c ****     \param[in]  ck_apb2: APB2 clock prescaler selection
 313:arch/riscv/mach-gd32vf10x/bsp/gd32vf103_rcu.c ****                 only one parameter can be selected which is shown as below:
 314:arch/riscv/mach-gd32vf10x/bsp/gd32vf103_rcu.c ****       \arg        RCU_APB2_CKAHB_DIV1: select CK_AHB as CK_APB2
 315:arch/riscv/mach-gd32vf10x/bsp/gd32vf103_rcu.c ****       \arg        RCU_APB2_CKAHB_DIV2: select CK_AHB/2 as CK_APB2
 316:arch/riscv/mach-gd32vf10x/bsp/gd32vf103_rcu.c ****       \arg        RCU_APB2_CKAHB_DIV4: select CK_AHB/4 as CK_APB2
 317:arch/riscv/mach-gd32vf10x/bsp/gd32vf103_rcu.c ****       \arg        RCU_APB2_CKAHB_DIV8: select CK_AHB/8 as CK_APB2
 318:arch/riscv/mach-gd32vf10x/bsp/gd32vf103_rcu.c ****       \arg        RCU_APB2_CKAHB_DIV16: select CK_AHB/16 as CK_APB2
 319:arch/riscv/mach-gd32vf10x/bsp/gd32vf103_rcu.c ****     \param[out] none
 320:arch/riscv/mach-gd32vf10x/bsp/gd32vf103_rcu.c ****     \retval     none
GAS LISTING C:\Users\test\AppData\Local\Temp\cciHZyrV.s 			page 7


 321:arch/riscv/mach-gd32vf10x/bsp/gd32vf103_rcu.c **** */
 322:arch/riscv/mach-gd32vf10x/bsp/gd32vf103_rcu.c **** void rcu_apb2_clock_config(uint32_t ck_apb2)
 323:arch/riscv/mach-gd32vf10x/bsp/gd32vf103_rcu.c **** {
 324:arch/riscv/mach-gd32vf10x/bsp/gd32vf103_rcu.c ****     uint32_t reg;
 325:arch/riscv/mach-gd32vf10x/bsp/gd32vf103_rcu.c ****     
 326:arch/riscv/mach-gd32vf10x/bsp/gd32vf103_rcu.c ****     reg = RCU_CFG0;
 327:arch/riscv/mach-gd32vf10x/bsp/gd32vf103_rcu.c **** 
 328:arch/riscv/mach-gd32vf10x/bsp/gd32vf103_rcu.c ****     /* reset the APB2PSC and set according to ck_apb2 */
 329:arch/riscv/mach-gd32vf10x/bsp/gd32vf103_rcu.c ****     reg &= ~RCU_CFG0_APB2PSC;
 330:arch/riscv/mach-gd32vf10x/bsp/gd32vf103_rcu.c ****     RCU_CFG0 = (reg | ck_apb2);
 331:arch/riscv/mach-gd32vf10x/bsp/gd32vf103_rcu.c **** }
 332:arch/riscv/mach-gd32vf10x/bsp/gd32vf103_rcu.c **** 
 333:arch/riscv/mach-gd32vf10x/bsp/gd32vf103_rcu.c **** /*!
 334:arch/riscv/mach-gd32vf10x/bsp/gd32vf103_rcu.c ****     \brief      configure the CK_OUT0 clock source
 335:arch/riscv/mach-gd32vf10x/bsp/gd32vf103_rcu.c ****     \param[in]  ckout0_src: CK_OUT0 clock source selection
 336:arch/riscv/mach-gd32vf10x/bsp/gd32vf103_rcu.c ****                 only one parameter can be selected which is shown as below:
 337:arch/riscv/mach-gd32vf10x/bsp/gd32vf103_rcu.c ****       \arg        RCU_CKOUT0SRC_NONE: no clock selected
 338:arch/riscv/mach-gd32vf10x/bsp/gd32vf103_rcu.c ****       \arg        RCU_CKOUT0SRC_CKSYS: system clock selected
 339:arch/riscv/mach-gd32vf10x/bsp/gd32vf103_rcu.c ****       \arg        RCU_CKOUT0SRC_IRC8M: high speed 8M internal oscillator clock selected
 340:arch/riscv/mach-gd32vf10x/bsp/gd32vf103_rcu.c ****       \arg        RCU_CKOUT0SRC_HXTAL: HXTAL selected
 341:arch/riscv/mach-gd32vf10x/bsp/gd32vf103_rcu.c ****       \arg        RCU_CKOUT0SRC_CKPLL_DIV2: CK_PLL/2 selected
 342:arch/riscv/mach-gd32vf10x/bsp/gd32vf103_rcu.c ****       \arg        RCU_CKOUT0SRC_CKPLL1: CK_PLL1 selected
 343:arch/riscv/mach-gd32vf10x/bsp/gd32vf103_rcu.c ****       \arg        RCU_CKOUT0SRC_CKPLL2_DIV2: CK_PLL2/2 selected
 344:arch/riscv/mach-gd32vf10x/bsp/gd32vf103_rcu.c ****       \arg        RCU_CKOUT0SRC_EXT1: EXT1 selected
 345:arch/riscv/mach-gd32vf10x/bsp/gd32vf103_rcu.c ****       \arg        RCU_CKOUT0SRC_CKPLL2: PLL2 selected
 346:arch/riscv/mach-gd32vf10x/bsp/gd32vf103_rcu.c ****     \param[out] none
 347:arch/riscv/mach-gd32vf10x/bsp/gd32vf103_rcu.c ****     \retval     none
 348:arch/riscv/mach-gd32vf10x/bsp/gd32vf103_rcu.c **** */
 349:arch/riscv/mach-gd32vf10x/bsp/gd32vf103_rcu.c **** void rcu_ckout0_config(uint32_t ckout0_src)
 350:arch/riscv/mach-gd32vf10x/bsp/gd32vf103_rcu.c **** {
 351:arch/riscv/mach-gd32vf10x/bsp/gd32vf103_rcu.c ****     uint32_t reg;
 352:arch/riscv/mach-gd32vf10x/bsp/gd32vf103_rcu.c ****     
 353:arch/riscv/mach-gd32vf10x/bsp/gd32vf103_rcu.c ****     reg = RCU_CFG0;
 354:arch/riscv/mach-gd32vf10x/bsp/gd32vf103_rcu.c **** 
 355:arch/riscv/mach-gd32vf10x/bsp/gd32vf103_rcu.c ****     /* reset the CKOUT0SRC, set according to ckout0_src */
 356:arch/riscv/mach-gd32vf10x/bsp/gd32vf103_rcu.c ****     reg &= ~RCU_CFG0_CKOUT0SEL;
 357:arch/riscv/mach-gd32vf10x/bsp/gd32vf103_rcu.c ****     RCU_CFG0 = (reg | ckout0_src);
 358:arch/riscv/mach-gd32vf10x/bsp/gd32vf103_rcu.c **** }
 359:arch/riscv/mach-gd32vf10x/bsp/gd32vf103_rcu.c **** 
 360:arch/riscv/mach-gd32vf10x/bsp/gd32vf103_rcu.c **** /*!
 361:arch/riscv/mach-gd32vf10x/bsp/gd32vf103_rcu.c ****     \brief      configure the main PLL clock 
 362:arch/riscv/mach-gd32vf10x/bsp/gd32vf103_rcu.c ****     \param[in]  pll_src: PLL clock source selection
 363:arch/riscv/mach-gd32vf10x/bsp/gd32vf103_rcu.c ****                 only one parameter can be selected which is shown as below:
 364:arch/riscv/mach-gd32vf10x/bsp/gd32vf103_rcu.c ****       \arg        RCU_PLLSRC_IRC8M_DIV2: IRC8M/2 clock selected as source clock of PLL
 365:arch/riscv/mach-gd32vf10x/bsp/gd32vf103_rcu.c ****       \arg        RCU_PLLSRC_HXTAL: HXTAL selected as source clock of PLL
 366:arch/riscv/mach-gd32vf10x/bsp/gd32vf103_rcu.c ****     \param[in]  pll_mul: PLL clock multiplication factor
 367:arch/riscv/mach-gd32vf10x/bsp/gd32vf103_rcu.c ****                 only one parameter can be selected which is shown as below:
 368:arch/riscv/mach-gd32vf10x/bsp/gd32vf103_rcu.c ****       \arg        RCU_PLL_MULx (x = 2..14, 6.5, 16..32)
 369:arch/riscv/mach-gd32vf10x/bsp/gd32vf103_rcu.c ****     \param[out] none
 370:arch/riscv/mach-gd32vf10x/bsp/gd32vf103_rcu.c ****     \retval     none
 371:arch/riscv/mach-gd32vf10x/bsp/gd32vf103_rcu.c **** */
 372:arch/riscv/mach-gd32vf10x/bsp/gd32vf103_rcu.c **** void rcu_pll_config(uint32_t pll_src, uint32_t pll_mul)
 373:arch/riscv/mach-gd32vf10x/bsp/gd32vf103_rcu.c **** {
 374:arch/riscv/mach-gd32vf10x/bsp/gd32vf103_rcu.c ****     uint32_t reg = 0U;
 375:arch/riscv/mach-gd32vf10x/bsp/gd32vf103_rcu.c **** 
 376:arch/riscv/mach-gd32vf10x/bsp/gd32vf103_rcu.c ****     reg = RCU_CFG0;
 377:arch/riscv/mach-gd32vf10x/bsp/gd32vf103_rcu.c **** 
GAS LISTING C:\Users\test\AppData\Local\Temp\cciHZyrV.s 			page 8


 378:arch/riscv/mach-gd32vf10x/bsp/gd32vf103_rcu.c ****     /* PLL clock source and multiplication factor configuration */
 379:arch/riscv/mach-gd32vf10x/bsp/gd32vf103_rcu.c ****     reg &= ~(RCU_CFG0_PLLSEL | RCU_CFG0_PLLMF | RCU_CFG0_PLLMF_4);
 380:arch/riscv/mach-gd32vf10x/bsp/gd32vf103_rcu.c ****     reg |= (pll_src | pll_mul);
 381:arch/riscv/mach-gd32vf10x/bsp/gd32vf103_rcu.c **** 
 382:arch/riscv/mach-gd32vf10x/bsp/gd32vf103_rcu.c ****     RCU_CFG0 = reg;
 383:arch/riscv/mach-gd32vf10x/bsp/gd32vf103_rcu.c **** }
 384:arch/riscv/mach-gd32vf10x/bsp/gd32vf103_rcu.c **** 
 385:arch/riscv/mach-gd32vf10x/bsp/gd32vf103_rcu.c **** /*!
 386:arch/riscv/mach-gd32vf10x/bsp/gd32vf103_rcu.c ****     \brief      configure the PREDV0 division factor and clock source
 387:arch/riscv/mach-gd32vf10x/bsp/gd32vf103_rcu.c ****     \param[in]  predv0_source: PREDV0 input clock source selection
 388:arch/riscv/mach-gd32vf10x/bsp/gd32vf103_rcu.c ****                 only one parameter can be selected which is shown as below:
 389:arch/riscv/mach-gd32vf10x/bsp/gd32vf103_rcu.c ****       \arg        RCU_PREDV0SRC_HXTAL: HXTAL selected as PREDV0 input source clock
 390:arch/riscv/mach-gd32vf10x/bsp/gd32vf103_rcu.c ****       \arg        RCU_PREDV0SRC_CKPLL1: CK_PLL1 selected as PREDV0 input source clock
 391:arch/riscv/mach-gd32vf10x/bsp/gd32vf103_rcu.c ****     \param[in]  predv0_div: PREDV0 division factor
 392:arch/riscv/mach-gd32vf10x/bsp/gd32vf103_rcu.c ****                 only one parameter can be selected which is shown as below:
 393:arch/riscv/mach-gd32vf10x/bsp/gd32vf103_rcu.c ****       \arg        RCU_PREDV0_DIVx, x = 1..16
 394:arch/riscv/mach-gd32vf10x/bsp/gd32vf103_rcu.c ****     \param[out] none
 395:arch/riscv/mach-gd32vf10x/bsp/gd32vf103_rcu.c ****     \retval     none
 396:arch/riscv/mach-gd32vf10x/bsp/gd32vf103_rcu.c **** */
 397:arch/riscv/mach-gd32vf10x/bsp/gd32vf103_rcu.c **** void rcu_predv0_config(uint32_t predv0_source, uint32_t predv0_div)
 398:arch/riscv/mach-gd32vf10x/bsp/gd32vf103_rcu.c **** {
 399:arch/riscv/mach-gd32vf10x/bsp/gd32vf103_rcu.c ****     uint32_t reg = 0U;
 400:arch/riscv/mach-gd32vf10x/bsp/gd32vf103_rcu.c ****     
 401:arch/riscv/mach-gd32vf10x/bsp/gd32vf103_rcu.c ****     reg = RCU_CFG1;
 402:arch/riscv/mach-gd32vf10x/bsp/gd32vf103_rcu.c ****     /* reset PREDV0SEL and PREDV0 bits */
 403:arch/riscv/mach-gd32vf10x/bsp/gd32vf103_rcu.c ****     reg &= ~(RCU_CFG1_PREDV0SEL | RCU_CFG1_PREDV0);
 404:arch/riscv/mach-gd32vf10x/bsp/gd32vf103_rcu.c ****     /* set the PREDV0SEL and PREDV0 division factor */
 405:arch/riscv/mach-gd32vf10x/bsp/gd32vf103_rcu.c ****     reg |= (predv0_source | predv0_div);
 406:arch/riscv/mach-gd32vf10x/bsp/gd32vf103_rcu.c **** 
 407:arch/riscv/mach-gd32vf10x/bsp/gd32vf103_rcu.c ****     RCU_CFG1 = reg;
 408:arch/riscv/mach-gd32vf10x/bsp/gd32vf103_rcu.c **** }
 409:arch/riscv/mach-gd32vf10x/bsp/gd32vf103_rcu.c **** 
 410:arch/riscv/mach-gd32vf10x/bsp/gd32vf103_rcu.c **** /*!
 411:arch/riscv/mach-gd32vf10x/bsp/gd32vf103_rcu.c ****     \brief      configure the PREDV1 division factor
 412:arch/riscv/mach-gd32vf10x/bsp/gd32vf103_rcu.c ****     \param[in]  predv1_div: PREDV1 division factor
 413:arch/riscv/mach-gd32vf10x/bsp/gd32vf103_rcu.c ****                 only one parameter can be selected which is shown as below:
 414:arch/riscv/mach-gd32vf10x/bsp/gd32vf103_rcu.c ****       \arg        RCU_PREDV1_DIVx, x = 1..16
 415:arch/riscv/mach-gd32vf10x/bsp/gd32vf103_rcu.c ****     \param[out] none
 416:arch/riscv/mach-gd32vf10x/bsp/gd32vf103_rcu.c ****     \retval     none
 417:arch/riscv/mach-gd32vf10x/bsp/gd32vf103_rcu.c **** */
 418:arch/riscv/mach-gd32vf10x/bsp/gd32vf103_rcu.c **** void rcu_predv1_config(uint32_t predv1_div)
 419:arch/riscv/mach-gd32vf10x/bsp/gd32vf103_rcu.c **** {
 420:arch/riscv/mach-gd32vf10x/bsp/gd32vf103_rcu.c ****     uint32_t reg = 0U;
 421:arch/riscv/mach-gd32vf10x/bsp/gd32vf103_rcu.c ****     
 422:arch/riscv/mach-gd32vf10x/bsp/gd32vf103_rcu.c ****     reg = RCU_CFG1;
 423:arch/riscv/mach-gd32vf10x/bsp/gd32vf103_rcu.c ****     /* reset the PREDV1 bits */
 424:arch/riscv/mach-gd32vf10x/bsp/gd32vf103_rcu.c ****     reg &= ~RCU_CFG1_PREDV1;
 425:arch/riscv/mach-gd32vf10x/bsp/gd32vf103_rcu.c ****     /* set the PREDV1 division factor */
 426:arch/riscv/mach-gd32vf10x/bsp/gd32vf103_rcu.c ****     reg |= predv1_div;
 427:arch/riscv/mach-gd32vf10x/bsp/gd32vf103_rcu.c **** 
 428:arch/riscv/mach-gd32vf10x/bsp/gd32vf103_rcu.c ****     RCU_CFG1 = reg;
 429:arch/riscv/mach-gd32vf10x/bsp/gd32vf103_rcu.c **** }
 430:arch/riscv/mach-gd32vf10x/bsp/gd32vf103_rcu.c **** 
 431:arch/riscv/mach-gd32vf10x/bsp/gd32vf103_rcu.c **** /*!
 432:arch/riscv/mach-gd32vf10x/bsp/gd32vf103_rcu.c ****     \brief      configure the PLL1 clock 
 433:arch/riscv/mach-gd32vf10x/bsp/gd32vf103_rcu.c ****     \param[in]  pll_mul: PLL clock multiplication factor
 434:arch/riscv/mach-gd32vf10x/bsp/gd32vf103_rcu.c ****                 only one parameter can be selected which is shown as below:
GAS LISTING C:\Users\test\AppData\Local\Temp\cciHZyrV.s 			page 9


 435:arch/riscv/mach-gd32vf10x/bsp/gd32vf103_rcu.c ****       \arg        RCU_PLL1_MULx (x = 8..16, 20)
 436:arch/riscv/mach-gd32vf10x/bsp/gd32vf103_rcu.c ****     \param[out] none
 437:arch/riscv/mach-gd32vf10x/bsp/gd32vf103_rcu.c ****     \retval     none
 438:arch/riscv/mach-gd32vf10x/bsp/gd32vf103_rcu.c **** */
 439:arch/riscv/mach-gd32vf10x/bsp/gd32vf103_rcu.c **** void rcu_pll1_config(uint32_t pll_mul)
 440:arch/riscv/mach-gd32vf10x/bsp/gd32vf103_rcu.c **** {
 441:arch/riscv/mach-gd32vf10x/bsp/gd32vf103_rcu.c ****     RCU_CFG1 &= ~RCU_CFG1_PLL1MF;
 442:arch/riscv/mach-gd32vf10x/bsp/gd32vf103_rcu.c ****     RCU_CFG1 |= pll_mul;
 443:arch/riscv/mach-gd32vf10x/bsp/gd32vf103_rcu.c **** }
 444:arch/riscv/mach-gd32vf10x/bsp/gd32vf103_rcu.c **** 
 445:arch/riscv/mach-gd32vf10x/bsp/gd32vf103_rcu.c **** /*!
 446:arch/riscv/mach-gd32vf10x/bsp/gd32vf103_rcu.c ****     \brief      configure the PLL2 clock 
 447:arch/riscv/mach-gd32vf10x/bsp/gd32vf103_rcu.c ****     \param[in]  pll_mul: PLL clock multiplication factor
 448:arch/riscv/mach-gd32vf10x/bsp/gd32vf103_rcu.c ****                 only one parameter can be selected which is shown as below:
 449:arch/riscv/mach-gd32vf10x/bsp/gd32vf103_rcu.c ****       \arg        RCU_PLL2_MULx (x = 8..16, 20)
 450:arch/riscv/mach-gd32vf10x/bsp/gd32vf103_rcu.c ****     \param[out] none
 451:arch/riscv/mach-gd32vf10x/bsp/gd32vf103_rcu.c ****     \retval     none
 452:arch/riscv/mach-gd32vf10x/bsp/gd32vf103_rcu.c **** */
 453:arch/riscv/mach-gd32vf10x/bsp/gd32vf103_rcu.c **** void rcu_pll2_config(uint32_t pll_mul)
 454:arch/riscv/mach-gd32vf10x/bsp/gd32vf103_rcu.c **** {
 455:arch/riscv/mach-gd32vf10x/bsp/gd32vf103_rcu.c ****     RCU_CFG1 &= ~RCU_CFG1_PLL2MF;
 456:arch/riscv/mach-gd32vf10x/bsp/gd32vf103_rcu.c ****     RCU_CFG1 |= pll_mul; 
 457:arch/riscv/mach-gd32vf10x/bsp/gd32vf103_rcu.c **** }
 458:arch/riscv/mach-gd32vf10x/bsp/gd32vf103_rcu.c **** 
 459:arch/riscv/mach-gd32vf10x/bsp/gd32vf103_rcu.c **** /*!
 460:arch/riscv/mach-gd32vf10x/bsp/gd32vf103_rcu.c ****     \brief      configure the ADC prescaler factor
 461:arch/riscv/mach-gd32vf10x/bsp/gd32vf103_rcu.c ****     \param[in]  adc_psc: ADC prescaler factor
 462:arch/riscv/mach-gd32vf10x/bsp/gd32vf103_rcu.c ****                 only one parameter can be selected which is shown as below:
 463:arch/riscv/mach-gd32vf10x/bsp/gd32vf103_rcu.c ****       \arg        RCU_CKADC_CKAPB2_DIV2: ADC prescaler select CK_APB2/2
 464:arch/riscv/mach-gd32vf10x/bsp/gd32vf103_rcu.c ****       \arg        RCU_CKADC_CKAPB2_DIV4: ADC prescaler select CK_APB2/4
 465:arch/riscv/mach-gd32vf10x/bsp/gd32vf103_rcu.c ****       \arg        RCU_CKADC_CKAPB2_DIV6: ADC prescaler select CK_APB2/6
 466:arch/riscv/mach-gd32vf10x/bsp/gd32vf103_rcu.c ****       \arg        RCU_CKADC_CKAPB2_DIV8: ADC prescaler select CK_APB2/8
 467:arch/riscv/mach-gd32vf10x/bsp/gd32vf103_rcu.c ****       \arg        RCU_CKADC_CKAPB2_DIV12: ADC prescaler select CK_APB2/12
 468:arch/riscv/mach-gd32vf10x/bsp/gd32vf103_rcu.c ****       \arg        RCU_CKADC_CKAPB2_DIV16: ADC prescaler select CK_APB2/16
 469:arch/riscv/mach-gd32vf10x/bsp/gd32vf103_rcu.c ****     \param[out] none
 470:arch/riscv/mach-gd32vf10x/bsp/gd32vf103_rcu.c ****     \retval     none
 471:arch/riscv/mach-gd32vf10x/bsp/gd32vf103_rcu.c **** */
 472:arch/riscv/mach-gd32vf10x/bsp/gd32vf103_rcu.c **** void rcu_adc_clock_config(uint32_t adc_psc)
 473:arch/riscv/mach-gd32vf10x/bsp/gd32vf103_rcu.c **** {
 474:arch/riscv/mach-gd32vf10x/bsp/gd32vf103_rcu.c ****     uint32_t reg0;
 475:arch/riscv/mach-gd32vf10x/bsp/gd32vf103_rcu.c **** 
 476:arch/riscv/mach-gd32vf10x/bsp/gd32vf103_rcu.c ****     /* reset the ADCPSC bits */
 477:arch/riscv/mach-gd32vf10x/bsp/gd32vf103_rcu.c ****     reg0 = RCU_CFG0;
 478:arch/riscv/mach-gd32vf10x/bsp/gd32vf103_rcu.c ****     reg0 &= ~(RCU_CFG0_ADCPSC_2 | RCU_CFG0_ADCPSC);
 479:arch/riscv/mach-gd32vf10x/bsp/gd32vf103_rcu.c **** 
 480:arch/riscv/mach-gd32vf10x/bsp/gd32vf103_rcu.c ****     /* set the ADC prescaler factor */
 481:arch/riscv/mach-gd32vf10x/bsp/gd32vf103_rcu.c ****     switch(adc_psc){
 482:arch/riscv/mach-gd32vf10x/bsp/gd32vf103_rcu.c ****         case RCU_CKADC_CKAPB2_DIV2:
 483:arch/riscv/mach-gd32vf10x/bsp/gd32vf103_rcu.c ****         case RCU_CKADC_CKAPB2_DIV4:
 484:arch/riscv/mach-gd32vf10x/bsp/gd32vf103_rcu.c ****         case RCU_CKADC_CKAPB2_DIV6:
 485:arch/riscv/mach-gd32vf10x/bsp/gd32vf103_rcu.c ****         case RCU_CKADC_CKAPB2_DIV8:
 486:arch/riscv/mach-gd32vf10x/bsp/gd32vf103_rcu.c ****             reg0 |= (adc_psc << 14);
 487:arch/riscv/mach-gd32vf10x/bsp/gd32vf103_rcu.c ****             break;
 488:arch/riscv/mach-gd32vf10x/bsp/gd32vf103_rcu.c **** 
 489:arch/riscv/mach-gd32vf10x/bsp/gd32vf103_rcu.c ****         case RCU_CKADC_CKAPB2_DIV12:
 490:arch/riscv/mach-gd32vf10x/bsp/gd32vf103_rcu.c ****         case RCU_CKADC_CKAPB2_DIV16:
 491:arch/riscv/mach-gd32vf10x/bsp/gd32vf103_rcu.c ****             adc_psc &= ~BIT(2);
GAS LISTING C:\Users\test\AppData\Local\Temp\cciHZyrV.s 			page 10


 492:arch/riscv/mach-gd32vf10x/bsp/gd32vf103_rcu.c ****             reg0 |= (adc_psc << 14 | RCU_CFG0_ADCPSC_2);
 493:arch/riscv/mach-gd32vf10x/bsp/gd32vf103_rcu.c ****             break;
 494:arch/riscv/mach-gd32vf10x/bsp/gd32vf103_rcu.c **** 
 495:arch/riscv/mach-gd32vf10x/bsp/gd32vf103_rcu.c ****         default:
 496:arch/riscv/mach-gd32vf10x/bsp/gd32vf103_rcu.c ****             break;
 497:arch/riscv/mach-gd32vf10x/bsp/gd32vf103_rcu.c ****     }
 498:arch/riscv/mach-gd32vf10x/bsp/gd32vf103_rcu.c **** 
 499:arch/riscv/mach-gd32vf10x/bsp/gd32vf103_rcu.c ****     /* set the register */
 500:arch/riscv/mach-gd32vf10x/bsp/gd32vf103_rcu.c ****     RCU_CFG0 = reg0;
 501:arch/riscv/mach-gd32vf10x/bsp/gd32vf103_rcu.c **** }
 502:arch/riscv/mach-gd32vf10x/bsp/gd32vf103_rcu.c **** 
 503:arch/riscv/mach-gd32vf10x/bsp/gd32vf103_rcu.c **** /*!
 504:arch/riscv/mach-gd32vf10x/bsp/gd32vf103_rcu.c ****     \brief      configure the USBFS prescaler factor
 505:arch/riscv/mach-gd32vf10x/bsp/gd32vf103_rcu.c ****     \param[in]  usb_psc: USB prescaler factor
 506:arch/riscv/mach-gd32vf10x/bsp/gd32vf103_rcu.c ****                 only one parameter can be selected which is shown as below:
 507:arch/riscv/mach-gd32vf10x/bsp/gd32vf103_rcu.c ****       \arg        RCU_CKUSB_CKPLL_DIV1_5: USBFS prescaler select CK_PLL/1.5
 508:arch/riscv/mach-gd32vf10x/bsp/gd32vf103_rcu.c ****       \arg        RCU_CKUSB_CKPLL_DIV1: USBFS prescaler select CK_PLL/1
 509:arch/riscv/mach-gd32vf10x/bsp/gd32vf103_rcu.c ****       \arg        RCU_CKUSB_CKPLL_DIV2_5: USBFS prescaler select CK_PLL/2.5
 510:arch/riscv/mach-gd32vf10x/bsp/gd32vf103_rcu.c ****       \arg        RCU_CKUSB_CKPLL_DIV2: USBFS prescaler select CK_PLL/2
 511:arch/riscv/mach-gd32vf10x/bsp/gd32vf103_rcu.c ****     \param[out] none
 512:arch/riscv/mach-gd32vf10x/bsp/gd32vf103_rcu.c ****     \retval     none
 513:arch/riscv/mach-gd32vf10x/bsp/gd32vf103_rcu.c **** */
 514:arch/riscv/mach-gd32vf10x/bsp/gd32vf103_rcu.c **** void rcu_usb_clock_config(uint32_t usb_psc)
 515:arch/riscv/mach-gd32vf10x/bsp/gd32vf103_rcu.c **** {
 516:arch/riscv/mach-gd32vf10x/bsp/gd32vf103_rcu.c ****     uint32_t reg;
 517:arch/riscv/mach-gd32vf10x/bsp/gd32vf103_rcu.c ****     
 518:arch/riscv/mach-gd32vf10x/bsp/gd32vf103_rcu.c ****     reg = RCU_CFG0;
 519:arch/riscv/mach-gd32vf10x/bsp/gd32vf103_rcu.c **** 
 520:arch/riscv/mach-gd32vf10x/bsp/gd32vf103_rcu.c ****     /* configure the USBFS prescaler factor */
 521:arch/riscv/mach-gd32vf10x/bsp/gd32vf103_rcu.c ****     reg &= ~RCU_CFG0_USBFSPSC;
 522:arch/riscv/mach-gd32vf10x/bsp/gd32vf103_rcu.c ****     RCU_CFG0 = (reg | usb_psc);
 523:arch/riscv/mach-gd32vf10x/bsp/gd32vf103_rcu.c **** }
 524:arch/riscv/mach-gd32vf10x/bsp/gd32vf103_rcu.c **** 
 525:arch/riscv/mach-gd32vf10x/bsp/gd32vf103_rcu.c **** /*!
 526:arch/riscv/mach-gd32vf10x/bsp/gd32vf103_rcu.c ****     \brief      configure the RTC clock source selection
 527:arch/riscv/mach-gd32vf10x/bsp/gd32vf103_rcu.c ****     \param[in]  rtc_clock_source: RTC clock source selection
 528:arch/riscv/mach-gd32vf10x/bsp/gd32vf103_rcu.c ****                 only one parameter can be selected which is shown as below:
 529:arch/riscv/mach-gd32vf10x/bsp/gd32vf103_rcu.c ****       \arg        RCU_RTCSRC_NONE: no clock selected
 530:arch/riscv/mach-gd32vf10x/bsp/gd32vf103_rcu.c ****       \arg        RCU_RTCSRC_LXTAL: CK_LXTAL selected as RTC source clock
 531:arch/riscv/mach-gd32vf10x/bsp/gd32vf103_rcu.c ****       \arg        RCU_RTCSRC_IRC40K: CK_IRC40K selected as RTC source clock
 532:arch/riscv/mach-gd32vf10x/bsp/gd32vf103_rcu.c ****       \arg        RCU_RTCSRC_HXTAL_DIV_128: CK_HXTAL/128 selected as RTC source clock
 533:arch/riscv/mach-gd32vf10x/bsp/gd32vf103_rcu.c ****     \param[out] none
 534:arch/riscv/mach-gd32vf10x/bsp/gd32vf103_rcu.c ****     \retval     none
 535:arch/riscv/mach-gd32vf10x/bsp/gd32vf103_rcu.c **** */
 536:arch/riscv/mach-gd32vf10x/bsp/gd32vf103_rcu.c **** void rcu_rtc_clock_config(uint32_t rtc_clock_source)
 537:arch/riscv/mach-gd32vf10x/bsp/gd32vf103_rcu.c **** {
 538:arch/riscv/mach-gd32vf10x/bsp/gd32vf103_rcu.c ****     uint32_t reg;
 539:arch/riscv/mach-gd32vf10x/bsp/gd32vf103_rcu.c ****     
 540:arch/riscv/mach-gd32vf10x/bsp/gd32vf103_rcu.c ****     reg = RCU_BDCTL; 
 541:arch/riscv/mach-gd32vf10x/bsp/gd32vf103_rcu.c ****     /* reset the RTCSRC bits and set according to rtc_clock_source */
 542:arch/riscv/mach-gd32vf10x/bsp/gd32vf103_rcu.c ****     reg &= ~RCU_BDCTL_RTCSRC;
 543:arch/riscv/mach-gd32vf10x/bsp/gd32vf103_rcu.c ****     RCU_BDCTL = (reg | rtc_clock_source);
 544:arch/riscv/mach-gd32vf10x/bsp/gd32vf103_rcu.c **** }
 545:arch/riscv/mach-gd32vf10x/bsp/gd32vf103_rcu.c **** 
 546:arch/riscv/mach-gd32vf10x/bsp/gd32vf103_rcu.c **** /*!
 547:arch/riscv/mach-gd32vf10x/bsp/gd32vf103_rcu.c ****     \brief      configure the I2S1 clock source selection
 548:arch/riscv/mach-gd32vf10x/bsp/gd32vf103_rcu.c ****     \param[in]  i2s_clock_source: I2S1 clock source selection
GAS LISTING C:\Users\test\AppData\Local\Temp\cciHZyrV.s 			page 11


 549:arch/riscv/mach-gd32vf10x/bsp/gd32vf103_rcu.c ****                 only one parameter can be selected which is shown as below:
 550:arch/riscv/mach-gd32vf10x/bsp/gd32vf103_rcu.c ****       \arg        RCU_I2S1SRC_CKSYS: System clock selected as I2S1 source clock
 551:arch/riscv/mach-gd32vf10x/bsp/gd32vf103_rcu.c ****       \arg        RCU_I2S1SRC_CKPLL2_MUL2: CK_PLL2x2 selected as I2S1 source clock
 552:arch/riscv/mach-gd32vf10x/bsp/gd32vf103_rcu.c ****     \param[out] none
 553:arch/riscv/mach-gd32vf10x/bsp/gd32vf103_rcu.c ****     \retval     none
 554:arch/riscv/mach-gd32vf10x/bsp/gd32vf103_rcu.c **** */
 555:arch/riscv/mach-gd32vf10x/bsp/gd32vf103_rcu.c **** void rcu_i2s1_clock_config(uint32_t i2s_clock_source)
 556:arch/riscv/mach-gd32vf10x/bsp/gd32vf103_rcu.c **** {
 557:arch/riscv/mach-gd32vf10x/bsp/gd32vf103_rcu.c ****     uint32_t reg;
 558:arch/riscv/mach-gd32vf10x/bsp/gd32vf103_rcu.c ****     
 559:arch/riscv/mach-gd32vf10x/bsp/gd32vf103_rcu.c ****     reg = RCU_CFG1; 
 560:arch/riscv/mach-gd32vf10x/bsp/gd32vf103_rcu.c ****     /* reset the I2S1SEL bit and set according to i2s_clock_source */
 561:arch/riscv/mach-gd32vf10x/bsp/gd32vf103_rcu.c ****     reg &= ~RCU_CFG1_I2S1SEL;
 562:arch/riscv/mach-gd32vf10x/bsp/gd32vf103_rcu.c ****     RCU_CFG1 = (reg | i2s_clock_source);
 563:arch/riscv/mach-gd32vf10x/bsp/gd32vf103_rcu.c **** }
 564:arch/riscv/mach-gd32vf10x/bsp/gd32vf103_rcu.c **** 
 565:arch/riscv/mach-gd32vf10x/bsp/gd32vf103_rcu.c **** /*!
 566:arch/riscv/mach-gd32vf10x/bsp/gd32vf103_rcu.c ****     \brief      configure the I2S2 clock source selection
 567:arch/riscv/mach-gd32vf10x/bsp/gd32vf103_rcu.c ****     \param[in]  i2s_clock_source: I2S2 clock source selection
 568:arch/riscv/mach-gd32vf10x/bsp/gd32vf103_rcu.c ****                 only one parameter can be selected which is shown as below:
 569:arch/riscv/mach-gd32vf10x/bsp/gd32vf103_rcu.c ****       \arg        RCU_I2S2SRC_CKSYS: system clock selected as I2S2 source clock
 570:arch/riscv/mach-gd32vf10x/bsp/gd32vf103_rcu.c ****       \arg        RCU_I2S2SRC_CKPLL2_MUL2: CK_PLL2x2 selected as I2S2 source clock
 571:arch/riscv/mach-gd32vf10x/bsp/gd32vf103_rcu.c ****     \param[out] none
 572:arch/riscv/mach-gd32vf10x/bsp/gd32vf103_rcu.c ****     \retval     none
 573:arch/riscv/mach-gd32vf10x/bsp/gd32vf103_rcu.c **** */
 574:arch/riscv/mach-gd32vf10x/bsp/gd32vf103_rcu.c **** void rcu_i2s2_clock_config(uint32_t i2s_clock_source)
 575:arch/riscv/mach-gd32vf10x/bsp/gd32vf103_rcu.c **** {
 576:arch/riscv/mach-gd32vf10x/bsp/gd32vf103_rcu.c ****     uint32_t reg;
 577:arch/riscv/mach-gd32vf10x/bsp/gd32vf103_rcu.c ****     
 578:arch/riscv/mach-gd32vf10x/bsp/gd32vf103_rcu.c ****     reg = RCU_CFG1; 
 579:arch/riscv/mach-gd32vf10x/bsp/gd32vf103_rcu.c ****     /* reset the I2S2SEL bit and set according to i2s_clock_source */
 580:arch/riscv/mach-gd32vf10x/bsp/gd32vf103_rcu.c ****     reg &= ~RCU_CFG1_I2S2SEL;
 581:arch/riscv/mach-gd32vf10x/bsp/gd32vf103_rcu.c ****     RCU_CFG1 = (reg | i2s_clock_source);
 582:arch/riscv/mach-gd32vf10x/bsp/gd32vf103_rcu.c **** }
 583:arch/riscv/mach-gd32vf10x/bsp/gd32vf103_rcu.c **** 
 584:arch/riscv/mach-gd32vf10x/bsp/gd32vf103_rcu.c **** /*!
 585:arch/riscv/mach-gd32vf10x/bsp/gd32vf103_rcu.c ****     \brief      get the clock stabilization and periphral reset flags
 586:arch/riscv/mach-gd32vf10x/bsp/gd32vf103_rcu.c ****     \param[in]  flag: the clock stabilization and periphral reset flags, refer to rcu_flag_enum
 587:arch/riscv/mach-gd32vf10x/bsp/gd32vf103_rcu.c ****                 only one parameter can be selected which is shown as below:
 588:arch/riscv/mach-gd32vf10x/bsp/gd32vf103_rcu.c ****       \arg        RCU_FLAG_IRC8MSTB: IRC8M stabilization flag
 589:arch/riscv/mach-gd32vf10x/bsp/gd32vf103_rcu.c ****       \arg        RCU_FLAG_HXTALSTB: HXTAL stabilization flag
 590:arch/riscv/mach-gd32vf10x/bsp/gd32vf103_rcu.c ****       \arg        RCU_FLAG_PLLSTB: PLL stabilization flag
 591:arch/riscv/mach-gd32vf10x/bsp/gd32vf103_rcu.c ****       \arg        RCU_FLAG_PLL1STB: PLL1 stabilization flag
 592:arch/riscv/mach-gd32vf10x/bsp/gd32vf103_rcu.c ****       \arg        RCU_FLAG_PLL2STB: PLL2 stabilization flag
 593:arch/riscv/mach-gd32vf10x/bsp/gd32vf103_rcu.c ****       \arg        RCU_FLAG_LXTALSTB: LXTAL stabilization flag
 594:arch/riscv/mach-gd32vf10x/bsp/gd32vf103_rcu.c ****       \arg        RCU_FLAG_IRC40KSTB: IRC40K stabilization flag
 595:arch/riscv/mach-gd32vf10x/bsp/gd32vf103_rcu.c ****       \arg        RCU_FLAG_EPRST: external PIN reset flag
 596:arch/riscv/mach-gd32vf10x/bsp/gd32vf103_rcu.c ****       \arg        RCU_FLAG_PORRST: power reset flag
 597:arch/riscv/mach-gd32vf10x/bsp/gd32vf103_rcu.c ****       \arg        RCU_FLAG_SWRST: software reset flag
 598:arch/riscv/mach-gd32vf10x/bsp/gd32vf103_rcu.c ****       \arg        RCU_FLAG_FWDGTRST: free watchdog timer reset flag
 599:arch/riscv/mach-gd32vf10x/bsp/gd32vf103_rcu.c ****       \arg        RCU_FLAG_WWDGTRST: window watchdog timer reset flag
 600:arch/riscv/mach-gd32vf10x/bsp/gd32vf103_rcu.c ****       \arg        RCU_FLAG_LPRST: low-power reset flag
 601:arch/riscv/mach-gd32vf10x/bsp/gd32vf103_rcu.c ****     \param[out] none
 602:arch/riscv/mach-gd32vf10x/bsp/gd32vf103_rcu.c ****     \retval     FlagStatus: SET or RESET
 603:arch/riscv/mach-gd32vf10x/bsp/gd32vf103_rcu.c **** */
 604:arch/riscv/mach-gd32vf10x/bsp/gd32vf103_rcu.c **** FlagStatus rcu_flag_get(rcu_flag_enum flag)
 605:arch/riscv/mach-gd32vf10x/bsp/gd32vf103_rcu.c **** {
GAS LISTING C:\Users\test\AppData\Local\Temp\cciHZyrV.s 			page 12


 606:arch/riscv/mach-gd32vf10x/bsp/gd32vf103_rcu.c ****     /* get the rcu flag */
 607:arch/riscv/mach-gd32vf10x/bsp/gd32vf103_rcu.c ****     if(RESET != (RCU_REG_VAL(flag) & BIT(RCU_BIT_POS(flag)))){
  24              		.loc 1 607 18
  25 000a B7160240 		li	a3,1073876992
  26              	.LBE63:
  27              	.LBE62:
  28              	.LBE61:
  29              	.LBE60:
  55:arch/riscv/mach-gd32vf10x/bsp/gd32vf103_rcu.c ****     rcu_osci_stab_wait(RCU_IRC8M);
  30              		.loc 1 55 13
  31 000e 93E71700 		ori	a5,a5,1
  32 0012 1CC2     		sw	a5,0(a2)
  56:arch/riscv/mach-gd32vf10x/bsp/gd32vf103_rcu.c ****     rcu_osci_stab_wait(RCU_IRC8M);
  33              		.loc 1 56 5 is_stmt 1
  34              	.LVL0:
  35              	.LBB72:
  36              	.LBB70:
 608:arch/riscv/mach-gd32vf10x/bsp/gd32vf103_rcu.c ****         return SET;
 609:arch/riscv/mach-gd32vf10x/bsp/gd32vf103_rcu.c ****     }else{
 610:arch/riscv/mach-gd32vf10x/bsp/gd32vf103_rcu.c ****         return RESET;
 611:arch/riscv/mach-gd32vf10x/bsp/gd32vf103_rcu.c ****     }
 612:arch/riscv/mach-gd32vf10x/bsp/gd32vf103_rcu.c **** }
 613:arch/riscv/mach-gd32vf10x/bsp/gd32vf103_rcu.c **** 
 614:arch/riscv/mach-gd32vf10x/bsp/gd32vf103_rcu.c **** /*!
 615:arch/riscv/mach-gd32vf10x/bsp/gd32vf103_rcu.c ****     \brief      clear all the reset flag
 616:arch/riscv/mach-gd32vf10x/bsp/gd32vf103_rcu.c ****     \param[in]  none
 617:arch/riscv/mach-gd32vf10x/bsp/gd32vf103_rcu.c ****     \param[out] none
 618:arch/riscv/mach-gd32vf10x/bsp/gd32vf103_rcu.c ****     \retval     none
 619:arch/riscv/mach-gd32vf10x/bsp/gd32vf103_rcu.c **** */
 620:arch/riscv/mach-gd32vf10x/bsp/gd32vf103_rcu.c **** void rcu_all_reset_flag_clear(void)
 621:arch/riscv/mach-gd32vf10x/bsp/gd32vf103_rcu.c **** {
 622:arch/riscv/mach-gd32vf10x/bsp/gd32vf103_rcu.c ****     RCU_RSTSCK |= RCU_RSTSCK_RSTFC;
 623:arch/riscv/mach-gd32vf10x/bsp/gd32vf103_rcu.c **** }
 624:arch/riscv/mach-gd32vf10x/bsp/gd32vf103_rcu.c **** 
 625:arch/riscv/mach-gd32vf10x/bsp/gd32vf103_rcu.c **** /*!
 626:arch/riscv/mach-gd32vf10x/bsp/gd32vf103_rcu.c ****     \brief      get the clock stabilization interrupt and ckm flags
 627:arch/riscv/mach-gd32vf10x/bsp/gd32vf103_rcu.c ****     \param[in]  int_flag: interrupt and ckm flags, refer to rcu_int_flag_enum
 628:arch/riscv/mach-gd32vf10x/bsp/gd32vf103_rcu.c ****                 only one parameter can be selected which is shown as below:
 629:arch/riscv/mach-gd32vf10x/bsp/gd32vf103_rcu.c ****       \arg        RCU_INT_FLAG_IRC40KSTB: IRC40K stabilization interrupt flag
 630:arch/riscv/mach-gd32vf10x/bsp/gd32vf103_rcu.c ****       \arg        RCU_INT_FLAG_LXTALSTB: LXTAL stabilization interrupt flag
 631:arch/riscv/mach-gd32vf10x/bsp/gd32vf103_rcu.c ****       \arg        RCU_INT_FLAG_IRC8MSTB: IRC8M stabilization interrupt flag
 632:arch/riscv/mach-gd32vf10x/bsp/gd32vf103_rcu.c ****       \arg        RCU_INT_FLAG_HXTALSTB: HXTAL stabilization interrupt flag
 633:arch/riscv/mach-gd32vf10x/bsp/gd32vf103_rcu.c ****       \arg        RCU_INT_FLAG_PLLSTB: PLL stabilization interrupt flag
 634:arch/riscv/mach-gd32vf10x/bsp/gd32vf103_rcu.c ****       \arg        RCU_INT_FLAG_PLL1STB: PLL1 stabilization interrupt flag
 635:arch/riscv/mach-gd32vf10x/bsp/gd32vf103_rcu.c ****       \arg        RCU_INT_FLAG_PLL2STB: PLL2 stabilization interrupt flag
 636:arch/riscv/mach-gd32vf10x/bsp/gd32vf103_rcu.c ****       \arg        RCU_INT_FLAG_CKM: HXTAL clock stuck interrupt flag
 637:arch/riscv/mach-gd32vf10x/bsp/gd32vf103_rcu.c ****     \param[out] none
 638:arch/riscv/mach-gd32vf10x/bsp/gd32vf103_rcu.c ****     \retval     FlagStatus: SET or RESET
 639:arch/riscv/mach-gd32vf10x/bsp/gd32vf103_rcu.c **** */
 640:arch/riscv/mach-gd32vf10x/bsp/gd32vf103_rcu.c **** FlagStatus rcu_interrupt_flag_get(rcu_int_flag_enum int_flag)
 641:arch/riscv/mach-gd32vf10x/bsp/gd32vf103_rcu.c **** {
 642:arch/riscv/mach-gd32vf10x/bsp/gd32vf103_rcu.c ****     /* get the rcu interrupt flag */
 643:arch/riscv/mach-gd32vf10x/bsp/gd32vf103_rcu.c ****     if(RESET != (RCU_REG_VAL(int_flag) & BIT(RCU_BIT_POS(int_flag)))){
 644:arch/riscv/mach-gd32vf10x/bsp/gd32vf103_rcu.c ****         return SET;
 645:arch/riscv/mach-gd32vf10x/bsp/gd32vf103_rcu.c ****     }else{
 646:arch/riscv/mach-gd32vf10x/bsp/gd32vf103_rcu.c ****         return RESET;
 647:arch/riscv/mach-gd32vf10x/bsp/gd32vf103_rcu.c ****     }
GAS LISTING C:\Users\test\AppData\Local\Temp\cciHZyrV.s 			page 13


 648:arch/riscv/mach-gd32vf10x/bsp/gd32vf103_rcu.c **** }
 649:arch/riscv/mach-gd32vf10x/bsp/gd32vf103_rcu.c **** 
 650:arch/riscv/mach-gd32vf10x/bsp/gd32vf103_rcu.c **** /*!
 651:arch/riscv/mach-gd32vf10x/bsp/gd32vf103_rcu.c ****     \brief      clear the interrupt flags
 652:arch/riscv/mach-gd32vf10x/bsp/gd32vf103_rcu.c ****     \param[in]  int_flag_clear: clock stabilization and stuck interrupt flags clear, refer to rcu_i
 653:arch/riscv/mach-gd32vf10x/bsp/gd32vf103_rcu.c ****                 only one parameter can be selected which is shown as below:
 654:arch/riscv/mach-gd32vf10x/bsp/gd32vf103_rcu.c ****       \arg        RCU_INT_FLAG_IRC40KSTB_CLR: IRC40K stabilization interrupt flag clear
 655:arch/riscv/mach-gd32vf10x/bsp/gd32vf103_rcu.c ****       \arg        RCU_INT_FLAG_LXTALSTB_CLR: LXTAL stabilization interrupt flag clear
 656:arch/riscv/mach-gd32vf10x/bsp/gd32vf103_rcu.c ****       \arg        RCU_INT_FLAG_IRC8MSTB_CLR: IRC8M stabilization interrupt flag clear
 657:arch/riscv/mach-gd32vf10x/bsp/gd32vf103_rcu.c ****       \arg        RCU_INT_FLAG_HXTALSTB_CLR: HXTAL stabilization interrupt flag clear
 658:arch/riscv/mach-gd32vf10x/bsp/gd32vf103_rcu.c ****       \arg        RCU_INT_FLAG_PLLSTB_CLR: PLL stabilization interrupt flag clear
 659:arch/riscv/mach-gd32vf10x/bsp/gd32vf103_rcu.c ****       \arg        RCU_INT_FLAG_PLL1STB_CLR: PLL1 stabilization interrupt flag clear
 660:arch/riscv/mach-gd32vf10x/bsp/gd32vf103_rcu.c ****       \arg        RCU_INT_FLAG_PLL2STB_CLR: PLL2 stabilization interrupt flag clear
 661:arch/riscv/mach-gd32vf10x/bsp/gd32vf103_rcu.c ****       \arg        RCU_INT_FLAG_CKM_CLR: clock stuck interrupt flag clear
 662:arch/riscv/mach-gd32vf10x/bsp/gd32vf103_rcu.c ****     \param[out] none
 663:arch/riscv/mach-gd32vf10x/bsp/gd32vf103_rcu.c ****     \retval     none
 664:arch/riscv/mach-gd32vf10x/bsp/gd32vf103_rcu.c **** */
 665:arch/riscv/mach-gd32vf10x/bsp/gd32vf103_rcu.c **** void rcu_interrupt_flag_clear(rcu_int_flag_clear_enum int_flag_clear)
 666:arch/riscv/mach-gd32vf10x/bsp/gd32vf103_rcu.c **** {
 667:arch/riscv/mach-gd32vf10x/bsp/gd32vf103_rcu.c ****     RCU_REG_VAL(int_flag_clear) |= BIT(RCU_BIT_POS(int_flag_clear));
 668:arch/riscv/mach-gd32vf10x/bsp/gd32vf103_rcu.c **** }
 669:arch/riscv/mach-gd32vf10x/bsp/gd32vf103_rcu.c **** 
 670:arch/riscv/mach-gd32vf10x/bsp/gd32vf103_rcu.c **** /*!
 671:arch/riscv/mach-gd32vf10x/bsp/gd32vf103_rcu.c ****     \brief      enable the stabilization interrupt
 672:arch/riscv/mach-gd32vf10x/bsp/gd32vf103_rcu.c ****     \param[in]  stab_int: clock stabilization interrupt, refer to rcu_int_enum
 673:arch/riscv/mach-gd32vf10x/bsp/gd32vf103_rcu.c ****                 Only one parameter can be selected which is shown as below:
 674:arch/riscv/mach-gd32vf10x/bsp/gd32vf103_rcu.c ****       \arg        RCU_INT_IRC40KSTB: IRC40K stabilization interrupt enable
 675:arch/riscv/mach-gd32vf10x/bsp/gd32vf103_rcu.c ****       \arg        RCU_INT_LXTALSTB: LXTAL stabilization interrupt enable
 676:arch/riscv/mach-gd32vf10x/bsp/gd32vf103_rcu.c ****       \arg        RCU_INT_IRC8MSTB: IRC8M stabilization interrupt enable
 677:arch/riscv/mach-gd32vf10x/bsp/gd32vf103_rcu.c ****       \arg        RCU_INT_HXTALSTB: HXTAL stabilization interrupt enable
 678:arch/riscv/mach-gd32vf10x/bsp/gd32vf103_rcu.c ****       \arg        RCU_INT_PLLSTB: PLL stabilization interrupt enable
 679:arch/riscv/mach-gd32vf10x/bsp/gd32vf103_rcu.c ****       \arg        RCU_INT_PLL1STB: PLL1 stabilization interrupt enable
 680:arch/riscv/mach-gd32vf10x/bsp/gd32vf103_rcu.c ****       \arg        RCU_INT_PLL2STB: PLL2 stabilization interrupt enable
 681:arch/riscv/mach-gd32vf10x/bsp/gd32vf103_rcu.c ****     \param[out] none
 682:arch/riscv/mach-gd32vf10x/bsp/gd32vf103_rcu.c ****     \retval     none
 683:arch/riscv/mach-gd32vf10x/bsp/gd32vf103_rcu.c **** */
 684:arch/riscv/mach-gd32vf10x/bsp/gd32vf103_rcu.c **** void rcu_interrupt_enable(rcu_int_enum stab_int)
 685:arch/riscv/mach-gd32vf10x/bsp/gd32vf103_rcu.c **** {
 686:arch/riscv/mach-gd32vf10x/bsp/gd32vf103_rcu.c ****     RCU_REG_VAL(stab_int) |= BIT(RCU_BIT_POS(stab_int));
 687:arch/riscv/mach-gd32vf10x/bsp/gd32vf103_rcu.c **** }
 688:arch/riscv/mach-gd32vf10x/bsp/gd32vf103_rcu.c **** 
 689:arch/riscv/mach-gd32vf10x/bsp/gd32vf103_rcu.c **** /*!
 690:arch/riscv/mach-gd32vf10x/bsp/gd32vf103_rcu.c ****     \brief      disable the stabilization interrupt
 691:arch/riscv/mach-gd32vf10x/bsp/gd32vf103_rcu.c ****     \param[in]  stab_int: clock stabilization interrupt, refer to rcu_int_enum
 692:arch/riscv/mach-gd32vf10x/bsp/gd32vf103_rcu.c ****                 only one parameter can be selected which is shown as below:
 693:arch/riscv/mach-gd32vf10x/bsp/gd32vf103_rcu.c ****       \arg        RCU_INT_IRC40KSTB: IRC40K stabilization interrupt enable
 694:arch/riscv/mach-gd32vf10x/bsp/gd32vf103_rcu.c ****       \arg        RCU_INT_LXTALSTB: LXTAL stabilization interrupt enable
 695:arch/riscv/mach-gd32vf10x/bsp/gd32vf103_rcu.c ****       \arg        RCU_INT_IRC8MSTB: IRC8M stabilization interrupt enable
 696:arch/riscv/mach-gd32vf10x/bsp/gd32vf103_rcu.c ****       \arg        RCU_INT_HXTALSTB: HXTAL stabilization interrupt enable
 697:arch/riscv/mach-gd32vf10x/bsp/gd32vf103_rcu.c ****       \arg        RCU_INT_PLLSTB: PLL stabilization interrupt enable
 698:arch/riscv/mach-gd32vf10x/bsp/gd32vf103_rcu.c ****       \arg        RCU_INT_PLL1STB: PLL1 stabilization interrupt enable
 699:arch/riscv/mach-gd32vf10x/bsp/gd32vf103_rcu.c ****       \arg        RCU_INT_PLL2STB: PLL2 stabilization interrupt enable
 700:arch/riscv/mach-gd32vf10x/bsp/gd32vf103_rcu.c ****     \param[out] none
 701:arch/riscv/mach-gd32vf10x/bsp/gd32vf103_rcu.c ****     \retval     none
 702:arch/riscv/mach-gd32vf10x/bsp/gd32vf103_rcu.c **** */
 703:arch/riscv/mach-gd32vf10x/bsp/gd32vf103_rcu.c **** void rcu_interrupt_disable(rcu_int_enum stab_int)
 704:arch/riscv/mach-gd32vf10x/bsp/gd32vf103_rcu.c **** {
GAS LISTING C:\Users\test\AppData\Local\Temp\cciHZyrV.s 			page 14


 705:arch/riscv/mach-gd32vf10x/bsp/gd32vf103_rcu.c ****     RCU_REG_VAL(stab_int) &= ~BIT(RCU_BIT_POS(stab_int));
 706:arch/riscv/mach-gd32vf10x/bsp/gd32vf103_rcu.c **** }
 707:arch/riscv/mach-gd32vf10x/bsp/gd32vf103_rcu.c **** 
 708:arch/riscv/mach-gd32vf10x/bsp/gd32vf103_rcu.c **** /*!
 709:arch/riscv/mach-gd32vf10x/bsp/gd32vf103_rcu.c ****     \brief      wait for oscillator stabilization flags is SET or oscillator startup is timeout
 710:arch/riscv/mach-gd32vf10x/bsp/gd32vf103_rcu.c ****     \param[in]  osci: oscillator types, refer to rcu_osci_type_enum
 711:arch/riscv/mach-gd32vf10x/bsp/gd32vf103_rcu.c ****                 only one parameter can be selected which is shown as below:
 712:arch/riscv/mach-gd32vf10x/bsp/gd32vf103_rcu.c ****       \arg        RCU_HXTAL: high speed crystal oscillator(HXTAL)
 713:arch/riscv/mach-gd32vf10x/bsp/gd32vf103_rcu.c ****       \arg        RCU_LXTAL: low speed crystal oscillator(LXTAL)
 714:arch/riscv/mach-gd32vf10x/bsp/gd32vf103_rcu.c ****       \arg        RCU_IRC8M: internal 8M RC oscillators(IRC8M)
 715:arch/riscv/mach-gd32vf10x/bsp/gd32vf103_rcu.c ****       \arg        RCU_IRC40K: internal 40K RC oscillator(IRC40K)
 716:arch/riscv/mach-gd32vf10x/bsp/gd32vf103_rcu.c ****       \arg        RCU_PLL_CK: phase locked loop(PLL)
 717:arch/riscv/mach-gd32vf10x/bsp/gd32vf103_rcu.c ****       \arg        RCU_PLL1_CK: phase locked loop 1
 718:arch/riscv/mach-gd32vf10x/bsp/gd32vf103_rcu.c ****       \arg        RCU_PLL2_CK: phase locked loop 2
 719:arch/riscv/mach-gd32vf10x/bsp/gd32vf103_rcu.c ****     \param[out] none
 720:arch/riscv/mach-gd32vf10x/bsp/gd32vf103_rcu.c ****     \retval     ErrStatus: SUCCESS or ERROR
 721:arch/riscv/mach-gd32vf10x/bsp/gd32vf103_rcu.c **** */
 722:arch/riscv/mach-gd32vf10x/bsp/gd32vf103_rcu.c **** ErrStatus rcu_osci_stab_wait(rcu_osci_type_enum osci)
 723:arch/riscv/mach-gd32vf10x/bsp/gd32vf103_rcu.c **** {
 724:arch/riscv/mach-gd32vf10x/bsp/gd32vf103_rcu.c ****     uint32_t stb_cnt = 0U;
  37              		.loc 1 724 5
 725:arch/riscv/mach-gd32vf10x/bsp/gd32vf103_rcu.c ****     ErrStatus reval = ERROR;
  38              		.loc 1 725 5
 726:arch/riscv/mach-gd32vf10x/bsp/gd32vf103_rcu.c ****     FlagStatus osci_stat = RESET;
  39              		.loc 1 726 5
 727:arch/riscv/mach-gd32vf10x/bsp/gd32vf103_rcu.c ****     
 728:arch/riscv/mach-gd32vf10x/bsp/gd32vf103_rcu.c ****     switch(osci){
  40              		.loc 1 728 5
  41              	.L3:
 729:arch/riscv/mach-gd32vf10x/bsp/gd32vf103_rcu.c ****     /* wait HXTAL stable */
 730:arch/riscv/mach-gd32vf10x/bsp/gd32vf103_rcu.c ****     case RCU_HXTAL:
 731:arch/riscv/mach-gd32vf10x/bsp/gd32vf103_rcu.c ****         while((RESET == osci_stat) && (HXTAL_STARTUP_TIMEOUT != stb_cnt)){
 732:arch/riscv/mach-gd32vf10x/bsp/gd32vf103_rcu.c ****             osci_stat = rcu_flag_get(RCU_FLAG_HXTALSTB);
 733:arch/riscv/mach-gd32vf10x/bsp/gd32vf103_rcu.c ****             stb_cnt++;
 734:arch/riscv/mach-gd32vf10x/bsp/gd32vf103_rcu.c ****         }
 735:arch/riscv/mach-gd32vf10x/bsp/gd32vf103_rcu.c **** 
 736:arch/riscv/mach-gd32vf10x/bsp/gd32vf103_rcu.c ****         /* check whether flag is set or not */
 737:arch/riscv/mach-gd32vf10x/bsp/gd32vf103_rcu.c ****         if(RESET != rcu_flag_get(RCU_FLAG_HXTALSTB)){
 738:arch/riscv/mach-gd32vf10x/bsp/gd32vf103_rcu.c ****             reval = SUCCESS;
 739:arch/riscv/mach-gd32vf10x/bsp/gd32vf103_rcu.c ****         }
 740:arch/riscv/mach-gd32vf10x/bsp/gd32vf103_rcu.c ****         break;
 741:arch/riscv/mach-gd32vf10x/bsp/gd32vf103_rcu.c **** 
 742:arch/riscv/mach-gd32vf10x/bsp/gd32vf103_rcu.c ****     /* wait LXTAL stable */
 743:arch/riscv/mach-gd32vf10x/bsp/gd32vf103_rcu.c ****     case RCU_LXTAL:
 744:arch/riscv/mach-gd32vf10x/bsp/gd32vf103_rcu.c ****         while((RESET == osci_stat) && (LXTAL_STARTUP_TIMEOUT != stb_cnt)){
 745:arch/riscv/mach-gd32vf10x/bsp/gd32vf103_rcu.c ****             osci_stat = rcu_flag_get(RCU_FLAG_LXTALSTB);
 746:arch/riscv/mach-gd32vf10x/bsp/gd32vf103_rcu.c ****             stb_cnt++;
 747:arch/riscv/mach-gd32vf10x/bsp/gd32vf103_rcu.c ****         }
 748:arch/riscv/mach-gd32vf10x/bsp/gd32vf103_rcu.c **** 
 749:arch/riscv/mach-gd32vf10x/bsp/gd32vf103_rcu.c ****         /* check whether flag is set or not */
 750:arch/riscv/mach-gd32vf10x/bsp/gd32vf103_rcu.c ****         if(RESET != rcu_flag_get(RCU_FLAG_LXTALSTB)){
 751:arch/riscv/mach-gd32vf10x/bsp/gd32vf103_rcu.c ****             reval = SUCCESS;
 752:arch/riscv/mach-gd32vf10x/bsp/gd32vf103_rcu.c ****         }
 753:arch/riscv/mach-gd32vf10x/bsp/gd32vf103_rcu.c ****         break;
 754:arch/riscv/mach-gd32vf10x/bsp/gd32vf103_rcu.c **** 
 755:arch/riscv/mach-gd32vf10x/bsp/gd32vf103_rcu.c ****     /* wait IRC8M stable */
 756:arch/riscv/mach-gd32vf10x/bsp/gd32vf103_rcu.c ****     case RCU_IRC8M:
GAS LISTING C:\Users\test\AppData\Local\Temp\cciHZyrV.s 			page 15


 757:arch/riscv/mach-gd32vf10x/bsp/gd32vf103_rcu.c ****         while((RESET == osci_stat) && (IRC8M_STARTUP_TIMEOUT != stb_cnt)){
 758:arch/riscv/mach-gd32vf10x/bsp/gd32vf103_rcu.c ****             osci_stat = rcu_flag_get(RCU_FLAG_IRC8MSTB);
  42              		.loc 1 758 13
  43              	.LBB66:
  44              	.LBB64:
 607:arch/riscv/mach-gd32vf10x/bsp/gd32vf103_rcu.c ****         return SET;
  45              		.loc 1 607 5
 610:arch/riscv/mach-gd32vf10x/bsp/gd32vf103_rcu.c ****     }
  46              		.loc 1 610 9
  47              	.LBE64:
  48              	.LBE66:
 759:arch/riscv/mach-gd32vf10x/bsp/gd32vf103_rcu.c ****             stb_cnt++;
  49              		.loc 1 759 13
  50              	.LBB67:
  51              	.LBB65:
 607:arch/riscv/mach-gd32vf10x/bsp/gd32vf103_rcu.c ****         return SET;
  52              		.loc 1 607 18 is_stmt 0
  53 0014 9C42     		lw	a5,0(a3)
  54 0016 7D17     		addi	a4,a4,-1
  55              	.LVL1:
 607:arch/riscv/mach-gd32vf10x/bsp/gd32vf103_rcu.c ****         return SET;
  56              		.loc 1 607 7
  57 0018 898B     		andi	a5,a5,2
  58 001a A9C7     		beq	a5,zero,.L6
  59              	.L2:
  60              	.LBE65:
  61              	.LBE67:
 760:arch/riscv/mach-gd32vf10x/bsp/gd32vf103_rcu.c ****         }
 761:arch/riscv/mach-gd32vf10x/bsp/gd32vf103_rcu.c **** 
 762:arch/riscv/mach-gd32vf10x/bsp/gd32vf103_rcu.c ****         /* check whether flag is set or not */
 763:arch/riscv/mach-gd32vf10x/bsp/gd32vf103_rcu.c ****         if(RESET != rcu_flag_get(RCU_FLAG_IRC8MSTB)){
  62              		.loc 1 763 9 is_stmt 1
  63              	.LVL2:
  64              	.LBB68:
  65              	.LBB69:
 607:arch/riscv/mach-gd32vf10x/bsp/gd32vf103_rcu.c ****         return SET;
  66              		.loc 1 607 5
 607:arch/riscv/mach-gd32vf10x/bsp/gd32vf103_rcu.c ****         return SET;
  67              		.loc 1 607 18 is_stmt 0
  68 001c B7170240 		li	a5,1073876992
  69 0020 9843     		lw	a4,0(a5)
  70              	.LVL3:
  71              	.LBE69:
  72              	.LBE68:
 764:arch/riscv/mach-gd32vf10x/bsp/gd32vf103_rcu.c ****             reval = SUCCESS;
 765:arch/riscv/mach-gd32vf10x/bsp/gd32vf103_rcu.c ****         }
 766:arch/riscv/mach-gd32vf10x/bsp/gd32vf103_rcu.c ****         break;
 767:arch/riscv/mach-gd32vf10x/bsp/gd32vf103_rcu.c **** 
 768:arch/riscv/mach-gd32vf10x/bsp/gd32vf103_rcu.c ****     /* wait IRC40K stable */
 769:arch/riscv/mach-gd32vf10x/bsp/gd32vf103_rcu.c ****     case RCU_IRC40K:
 770:arch/riscv/mach-gd32vf10x/bsp/gd32vf103_rcu.c ****         while((RESET == osci_stat) && (OSC_STARTUP_TIMEOUT != stb_cnt)){
 771:arch/riscv/mach-gd32vf10x/bsp/gd32vf103_rcu.c ****             osci_stat = rcu_flag_get(RCU_FLAG_IRC40KSTB);
 772:arch/riscv/mach-gd32vf10x/bsp/gd32vf103_rcu.c ****             stb_cnt++;
 773:arch/riscv/mach-gd32vf10x/bsp/gd32vf103_rcu.c ****         }
 774:arch/riscv/mach-gd32vf10x/bsp/gd32vf103_rcu.c **** 
 775:arch/riscv/mach-gd32vf10x/bsp/gd32vf103_rcu.c ****         /* check whether flag is set or not */
 776:arch/riscv/mach-gd32vf10x/bsp/gd32vf103_rcu.c ****         if(RESET != rcu_flag_get(RCU_FLAG_IRC40KSTB)){
GAS LISTING C:\Users\test\AppData\Local\Temp\cciHZyrV.s 			page 16


 777:arch/riscv/mach-gd32vf10x/bsp/gd32vf103_rcu.c ****             reval = SUCCESS;
 778:arch/riscv/mach-gd32vf10x/bsp/gd32vf103_rcu.c ****         }
 779:arch/riscv/mach-gd32vf10x/bsp/gd32vf103_rcu.c ****         break;
 780:arch/riscv/mach-gd32vf10x/bsp/gd32vf103_rcu.c **** 
 781:arch/riscv/mach-gd32vf10x/bsp/gd32vf103_rcu.c ****     /* wait PLL stable */
 782:arch/riscv/mach-gd32vf10x/bsp/gd32vf103_rcu.c ****     case RCU_PLL_CK:
 783:arch/riscv/mach-gd32vf10x/bsp/gd32vf103_rcu.c ****         while((RESET == osci_stat) && (OSC_STARTUP_TIMEOUT != stb_cnt)){
 784:arch/riscv/mach-gd32vf10x/bsp/gd32vf103_rcu.c ****             osci_stat = rcu_flag_get(RCU_FLAG_PLLSTB);
 785:arch/riscv/mach-gd32vf10x/bsp/gd32vf103_rcu.c ****             stb_cnt++;
 786:arch/riscv/mach-gd32vf10x/bsp/gd32vf103_rcu.c ****         }
 787:arch/riscv/mach-gd32vf10x/bsp/gd32vf103_rcu.c **** 
 788:arch/riscv/mach-gd32vf10x/bsp/gd32vf103_rcu.c ****         /* check whether flag is set or not */
 789:arch/riscv/mach-gd32vf10x/bsp/gd32vf103_rcu.c ****         if(RESET != rcu_flag_get(RCU_FLAG_PLLSTB)){
 790:arch/riscv/mach-gd32vf10x/bsp/gd32vf103_rcu.c ****             reval = SUCCESS;
 791:arch/riscv/mach-gd32vf10x/bsp/gd32vf103_rcu.c ****         }
 792:arch/riscv/mach-gd32vf10x/bsp/gd32vf103_rcu.c ****         break;
 793:arch/riscv/mach-gd32vf10x/bsp/gd32vf103_rcu.c ****     /* wait PLL1 stable */
 794:arch/riscv/mach-gd32vf10x/bsp/gd32vf103_rcu.c ****     case RCU_PLL1_CK:
 795:arch/riscv/mach-gd32vf10x/bsp/gd32vf103_rcu.c ****         while((RESET == osci_stat) && (OSC_STARTUP_TIMEOUT != stb_cnt)){
 796:arch/riscv/mach-gd32vf10x/bsp/gd32vf103_rcu.c ****             osci_stat = rcu_flag_get(RCU_FLAG_PLL1STB);
 797:arch/riscv/mach-gd32vf10x/bsp/gd32vf103_rcu.c ****             stb_cnt++;
 798:arch/riscv/mach-gd32vf10x/bsp/gd32vf103_rcu.c ****         }
 799:arch/riscv/mach-gd32vf10x/bsp/gd32vf103_rcu.c **** 
 800:arch/riscv/mach-gd32vf10x/bsp/gd32vf103_rcu.c ****         /* check whether flag is set or not */
 801:arch/riscv/mach-gd32vf10x/bsp/gd32vf103_rcu.c ****         if(RESET != rcu_flag_get(RCU_FLAG_PLL1STB)){
 802:arch/riscv/mach-gd32vf10x/bsp/gd32vf103_rcu.c ****             reval = SUCCESS;
 803:arch/riscv/mach-gd32vf10x/bsp/gd32vf103_rcu.c ****         }
 804:arch/riscv/mach-gd32vf10x/bsp/gd32vf103_rcu.c ****         break;
 805:arch/riscv/mach-gd32vf10x/bsp/gd32vf103_rcu.c ****     /* wait PLL2 stable */
 806:arch/riscv/mach-gd32vf10x/bsp/gd32vf103_rcu.c ****     case RCU_PLL2_CK:
 807:arch/riscv/mach-gd32vf10x/bsp/gd32vf103_rcu.c ****         while((RESET == osci_stat) && (OSC_STARTUP_TIMEOUT != stb_cnt)){
 808:arch/riscv/mach-gd32vf10x/bsp/gd32vf103_rcu.c ****             osci_stat = rcu_flag_get(RCU_FLAG_PLL2STB);
 809:arch/riscv/mach-gd32vf10x/bsp/gd32vf103_rcu.c ****             stb_cnt++;
 810:arch/riscv/mach-gd32vf10x/bsp/gd32vf103_rcu.c ****         }
 811:arch/riscv/mach-gd32vf10x/bsp/gd32vf103_rcu.c **** 
 812:arch/riscv/mach-gd32vf10x/bsp/gd32vf103_rcu.c ****         /* check whether flag is set or not */
 813:arch/riscv/mach-gd32vf10x/bsp/gd32vf103_rcu.c ****         if(RESET != rcu_flag_get(RCU_FLAG_PLL2STB)){
 814:arch/riscv/mach-gd32vf10x/bsp/gd32vf103_rcu.c ****             reval = SUCCESS;
 815:arch/riscv/mach-gd32vf10x/bsp/gd32vf103_rcu.c ****         }
 816:arch/riscv/mach-gd32vf10x/bsp/gd32vf103_rcu.c ****         break;
 817:arch/riscv/mach-gd32vf10x/bsp/gd32vf103_rcu.c **** 
 818:arch/riscv/mach-gd32vf10x/bsp/gd32vf103_rcu.c ****     default:
 819:arch/riscv/mach-gd32vf10x/bsp/gd32vf103_rcu.c ****         break;
 820:arch/riscv/mach-gd32vf10x/bsp/gd32vf103_rcu.c ****     }
 821:arch/riscv/mach-gd32vf10x/bsp/gd32vf103_rcu.c **** 
 822:arch/riscv/mach-gd32vf10x/bsp/gd32vf103_rcu.c ****     /* return value */
 823:arch/riscv/mach-gd32vf10x/bsp/gd32vf103_rcu.c ****     return reval;
  73              		.loc 1 823 5 is_stmt 1
  74              	.LBE70:
  75              	.LBE72:
  59:arch/riscv/mach-gd32vf10x/bsp/gd32vf103_rcu.c ****                   RCU_CFG0_ADCPSC | RCU_CFG0_PLLSEL | RCU_CFG0_PREDV0_LSB | RCU_CFG0_PLLMF |
  76              		.loc 1 59 5
  59:arch/riscv/mach-gd32vf10x/bsp/gd32vf103_rcu.c ****                   RCU_CFG0_ADCPSC | RCU_CFG0_PLLSEL | RCU_CFG0_PREDV0_LSB | RCU_CFG0_PLLMF |
  77              		.loc 1 59 14 is_stmt 0
  78 0022 D843     		lw	a4,4(a5)
  79 0024 B70600C0 		li	a3,-1073741824
  80 0028 B106     		addi	a3,a3,12
GAS LISTING C:\Users\test\AppData\Local\Temp\cciHZyrV.s 			page 17


  81 002a 758F     		and	a4,a4,a3
  82 002c D8C3     		sw	a4,4(a5)
  63:arch/riscv/mach-gd32vf10x/bsp/gd32vf103_rcu.c ****     RCU_CTL &= ~RCU_CTL_HXTALBPS;
  83              		.loc 1 63 5 is_stmt 1
  63:arch/riscv/mach-gd32vf10x/bsp/gd32vf103_rcu.c ****     RCU_CTL &= ~RCU_CTL_HXTALBPS;
  84              		.loc 1 63 13 is_stmt 0
  85 002e 9843     		lw	a4,0(a5)
  86 0030 B706F7FE 		li	a3,-17367040
  87 0034 FD16     		addi	a3,a3,-1
  88 0036 758F     		and	a4,a4,a3
  89 0038 98C3     		sw	a4,0(a5)
  64:arch/riscv/mach-gd32vf10x/bsp/gd32vf103_rcu.c ****     RCU_CTL &= ~(RCU_CTL_PLL1EN | RCU_CTL_PLL2EN);
  90              		.loc 1 64 5 is_stmt 1
  64:arch/riscv/mach-gd32vf10x/bsp/gd32vf103_rcu.c ****     RCU_CTL &= ~(RCU_CTL_PLL1EN | RCU_CTL_PLL2EN);
  91              		.loc 1 64 13 is_stmt 0
  92 003a 9843     		lw	a4,0(a5)
  93 003c B706FCFF 		li	a3,-262144
  94 0040 FD16     		addi	a3,a3,-1
  95 0042 758F     		and	a4,a4,a3
  96 0044 98C3     		sw	a4,0(a5)
  65:arch/riscv/mach-gd32vf10x/bsp/gd32vf103_rcu.c ****     /* reset INT and CFG1 register */
  97              		.loc 1 65 5 is_stmt 1
  65:arch/riscv/mach-gd32vf10x/bsp/gd32vf103_rcu.c ****     /* reset INT and CFG1 register */
  98              		.loc 1 65 13 is_stmt 0
  99 0046 9843     		lw	a4,0(a5)
 100 0048 B70600EC 		li	a3,-335544320
 101 004c FD16     		addi	a3,a3,-1
 102 004e 758F     		and	a4,a4,a3
 103 0050 98C3     		sw	a4,0(a5)
  67:arch/riscv/mach-gd32vf10x/bsp/gd32vf103_rcu.c ****     RCU_CFG1 &= ~(RCU_CFG1_PREDV0 | RCU_CFG1_PREDV1 | RCU_CFG1_PLL1MF | RCU_CFG1_PLL2MF |
 104              		.loc 1 67 5 is_stmt 1
  67:arch/riscv/mach-gd32vf10x/bsp/gd32vf103_rcu.c ****     RCU_CFG1 &= ~(RCU_CFG1_PREDV0 | RCU_CFG1_PREDV1 | RCU_CFG1_PLL1MF | RCU_CFG1_PLL2MF |
 105              		.loc 1 67 13 is_stmt 0
 106 0052 3707FF00 		li	a4,16711680
 107 0056 98C7     		sw	a4,8(a5)
  68:arch/riscv/mach-gd32vf10x/bsp/gd32vf103_rcu.c ****                   RCU_CFG1_PREDV0SEL | RCU_CFG1_I2S1SEL | RCU_CFG1_I2S2SEL);
 108              		.loc 1 68 5 is_stmt 1
  68:arch/riscv/mach-gd32vf10x/bsp/gd32vf103_rcu.c ****                   RCU_CFG1_PREDV0SEL | RCU_CFG1_I2S1SEL | RCU_CFG1_I2S2SEL);
 109              		.loc 1 68 14 is_stmt 0
 110 0058 D857     		lw	a4,44(a5)
 111 005a B706F8FF 		li	a3,-524288
 112 005e 758F     		and	a4,a4,a3
 113 0060 D8D7     		sw	a4,44(a5)
  70:arch/riscv/mach-gd32vf10x/bsp/gd32vf103_rcu.c **** 
 114              		.loc 1 70 1
 115 0062 8280     		ret
 116              	.LVL4:
 117              	.L6:
 118              	.LBB73:
 119              	.LBB71:
 757:arch/riscv/mach-gd32vf10x/bsp/gd32vf103_rcu.c ****             osci_stat = rcu_flag_get(RCU_FLAG_IRC8MSTB);
 120              		.loc 1 757 36
 121 0064 45FB     		bne	a4,zero,.L3
 122 0066 5DBF     		j	.L2
 123              	.LBE71:
 124              	.LBE73:
 125              		.cfi_endproc
GAS LISTING C:\Users\test\AppData\Local\Temp\cciHZyrV.s 			page 18


 126              	.LFE2:
 128              		.section	.text.rcu_periph_clock_enable,"ax",@progbits
 129              		.align	1
 130              		.globl	rcu_periph_clock_enable
 132              	rcu_periph_clock_enable:
 133              	.LFB3:
  98:arch/riscv/mach-gd32vf10x/bsp/gd32vf103_rcu.c ****     RCU_REG_VAL(periph) |= BIT(RCU_BIT_POS(periph));
 134              		.loc 1 98 1 is_stmt 1
 135              		.cfi_startproc
 136              	.LVL5:
  99:arch/riscv/mach-gd32vf10x/bsp/gd32vf103_rcu.c **** }
 137              		.loc 1 99 5
  99:arch/riscv/mach-gd32vf10x/bsp/gd32vf103_rcu.c **** }
 138              		.loc 1 99 25 is_stmt 0
 139 0000 B7170240 		li	a5,1073876992
 140 0004 13576500 		srli	a4,a0,6
 141 0008 3E97     		add	a4,a4,a5
 142 000a 1443     		lw	a3,0(a4)
  99:arch/riscv/mach-gd32vf10x/bsp/gd32vf103_rcu.c **** }
 143              		.loc 1 99 28
 144 000c 8547     		li	a5,1
 145 000e B397A700 		sll	a5,a5,a0
  99:arch/riscv/mach-gd32vf10x/bsp/gd32vf103_rcu.c **** }
 146              		.loc 1 99 25
 147 0012 D58F     		or	a5,a5,a3
 148 0014 1CC3     		sw	a5,0(a4)
 100:arch/riscv/mach-gd32vf10x/bsp/gd32vf103_rcu.c **** 
 149              		.loc 1 100 1
 150 0016 8280     		ret
 151              		.cfi_endproc
 152              	.LFE3:
 154              		.section	.text.rcu_periph_clock_disable,"ax",@progbits
 155              		.align	1
 156              		.globl	rcu_periph_clock_disable
 158              	rcu_periph_clock_disable:
 159              	.LFB4:
 128:arch/riscv/mach-gd32vf10x/bsp/gd32vf103_rcu.c ****     RCU_REG_VAL(periph) &= ~BIT(RCU_BIT_POS(periph));
 160              		.loc 1 128 1 is_stmt 1
 161              		.cfi_startproc
 162              	.LVL6:
 129:arch/riscv/mach-gd32vf10x/bsp/gd32vf103_rcu.c **** }
 163              		.loc 1 129 5
 129:arch/riscv/mach-gd32vf10x/bsp/gd32vf103_rcu.c **** }
 164              		.loc 1 129 25 is_stmt 0
 165 0000 B7170240 		li	a5,1073876992
 166 0004 13576500 		srli	a4,a0,6
 167 0008 3E97     		add	a4,a4,a5
 168 000a 1443     		lw	a3,0(a4)
 129:arch/riscv/mach-gd32vf10x/bsp/gd32vf103_rcu.c **** }
 169              		.loc 1 129 29
 170 000c 8547     		li	a5,1
 171 000e B397A700 		sll	a5,a5,a0
 129:arch/riscv/mach-gd32vf10x/bsp/gd32vf103_rcu.c **** }
 172              		.loc 1 129 28
 173 0012 93C7F7FF 		not	a5,a5
 129:arch/riscv/mach-gd32vf10x/bsp/gd32vf103_rcu.c **** }
 174              		.loc 1 129 25
GAS LISTING C:\Users\test\AppData\Local\Temp\cciHZyrV.s 			page 19


 175 0016 F58F     		and	a5,a5,a3
 176 0018 1CC3     		sw	a5,0(a4)
 130:arch/riscv/mach-gd32vf10x/bsp/gd32vf103_rcu.c **** 
 177              		.loc 1 130 1
 178 001a 8280     		ret
 179              		.cfi_endproc
 180              	.LFE4:
 182              		.section	.text.rcu_periph_clock_sleep_enable,"ax",@progbits
 183              		.align	1
 184              		.globl	rcu_periph_clock_sleep_enable
 186              	rcu_periph_clock_sleep_enable:
 187              	.LFB5:
 142:arch/riscv/mach-gd32vf10x/bsp/gd32vf103_rcu.c ****     RCU_REG_VAL(periph) |= BIT(RCU_BIT_POS(periph));
 188              		.loc 1 142 1 is_stmt 1
 189              		.cfi_startproc
 190              	.LVL7:
 143:arch/riscv/mach-gd32vf10x/bsp/gd32vf103_rcu.c **** }
 191              		.loc 1 143 5
 143:arch/riscv/mach-gd32vf10x/bsp/gd32vf103_rcu.c **** }
 192              		.loc 1 143 25 is_stmt 0
 193 0000 B7170240 		li	a5,1073876992
 194 0004 13576500 		srli	a4,a0,6
 195 0008 3E97     		add	a4,a4,a5
 196 000a 1443     		lw	a3,0(a4)
 143:arch/riscv/mach-gd32vf10x/bsp/gd32vf103_rcu.c **** }
 197              		.loc 1 143 28
 198 000c 8547     		li	a5,1
 199 000e B397A700 		sll	a5,a5,a0
 143:arch/riscv/mach-gd32vf10x/bsp/gd32vf103_rcu.c **** }
 200              		.loc 1 143 25
 201 0012 D58F     		or	a5,a5,a3
 202 0014 1CC3     		sw	a5,0(a4)
 144:arch/riscv/mach-gd32vf10x/bsp/gd32vf103_rcu.c **** 
 203              		.loc 1 144 1
 204 0016 8280     		ret
 205              		.cfi_endproc
 206              	.LFE5:
 208              		.section	.text.rcu_periph_clock_sleep_disable,"ax",@progbits
 209              		.align	1
 210              		.globl	rcu_periph_clock_sleep_disable
 212              	rcu_periph_clock_sleep_disable:
 213              	.LFB6:
 156:arch/riscv/mach-gd32vf10x/bsp/gd32vf103_rcu.c ****     RCU_REG_VAL(periph) &= ~BIT(RCU_BIT_POS(periph));
 214              		.loc 1 156 1 is_stmt 1
 215              		.cfi_startproc
 216              	.LVL8:
 157:arch/riscv/mach-gd32vf10x/bsp/gd32vf103_rcu.c **** }
 217              		.loc 1 157 5
 157:arch/riscv/mach-gd32vf10x/bsp/gd32vf103_rcu.c **** }
 218              		.loc 1 157 25 is_stmt 0
 219 0000 B7170240 		li	a5,1073876992
 220 0004 13576500 		srli	a4,a0,6
 221 0008 3E97     		add	a4,a4,a5
 222 000a 1443     		lw	a3,0(a4)
 157:arch/riscv/mach-gd32vf10x/bsp/gd32vf103_rcu.c **** }
 223              		.loc 1 157 29
 224 000c 8547     		li	a5,1
GAS LISTING C:\Users\test\AppData\Local\Temp\cciHZyrV.s 			page 20


 225 000e B397A700 		sll	a5,a5,a0
 157:arch/riscv/mach-gd32vf10x/bsp/gd32vf103_rcu.c **** }
 226              		.loc 1 157 28
 227 0012 93C7F7FF 		not	a5,a5
 157:arch/riscv/mach-gd32vf10x/bsp/gd32vf103_rcu.c **** }
 228              		.loc 1 157 25
 229 0016 F58F     		and	a5,a5,a3
 230 0018 1CC3     		sw	a5,0(a4)
 158:arch/riscv/mach-gd32vf10x/bsp/gd32vf103_rcu.c **** 
 231              		.loc 1 158 1
 232 001a 8280     		ret
 233              		.cfi_endproc
 234              	.LFE6:
 236              		.section	.text.rcu_periph_reset_enable,"ax",@progbits
 237              		.align	1
 238              		.globl	rcu_periph_reset_enable
 240              	rcu_periph_reset_enable:
 241              	.LFB7:
 182:arch/riscv/mach-gd32vf10x/bsp/gd32vf103_rcu.c ****     RCU_REG_VAL(periph_reset) |= BIT(RCU_BIT_POS(periph_reset));
 242              		.loc 1 182 1 is_stmt 1
 243              		.cfi_startproc
 244              	.LVL9:
 183:arch/riscv/mach-gd32vf10x/bsp/gd32vf103_rcu.c **** }
 245              		.loc 1 183 5
 183:arch/riscv/mach-gd32vf10x/bsp/gd32vf103_rcu.c **** }
 246              		.loc 1 183 31 is_stmt 0
 247 0000 B7170240 		li	a5,1073876992
 248 0004 13576500 		srli	a4,a0,6
 249 0008 3E97     		add	a4,a4,a5
 250 000a 1443     		lw	a3,0(a4)
 183:arch/riscv/mach-gd32vf10x/bsp/gd32vf103_rcu.c **** }
 251              		.loc 1 183 34
 252 000c 8547     		li	a5,1
 253 000e B397A700 		sll	a5,a5,a0
 183:arch/riscv/mach-gd32vf10x/bsp/gd32vf103_rcu.c **** }
 254              		.loc 1 183 31
 255 0012 D58F     		or	a5,a5,a3
 256 0014 1CC3     		sw	a5,0(a4)
 184:arch/riscv/mach-gd32vf10x/bsp/gd32vf103_rcu.c **** 
 257              		.loc 1 184 1
 258 0016 8280     		ret
 259              		.cfi_endproc
 260              	.LFE7:
 262              		.section	.text.rcu_periph_reset_disable,"ax",@progbits
 263              		.align	1
 264              		.globl	rcu_periph_reset_disable
 266              	rcu_periph_reset_disable:
 267              	.LFB8:
 208:arch/riscv/mach-gd32vf10x/bsp/gd32vf103_rcu.c ****     RCU_REG_VAL(periph_reset) &= ~BIT(RCU_BIT_POS(periph_reset));
 268              		.loc 1 208 1 is_stmt 1
 269              		.cfi_startproc
 270              	.LVL10:
 209:arch/riscv/mach-gd32vf10x/bsp/gd32vf103_rcu.c **** }
 271              		.loc 1 209 5
 209:arch/riscv/mach-gd32vf10x/bsp/gd32vf103_rcu.c **** }
 272              		.loc 1 209 31 is_stmt 0
 273 0000 B7170240 		li	a5,1073876992
GAS LISTING C:\Users\test\AppData\Local\Temp\cciHZyrV.s 			page 21


 274 0004 13576500 		srli	a4,a0,6
 275 0008 3E97     		add	a4,a4,a5
 276 000a 1443     		lw	a3,0(a4)
 209:arch/riscv/mach-gd32vf10x/bsp/gd32vf103_rcu.c **** }
 277              		.loc 1 209 35
 278 000c 8547     		li	a5,1
 279 000e B397A700 		sll	a5,a5,a0
 209:arch/riscv/mach-gd32vf10x/bsp/gd32vf103_rcu.c **** }
 280              		.loc 1 209 34
 281 0012 93C7F7FF 		not	a5,a5
 209:arch/riscv/mach-gd32vf10x/bsp/gd32vf103_rcu.c **** }
 282              		.loc 1 209 31
 283 0016 F58F     		and	a5,a5,a3
 284 0018 1CC3     		sw	a5,0(a4)
 210:arch/riscv/mach-gd32vf10x/bsp/gd32vf103_rcu.c **** 
 285              		.loc 1 210 1
 286 001a 8280     		ret
 287              		.cfi_endproc
 288              	.LFE8:
 290              		.section	.text.rcu_bkp_reset_enable,"ax",@progbits
 291              		.align	1
 292              		.globl	rcu_bkp_reset_enable
 294              	rcu_bkp_reset_enable:
 295              	.LFB9:
 219:arch/riscv/mach-gd32vf10x/bsp/gd32vf103_rcu.c ****     RCU_BDCTL |= RCU_BDCTL_BKPRST;
 296              		.loc 1 219 1 is_stmt 1
 297              		.cfi_startproc
 220:arch/riscv/mach-gd32vf10x/bsp/gd32vf103_rcu.c **** }
 298              		.loc 1 220 5
 220:arch/riscv/mach-gd32vf10x/bsp/gd32vf103_rcu.c **** }
 299              		.loc 1 220 15 is_stmt 0
 300 0000 37170240 		li	a4,1073876992
 301 0004 1C53     		lw	a5,32(a4)
 302 0006 C166     		li	a3,65536
 303 0008 D58F     		or	a5,a5,a3
 304 000a 1CD3     		sw	a5,32(a4)
 221:arch/riscv/mach-gd32vf10x/bsp/gd32vf103_rcu.c **** 
 305              		.loc 1 221 1
 306 000c 8280     		ret
 307              		.cfi_endproc
 308              	.LFE9:
 310              		.section	.text.rcu_bkp_reset_disable,"ax",@progbits
 311              		.align	1
 312              		.globl	rcu_bkp_reset_disable
 314              	rcu_bkp_reset_disable:
 315              	.LFB10:
 230:arch/riscv/mach-gd32vf10x/bsp/gd32vf103_rcu.c ****     RCU_BDCTL &= ~RCU_BDCTL_BKPRST;
 316              		.loc 1 230 1 is_stmt 1
 317              		.cfi_startproc
 231:arch/riscv/mach-gd32vf10x/bsp/gd32vf103_rcu.c **** }
 318              		.loc 1 231 5
 231:arch/riscv/mach-gd32vf10x/bsp/gd32vf103_rcu.c **** }
 319              		.loc 1 231 15 is_stmt 0
 320 0000 B7160240 		li	a3,1073876992
 321 0004 9C52     		lw	a5,32(a3)
 322 0006 4177     		li	a4,-65536
 323 0008 7D17     		addi	a4,a4,-1
GAS LISTING C:\Users\test\AppData\Local\Temp\cciHZyrV.s 			page 22


 324 000a F98F     		and	a5,a5,a4
 325 000c 9CD2     		sw	a5,32(a3)
 232:arch/riscv/mach-gd32vf10x/bsp/gd32vf103_rcu.c **** 
 326              		.loc 1 232 1
 327 000e 8280     		ret
 328              		.cfi_endproc
 329              	.LFE10:
 331              		.section	.text.rcu_system_clock_source_config,"ax",@progbits
 332              		.align	1
 333              		.globl	rcu_system_clock_source_config
 335              	rcu_system_clock_source_config:
 336              	.LFB11:
 245:arch/riscv/mach-gd32vf10x/bsp/gd32vf103_rcu.c ****     uint32_t reg;
 337              		.loc 1 245 1 is_stmt 1
 338              		.cfi_startproc
 339              	.LVL11:
 246:arch/riscv/mach-gd32vf10x/bsp/gd32vf103_rcu.c ****     
 340              		.loc 1 246 5
 248:arch/riscv/mach-gd32vf10x/bsp/gd32vf103_rcu.c ****     /* reset the SCS bits and set according to ck_sys */
 341              		.loc 1 248 5
 248:arch/riscv/mach-gd32vf10x/bsp/gd32vf103_rcu.c ****     /* reset the SCS bits and set according to ck_sys */
 342              		.loc 1 248 9 is_stmt 0
 343 0000 37170240 		li	a4,1073876992
 344 0004 5C43     		lw	a5,4(a4)
 345              	.LVL12:
 250:arch/riscv/mach-gd32vf10x/bsp/gd32vf103_rcu.c ****     RCU_CFG0 = (reg | ck_sys);
 346              		.loc 1 250 5 is_stmt 1
 251:arch/riscv/mach-gd32vf10x/bsp/gd32vf103_rcu.c **** }
 347              		.loc 1 251 5
 250:arch/riscv/mach-gd32vf10x/bsp/gd32vf103_rcu.c ****     RCU_CFG0 = (reg | ck_sys);
 348              		.loc 1 250 9 is_stmt 0
 349 0006 F19B     		andi	a5,a5,-4
 350              	.LVL13:
 251:arch/riscv/mach-gd32vf10x/bsp/gd32vf103_rcu.c **** }
 351              		.loc 1 251 21
 352 0008 5D8D     		or	a0,a5,a0
 353              	.LVL14:
 251:arch/riscv/mach-gd32vf10x/bsp/gd32vf103_rcu.c **** }
 354              		.loc 1 251 14
 355 000a 48C3     		sw	a0,4(a4)
 252:arch/riscv/mach-gd32vf10x/bsp/gd32vf103_rcu.c **** 
 356              		.loc 1 252 1
 357 000c 8280     		ret
 358              		.cfi_endproc
 359              	.LFE11:
 361              		.section	.text.rcu_system_clock_source_get,"ax",@progbits
 362              		.align	1
 363              		.globl	rcu_system_clock_source_get
 365              	rcu_system_clock_source_get:
 366              	.LFB12:
 264:arch/riscv/mach-gd32vf10x/bsp/gd32vf103_rcu.c ****     return (RCU_CFG0 & RCU_CFG0_SCSS);
 367              		.loc 1 264 1 is_stmt 1
 368              		.cfi_startproc
 265:arch/riscv/mach-gd32vf10x/bsp/gd32vf103_rcu.c **** }
 369              		.loc 1 265 5
 265:arch/riscv/mach-gd32vf10x/bsp/gd32vf103_rcu.c **** }
 370              		.loc 1 265 22 is_stmt 0
GAS LISTING C:\Users\test\AppData\Local\Temp\cciHZyrV.s 			page 23


 371 0000 B7170240 		li	a5,1073876992
 372 0004 C843     		lw	a0,4(a5)
 266:arch/riscv/mach-gd32vf10x/bsp/gd32vf103_rcu.c **** 
 373              		.loc 1 266 1
 374 0006 3189     		andi	a0,a0,12
 375 0008 8280     		ret
 376              		.cfi_endproc
 377              	.LFE12:
 379              		.section	.text.rcu_ahb_clock_config,"ax",@progbits
 380              		.align	1
 381              		.globl	rcu_ahb_clock_config
 383              	rcu_ahb_clock_config:
 384              	.LFB13:
 277:arch/riscv/mach-gd32vf10x/bsp/gd32vf103_rcu.c ****     uint32_t reg;
 385              		.loc 1 277 1 is_stmt 1
 386              		.cfi_startproc
 387              	.LVL15:
 278:arch/riscv/mach-gd32vf10x/bsp/gd32vf103_rcu.c ****     
 388              		.loc 1 278 5
 280:arch/riscv/mach-gd32vf10x/bsp/gd32vf103_rcu.c **** 
 389              		.loc 1 280 5
 280:arch/riscv/mach-gd32vf10x/bsp/gd32vf103_rcu.c **** 
 390              		.loc 1 280 9 is_stmt 0
 391 0000 37170240 		li	a4,1073876992
 392 0004 5C43     		lw	a5,4(a4)
 393              	.LVL16:
 283:arch/riscv/mach-gd32vf10x/bsp/gd32vf103_rcu.c ****     RCU_CFG0 = (reg | ck_ahb);
 394              		.loc 1 283 5 is_stmt 1
 284:arch/riscv/mach-gd32vf10x/bsp/gd32vf103_rcu.c **** }
 395              		.loc 1 284 5
 283:arch/riscv/mach-gd32vf10x/bsp/gd32vf103_rcu.c ****     RCU_CFG0 = (reg | ck_ahb);
 396              		.loc 1 283 9 is_stmt 0
 397 0006 93F7F7F0 		andi	a5,a5,-241
 398              	.LVL17:
 284:arch/riscv/mach-gd32vf10x/bsp/gd32vf103_rcu.c **** }
 399              		.loc 1 284 21
 400 000a 5D8D     		or	a0,a5,a0
 401              	.LVL18:
 284:arch/riscv/mach-gd32vf10x/bsp/gd32vf103_rcu.c **** }
 402              		.loc 1 284 14
 403 000c 48C3     		sw	a0,4(a4)
 285:arch/riscv/mach-gd32vf10x/bsp/gd32vf103_rcu.c **** 
 404              		.loc 1 285 1
 405 000e 8280     		ret
 406              		.cfi_endproc
 407              	.LFE13:
 409              		.section	.text.rcu_apb1_clock_config,"ax",@progbits
 410              		.align	1
 411              		.globl	rcu_apb1_clock_config
 413              	rcu_apb1_clock_config:
 414              	.LFB14:
 300:arch/riscv/mach-gd32vf10x/bsp/gd32vf103_rcu.c ****     uint32_t reg;
 415              		.loc 1 300 1 is_stmt 1
 416              		.cfi_startproc
 417              	.LVL19:
 301:arch/riscv/mach-gd32vf10x/bsp/gd32vf103_rcu.c ****     
 418              		.loc 1 301 5
GAS LISTING C:\Users\test\AppData\Local\Temp\cciHZyrV.s 			page 24


 303:arch/riscv/mach-gd32vf10x/bsp/gd32vf103_rcu.c **** 
 419              		.loc 1 303 5
 303:arch/riscv/mach-gd32vf10x/bsp/gd32vf103_rcu.c **** 
 420              		.loc 1 303 9 is_stmt 0
 421 0000 37170240 		li	a4,1073876992
 422 0004 5C43     		lw	a5,4(a4)
 423              	.LVL20:
 306:arch/riscv/mach-gd32vf10x/bsp/gd32vf103_rcu.c ****     RCU_CFG0 = (reg | ck_apb1);
 424              		.loc 1 306 5 is_stmt 1
 307:arch/riscv/mach-gd32vf10x/bsp/gd32vf103_rcu.c **** }
 425              		.loc 1 307 5
 306:arch/riscv/mach-gd32vf10x/bsp/gd32vf103_rcu.c ****     RCU_CFG0 = (reg | ck_apb1);
 426              		.loc 1 306 9 is_stmt 0
 427 0006 93F7F78F 		andi	a5,a5,-1793
 428              	.LVL21:
 307:arch/riscv/mach-gd32vf10x/bsp/gd32vf103_rcu.c **** }
 429              		.loc 1 307 21
 430 000a 5D8D     		or	a0,a5,a0
 431              	.LVL22:
 307:arch/riscv/mach-gd32vf10x/bsp/gd32vf103_rcu.c **** }
 432              		.loc 1 307 14
 433 000c 48C3     		sw	a0,4(a4)
 308:arch/riscv/mach-gd32vf10x/bsp/gd32vf103_rcu.c **** 
 434              		.loc 1 308 1
 435 000e 8280     		ret
 436              		.cfi_endproc
 437              	.LFE14:
 439              		.section	.text.rcu_apb2_clock_config,"ax",@progbits
 440              		.align	1
 441              		.globl	rcu_apb2_clock_config
 443              	rcu_apb2_clock_config:
 444              	.LFB15:
 323:arch/riscv/mach-gd32vf10x/bsp/gd32vf103_rcu.c ****     uint32_t reg;
 445              		.loc 1 323 1 is_stmt 1
 446              		.cfi_startproc
 447              	.LVL23:
 324:arch/riscv/mach-gd32vf10x/bsp/gd32vf103_rcu.c ****     
 448              		.loc 1 324 5
 326:arch/riscv/mach-gd32vf10x/bsp/gd32vf103_rcu.c **** 
 449              		.loc 1 326 5
 326:arch/riscv/mach-gd32vf10x/bsp/gd32vf103_rcu.c **** 
 450              		.loc 1 326 9 is_stmt 0
 451 0000 B7160240 		li	a3,1073876992
 452 0004 DC42     		lw	a5,4(a3)
 453              	.LVL24:
 329:arch/riscv/mach-gd32vf10x/bsp/gd32vf103_rcu.c ****     RCU_CFG0 = (reg | ck_apb2);
 454              		.loc 1 329 5 is_stmt 1
 330:arch/riscv/mach-gd32vf10x/bsp/gd32vf103_rcu.c **** }
 455              		.loc 1 330 5
 329:arch/riscv/mach-gd32vf10x/bsp/gd32vf103_rcu.c ****     RCU_CFG0 = (reg | ck_apb2);
 456              		.loc 1 329 9 is_stmt 0
 457 0006 7177     		li	a4,-16384
 458 0008 1307F77F 		addi	a4,a4,2047
 459 000c F98F     		and	a5,a5,a4
 460              	.LVL25:
 330:arch/riscv/mach-gd32vf10x/bsp/gd32vf103_rcu.c **** }
 461              		.loc 1 330 21
GAS LISTING C:\Users\test\AppData\Local\Temp\cciHZyrV.s 			page 25


 462 000e 5D8D     		or	a0,a5,a0
 463              	.LVL26:
 330:arch/riscv/mach-gd32vf10x/bsp/gd32vf103_rcu.c **** }
 464              		.loc 1 330 14
 465 0010 C8C2     		sw	a0,4(a3)
 331:arch/riscv/mach-gd32vf10x/bsp/gd32vf103_rcu.c **** 
 466              		.loc 1 331 1
 467 0012 8280     		ret
 468              		.cfi_endproc
 469              	.LFE15:
 471              		.section	.text.rcu_ckout0_config,"ax",@progbits
 472              		.align	1
 473              		.globl	rcu_ckout0_config
 475              	rcu_ckout0_config:
 476              	.LFB16:
 350:arch/riscv/mach-gd32vf10x/bsp/gd32vf103_rcu.c ****     uint32_t reg;
 477              		.loc 1 350 1 is_stmt 1
 478              		.cfi_startproc
 479              	.LVL27:
 351:arch/riscv/mach-gd32vf10x/bsp/gd32vf103_rcu.c ****     
 480              		.loc 1 351 5
 353:arch/riscv/mach-gd32vf10x/bsp/gd32vf103_rcu.c **** 
 481              		.loc 1 353 5
 353:arch/riscv/mach-gd32vf10x/bsp/gd32vf103_rcu.c **** 
 482              		.loc 1 353 9 is_stmt 0
 483 0000 B7160240 		li	a3,1073876992
 484 0004 DC42     		lw	a5,4(a3)
 485              	.LVL28:
 356:arch/riscv/mach-gd32vf10x/bsp/gd32vf103_rcu.c ****     RCU_CFG0 = (reg | ckout0_src);
 486              		.loc 1 356 5 is_stmt 1
 357:arch/riscv/mach-gd32vf10x/bsp/gd32vf103_rcu.c **** }
 487              		.loc 1 357 5
 356:arch/riscv/mach-gd32vf10x/bsp/gd32vf103_rcu.c ****     RCU_CFG0 = (reg | ckout0_src);
 488              		.loc 1 356 9 is_stmt 0
 489 0006 370700F1 		li	a4,-251658240
 490 000a 7D17     		addi	a4,a4,-1
 491 000c F98F     		and	a5,a5,a4
 492              	.LVL29:
 357:arch/riscv/mach-gd32vf10x/bsp/gd32vf103_rcu.c **** }
 493              		.loc 1 357 21
 494 000e 5D8D     		or	a0,a5,a0
 495              	.LVL30:
 357:arch/riscv/mach-gd32vf10x/bsp/gd32vf103_rcu.c **** }
 496              		.loc 1 357 14
 497 0010 C8C2     		sw	a0,4(a3)
 358:arch/riscv/mach-gd32vf10x/bsp/gd32vf103_rcu.c **** 
 498              		.loc 1 358 1
 499 0012 8280     		ret
 500              		.cfi_endproc
 501              	.LFE16:
 503              		.section	.text.rcu_pll_config,"ax",@progbits
 504              		.align	1
 505              		.globl	rcu_pll_config
 507              	rcu_pll_config:
 508              	.LFB17:
 373:arch/riscv/mach-gd32vf10x/bsp/gd32vf103_rcu.c ****     uint32_t reg = 0U;
 509              		.loc 1 373 1 is_stmt 1
GAS LISTING C:\Users\test\AppData\Local\Temp\cciHZyrV.s 			page 26


 510              		.cfi_startproc
 511              	.LVL31:
 374:arch/riscv/mach-gd32vf10x/bsp/gd32vf103_rcu.c **** 
 512              		.loc 1 374 5
 376:arch/riscv/mach-gd32vf10x/bsp/gd32vf103_rcu.c **** 
 513              		.loc 1 376 5
 376:arch/riscv/mach-gd32vf10x/bsp/gd32vf103_rcu.c **** 
 514              		.loc 1 376 9 is_stmt 0
 515 0000 B7160240 		li	a3,1073876992
 516 0004 DC42     		lw	a5,4(a3)
 517              	.LVL32:
 379:arch/riscv/mach-gd32vf10x/bsp/gd32vf103_rcu.c ****     reg |= (pll_src | pll_mul);
 518              		.loc 1 379 5 is_stmt 1
 380:arch/riscv/mach-gd32vf10x/bsp/gd32vf103_rcu.c **** 
 519              		.loc 1 380 5
 379:arch/riscv/mach-gd32vf10x/bsp/gd32vf103_rcu.c ****     reg |= (pll_src | pll_mul);
 520              		.loc 1 379 9 is_stmt 0
 521 0006 3707C3DF 		li	a4,-540868608
 522 000a 7D17     		addi	a4,a4,-1
 523 000c F98F     		and	a5,a5,a4
 524              	.LVL33:
 525 000e DD8D     		or	a1,a5,a1
 526              	.LVL34:
 380:arch/riscv/mach-gd32vf10x/bsp/gd32vf103_rcu.c **** 
 527              		.loc 1 380 9
 528 0010 C98D     		or	a1,a0,a1
 529              	.LVL35:
 382:arch/riscv/mach-gd32vf10x/bsp/gd32vf103_rcu.c **** }
 530              		.loc 1 382 5 is_stmt 1
 382:arch/riscv/mach-gd32vf10x/bsp/gd32vf103_rcu.c **** }
 531              		.loc 1 382 14 is_stmt 0
 532 0012 CCC2     		sw	a1,4(a3)
 383:arch/riscv/mach-gd32vf10x/bsp/gd32vf103_rcu.c **** 
 533              		.loc 1 383 1
 534 0014 8280     		ret
 535              		.cfi_endproc
 536              	.LFE17:
 538              		.section	.text.rcu_predv0_config,"ax",@progbits
 539              		.align	1
 540              		.globl	rcu_predv0_config
 542              	rcu_predv0_config:
 543              	.LFB18:
 398:arch/riscv/mach-gd32vf10x/bsp/gd32vf103_rcu.c ****     uint32_t reg = 0U;
 544              		.loc 1 398 1 is_stmt 1
 545              		.cfi_startproc
 546              	.LVL36:
 399:arch/riscv/mach-gd32vf10x/bsp/gd32vf103_rcu.c ****     
 547              		.loc 1 399 5
 401:arch/riscv/mach-gd32vf10x/bsp/gd32vf103_rcu.c ****     /* reset PREDV0SEL and PREDV0 bits */
 548              		.loc 1 401 5
 401:arch/riscv/mach-gd32vf10x/bsp/gd32vf103_rcu.c ****     /* reset PREDV0SEL and PREDV0 bits */
 549              		.loc 1 401 9 is_stmt 0
 550 0000 B7160240 		li	a3,1073876992
 551 0004 DC56     		lw	a5,44(a3)
 552              	.LVL37:
 403:arch/riscv/mach-gd32vf10x/bsp/gd32vf103_rcu.c ****     /* set the PREDV0SEL and PREDV0 division factor */
 553              		.loc 1 403 5 is_stmt 1
GAS LISTING C:\Users\test\AppData\Local\Temp\cciHZyrV.s 			page 27


 405:arch/riscv/mach-gd32vf10x/bsp/gd32vf103_rcu.c **** 
 554              		.loc 1 405 5
 403:arch/riscv/mach-gd32vf10x/bsp/gd32vf103_rcu.c ****     /* set the PREDV0SEL and PREDV0 division factor */
 555              		.loc 1 403 9 is_stmt 0
 556 0006 4177     		li	a4,-65536
 557 0008 4117     		addi	a4,a4,-16
 558 000a F98F     		and	a5,a5,a4
 559              	.LVL38:
 560 000c DD8D     		or	a1,a5,a1
 561              	.LVL39:
 405:arch/riscv/mach-gd32vf10x/bsp/gd32vf103_rcu.c **** 
 562              		.loc 1 405 9
 563 000e C98D     		or	a1,a0,a1
 564              	.LVL40:
 407:arch/riscv/mach-gd32vf10x/bsp/gd32vf103_rcu.c **** }
 565              		.loc 1 407 5 is_stmt 1
 407:arch/riscv/mach-gd32vf10x/bsp/gd32vf103_rcu.c **** }
 566              		.loc 1 407 14 is_stmt 0
 567 0010 CCD6     		sw	a1,44(a3)
 408:arch/riscv/mach-gd32vf10x/bsp/gd32vf103_rcu.c **** 
 568              		.loc 1 408 1
 569 0012 8280     		ret
 570              		.cfi_endproc
 571              	.LFE18:
 573              		.section	.text.rcu_predv1_config,"ax",@progbits
 574              		.align	1
 575              		.globl	rcu_predv1_config
 577              	rcu_predv1_config:
 578              	.LFB19:
 419:arch/riscv/mach-gd32vf10x/bsp/gd32vf103_rcu.c ****     uint32_t reg = 0U;
 579              		.loc 1 419 1 is_stmt 1
 580              		.cfi_startproc
 581              	.LVL41:
 420:arch/riscv/mach-gd32vf10x/bsp/gd32vf103_rcu.c ****     
 582              		.loc 1 420 5
 422:arch/riscv/mach-gd32vf10x/bsp/gd32vf103_rcu.c ****     /* reset the PREDV1 bits */
 583              		.loc 1 422 5
 422:arch/riscv/mach-gd32vf10x/bsp/gd32vf103_rcu.c ****     /* reset the PREDV1 bits */
 584              		.loc 1 422 9 is_stmt 0
 585 0000 37170240 		li	a4,1073876992
 586 0004 5C57     		lw	a5,44(a4)
 587              	.LVL42:
 424:arch/riscv/mach-gd32vf10x/bsp/gd32vf103_rcu.c ****     /* set the PREDV1 division factor */
 588              		.loc 1 424 5 is_stmt 1
 424:arch/riscv/mach-gd32vf10x/bsp/gd32vf103_rcu.c ****     /* set the PREDV1 division factor */
 589              		.loc 1 424 9 is_stmt 0
 590 0006 93F7F7F0 		andi	a5,a5,-241
 591              	.LVL43:
 426:arch/riscv/mach-gd32vf10x/bsp/gd32vf103_rcu.c **** 
 592              		.loc 1 426 5 is_stmt 1
 426:arch/riscv/mach-gd32vf10x/bsp/gd32vf103_rcu.c **** 
 593              		.loc 1 426 9 is_stmt 0
 594 000a 5D8D     		or	a0,a5,a0
 595              	.LVL44:
 428:arch/riscv/mach-gd32vf10x/bsp/gd32vf103_rcu.c **** }
 596              		.loc 1 428 5 is_stmt 1
 428:arch/riscv/mach-gd32vf10x/bsp/gd32vf103_rcu.c **** }
GAS LISTING C:\Users\test\AppData\Local\Temp\cciHZyrV.s 			page 28


 597              		.loc 1 428 14 is_stmt 0
 598 000c 48D7     		sw	a0,44(a4)
 429:arch/riscv/mach-gd32vf10x/bsp/gd32vf103_rcu.c **** 
 599              		.loc 1 429 1
 600 000e 8280     		ret
 601              		.cfi_endproc
 602              	.LFE19:
 604              		.section	.text.rcu_pll1_config,"ax",@progbits
 605              		.align	1
 606              		.globl	rcu_pll1_config
 608              	rcu_pll1_config:
 609              	.LFB20:
 440:arch/riscv/mach-gd32vf10x/bsp/gd32vf103_rcu.c ****     RCU_CFG1 &= ~RCU_CFG1_PLL1MF;
 610              		.loc 1 440 1 is_stmt 1
 611              		.cfi_startproc
 612              	.LVL45:
 441:arch/riscv/mach-gd32vf10x/bsp/gd32vf103_rcu.c ****     RCU_CFG1 |= pll_mul;
 613              		.loc 1 441 5
 441:arch/riscv/mach-gd32vf10x/bsp/gd32vf103_rcu.c ****     RCU_CFG1 |= pll_mul;
 614              		.loc 1 441 14 is_stmt 0
 615 0000 B7170240 		li	a5,1073876992
 616 0004 D857     		lw	a4,44(a5)
 617 0006 FD76     		li	a3,-4096
 618 0008 9386F60F 		addi	a3,a3,255
 619 000c 758F     		and	a4,a4,a3
 620 000e D8D7     		sw	a4,44(a5)
 442:arch/riscv/mach-gd32vf10x/bsp/gd32vf103_rcu.c **** }
 621              		.loc 1 442 5 is_stmt 1
 442:arch/riscv/mach-gd32vf10x/bsp/gd32vf103_rcu.c **** }
 622              		.loc 1 442 14 is_stmt 0
 623 0010 D857     		lw	a4,44(a5)
 624 0012 598D     		or	a0,a4,a0
 625              	.LVL46:
 626 0014 C8D7     		sw	a0,44(a5)
 443:arch/riscv/mach-gd32vf10x/bsp/gd32vf103_rcu.c **** 
 627              		.loc 1 443 1
 628 0016 8280     		ret
 629              		.cfi_endproc
 630              	.LFE20:
 632              		.section	.text.rcu_pll2_config,"ax",@progbits
 633              		.align	1
 634              		.globl	rcu_pll2_config
 636              	rcu_pll2_config:
 637              	.LFB21:
 454:arch/riscv/mach-gd32vf10x/bsp/gd32vf103_rcu.c ****     RCU_CFG1 &= ~RCU_CFG1_PLL2MF;
 638              		.loc 1 454 1 is_stmt 1
 639              		.cfi_startproc
 640              	.LVL47:
 455:arch/riscv/mach-gd32vf10x/bsp/gd32vf103_rcu.c ****     RCU_CFG1 |= pll_mul; 
 641              		.loc 1 455 5
 455:arch/riscv/mach-gd32vf10x/bsp/gd32vf103_rcu.c ****     RCU_CFG1 |= pll_mul; 
 642              		.loc 1 455 14 is_stmt 0
 643 0000 B7170240 		li	a5,1073876992
 644 0004 D857     		lw	a4,44(a5)
 645 0006 C576     		li	a3,-61440
 646 0008 FD16     		addi	a3,a3,-1
 647 000a 758F     		and	a4,a4,a3
GAS LISTING C:\Users\test\AppData\Local\Temp\cciHZyrV.s 			page 29


 648 000c D8D7     		sw	a4,44(a5)
 456:arch/riscv/mach-gd32vf10x/bsp/gd32vf103_rcu.c **** }
 649              		.loc 1 456 5 is_stmt 1
 456:arch/riscv/mach-gd32vf10x/bsp/gd32vf103_rcu.c **** }
 650              		.loc 1 456 14 is_stmt 0
 651 000e D857     		lw	a4,44(a5)
 652 0010 598D     		or	a0,a4,a0
 653              	.LVL48:
 654 0012 C8D7     		sw	a0,44(a5)
 457:arch/riscv/mach-gd32vf10x/bsp/gd32vf103_rcu.c **** 
 655              		.loc 1 457 1
 656 0014 8280     		ret
 657              		.cfi_endproc
 658              	.LFE21:
 660              		.section	.text.rcu_adc_clock_config,"ax",@progbits
 661              		.align	1
 662              		.globl	rcu_adc_clock_config
 664              	rcu_adc_clock_config:
 665              	.LFB22:
 473:arch/riscv/mach-gd32vf10x/bsp/gd32vf103_rcu.c ****     uint32_t reg0;
 666              		.loc 1 473 1 is_stmt 1
 667              		.cfi_startproc
 668              	.LVL49:
 474:arch/riscv/mach-gd32vf10x/bsp/gd32vf103_rcu.c **** 
 669              		.loc 1 474 5
 477:arch/riscv/mach-gd32vf10x/bsp/gd32vf103_rcu.c ****     reg0 &= ~(RCU_CFG0_ADCPSC_2 | RCU_CFG0_ADCPSC);
 670              		.loc 1 477 5
 477:arch/riscv/mach-gd32vf10x/bsp/gd32vf103_rcu.c ****     reg0 &= ~(RCU_CFG0_ADCPSC_2 | RCU_CFG0_ADCPSC);
 671              		.loc 1 477 10 is_stmt 0
 672 0000 B7170240 		li	a5,1073876992
 673 0004 DC43     		lw	a5,4(a5)
 674              	.LVL50:
 478:arch/riscv/mach-gd32vf10x/bsp/gd32vf103_rcu.c **** 
 675              		.loc 1 478 5 is_stmt 1
 478:arch/riscv/mach-gd32vf10x/bsp/gd32vf103_rcu.c **** 
 676              		.loc 1 478 10 is_stmt 0
 677 0006 3747FFEF 		li	a4,-268484608
 678 000a 7D17     		addi	a4,a4,-1
 481:arch/riscv/mach-gd32vf10x/bsp/gd32vf103_rcu.c ****         case RCU_CKADC_CKAPB2_DIV2:
 679              		.loc 1 481 5
 680 000c 9546     		li	a3,5
 478:arch/riscv/mach-gd32vf10x/bsp/gd32vf103_rcu.c **** 
 681              		.loc 1 478 10
 682 000e F98F     		and	a5,a5,a4
 683              	.LVL51:
 481:arch/riscv/mach-gd32vf10x/bsp/gd32vf103_rcu.c ****         case RCU_CKADC_CKAPB2_DIV2:
 684              		.loc 1 481 5 is_stmt 1
 685 0010 6300D502 		beq	a0,a3,.L27
 686 0014 63EBA600 		bgtu	a0,a3,.L28
 687 0018 0D47     		li	a4,3
 688 001a 6364A700 		bgtu	a0,a4,.L29
 486:arch/riscv/mach-gd32vf10x/bsp/gd32vf103_rcu.c ****             break;
 689              		.loc 1 486 13
 486:arch/riscv/mach-gd32vf10x/bsp/gd32vf103_rcu.c ****             break;
 690              		.loc 1 486 30 is_stmt 0
 691 001e 3A05     		slli	a0,a0,14
 692              	.LVL52:
GAS LISTING C:\Users\test\AppData\Local\Temp\cciHZyrV.s 			page 30


 486:arch/riscv/mach-gd32vf10x/bsp/gd32vf103_rcu.c ****             break;
 693              		.loc 1 486 18
 694 0020 C98F     		or	a5,a5,a0
 695              	.LVL53:
 487:arch/riscv/mach-gd32vf10x/bsp/gd32vf103_rcu.c **** 
 696              		.loc 1 487 13 is_stmt 1
 697              	.L29:
 500:arch/riscv/mach-gd32vf10x/bsp/gd32vf103_rcu.c **** }
 698              		.loc 1 500 5
 500:arch/riscv/mach-gd32vf10x/bsp/gd32vf103_rcu.c **** }
 699              		.loc 1 500 14 is_stmt 0
 700 0022 37170240 		li	a4,1073876992
 701 0026 5CC3     		sw	a5,4(a4)
 501:arch/riscv/mach-gd32vf10x/bsp/gd32vf103_rcu.c **** 
 702              		.loc 1 501 1
 703 0028 8280     		ret
 704              	.LVL54:
 705              	.L28:
 481:arch/riscv/mach-gd32vf10x/bsp/gd32vf103_rcu.c ****         case RCU_CKADC_CKAPB2_DIV2:
 706              		.loc 1 481 5
 707 002a 1D47     		li	a4,7
 708 002c E31BE5FE 		bne	a0,a4,.L29
 709              	.L27:
 491:arch/riscv/mach-gd32vf10x/bsp/gd32vf103_rcu.c ****             reg0 |= (adc_psc << 14 | RCU_CFG0_ADCPSC_2);
 710              		.loc 1 491 13 is_stmt 1
 711              	.LVL55:
 492:arch/riscv/mach-gd32vf10x/bsp/gd32vf103_rcu.c ****             break;
 712              		.loc 1 492 13
 492:arch/riscv/mach-gd32vf10x/bsp/gd32vf103_rcu.c ****             break;
 713              		.loc 1 492 30 is_stmt 0
 714 0030 3177     		li	a4,-81920
 715 0032 3A05     		slli	a0,a0,14
 716              	.LVL56:
 717 0034 798D     		and	a0,a0,a4
 492:arch/riscv/mach-gd32vf10x/bsp/gd32vf103_rcu.c ****             break;
 718              		.loc 1 492 18
 719 0036 5D8D     		or	a0,a0,a5
 720 0038 B7070010 		li	a5,268435456
 721              	.LVL57:
 722 003c C98F     		or	a5,a0,a5
 723              	.LVL58:
 493:arch/riscv/mach-gd32vf10x/bsp/gd32vf103_rcu.c **** 
 724              		.loc 1 493 13 is_stmt 1
 500:arch/riscv/mach-gd32vf10x/bsp/gd32vf103_rcu.c **** }
 725              		.loc 1 500 5
 500:arch/riscv/mach-gd32vf10x/bsp/gd32vf103_rcu.c **** }
 726              		.loc 1 500 14 is_stmt 0
 727 003e 37170240 		li	a4,1073876992
 728 0042 5CC3     		sw	a5,4(a4)
 501:arch/riscv/mach-gd32vf10x/bsp/gd32vf103_rcu.c **** 
 729              		.loc 1 501 1
 730 0044 8280     		ret
 731              		.cfi_endproc
 732              	.LFE22:
 734              		.section	.text.rcu_usb_clock_config,"ax",@progbits
 735              		.align	1
 736              		.globl	rcu_usb_clock_config
GAS LISTING C:\Users\test\AppData\Local\Temp\cciHZyrV.s 			page 31


 738              	rcu_usb_clock_config:
 739              	.LFB23:
 515:arch/riscv/mach-gd32vf10x/bsp/gd32vf103_rcu.c ****     uint32_t reg;
 740              		.loc 1 515 1 is_stmt 1
 741              		.cfi_startproc
 742              	.LVL59:
 516:arch/riscv/mach-gd32vf10x/bsp/gd32vf103_rcu.c ****     
 743              		.loc 1 516 5
 518:arch/riscv/mach-gd32vf10x/bsp/gd32vf103_rcu.c **** 
 744              		.loc 1 518 5
 518:arch/riscv/mach-gd32vf10x/bsp/gd32vf103_rcu.c **** 
 745              		.loc 1 518 9 is_stmt 0
 746 0000 B7160240 		li	a3,1073876992
 747 0004 DC42     		lw	a5,4(a3)
 748              	.LVL60:
 521:arch/riscv/mach-gd32vf10x/bsp/gd32vf103_rcu.c ****     RCU_CFG0 = (reg | usb_psc);
 749              		.loc 1 521 5 is_stmt 1
 522:arch/riscv/mach-gd32vf10x/bsp/gd32vf103_rcu.c **** }
 750              		.loc 1 522 5
 521:arch/riscv/mach-gd32vf10x/bsp/gd32vf103_rcu.c ****     RCU_CFG0 = (reg | usb_psc);
 751              		.loc 1 521 9 is_stmt 0
 752 0006 370740FF 		li	a4,-12582912
 753 000a 7D17     		addi	a4,a4,-1
 754 000c F98F     		and	a5,a5,a4
 755              	.LVL61:
 522:arch/riscv/mach-gd32vf10x/bsp/gd32vf103_rcu.c **** }
 756              		.loc 1 522 21
 757 000e 5D8D     		or	a0,a5,a0
 758              	.LVL62:
 522:arch/riscv/mach-gd32vf10x/bsp/gd32vf103_rcu.c **** }
 759              		.loc 1 522 14
 760 0010 C8C2     		sw	a0,4(a3)
 523:arch/riscv/mach-gd32vf10x/bsp/gd32vf103_rcu.c **** 
 761              		.loc 1 523 1
 762 0012 8280     		ret
 763              		.cfi_endproc
 764              	.LFE23:
 766              		.section	.text.rcu_rtc_clock_config,"ax",@progbits
 767              		.align	1
 768              		.globl	rcu_rtc_clock_config
 770              	rcu_rtc_clock_config:
 771              	.LFB24:
 537:arch/riscv/mach-gd32vf10x/bsp/gd32vf103_rcu.c ****     uint32_t reg;
 772              		.loc 1 537 1 is_stmt 1
 773              		.cfi_startproc
 774              	.LVL63:
 538:arch/riscv/mach-gd32vf10x/bsp/gd32vf103_rcu.c ****     
 775              		.loc 1 538 5
 540:arch/riscv/mach-gd32vf10x/bsp/gd32vf103_rcu.c ****     /* reset the RTCSRC bits and set according to rtc_clock_source */
 776              		.loc 1 540 5
 540:arch/riscv/mach-gd32vf10x/bsp/gd32vf103_rcu.c ****     /* reset the RTCSRC bits and set according to rtc_clock_source */
 777              		.loc 1 540 9 is_stmt 0
 778 0000 37170240 		li	a4,1073876992
 779 0004 1C53     		lw	a5,32(a4)
 780              	.LVL64:
 542:arch/riscv/mach-gd32vf10x/bsp/gd32vf103_rcu.c ****     RCU_BDCTL = (reg | rtc_clock_source);
 781              		.loc 1 542 5 is_stmt 1
GAS LISTING C:\Users\test\AppData\Local\Temp\cciHZyrV.s 			page 32


 543:arch/riscv/mach-gd32vf10x/bsp/gd32vf103_rcu.c **** }
 782              		.loc 1 543 5
 542:arch/riscv/mach-gd32vf10x/bsp/gd32vf103_rcu.c ****     RCU_BDCTL = (reg | rtc_clock_source);
 783              		.loc 1 542 9 is_stmt 0
 784 0006 93F7F7CF 		andi	a5,a5,-769
 785              	.LVL65:
 543:arch/riscv/mach-gd32vf10x/bsp/gd32vf103_rcu.c **** }
 786              		.loc 1 543 22
 787 000a 5D8D     		or	a0,a5,a0
 788              	.LVL66:
 543:arch/riscv/mach-gd32vf10x/bsp/gd32vf103_rcu.c **** }
 789              		.loc 1 543 15
 790 000c 08D3     		sw	a0,32(a4)
 544:arch/riscv/mach-gd32vf10x/bsp/gd32vf103_rcu.c **** 
 791              		.loc 1 544 1
 792 000e 8280     		ret
 793              		.cfi_endproc
 794              	.LFE24:
 796              		.section	.text.rcu_i2s1_clock_config,"ax",@progbits
 797              		.align	1
 798              		.globl	rcu_i2s1_clock_config
 800              	rcu_i2s1_clock_config:
 801              	.LFB25:
 556:arch/riscv/mach-gd32vf10x/bsp/gd32vf103_rcu.c ****     uint32_t reg;
 802              		.loc 1 556 1 is_stmt 1
 803              		.cfi_startproc
 804              	.LVL67:
 557:arch/riscv/mach-gd32vf10x/bsp/gd32vf103_rcu.c ****     
 805              		.loc 1 557 5
 559:arch/riscv/mach-gd32vf10x/bsp/gd32vf103_rcu.c ****     /* reset the I2S1SEL bit and set according to i2s_clock_source */
 806              		.loc 1 559 5
 559:arch/riscv/mach-gd32vf10x/bsp/gd32vf103_rcu.c ****     /* reset the I2S1SEL bit and set according to i2s_clock_source */
 807              		.loc 1 559 9 is_stmt 0
 808 0000 B7160240 		li	a3,1073876992
 809 0004 DC56     		lw	a5,44(a3)
 810              	.LVL68:
 561:arch/riscv/mach-gd32vf10x/bsp/gd32vf103_rcu.c ****     RCU_CFG1 = (reg | i2s_clock_source);
 811              		.loc 1 561 5 is_stmt 1
 562:arch/riscv/mach-gd32vf10x/bsp/gd32vf103_rcu.c **** }
 812              		.loc 1 562 5
 561:arch/riscv/mach-gd32vf10x/bsp/gd32vf103_rcu.c ****     RCU_CFG1 = (reg | i2s_clock_source);
 813              		.loc 1 561 9 is_stmt 0
 814 0006 0177     		li	a4,-131072
 815 0008 7D17     		addi	a4,a4,-1
 816 000a F98F     		and	a5,a5,a4
 817              	.LVL69:
 562:arch/riscv/mach-gd32vf10x/bsp/gd32vf103_rcu.c **** }
 818              		.loc 1 562 21
 819 000c 5D8D     		or	a0,a5,a0
 820              	.LVL70:
 562:arch/riscv/mach-gd32vf10x/bsp/gd32vf103_rcu.c **** }
 821              		.loc 1 562 14
 822 000e C8D6     		sw	a0,44(a3)
 563:arch/riscv/mach-gd32vf10x/bsp/gd32vf103_rcu.c **** 
 823              		.loc 1 563 1
 824 0010 8280     		ret
 825              		.cfi_endproc
GAS LISTING C:\Users\test\AppData\Local\Temp\cciHZyrV.s 			page 33


 826              	.LFE25:
 828              		.section	.text.rcu_i2s2_clock_config,"ax",@progbits
 829              		.align	1
 830              		.globl	rcu_i2s2_clock_config
 832              	rcu_i2s2_clock_config:
 833              	.LFB26:
 575:arch/riscv/mach-gd32vf10x/bsp/gd32vf103_rcu.c ****     uint32_t reg;
 834              		.loc 1 575 1 is_stmt 1
 835              		.cfi_startproc
 836              	.LVL71:
 576:arch/riscv/mach-gd32vf10x/bsp/gd32vf103_rcu.c ****     
 837              		.loc 1 576 5
 578:arch/riscv/mach-gd32vf10x/bsp/gd32vf103_rcu.c ****     /* reset the I2S2SEL bit and set according to i2s_clock_source */
 838              		.loc 1 578 5
 578:arch/riscv/mach-gd32vf10x/bsp/gd32vf103_rcu.c ****     /* reset the I2S2SEL bit and set according to i2s_clock_source */
 839              		.loc 1 578 9 is_stmt 0
 840 0000 B7160240 		li	a3,1073876992
 841 0004 DC56     		lw	a5,44(a3)
 842              	.LVL72:
 580:arch/riscv/mach-gd32vf10x/bsp/gd32vf103_rcu.c ****     RCU_CFG1 = (reg | i2s_clock_source);
 843              		.loc 1 580 5 is_stmt 1
 581:arch/riscv/mach-gd32vf10x/bsp/gd32vf103_rcu.c **** }
 844              		.loc 1 581 5
 580:arch/riscv/mach-gd32vf10x/bsp/gd32vf103_rcu.c ****     RCU_CFG1 = (reg | i2s_clock_source);
 845              		.loc 1 580 9 is_stmt 0
 846 0006 3707FCFF 		li	a4,-262144
 847 000a 7D17     		addi	a4,a4,-1
 848 000c F98F     		and	a5,a5,a4
 849              	.LVL73:
 581:arch/riscv/mach-gd32vf10x/bsp/gd32vf103_rcu.c **** }
 850              		.loc 1 581 21
 851 000e 5D8D     		or	a0,a5,a0
 852              	.LVL74:
 581:arch/riscv/mach-gd32vf10x/bsp/gd32vf103_rcu.c **** }
 853              		.loc 1 581 14
 854 0010 C8D6     		sw	a0,44(a3)
 582:arch/riscv/mach-gd32vf10x/bsp/gd32vf103_rcu.c **** 
 855              		.loc 1 582 1
 856 0012 8280     		ret
 857              		.cfi_endproc
 858              	.LFE26:
 860              		.section	.text.rcu_flag_get,"ax",@progbits
 861              		.align	1
 862              		.globl	rcu_flag_get
 864              	rcu_flag_get:
 865              	.LFB27:
 605:arch/riscv/mach-gd32vf10x/bsp/gd32vf103_rcu.c ****     /* get the rcu flag */
 866              		.loc 1 605 1 is_stmt 1
 867              		.cfi_startproc
 868              	.LVL75:
 607:arch/riscv/mach-gd32vf10x/bsp/gd32vf103_rcu.c ****         return SET;
 869              		.loc 1 607 5
 607:arch/riscv/mach-gd32vf10x/bsp/gd32vf103_rcu.c ****         return SET;
 870              		.loc 1 607 18 is_stmt 0
 871 0000 13576500 		srli	a4,a0,6
 872 0004 B7170240 		li	a5,1073876992
 873 0008 3E97     		add	a4,a4,a5
GAS LISTING C:\Users\test\AppData\Local\Temp\cciHZyrV.s 			page 34


 874 000a 1C43     		lw	a5,0(a4)
 607:arch/riscv/mach-gd32vf10x/bsp/gd32vf103_rcu.c ****         return SET;
 875              		.loc 1 607 14
 876 000c 33D5A700 		srl	a0,a5,a0
 877              	.LVL76:
 612:arch/riscv/mach-gd32vf10x/bsp/gd32vf103_rcu.c **** 
 878              		.loc 1 612 1
 879 0010 0589     		andi	a0,a0,1
 880 0012 8280     		ret
 881              		.cfi_endproc
 882              	.LFE27:
 884              		.section	.text.rcu_all_reset_flag_clear,"ax",@progbits
 885              		.align	1
 886              		.globl	rcu_all_reset_flag_clear
 888              	rcu_all_reset_flag_clear:
 889              	.LFB28:
 621:arch/riscv/mach-gd32vf10x/bsp/gd32vf103_rcu.c ****     RCU_RSTSCK |= RCU_RSTSCK_RSTFC;
 890              		.loc 1 621 1 is_stmt 1
 891              		.cfi_startproc
 622:arch/riscv/mach-gd32vf10x/bsp/gd32vf103_rcu.c **** }
 892              		.loc 1 622 5
 622:arch/riscv/mach-gd32vf10x/bsp/gd32vf103_rcu.c **** }
 893              		.loc 1 622 16 is_stmt 0
 894 0000 37170240 		li	a4,1073876992
 895 0004 5C53     		lw	a5,36(a4)
 896 0006 B7060001 		li	a3,16777216
 897 000a D58F     		or	a5,a5,a3
 898 000c 5CD3     		sw	a5,36(a4)
 623:arch/riscv/mach-gd32vf10x/bsp/gd32vf103_rcu.c **** 
 899              		.loc 1 623 1
 900 000e 8280     		ret
 901              		.cfi_endproc
 902              	.LFE28:
 904              		.section	.text.rcu_interrupt_flag_get,"ax",@progbits
 905              		.align	1
 906              		.globl	rcu_interrupt_flag_get
 908              	rcu_interrupt_flag_get:
 909              	.LFB29:
 641:arch/riscv/mach-gd32vf10x/bsp/gd32vf103_rcu.c ****     /* get the rcu interrupt flag */
 910              		.loc 1 641 1 is_stmt 1
 911              		.cfi_startproc
 912              	.LVL77:
 643:arch/riscv/mach-gd32vf10x/bsp/gd32vf103_rcu.c ****         return SET;
 913              		.loc 1 643 5
 643:arch/riscv/mach-gd32vf10x/bsp/gd32vf103_rcu.c ****         return SET;
 914              		.loc 1 643 18 is_stmt 0
 915 0000 13576500 		srli	a4,a0,6
 916 0004 B7170240 		li	a5,1073876992
 917 0008 3E97     		add	a4,a4,a5
 918 000a 1C43     		lw	a5,0(a4)
 643:arch/riscv/mach-gd32vf10x/bsp/gd32vf103_rcu.c ****         return SET;
 919              		.loc 1 643 14
 920 000c 33D5A700 		srl	a0,a5,a0
 921              	.LVL78:
 648:arch/riscv/mach-gd32vf10x/bsp/gd32vf103_rcu.c **** 
 922              		.loc 1 648 1
 923 0010 0589     		andi	a0,a0,1
GAS LISTING C:\Users\test\AppData\Local\Temp\cciHZyrV.s 			page 35


 924 0012 8280     		ret
 925              		.cfi_endproc
 926              	.LFE29:
 928              		.section	.text.rcu_interrupt_flag_clear,"ax",@progbits
 929              		.align	1
 930              		.globl	rcu_interrupt_flag_clear
 932              	rcu_interrupt_flag_clear:
 933              	.LFB30:
 666:arch/riscv/mach-gd32vf10x/bsp/gd32vf103_rcu.c ****     RCU_REG_VAL(int_flag_clear) |= BIT(RCU_BIT_POS(int_flag_clear));
 934              		.loc 1 666 1 is_stmt 1
 935              		.cfi_startproc
 936              	.LVL79:
 667:arch/riscv/mach-gd32vf10x/bsp/gd32vf103_rcu.c **** }
 937              		.loc 1 667 5
 667:arch/riscv/mach-gd32vf10x/bsp/gd32vf103_rcu.c **** }
 938              		.loc 1 667 33 is_stmt 0
 939 0000 B7170240 		li	a5,1073876992
 940 0004 13576500 		srli	a4,a0,6
 941 0008 3E97     		add	a4,a4,a5
 942 000a 1443     		lw	a3,0(a4)
 667:arch/riscv/mach-gd32vf10x/bsp/gd32vf103_rcu.c **** }
 943              		.loc 1 667 36
 944 000c 8547     		li	a5,1
 945 000e B397A700 		sll	a5,a5,a0
 667:arch/riscv/mach-gd32vf10x/bsp/gd32vf103_rcu.c **** }
 946              		.loc 1 667 33
 947 0012 D58F     		or	a5,a5,a3
 948 0014 1CC3     		sw	a5,0(a4)
 668:arch/riscv/mach-gd32vf10x/bsp/gd32vf103_rcu.c **** 
 949              		.loc 1 668 1
 950 0016 8280     		ret
 951              		.cfi_endproc
 952              	.LFE30:
 954              		.section	.text.rcu_interrupt_enable,"ax",@progbits
 955              		.align	1
 956              		.globl	rcu_interrupt_enable
 958              	rcu_interrupt_enable:
 959              	.LFB31:
 685:arch/riscv/mach-gd32vf10x/bsp/gd32vf103_rcu.c ****     RCU_REG_VAL(stab_int) |= BIT(RCU_BIT_POS(stab_int));
 960              		.loc 1 685 1 is_stmt 1
 961              		.cfi_startproc
 962              	.LVL80:
 686:arch/riscv/mach-gd32vf10x/bsp/gd32vf103_rcu.c **** }
 963              		.loc 1 686 5
 686:arch/riscv/mach-gd32vf10x/bsp/gd32vf103_rcu.c **** }
 964              		.loc 1 686 27 is_stmt 0
 965 0000 B7170240 		li	a5,1073876992
 966 0004 13576500 		srli	a4,a0,6
 967 0008 3E97     		add	a4,a4,a5
 968 000a 1443     		lw	a3,0(a4)
 686:arch/riscv/mach-gd32vf10x/bsp/gd32vf103_rcu.c **** }
 969              		.loc 1 686 30
 970 000c 8547     		li	a5,1
 971 000e B397A700 		sll	a5,a5,a0
 686:arch/riscv/mach-gd32vf10x/bsp/gd32vf103_rcu.c **** }
 972              		.loc 1 686 27
 973 0012 D58F     		or	a5,a5,a3
GAS LISTING C:\Users\test\AppData\Local\Temp\cciHZyrV.s 			page 36


 974 0014 1CC3     		sw	a5,0(a4)
 687:arch/riscv/mach-gd32vf10x/bsp/gd32vf103_rcu.c **** 
 975              		.loc 1 687 1
 976 0016 8280     		ret
 977              		.cfi_endproc
 978              	.LFE31:
 980              		.section	.text.rcu_interrupt_disable,"ax",@progbits
 981              		.align	1
 982              		.globl	rcu_interrupt_disable
 984              	rcu_interrupt_disable:
 985              	.LFB32:
 704:arch/riscv/mach-gd32vf10x/bsp/gd32vf103_rcu.c ****     RCU_REG_VAL(stab_int) &= ~BIT(RCU_BIT_POS(stab_int));
 986              		.loc 1 704 1 is_stmt 1
 987              		.cfi_startproc
 988              	.LVL81:
 705:arch/riscv/mach-gd32vf10x/bsp/gd32vf103_rcu.c **** }
 989              		.loc 1 705 5
 705:arch/riscv/mach-gd32vf10x/bsp/gd32vf103_rcu.c **** }
 990              		.loc 1 705 27 is_stmt 0
 991 0000 B7170240 		li	a5,1073876992
 992 0004 13576500 		srli	a4,a0,6
 993 0008 3E97     		add	a4,a4,a5
 994 000a 1443     		lw	a3,0(a4)
 705:arch/riscv/mach-gd32vf10x/bsp/gd32vf103_rcu.c **** }
 995              		.loc 1 705 31
 996 000c 8547     		li	a5,1
 997 000e B397A700 		sll	a5,a5,a0
 705:arch/riscv/mach-gd32vf10x/bsp/gd32vf103_rcu.c **** }
 998              		.loc 1 705 30
 999 0012 93C7F7FF 		not	a5,a5
 705:arch/riscv/mach-gd32vf10x/bsp/gd32vf103_rcu.c **** }
 1000              		.loc 1 705 27
 1001 0016 F58F     		and	a5,a5,a3
 1002 0018 1CC3     		sw	a5,0(a4)
 706:arch/riscv/mach-gd32vf10x/bsp/gd32vf103_rcu.c **** 
 1003              		.loc 1 706 1
 1004 001a 8280     		ret
 1005              		.cfi_endproc
 1006              	.LFE32:
 1008              		.section	.text.rcu_osci_stab_wait,"ax",@progbits
 1009              		.align	1
 1010              		.globl	rcu_osci_stab_wait
 1012              	rcu_osci_stab_wait:
 1013              	.LFB33:
 723:arch/riscv/mach-gd32vf10x/bsp/gd32vf103_rcu.c ****     uint32_t stb_cnt = 0U;
 1014              		.loc 1 723 1 is_stmt 1
 1015              		.cfi_startproc
 1016              	.LVL82:
 724:arch/riscv/mach-gd32vf10x/bsp/gd32vf103_rcu.c ****     ErrStatus reval = ERROR;
 1017              		.loc 1 724 5
 725:arch/riscv/mach-gd32vf10x/bsp/gd32vf103_rcu.c ****     FlagStatus osci_stat = RESET;
 1018              		.loc 1 725 5
 726:arch/riscv/mach-gd32vf10x/bsp/gd32vf103_rcu.c ****     
 1019              		.loc 1 726 5
 728:arch/riscv/mach-gd32vf10x/bsp/gd32vf103_rcu.c ****     /* wait HXTAL stable */
 1020              		.loc 1 728 5
 1021 0000 E947     		li	a5,26
GAS LISTING C:\Users\test\AppData\Local\Temp\cciHZyrV.s 			page 37


 1022 0002 6302F510 		beq	a0,a5,.L59
 1023 0006 63FFA700 		bleu	a0,a5,.L74
 1024 000a 93070580 		addi	a5,a0,-2048
 1025 000e F9CB     		beq	a5,zero,.L63
 1026 0010 8567     		li	a5,4096
 1027 0012 93870790 		addi	a5,a5,-1792
 1028 0016 6304F508 		beq	a0,a5,.L64
 1029 001a F147     		li	a5,28
 1030 001c 630EF504 		beq	a0,a5,.L65
 1031              	.L73:
 725:arch/riscv/mach-gd32vf10x/bsp/gd32vf103_rcu.c ****     FlagStatus osci_stat = RESET;
 1032              		.loc 1 725 15 is_stmt 0
 1033 0020 0145     		li	a0,0
 1034              	.LVL83:
 1035 0022 8280     		ret
 1036              	.LVL84:
 1037              	.L74:
 728:arch/riscv/mach-gd32vf10x/bsp/gd32vf103_rcu.c ****     /* wait HXTAL stable */
 1038              		.loc 1 728 5
 1039 0024 C147     		li	a5,16
 1040 0026 630DF508 		beq	a0,a5,.L60
 1041 002a E147     		li	a5,24
 1042 002c 6303F502 		beq	a0,a5,.L61
 1043 0030 65F9     		bne	a0,zero,.L73
 1044 0032 13070050 		li	a4,1280
 1045              	.LBB74:
 1046              	.LBB75:
 607:arch/riscv/mach-gd32vf10x/bsp/gd32vf103_rcu.c ****         return SET;
 1047              		.loc 1 607 18
 1048 0036 B7160240 		li	a3,1073876992
 1049              	.LVL85:
 1050              	.L47:
 1051              	.LBE75:
 1052              	.LBE74:
 758:arch/riscv/mach-gd32vf10x/bsp/gd32vf103_rcu.c ****             stb_cnt++;
 1053              		.loc 1 758 13 is_stmt 1
 1054              	.LBB78:
 1055              	.LBB76:
 607:arch/riscv/mach-gd32vf10x/bsp/gd32vf103_rcu.c ****         return SET;
 1056              		.loc 1 607 5
 610:arch/riscv/mach-gd32vf10x/bsp/gd32vf103_rcu.c ****     }
 1057              		.loc 1 610 9
 1058              	.LBE76:
 1059              	.LBE78:
 759:arch/riscv/mach-gd32vf10x/bsp/gd32vf103_rcu.c ****         }
 1060              		.loc 1 759 13
 1061              	.LBB79:
 1062              	.LBB77:
 607:arch/riscv/mach-gd32vf10x/bsp/gd32vf103_rcu.c ****         return SET;
 1063              		.loc 1 607 18 is_stmt 0
 1064 003a 9C42     		lw	a5,0(a3)
 1065 003c 7D17     		addi	a4,a4,-1
 1066              	.LVL86:
 607:arch/riscv/mach-gd32vf10x/bsp/gd32vf103_rcu.c ****         return SET;
 1067              		.loc 1 607 7
 1068 003e 898B     		andi	a5,a5,2
 1069 0040 99C7     		beq	a5,zero,.L75
GAS LISTING C:\Users\test\AppData\Local\Temp\cciHZyrV.s 			page 38


 1070              	.L54:
 1071              	.LBE77:
 1072              	.LBE79:
 763:arch/riscv/mach-gd32vf10x/bsp/gd32vf103_rcu.c ****             reval = SUCCESS;
 1073              		.loc 1 763 9 is_stmt 1
 1074              	.LVL87:
 1075              	.LBB80:
 1076              	.LBB81:
 607:arch/riscv/mach-gd32vf10x/bsp/gd32vf103_rcu.c ****         return SET;
 1077              		.loc 1 607 5
 607:arch/riscv/mach-gd32vf10x/bsp/gd32vf103_rcu.c ****         return SET;
 1078              		.loc 1 607 18 is_stmt 0
 1079 0042 B7170240 		li	a5,1073876992
 1080 0046 8843     		lw	a0,0(a5)
 1081              	.LVL88:
 607:arch/riscv/mach-gd32vf10x/bsp/gd32vf103_rcu.c ****         return SET;
 1082              		.loc 1 607 14
 1083 0048 0581     		srli	a0,a0,1
 1084 004a 0589     		andi	a0,a0,1
 1085 004c 8280     		ret
 1086              	.LVL89:
 1087              	.L75:
 1088              	.LBE81:
 1089              	.LBE80:
 757:arch/riscv/mach-gd32vf10x/bsp/gd32vf103_rcu.c ****             osci_stat = rcu_flag_get(RCU_FLAG_IRC8MSTB);
 1090              		.loc 1 757 36
 1091 004e 75F7     		bne	a4,zero,.L47
 1092 0050 CDBF     		j	.L54
 1093              	.LVL90:
 1094              	.L61:
 728:arch/riscv/mach-gd32vf10x/bsp/gd32vf103_rcu.c ****     /* wait HXTAL stable */
 1095              		.loc 1 728 5
 1096 0052 B7071000 		li	a5,1048576
 1097 0056 FD17     		addi	a5,a5,-1
 1098              	.LBB82:
 1099              	.LBB83:
 607:arch/riscv/mach-gd32vf10x/bsp/gd32vf103_rcu.c ****         return SET;
 1100              		.loc 1 607 18
 1101 0058 B7160240 		li	a3,1073876992
 1102              	.LVL91:
 1103              	.L46:
 1104              	.LBE83:
 1105              	.LBE82:
 784:arch/riscv/mach-gd32vf10x/bsp/gd32vf103_rcu.c ****             stb_cnt++;
 1106              		.loc 1 784 13 is_stmt 1
 1107              	.LBB86:
 1108              	.LBB84:
 607:arch/riscv/mach-gd32vf10x/bsp/gd32vf103_rcu.c ****         return SET;
 1109              		.loc 1 607 5
 610:arch/riscv/mach-gd32vf10x/bsp/gd32vf103_rcu.c ****     }
 1110              		.loc 1 610 9
 1111              	.LBE84:
 1112              	.LBE86:
 785:arch/riscv/mach-gd32vf10x/bsp/gd32vf103_rcu.c ****         }
 1113              		.loc 1 785 13
 1114              	.LBB87:
 1115              	.LBB85:
GAS LISTING C:\Users\test\AppData\Local\Temp\cciHZyrV.s 			page 39


 607:arch/riscv/mach-gd32vf10x/bsp/gd32vf103_rcu.c ****         return SET;
 1116              		.loc 1 607 18 is_stmt 0
 1117 005c 9842     		lw	a4,0(a3)
 1118 005e FD17     		addi	a5,a5,-1
 1119              	.LVL92:
 607:arch/riscv/mach-gd32vf10x/bsp/gd32vf103_rcu.c ****         return SET;
 1120              		.loc 1 607 7
 1121 0060 13166700 		slli	a2,a4,6
 1122 0064 63580600 		bge	a2,zero,.L76
 1123              	.L56:
 1124              	.LBE85:
 1125              	.LBE87:
 789:arch/riscv/mach-gd32vf10x/bsp/gd32vf103_rcu.c ****             reval = SUCCESS;
 1126              		.loc 1 789 9 is_stmt 1
 1127              	.LVL93:
 1128              	.LBB88:
 1129              	.LBB89:
 607:arch/riscv/mach-gd32vf10x/bsp/gd32vf103_rcu.c ****         return SET;
 1130              		.loc 1 607 5
 607:arch/riscv/mach-gd32vf10x/bsp/gd32vf103_rcu.c ****         return SET;
 1131              		.loc 1 607 18 is_stmt 0
 1132 0068 B7170240 		li	a5,1073876992
 1133              	.LVL94:
 1134 006c 8843     		lw	a0,0(a5)
 1135              	.LVL95:
 607:arch/riscv/mach-gd32vf10x/bsp/gd32vf103_rcu.c ****         return SET;
 1136              		.loc 1 607 14
 1137 006e 6581     		srli	a0,a0,25
 1138 0070 0589     		andi	a0,a0,1
 1139 0072 8280     		ret
 1140              	.LVL96:
 1141              	.L76:
 1142              	.LBE89:
 1143              	.LBE88:
 783:arch/riscv/mach-gd32vf10x/bsp/gd32vf103_rcu.c ****             osci_stat = rcu_flag_get(RCU_FLAG_PLLSTB);
 1144              		.loc 1 783 36
 1145 0074 E5F7     		bne	a5,zero,.L46
 1146 0076 CDBF     		j	.L56
 1147              	.LVL97:
 1148              	.L65:
 728:arch/riscv/mach-gd32vf10x/bsp/gd32vf103_rcu.c ****     /* wait HXTAL stable */
 1149              		.loc 1 728 5
 1150 0078 B7071000 		li	a5,1048576
 1151 007c FD17     		addi	a5,a5,-1
 1152              	.LBB90:
 1153              	.LBB91:
 607:arch/riscv/mach-gd32vf10x/bsp/gd32vf103_rcu.c ****         return SET;
 1154              		.loc 1 607 18
 1155 007e B7160240 		li	a3,1073876992
 1156              	.LVL98:
 1157              	.L51:
 1158              	.LBE91:
 1159              	.LBE90:
 808:arch/riscv/mach-gd32vf10x/bsp/gd32vf103_rcu.c ****             stb_cnt++;
 1160              		.loc 1 808 13 is_stmt 1
 1161              	.LBB94:
 1162              	.LBB92:
GAS LISTING C:\Users\test\AppData\Local\Temp\cciHZyrV.s 			page 40


 607:arch/riscv/mach-gd32vf10x/bsp/gd32vf103_rcu.c ****         return SET;
 1163              		.loc 1 607 5
 610:arch/riscv/mach-gd32vf10x/bsp/gd32vf103_rcu.c ****     }
 1164              		.loc 1 610 9
 1165              	.LBE92:
 1166              	.LBE94:
 809:arch/riscv/mach-gd32vf10x/bsp/gd32vf103_rcu.c ****         }
 1167              		.loc 1 809 13
 1168              	.LBB95:
 1169              	.LBB93:
 607:arch/riscv/mach-gd32vf10x/bsp/gd32vf103_rcu.c ****         return SET;
 1170              		.loc 1 607 18 is_stmt 0
 1171 0082 9842     		lw	a4,0(a3)
 1172 0084 FD17     		addi	a5,a5,-1
 1173              	.LVL99:
 607:arch/riscv/mach-gd32vf10x/bsp/gd32vf103_rcu.c ****         return SET;
 1174              		.loc 1 607 7
 1175 0086 13162700 		slli	a2,a4,2
 1176 008a 63580600 		bge	a2,zero,.L77
 1177              	.L58:
 1178              	.LBE93:
 1179              	.LBE95:
 813:arch/riscv/mach-gd32vf10x/bsp/gd32vf103_rcu.c ****             reval = SUCCESS;
 1180              		.loc 1 813 9 is_stmt 1
 1181              	.LVL100:
 1182              	.LBB96:
 1183              	.LBB97:
 607:arch/riscv/mach-gd32vf10x/bsp/gd32vf103_rcu.c ****         return SET;
 1184              		.loc 1 607 5
 607:arch/riscv/mach-gd32vf10x/bsp/gd32vf103_rcu.c ****         return SET;
 1185              		.loc 1 607 18 is_stmt 0
 1186 008e B7170240 		li	a5,1073876992
 1187              	.LVL101:
 1188 0092 8843     		lw	a0,0(a5)
 1189              	.LVL102:
 607:arch/riscv/mach-gd32vf10x/bsp/gd32vf103_rcu.c ****         return SET;
 1190              		.loc 1 607 14
 1191 0094 7581     		srli	a0,a0,29
 1192 0096 0589     		andi	a0,a0,1
 1193              	.LVL103:
 1194              	.LBE97:
 1195              	.LBE96:
 1196              		.loc 1 823 5 is_stmt 1
 824:arch/riscv/mach-gd32vf10x/bsp/gd32vf103_rcu.c **** }
 1197              		.loc 1 824 1 is_stmt 0
 1198 0098 8280     		ret
 1199              	.LVL104:
 1200              	.L77:
 807:arch/riscv/mach-gd32vf10x/bsp/gd32vf103_rcu.c ****             osci_stat = rcu_flag_get(RCU_FLAG_PLL2STB);
 1201              		.loc 1 807 36
 1202 009a E5F7     		bne	a5,zero,.L51
 1203 009c CDBF     		j	.L58
 1204              	.LVL105:
 1205              	.L64:
 728:arch/riscv/mach-gd32vf10x/bsp/gd32vf103_rcu.c ****     /* wait HXTAL stable */
 1206              		.loc 1 728 5
 1207 009e 37071000 		li	a4,1048576
GAS LISTING C:\Users\test\AppData\Local\Temp\cciHZyrV.s 			page 41


 1208 00a2 7D17     		addi	a4,a4,-1
 1209              	.LBB98:
 1210              	.LBB99:
 607:arch/riscv/mach-gd32vf10x/bsp/gd32vf103_rcu.c ****         return SET;
 1211              		.loc 1 607 18
 1212 00a4 B7160240 		li	a3,1073876992
 1213              	.LVL106:
 1214              	.L50:
 1215              	.LBE99:
 1216              	.LBE98:
 771:arch/riscv/mach-gd32vf10x/bsp/gd32vf103_rcu.c ****             stb_cnt++;
 1217              		.loc 1 771 13 is_stmt 1
 1218              	.LBB102:
 1219              	.LBB100:
 607:arch/riscv/mach-gd32vf10x/bsp/gd32vf103_rcu.c ****         return SET;
 1220              		.loc 1 607 5
 610:arch/riscv/mach-gd32vf10x/bsp/gd32vf103_rcu.c ****     }
 1221              		.loc 1 610 9
 1222              	.LBE100:
 1223              	.LBE102:
 772:arch/riscv/mach-gd32vf10x/bsp/gd32vf103_rcu.c ****         }
 1224              		.loc 1 772 13
 1225              	.LBB103:
 1226              	.LBB101:
 607:arch/riscv/mach-gd32vf10x/bsp/gd32vf103_rcu.c ****         return SET;
 1227              		.loc 1 607 18 is_stmt 0
 1228 00a8 DC52     		lw	a5,36(a3)
 1229 00aa 7D17     		addi	a4,a4,-1
 1230              	.LVL107:
 607:arch/riscv/mach-gd32vf10x/bsp/gd32vf103_rcu.c ****         return SET;
 1231              		.loc 1 607 7
 1232 00ac 898B     		andi	a5,a5,2
 1233 00ae 99C7     		beq	a5,zero,.L78
 1234              	.L55:
 1235              	.LBE101:
 1236              	.LBE103:
 776:arch/riscv/mach-gd32vf10x/bsp/gd32vf103_rcu.c ****             reval = SUCCESS;
 1237              		.loc 1 776 9 is_stmt 1
 1238              	.LVL108:
 1239              	.LBB104:
 1240              	.LBB105:
 607:arch/riscv/mach-gd32vf10x/bsp/gd32vf103_rcu.c ****         return SET;
 1241              		.loc 1 607 5
 607:arch/riscv/mach-gd32vf10x/bsp/gd32vf103_rcu.c ****         return SET;
 1242              		.loc 1 607 18 is_stmt 0
 1243 00b0 B7170240 		li	a5,1073876992
 1244 00b4 C853     		lw	a0,36(a5)
 1245              	.LVL109:
 607:arch/riscv/mach-gd32vf10x/bsp/gd32vf103_rcu.c ****         return SET;
 1246              		.loc 1 607 14
 1247 00b6 0581     		srli	a0,a0,1
 1248 00b8 0589     		andi	a0,a0,1
 1249 00ba 8280     		ret
 1250              	.LVL110:
 1251              	.L78:
 1252              	.LBE105:
 1253              	.LBE104:
GAS LISTING C:\Users\test\AppData\Local\Temp\cciHZyrV.s 			page 42


 770:arch/riscv/mach-gd32vf10x/bsp/gd32vf103_rcu.c ****             osci_stat = rcu_flag_get(RCU_FLAG_IRC40KSTB);
 1254              		.loc 1 770 36
 1255 00bc 75F7     		bne	a4,zero,.L50
 1256 00be CDBF     		j	.L55
 1257              	.LVL111:
 1258              	.L60:
 728:arch/riscv/mach-gd32vf10x/bsp/gd32vf103_rcu.c ****     /* wait HXTAL stable */
 1259              		.loc 1 728 5
 1260 00c0 C167     		li	a5,65536
 1261 00c2 FD17     		addi	a5,a5,-1
 1262              	.LBB106:
 1263              	.LBB107:
 607:arch/riscv/mach-gd32vf10x/bsp/gd32vf103_rcu.c ****         return SET;
 1264              		.loc 1 607 18
 1265 00c4 B7160240 		li	a3,1073876992
 1266              	.LVL112:
 1267              	.L45:
 1268              	.LBE107:
 1269              	.LBE106:
 732:arch/riscv/mach-gd32vf10x/bsp/gd32vf103_rcu.c ****             stb_cnt++;
 1270              		.loc 1 732 13 is_stmt 1
 1271              	.LBB110:
 1272              	.LBB108:
 607:arch/riscv/mach-gd32vf10x/bsp/gd32vf103_rcu.c ****         return SET;
 1273              		.loc 1 607 5
 610:arch/riscv/mach-gd32vf10x/bsp/gd32vf103_rcu.c ****     }
 1274              		.loc 1 610 9
 1275              	.LBE108:
 1276              	.LBE110:
 733:arch/riscv/mach-gd32vf10x/bsp/gd32vf103_rcu.c ****         }
 1277              		.loc 1 733 13
 1278              	.LBB111:
 1279              	.LBB109:
 607:arch/riscv/mach-gd32vf10x/bsp/gd32vf103_rcu.c ****         return SET;
 1280              		.loc 1 607 18 is_stmt 0
 1281 00c8 9842     		lw	a4,0(a3)
 1282 00ca FD17     		addi	a5,a5,-1
 1283              	.LVL113:
 607:arch/riscv/mach-gd32vf10x/bsp/gd32vf103_rcu.c ****         return SET;
 1284              		.loc 1 607 7
 1285 00cc 1316E700 		slli	a2,a4,14
 1286 00d0 63580600 		bge	a2,zero,.L79
 1287              	.L52:
 1288              	.LBE109:
 1289              	.LBE111:
 737:arch/riscv/mach-gd32vf10x/bsp/gd32vf103_rcu.c ****             reval = SUCCESS;
 1290              		.loc 1 737 9 is_stmt 1
 1291              	.LVL114:
 1292              	.LBB112:
 1293              	.LBB113:
 607:arch/riscv/mach-gd32vf10x/bsp/gd32vf103_rcu.c ****         return SET;
 1294              		.loc 1 607 5
 607:arch/riscv/mach-gd32vf10x/bsp/gd32vf103_rcu.c ****         return SET;
 1295              		.loc 1 607 18 is_stmt 0
 1296 00d4 B7170240 		li	a5,1073876992
 1297              	.LVL115:
 1298 00d8 8843     		lw	a0,0(a5)
GAS LISTING C:\Users\test\AppData\Local\Temp\cciHZyrV.s 			page 43


 1299              	.LVL116:
 607:arch/riscv/mach-gd32vf10x/bsp/gd32vf103_rcu.c ****         return SET;
 1300              		.loc 1 607 14
 1301 00da 4581     		srli	a0,a0,17
 1302 00dc 0589     		andi	a0,a0,1
 1303 00de 8280     		ret
 1304              	.LVL117:
 1305              	.L79:
 1306              	.LBE113:
 1307              	.LBE112:
 731:arch/riscv/mach-gd32vf10x/bsp/gd32vf103_rcu.c ****             osci_stat = rcu_flag_get(RCU_FLAG_HXTALSTB);
 1308              		.loc 1 731 36
 1309 00e0 E5F7     		bne	a5,zero,.L45
 1310 00e2 CDBF     		j	.L52
 1311              	.LVL118:
 1312              	.L63:
 728:arch/riscv/mach-gd32vf10x/bsp/gd32vf103_rcu.c ****     /* wait HXTAL stable */
 1313              		.loc 1 728 5
 1314 00e4 37070004 		li	a4,67108864
 1315 00e8 7D17     		addi	a4,a4,-1
 1316              	.LBB114:
 1317              	.LBB115:
 607:arch/riscv/mach-gd32vf10x/bsp/gd32vf103_rcu.c ****         return SET;
 1318              		.loc 1 607 18
 1319 00ea B7160240 		li	a3,1073876992
 1320              	.LVL119:
 1321              	.L49:
 1322              	.LBE115:
 1323              	.LBE114:
 745:arch/riscv/mach-gd32vf10x/bsp/gd32vf103_rcu.c ****             stb_cnt++;
 1324              		.loc 1 745 13 is_stmt 1
 1325              	.LBB118:
 1326              	.LBB116:
 607:arch/riscv/mach-gd32vf10x/bsp/gd32vf103_rcu.c ****         return SET;
 1327              		.loc 1 607 5
 610:arch/riscv/mach-gd32vf10x/bsp/gd32vf103_rcu.c ****     }
 1328              		.loc 1 610 9
 1329              	.LBE116:
 1330              	.LBE118:
 746:arch/riscv/mach-gd32vf10x/bsp/gd32vf103_rcu.c ****         }
 1331              		.loc 1 746 13
 1332              	.LBB119:
 1333              	.LBB117:
 607:arch/riscv/mach-gd32vf10x/bsp/gd32vf103_rcu.c ****         return SET;
 1334              		.loc 1 607 18 is_stmt 0
 1335 00ee 9C52     		lw	a5,32(a3)
 1336 00f0 7D17     		addi	a4,a4,-1
 1337              	.LVL120:
 607:arch/riscv/mach-gd32vf10x/bsp/gd32vf103_rcu.c ****         return SET;
 1338              		.loc 1 607 7
 1339 00f2 898B     		andi	a5,a5,2
 1340 00f4 99C7     		beq	a5,zero,.L80
 1341              	.L53:
 1342              	.LBE117:
 1343              	.LBE119:
 750:arch/riscv/mach-gd32vf10x/bsp/gd32vf103_rcu.c ****             reval = SUCCESS;
 1344              		.loc 1 750 9 is_stmt 1
GAS LISTING C:\Users\test\AppData\Local\Temp\cciHZyrV.s 			page 44


 1345              	.LVL121:
 1346              	.LBB120:
 1347              	.LBB121:
 607:arch/riscv/mach-gd32vf10x/bsp/gd32vf103_rcu.c ****         return SET;
 1348              		.loc 1 607 5
 607:arch/riscv/mach-gd32vf10x/bsp/gd32vf103_rcu.c ****         return SET;
 1349              		.loc 1 607 18 is_stmt 0
 1350 00f6 B7170240 		li	a5,1073876992
 1351 00fa 8853     		lw	a0,32(a5)
 1352              	.LVL122:
 607:arch/riscv/mach-gd32vf10x/bsp/gd32vf103_rcu.c ****         return SET;
 1353              		.loc 1 607 14
 1354 00fc 0581     		srli	a0,a0,1
 1355 00fe 0589     		andi	a0,a0,1
 1356 0100 8280     		ret
 1357              	.LVL123:
 1358              	.L80:
 1359              	.LBE121:
 1360              	.LBE120:
 744:arch/riscv/mach-gd32vf10x/bsp/gd32vf103_rcu.c ****             osci_stat = rcu_flag_get(RCU_FLAG_LXTALSTB);
 1361              		.loc 1 744 36
 1362 0102 75F7     		bne	a4,zero,.L49
 1363 0104 CDBF     		j	.L53
 1364              	.LVL124:
 1365              	.L59:
 728:arch/riscv/mach-gd32vf10x/bsp/gd32vf103_rcu.c ****     /* wait HXTAL stable */
 1366              		.loc 1 728 5
 1367 0106 B7071000 		li	a5,1048576
 1368 010a FD17     		addi	a5,a5,-1
 1369              	.LBB122:
 1370              	.LBB123:
 607:arch/riscv/mach-gd32vf10x/bsp/gd32vf103_rcu.c ****         return SET;
 1371              		.loc 1 607 18
 1372 010c B7160240 		li	a3,1073876992
 1373              	.LVL125:
 1374              	.L43:
 1375              	.LBE123:
 1376              	.LBE122:
 796:arch/riscv/mach-gd32vf10x/bsp/gd32vf103_rcu.c ****             stb_cnt++;
 1377              		.loc 1 796 13 is_stmt 1
 1378              	.LBB126:
 1379              	.LBB124:
 607:arch/riscv/mach-gd32vf10x/bsp/gd32vf103_rcu.c ****         return SET;
 1380              		.loc 1 607 5
 610:arch/riscv/mach-gd32vf10x/bsp/gd32vf103_rcu.c ****     }
 1381              		.loc 1 610 9
 1382              	.LBE124:
 1383              	.LBE126:
 797:arch/riscv/mach-gd32vf10x/bsp/gd32vf103_rcu.c ****         }
 1384              		.loc 1 797 13
 1385              	.LBB127:
 1386              	.LBB125:
 607:arch/riscv/mach-gd32vf10x/bsp/gd32vf103_rcu.c ****         return SET;
 1387              		.loc 1 607 18 is_stmt 0
 1388 0110 9842     		lw	a4,0(a3)
 1389 0112 FD17     		addi	a5,a5,-1
 1390              	.LVL126:
GAS LISTING C:\Users\test\AppData\Local\Temp\cciHZyrV.s 			page 45


 607:arch/riscv/mach-gd32vf10x/bsp/gd32vf103_rcu.c ****         return SET;
 1391              		.loc 1 607 7
 1392 0114 13164700 		slli	a2,a4,4
 1393 0118 63580600 		bge	a2,zero,.L81
 1394              	.L57:
 1395              	.LBE125:
 1396              	.LBE127:
 801:arch/riscv/mach-gd32vf10x/bsp/gd32vf103_rcu.c ****             reval = SUCCESS;
 1397              		.loc 1 801 9 is_stmt 1
 1398              	.LVL127:
 1399              	.LBB128:
 1400              	.LBB129:
 607:arch/riscv/mach-gd32vf10x/bsp/gd32vf103_rcu.c ****         return SET;
 1401              		.loc 1 607 5
 607:arch/riscv/mach-gd32vf10x/bsp/gd32vf103_rcu.c ****         return SET;
 1402              		.loc 1 607 18 is_stmt 0
 1403 011c B7170240 		li	a5,1073876992
 1404              	.LVL128:
 1405 0120 8843     		lw	a0,0(a5)
 1406              	.LVL129:
 607:arch/riscv/mach-gd32vf10x/bsp/gd32vf103_rcu.c ****         return SET;
 1407              		.loc 1 607 14
 1408 0122 6D81     		srli	a0,a0,27
 1409 0124 0589     		andi	a0,a0,1
 1410 0126 8280     		ret
 1411              	.LVL130:
 1412              	.L81:
 1413              	.LBE129:
 1414              	.LBE128:
 795:arch/riscv/mach-gd32vf10x/bsp/gd32vf103_rcu.c ****             osci_stat = rcu_flag_get(RCU_FLAG_PLL1STB);
 1415              		.loc 1 795 36
 1416 0128 E5F7     		bne	a5,zero,.L43
 1417 012a CDBF     		j	.L57
 1418              		.cfi_endproc
 1419              	.LFE33:
 1421              		.section	.text.rcu_osci_on,"ax",@progbits
 1422              		.align	1
 1423              		.globl	rcu_osci_on
 1425              	rcu_osci_on:
 1426              	.LFB34:
 825:arch/riscv/mach-gd32vf10x/bsp/gd32vf103_rcu.c **** 
 826:arch/riscv/mach-gd32vf10x/bsp/gd32vf103_rcu.c **** /*!
 827:arch/riscv/mach-gd32vf10x/bsp/gd32vf103_rcu.c ****     \brief      turn on the oscillator
 828:arch/riscv/mach-gd32vf10x/bsp/gd32vf103_rcu.c ****     \param[in]  osci: oscillator types, refer to rcu_osci_type_enum
 829:arch/riscv/mach-gd32vf10x/bsp/gd32vf103_rcu.c ****                 only one parameter can be selected which is shown as below:
 830:arch/riscv/mach-gd32vf10x/bsp/gd32vf103_rcu.c ****       \arg        RCU_HXTAL: high speed crystal oscillator(HXTAL)
 831:arch/riscv/mach-gd32vf10x/bsp/gd32vf103_rcu.c ****       \arg        RCU_LXTAL: low speed crystal oscillator(LXTAL)
 832:arch/riscv/mach-gd32vf10x/bsp/gd32vf103_rcu.c ****       \arg        RCU_IRC8M: internal 8M RC oscillators(IRC8M)
 833:arch/riscv/mach-gd32vf10x/bsp/gd32vf103_rcu.c ****       \arg        RCU_IRC40K: internal 40K RC oscillator(IRC40K)
 834:arch/riscv/mach-gd32vf10x/bsp/gd32vf103_rcu.c ****       \arg        RCU_PLL_CK: phase locked loop(PLL)
 835:arch/riscv/mach-gd32vf10x/bsp/gd32vf103_rcu.c ****       \arg        RCU_PLL1_CK: phase locked loop 1
 836:arch/riscv/mach-gd32vf10x/bsp/gd32vf103_rcu.c ****       \arg        RCU_PLL2_CK: phase locked loop 2
 837:arch/riscv/mach-gd32vf10x/bsp/gd32vf103_rcu.c ****     \param[out] none
 838:arch/riscv/mach-gd32vf10x/bsp/gd32vf103_rcu.c ****     \retval     none
 839:arch/riscv/mach-gd32vf10x/bsp/gd32vf103_rcu.c **** */
 840:arch/riscv/mach-gd32vf10x/bsp/gd32vf103_rcu.c **** void rcu_osci_on(rcu_osci_type_enum osci)
 841:arch/riscv/mach-gd32vf10x/bsp/gd32vf103_rcu.c **** {
GAS LISTING C:\Users\test\AppData\Local\Temp\cciHZyrV.s 			page 46


 1427              		.loc 1 841 1 is_stmt 1
 1428              		.cfi_startproc
 1429              	.LVL131:
 842:arch/riscv/mach-gd32vf10x/bsp/gd32vf103_rcu.c ****     RCU_REG_VAL(osci) |= BIT(RCU_BIT_POS(osci));
 1430              		.loc 1 842 5
 1431              		.loc 1 842 23 is_stmt 0
 1432 0000 B7170240 		li	a5,1073876992
 1433 0004 13576500 		srli	a4,a0,6
 1434 0008 3E97     		add	a4,a4,a5
 1435 000a 1443     		lw	a3,0(a4)
 1436              		.loc 1 842 26
 1437 000c 8547     		li	a5,1
 1438 000e B397A700 		sll	a5,a5,a0
 1439              		.loc 1 842 23
 1440 0012 D58F     		or	a5,a5,a3
 1441 0014 1CC3     		sw	a5,0(a4)
 843:arch/riscv/mach-gd32vf10x/bsp/gd32vf103_rcu.c **** }
 1442              		.loc 1 843 1
 1443 0016 8280     		ret
 1444              		.cfi_endproc
 1445              	.LFE34:
 1447              		.section	.text.rcu_osci_off,"ax",@progbits
 1448              		.align	1
 1449              		.globl	rcu_osci_off
 1451              	rcu_osci_off:
 1452              	.LFB35:
 844:arch/riscv/mach-gd32vf10x/bsp/gd32vf103_rcu.c **** 
 845:arch/riscv/mach-gd32vf10x/bsp/gd32vf103_rcu.c **** /*!
 846:arch/riscv/mach-gd32vf10x/bsp/gd32vf103_rcu.c ****     \brief      turn off the oscillator
 847:arch/riscv/mach-gd32vf10x/bsp/gd32vf103_rcu.c ****     \param[in]  osci: oscillator types, refer to rcu_osci_type_enum
 848:arch/riscv/mach-gd32vf10x/bsp/gd32vf103_rcu.c ****                 only one parameter can be selected which is shown as below:
 849:arch/riscv/mach-gd32vf10x/bsp/gd32vf103_rcu.c ****       \arg        RCU_HXTAL: high speed crystal oscillator(HXTAL)
 850:arch/riscv/mach-gd32vf10x/bsp/gd32vf103_rcu.c ****       \arg        RCU_LXTAL: low speed crystal oscillator(LXTAL)
 851:arch/riscv/mach-gd32vf10x/bsp/gd32vf103_rcu.c ****       \arg        RCU_IRC8M: internal 8M RC oscillators(IRC8M)
 852:arch/riscv/mach-gd32vf10x/bsp/gd32vf103_rcu.c ****       \arg        RCU_IRC40K: internal 40K RC oscillator(IRC40K)
 853:arch/riscv/mach-gd32vf10x/bsp/gd32vf103_rcu.c ****       \arg        RCU_PLL_CK: phase locked loop(PLL)
 854:arch/riscv/mach-gd32vf10x/bsp/gd32vf103_rcu.c ****       \arg        RCU_PLL1_CK: phase locked loop 1
 855:arch/riscv/mach-gd32vf10x/bsp/gd32vf103_rcu.c ****       \arg        RCU_PLL2_CK: phase locked loop 2
 856:arch/riscv/mach-gd32vf10x/bsp/gd32vf103_rcu.c ****     \param[out] none
 857:arch/riscv/mach-gd32vf10x/bsp/gd32vf103_rcu.c ****     \retval     none
 858:arch/riscv/mach-gd32vf10x/bsp/gd32vf103_rcu.c **** */
 859:arch/riscv/mach-gd32vf10x/bsp/gd32vf103_rcu.c **** void rcu_osci_off(rcu_osci_type_enum osci)
 860:arch/riscv/mach-gd32vf10x/bsp/gd32vf103_rcu.c **** {
 1453              		.loc 1 860 1 is_stmt 1
 1454              		.cfi_startproc
 1455              	.LVL132:
 861:arch/riscv/mach-gd32vf10x/bsp/gd32vf103_rcu.c ****     RCU_REG_VAL(osci) &= ~BIT(RCU_BIT_POS(osci));
 1456              		.loc 1 861 5
 1457              		.loc 1 861 23 is_stmt 0
 1458 0000 B7170240 		li	a5,1073876992
 1459 0004 13576500 		srli	a4,a0,6
 1460 0008 3E97     		add	a4,a4,a5
 1461 000a 1443     		lw	a3,0(a4)
 1462              		.loc 1 861 27
 1463 000c 8547     		li	a5,1
 1464 000e B397A700 		sll	a5,a5,a0
 1465              		.loc 1 861 26
GAS LISTING C:\Users\test\AppData\Local\Temp\cciHZyrV.s 			page 47


 1466 0012 93C7F7FF 		not	a5,a5
 1467              		.loc 1 861 23
 1468 0016 F58F     		and	a5,a5,a3
 1469 0018 1CC3     		sw	a5,0(a4)
 862:arch/riscv/mach-gd32vf10x/bsp/gd32vf103_rcu.c **** }
 1470              		.loc 1 862 1
 1471 001a 8280     		ret
 1472              		.cfi_endproc
 1473              	.LFE35:
 1475              		.section	.text.rcu_osci_bypass_mode_enable,"ax",@progbits
 1476              		.align	1
 1477              		.globl	rcu_osci_bypass_mode_enable
 1479              	rcu_osci_bypass_mode_enable:
 1480              	.LFB36:
 863:arch/riscv/mach-gd32vf10x/bsp/gd32vf103_rcu.c **** 
 864:arch/riscv/mach-gd32vf10x/bsp/gd32vf103_rcu.c **** /*!
 865:arch/riscv/mach-gd32vf10x/bsp/gd32vf103_rcu.c ****     \brief      enable the oscillator bypass mode, HXTALEN or LXTALEN must be reset before it
 866:arch/riscv/mach-gd32vf10x/bsp/gd32vf103_rcu.c ****     \param[in]  osci: oscillator types, refer to rcu_osci_type_enum
 867:arch/riscv/mach-gd32vf10x/bsp/gd32vf103_rcu.c ****                 only one parameter can be selected which is shown as below:
 868:arch/riscv/mach-gd32vf10x/bsp/gd32vf103_rcu.c ****       \arg        RCU_HXTAL: high speed crystal oscillator(HXTAL)
 869:arch/riscv/mach-gd32vf10x/bsp/gd32vf103_rcu.c ****       \arg        RCU_LXTAL: low speed crystal oscillator(LXTAL)
 870:arch/riscv/mach-gd32vf10x/bsp/gd32vf103_rcu.c ****     \param[out] none
 871:arch/riscv/mach-gd32vf10x/bsp/gd32vf103_rcu.c ****     \retval     none
 872:arch/riscv/mach-gd32vf10x/bsp/gd32vf103_rcu.c **** */
 873:arch/riscv/mach-gd32vf10x/bsp/gd32vf103_rcu.c **** void rcu_osci_bypass_mode_enable(rcu_osci_type_enum osci)
 874:arch/riscv/mach-gd32vf10x/bsp/gd32vf103_rcu.c **** {
 1481              		.loc 1 874 1 is_stmt 1
 1482              		.cfi_startproc
 1483              	.LVL133:
 875:arch/riscv/mach-gd32vf10x/bsp/gd32vf103_rcu.c ****     uint32_t reg;
 1484              		.loc 1 875 5
 876:arch/riscv/mach-gd32vf10x/bsp/gd32vf103_rcu.c **** 
 877:arch/riscv/mach-gd32vf10x/bsp/gd32vf103_rcu.c ****     switch(osci){
 1485              		.loc 1 877 5
 1486 0000 C147     		li	a5,16
 1487 0002 6300F502 		beq	a0,a5,.L85
 1488 0006 13050580 		addi	a0,a0,-2048
 1489              	.LVL134:
 1490 000a 19E9     		bne	a0,zero,.L88
 878:arch/riscv/mach-gd32vf10x/bsp/gd32vf103_rcu.c ****     /* enable HXTAL to bypass mode */
 879:arch/riscv/mach-gd32vf10x/bsp/gd32vf103_rcu.c ****     case RCU_HXTAL:
 880:arch/riscv/mach-gd32vf10x/bsp/gd32vf103_rcu.c ****         reg = RCU_CTL;
 881:arch/riscv/mach-gd32vf10x/bsp/gd32vf103_rcu.c ****         RCU_CTL &= ~RCU_CTL_HXTALEN;
 882:arch/riscv/mach-gd32vf10x/bsp/gd32vf103_rcu.c ****         RCU_CTL = (reg | RCU_CTL_HXTALBPS);
 883:arch/riscv/mach-gd32vf10x/bsp/gd32vf103_rcu.c ****         break;
 884:arch/riscv/mach-gd32vf10x/bsp/gd32vf103_rcu.c ****     /* enable LXTAL to bypass mode */
 885:arch/riscv/mach-gd32vf10x/bsp/gd32vf103_rcu.c ****     case RCU_LXTAL:
 886:arch/riscv/mach-gd32vf10x/bsp/gd32vf103_rcu.c ****         reg = RCU_BDCTL;
 1491              		.loc 1 886 9
 1492              		.loc 1 886 13 is_stmt 0
 1493 000c B7170240 		li	a5,1073876992
 1494 0010 9853     		lw	a4,32(a5)
 1495              	.LVL135:
 887:arch/riscv/mach-gd32vf10x/bsp/gd32vf103_rcu.c ****         RCU_BDCTL &= ~RCU_BDCTL_LXTALEN;
 1496              		.loc 1 887 9 is_stmt 1
 1497              		.loc 1 887 19 is_stmt 0
 1498 0012 9453     		lw	a3,32(a5)
GAS LISTING C:\Users\test\AppData\Local\Temp\cciHZyrV.s 			page 48


 888:arch/riscv/mach-gd32vf10x/bsp/gd32vf103_rcu.c ****         RCU_BDCTL = (reg | RCU_BDCTL_LXTALBPS);
 1499              		.loc 1 888 26
 1500 0014 13674700 		ori	a4,a4,4
 1501              	.LVL136:
 887:arch/riscv/mach-gd32vf10x/bsp/gd32vf103_rcu.c ****         RCU_BDCTL &= ~RCU_BDCTL_LXTALEN;
 1502              		.loc 1 887 19
 1503 0018 F99A     		andi	a3,a3,-2
 1504 001a 94D3     		sw	a3,32(a5)
 1505              		.loc 1 888 9 is_stmt 1
 1506              		.loc 1 888 19 is_stmt 0
 1507 001c 98D3     		sw	a4,32(a5)
 889:arch/riscv/mach-gd32vf10x/bsp/gd32vf103_rcu.c ****         break;
 1508              		.loc 1 889 9 is_stmt 1
 890:arch/riscv/mach-gd32vf10x/bsp/gd32vf103_rcu.c ****     case RCU_IRC8M:
 891:arch/riscv/mach-gd32vf10x/bsp/gd32vf103_rcu.c ****     case RCU_IRC40K:
 892:arch/riscv/mach-gd32vf10x/bsp/gd32vf103_rcu.c ****     case RCU_PLL_CK:
 893:arch/riscv/mach-gd32vf10x/bsp/gd32vf103_rcu.c ****     case RCU_PLL1_CK:
 894:arch/riscv/mach-gd32vf10x/bsp/gd32vf103_rcu.c ****     case RCU_PLL2_CK:
 895:arch/riscv/mach-gd32vf10x/bsp/gd32vf103_rcu.c ****         break;
 896:arch/riscv/mach-gd32vf10x/bsp/gd32vf103_rcu.c ****     default:
 897:arch/riscv/mach-gd32vf10x/bsp/gd32vf103_rcu.c ****         break;
 898:arch/riscv/mach-gd32vf10x/bsp/gd32vf103_rcu.c ****     }
 899:arch/riscv/mach-gd32vf10x/bsp/gd32vf103_rcu.c **** }
 1509              		.loc 1 899 1 is_stmt 0
 1510 001e 8280     		ret
 1511              	.L88:
 1512 0020 8280     		ret
 1513              	.LVL137:
 1514              	.L85:
 880:arch/riscv/mach-gd32vf10x/bsp/gd32vf103_rcu.c ****         RCU_CTL &= ~RCU_CTL_HXTALEN;
 1515              		.loc 1 880 9 is_stmt 1
 880:arch/riscv/mach-gd32vf10x/bsp/gd32vf103_rcu.c ****         RCU_CTL &= ~RCU_CTL_HXTALEN;
 1516              		.loc 1 880 13 is_stmt 0
 1517 0022 B7170240 		li	a5,1073876992
 1518 0026 9843     		lw	a4,0(a5)
 1519              	.LVL138:
 881:arch/riscv/mach-gd32vf10x/bsp/gd32vf103_rcu.c ****         RCU_CTL = (reg | RCU_CTL_HXTALBPS);
 1520              		.loc 1 881 9 is_stmt 1
 881:arch/riscv/mach-gd32vf10x/bsp/gd32vf103_rcu.c ****         RCU_CTL = (reg | RCU_CTL_HXTALBPS);
 1521              		.loc 1 881 17 is_stmt 0
 1522 0028 9443     		lw	a3,0(a5)
 1523 002a 4176     		li	a2,-65536
 1524 002c 7D16     		addi	a2,a2,-1
 1525 002e F18E     		and	a3,a3,a2
 1526 0030 94C3     		sw	a3,0(a5)
 882:arch/riscv/mach-gd32vf10x/bsp/gd32vf103_rcu.c ****         break;
 1527              		.loc 1 882 9 is_stmt 1
 882:arch/riscv/mach-gd32vf10x/bsp/gd32vf103_rcu.c ****         break;
 1528              		.loc 1 882 24 is_stmt 0
 1529 0032 B7060400 		li	a3,262144
 1530 0036 558F     		or	a4,a4,a3
 1531              	.LVL139:
 882:arch/riscv/mach-gd32vf10x/bsp/gd32vf103_rcu.c ****         break;
 1532              		.loc 1 882 17
 1533 0038 98C3     		sw	a4,0(a5)
 883:arch/riscv/mach-gd32vf10x/bsp/gd32vf103_rcu.c ****     /* enable LXTAL to bypass mode */
 1534              		.loc 1 883 9 is_stmt 1
GAS LISTING C:\Users\test\AppData\Local\Temp\cciHZyrV.s 			page 49


 1535 003a 8280     		ret
 1536              		.cfi_endproc
 1537              	.LFE36:
 1539              		.section	.text.rcu_osci_bypass_mode_disable,"ax",@progbits
 1540              		.align	1
 1541              		.globl	rcu_osci_bypass_mode_disable
 1543              	rcu_osci_bypass_mode_disable:
 1544              	.LFB37:
 900:arch/riscv/mach-gd32vf10x/bsp/gd32vf103_rcu.c **** 
 901:arch/riscv/mach-gd32vf10x/bsp/gd32vf103_rcu.c **** /*!
 902:arch/riscv/mach-gd32vf10x/bsp/gd32vf103_rcu.c ****     \brief      disable the oscillator bypass mode, HXTALEN or LXTALEN must be reset before it
 903:arch/riscv/mach-gd32vf10x/bsp/gd32vf103_rcu.c ****     \param[in]  osci: oscillator types, refer to rcu_osci_type_enum
 904:arch/riscv/mach-gd32vf10x/bsp/gd32vf103_rcu.c ****                 only one parameter can be selected which is shown as below:
 905:arch/riscv/mach-gd32vf10x/bsp/gd32vf103_rcu.c ****       \arg        RCU_HXTAL: high speed crystal oscillator(HXTAL)
 906:arch/riscv/mach-gd32vf10x/bsp/gd32vf103_rcu.c ****       \arg        RCU_LXTAL: low speed crystal oscillator(LXTAL)
 907:arch/riscv/mach-gd32vf10x/bsp/gd32vf103_rcu.c ****     \param[out] none
 908:arch/riscv/mach-gd32vf10x/bsp/gd32vf103_rcu.c ****     \retval     none
 909:arch/riscv/mach-gd32vf10x/bsp/gd32vf103_rcu.c **** */
 910:arch/riscv/mach-gd32vf10x/bsp/gd32vf103_rcu.c **** void rcu_osci_bypass_mode_disable(rcu_osci_type_enum osci)
 911:arch/riscv/mach-gd32vf10x/bsp/gd32vf103_rcu.c **** {
 1545              		.loc 1 911 1
 1546              		.cfi_startproc
 1547              	.LVL140:
 912:arch/riscv/mach-gd32vf10x/bsp/gd32vf103_rcu.c ****     uint32_t reg;
 1548              		.loc 1 912 5
 913:arch/riscv/mach-gd32vf10x/bsp/gd32vf103_rcu.c ****     
 914:arch/riscv/mach-gd32vf10x/bsp/gd32vf103_rcu.c ****     switch(osci){
 1549              		.loc 1 914 5
 1550 0000 C147     		li	a5,16
 1551 0002 630FF500 		beq	a0,a5,.L90
 1552 0006 13050580 		addi	a0,a0,-2048
 1553              	.LVL141:
 1554 000a 11E9     		bne	a0,zero,.L93
 915:arch/riscv/mach-gd32vf10x/bsp/gd32vf103_rcu.c ****     /* disable HXTAL to bypass mode */
 916:arch/riscv/mach-gd32vf10x/bsp/gd32vf103_rcu.c ****     case RCU_HXTAL:
 917:arch/riscv/mach-gd32vf10x/bsp/gd32vf103_rcu.c ****         reg = RCU_CTL;
 918:arch/riscv/mach-gd32vf10x/bsp/gd32vf103_rcu.c ****         RCU_CTL &= ~RCU_CTL_HXTALEN;
 919:arch/riscv/mach-gd32vf10x/bsp/gd32vf103_rcu.c ****         RCU_CTL = (reg & ~RCU_CTL_HXTALBPS);
 920:arch/riscv/mach-gd32vf10x/bsp/gd32vf103_rcu.c ****         break;
 921:arch/riscv/mach-gd32vf10x/bsp/gd32vf103_rcu.c ****     /* disable LXTAL to bypass mode */
 922:arch/riscv/mach-gd32vf10x/bsp/gd32vf103_rcu.c ****     case RCU_LXTAL:
 923:arch/riscv/mach-gd32vf10x/bsp/gd32vf103_rcu.c ****         reg = RCU_BDCTL;
 1555              		.loc 1 923 9
 1556              		.loc 1 923 13 is_stmt 0
 1557 000c B7170240 		li	a5,1073876992
 1558 0010 9853     		lw	a4,32(a5)
 1559              	.LVL142:
 924:arch/riscv/mach-gd32vf10x/bsp/gd32vf103_rcu.c ****         RCU_BDCTL &= ~RCU_BDCTL_LXTALEN;
 1560              		.loc 1 924 9 is_stmt 1
 1561              		.loc 1 924 19 is_stmt 0
 1562 0012 9453     		lw	a3,32(a5)
 925:arch/riscv/mach-gd32vf10x/bsp/gd32vf103_rcu.c ****         RCU_BDCTL = (reg & ~RCU_BDCTL_LXTALBPS);
 1563              		.loc 1 925 26
 1564 0014 6D9B     		andi	a4,a4,-5
 1565              	.LVL143:
 924:arch/riscv/mach-gd32vf10x/bsp/gd32vf103_rcu.c ****         RCU_BDCTL &= ~RCU_BDCTL_LXTALEN;
 1566              		.loc 1 924 19
GAS LISTING C:\Users\test\AppData\Local\Temp\cciHZyrV.s 			page 50


 1567 0016 F99A     		andi	a3,a3,-2
 1568 0018 94D3     		sw	a3,32(a5)
 1569              		.loc 1 925 9 is_stmt 1
 1570              		.loc 1 925 19 is_stmt 0
 1571 001a 98D3     		sw	a4,32(a5)
 926:arch/riscv/mach-gd32vf10x/bsp/gd32vf103_rcu.c ****         break;
 1572              		.loc 1 926 9 is_stmt 1
 927:arch/riscv/mach-gd32vf10x/bsp/gd32vf103_rcu.c ****     case RCU_IRC8M:
 928:arch/riscv/mach-gd32vf10x/bsp/gd32vf103_rcu.c ****     case RCU_IRC40K:
 929:arch/riscv/mach-gd32vf10x/bsp/gd32vf103_rcu.c ****     case RCU_PLL_CK:
 930:arch/riscv/mach-gd32vf10x/bsp/gd32vf103_rcu.c ****     case RCU_PLL1_CK:
 931:arch/riscv/mach-gd32vf10x/bsp/gd32vf103_rcu.c ****     case RCU_PLL2_CK:
 932:arch/riscv/mach-gd32vf10x/bsp/gd32vf103_rcu.c ****         break;
 933:arch/riscv/mach-gd32vf10x/bsp/gd32vf103_rcu.c ****     default:
 934:arch/riscv/mach-gd32vf10x/bsp/gd32vf103_rcu.c ****         break;
 935:arch/riscv/mach-gd32vf10x/bsp/gd32vf103_rcu.c ****     }
 936:arch/riscv/mach-gd32vf10x/bsp/gd32vf103_rcu.c **** }
 1573              		.loc 1 936 1 is_stmt 0
 1574 001c 8280     		ret
 1575              	.L93:
 1576 001e 8280     		ret
 1577              	.LVL144:
 1578              	.L90:
 917:arch/riscv/mach-gd32vf10x/bsp/gd32vf103_rcu.c ****         RCU_CTL &= ~RCU_CTL_HXTALEN;
 1579              		.loc 1 917 9 is_stmt 1
 917:arch/riscv/mach-gd32vf10x/bsp/gd32vf103_rcu.c ****         RCU_CTL &= ~RCU_CTL_HXTALEN;
 1580              		.loc 1 917 13 is_stmt 0
 1581 0020 B7170240 		li	a5,1073876992
 1582 0024 9843     		lw	a4,0(a5)
 1583              	.LVL145:
 918:arch/riscv/mach-gd32vf10x/bsp/gd32vf103_rcu.c ****         RCU_CTL = (reg & ~RCU_CTL_HXTALBPS);
 1584              		.loc 1 918 9 is_stmt 1
 918:arch/riscv/mach-gd32vf10x/bsp/gd32vf103_rcu.c ****         RCU_CTL = (reg & ~RCU_CTL_HXTALBPS);
 1585              		.loc 1 918 17 is_stmt 0
 1586 0026 9443     		lw	a3,0(a5)
 1587 0028 4176     		li	a2,-65536
 1588 002a 7D16     		addi	a2,a2,-1
 1589 002c F18E     		and	a3,a3,a2
 1590 002e 94C3     		sw	a3,0(a5)
 919:arch/riscv/mach-gd32vf10x/bsp/gd32vf103_rcu.c ****         break;
 1591              		.loc 1 919 9 is_stmt 1
 919:arch/riscv/mach-gd32vf10x/bsp/gd32vf103_rcu.c ****         break;
 1592              		.loc 1 919 24 is_stmt 0
 1593 0030 B706FCFF 		li	a3,-262144
 1594 0034 FD16     		addi	a3,a3,-1
 1595 0036 758F     		and	a4,a4,a3
 1596              	.LVL146:
 919:arch/riscv/mach-gd32vf10x/bsp/gd32vf103_rcu.c ****         break;
 1597              		.loc 1 919 17
 1598 0038 98C3     		sw	a4,0(a5)
 920:arch/riscv/mach-gd32vf10x/bsp/gd32vf103_rcu.c ****     /* disable LXTAL to bypass mode */
 1599              		.loc 1 920 9 is_stmt 1
 1600 003a 8280     		ret
 1601              		.cfi_endproc
 1602              	.LFE37:
 1604              		.section	.text.rcu_hxtal_clock_monitor_enable,"ax",@progbits
 1605              		.align	1
GAS LISTING C:\Users\test\AppData\Local\Temp\cciHZyrV.s 			page 51


 1606              		.globl	rcu_hxtal_clock_monitor_enable
 1608              	rcu_hxtal_clock_monitor_enable:
 1609              	.LFB38:
 937:arch/riscv/mach-gd32vf10x/bsp/gd32vf103_rcu.c **** 
 938:arch/riscv/mach-gd32vf10x/bsp/gd32vf103_rcu.c **** /*!
 939:arch/riscv/mach-gd32vf10x/bsp/gd32vf103_rcu.c ****     \brief      enable the HXTAL clock monitor
 940:arch/riscv/mach-gd32vf10x/bsp/gd32vf103_rcu.c ****     \param[in]  none
 941:arch/riscv/mach-gd32vf10x/bsp/gd32vf103_rcu.c ****     \param[out] none
 942:arch/riscv/mach-gd32vf10x/bsp/gd32vf103_rcu.c ****     \retval     none
 943:arch/riscv/mach-gd32vf10x/bsp/gd32vf103_rcu.c **** */
 944:arch/riscv/mach-gd32vf10x/bsp/gd32vf103_rcu.c **** 
 945:arch/riscv/mach-gd32vf10x/bsp/gd32vf103_rcu.c **** void rcu_hxtal_clock_monitor_enable(void)
 946:arch/riscv/mach-gd32vf10x/bsp/gd32vf103_rcu.c **** {
 1610              		.loc 1 946 1
 1611              		.cfi_startproc
 947:arch/riscv/mach-gd32vf10x/bsp/gd32vf103_rcu.c ****     RCU_CTL |= RCU_CTL_CKMEN;
 1612              		.loc 1 947 5
 1613              		.loc 1 947 13 is_stmt 0
 1614 0000 37170240 		li	a4,1073876992
 1615 0004 1C43     		lw	a5,0(a4)
 1616 0006 B7060800 		li	a3,524288
 1617 000a D58F     		or	a5,a5,a3
 1618 000c 1CC3     		sw	a5,0(a4)
 948:arch/riscv/mach-gd32vf10x/bsp/gd32vf103_rcu.c **** }
 1619              		.loc 1 948 1
 1620 000e 8280     		ret
 1621              		.cfi_endproc
 1622              	.LFE38:
 1624              		.section	.text.rcu_hxtal_clock_monitor_disable,"ax",@progbits
 1625              		.align	1
 1626              		.globl	rcu_hxtal_clock_monitor_disable
 1628              	rcu_hxtal_clock_monitor_disable:
 1629              	.LFB39:
 949:arch/riscv/mach-gd32vf10x/bsp/gd32vf103_rcu.c **** 
 950:arch/riscv/mach-gd32vf10x/bsp/gd32vf103_rcu.c **** /*!
 951:arch/riscv/mach-gd32vf10x/bsp/gd32vf103_rcu.c ****     \brief      disable the HXTAL clock monitor
 952:arch/riscv/mach-gd32vf10x/bsp/gd32vf103_rcu.c ****     \param[in]  none
 953:arch/riscv/mach-gd32vf10x/bsp/gd32vf103_rcu.c ****     \param[out] none
 954:arch/riscv/mach-gd32vf10x/bsp/gd32vf103_rcu.c ****     \retval     none
 955:arch/riscv/mach-gd32vf10x/bsp/gd32vf103_rcu.c **** */
 956:arch/riscv/mach-gd32vf10x/bsp/gd32vf103_rcu.c **** void rcu_hxtal_clock_monitor_disable(void)
 957:arch/riscv/mach-gd32vf10x/bsp/gd32vf103_rcu.c **** {
 1630              		.loc 1 957 1 is_stmt 1
 1631              		.cfi_startproc
 958:arch/riscv/mach-gd32vf10x/bsp/gd32vf103_rcu.c ****     RCU_CTL &= ~RCU_CTL_CKMEN;
 1632              		.loc 1 958 5
 1633              		.loc 1 958 13 is_stmt 0
 1634 0000 B7160240 		li	a3,1073876992
 1635 0004 9C42     		lw	a5,0(a3)
 1636 0006 3707F8FF 		li	a4,-524288
 1637 000a 7D17     		addi	a4,a4,-1
 1638 000c F98F     		and	a5,a5,a4
 1639 000e 9CC2     		sw	a5,0(a3)
 959:arch/riscv/mach-gd32vf10x/bsp/gd32vf103_rcu.c **** }
 1640              		.loc 1 959 1
 1641 0010 8280     		ret
 1642              		.cfi_endproc
GAS LISTING C:\Users\test\AppData\Local\Temp\cciHZyrV.s 			page 52


 1643              	.LFE39:
 1645              		.section	.text.rcu_irc8m_adjust_value_set,"ax",@progbits
 1646              		.align	1
 1647              		.globl	rcu_irc8m_adjust_value_set
 1649              	rcu_irc8m_adjust_value_set:
 1650              	.LFB40:
 960:arch/riscv/mach-gd32vf10x/bsp/gd32vf103_rcu.c **** 
 961:arch/riscv/mach-gd32vf10x/bsp/gd32vf103_rcu.c **** /*!
 962:arch/riscv/mach-gd32vf10x/bsp/gd32vf103_rcu.c ****     \brief      set the IRC8M adjust value
 963:arch/riscv/mach-gd32vf10x/bsp/gd32vf103_rcu.c ****     \param[in]  irc8m_adjval: IRC8M adjust value, must be between 0 and 0x1F
 964:arch/riscv/mach-gd32vf10x/bsp/gd32vf103_rcu.c ****     \param[out] none
 965:arch/riscv/mach-gd32vf10x/bsp/gd32vf103_rcu.c ****     \retval     none
 966:arch/riscv/mach-gd32vf10x/bsp/gd32vf103_rcu.c **** */
 967:arch/riscv/mach-gd32vf10x/bsp/gd32vf103_rcu.c **** void rcu_irc8m_adjust_value_set(uint32_t irc8m_adjval)
 968:arch/riscv/mach-gd32vf10x/bsp/gd32vf103_rcu.c **** {
 1651              		.loc 1 968 1 is_stmt 1
 1652              		.cfi_startproc
 1653              	.LVL147:
 969:arch/riscv/mach-gd32vf10x/bsp/gd32vf103_rcu.c ****     uint32_t reg;
 1654              		.loc 1 969 5
 970:arch/riscv/mach-gd32vf10x/bsp/gd32vf103_rcu.c ****     
 971:arch/riscv/mach-gd32vf10x/bsp/gd32vf103_rcu.c ****     reg = RCU_CTL;
 1655              		.loc 1 971 5
 1656              		.loc 1 971 9 is_stmt 0
 1657 0000 37170240 		li	a4,1073876992
 1658 0004 1C43     		lw	a5,0(a4)
 1659              	.LVL148:
 972:arch/riscv/mach-gd32vf10x/bsp/gd32vf103_rcu.c ****     /* reset the IRC8MADJ bits and set according to irc8m_adjval */
 973:arch/riscv/mach-gd32vf10x/bsp/gd32vf103_rcu.c ****     reg &= ~RCU_CTL_IRC8MADJ;
 1660              		.loc 1 973 5 is_stmt 1
 974:arch/riscv/mach-gd32vf10x/bsp/gd32vf103_rcu.c ****     RCU_CTL = (reg | ((irc8m_adjval & 0x1FU) << 3));
 1661              		.loc 1 974 5
 1662              		.loc 1 974 46 is_stmt 0
 1663 0006 0E05     		slli	a0,a0,3
 1664              	.LVL149:
 1665 0008 1375F50F 		andi	a0,a0,255
 973:arch/riscv/mach-gd32vf10x/bsp/gd32vf103_rcu.c ****     RCU_CTL = (reg | ((irc8m_adjval & 0x1FU) << 3));
 1666              		.loc 1 973 9
 1667 000c 93F777F0 		andi	a5,a5,-249
 1668              	.LVL150:
 1669              		.loc 1 974 20
 1670 0010 5D8D     		or	a0,a0,a5
 1671              		.loc 1 974 13
 1672 0012 08C3     		sw	a0,0(a4)
 975:arch/riscv/mach-gd32vf10x/bsp/gd32vf103_rcu.c **** }
 1673              		.loc 1 975 1
 1674 0014 8280     		ret
 1675              		.cfi_endproc
 1676              	.LFE40:
 1678              		.section	.text.rcu_deepsleep_voltage_set,"ax",@progbits
 1679              		.align	1
 1680              		.globl	rcu_deepsleep_voltage_set
 1682              	rcu_deepsleep_voltage_set:
 1683              	.LFB41:
 976:arch/riscv/mach-gd32vf10x/bsp/gd32vf103_rcu.c **** 
 977:arch/riscv/mach-gd32vf10x/bsp/gd32vf103_rcu.c **** /*!
 978:arch/riscv/mach-gd32vf10x/bsp/gd32vf103_rcu.c ****     \brief      deep-sleep mode voltage select
GAS LISTING C:\Users\test\AppData\Local\Temp\cciHZyrV.s 			page 53


 979:arch/riscv/mach-gd32vf10x/bsp/gd32vf103_rcu.c ****     \param[in]  dsvol: deep sleep mode voltage
 980:arch/riscv/mach-gd32vf10x/bsp/gd32vf103_rcu.c ****                 only one parameter can be selected which is shown as below:
 981:arch/riscv/mach-gd32vf10x/bsp/gd32vf103_rcu.c ****       \arg        RCU_DEEPSLEEP_V_1_2: the core voltage is 1.2V
 982:arch/riscv/mach-gd32vf10x/bsp/gd32vf103_rcu.c ****       \arg        RCU_DEEPSLEEP_V_1_1: the core voltage is 1.1V
 983:arch/riscv/mach-gd32vf10x/bsp/gd32vf103_rcu.c ****       \arg        RCU_DEEPSLEEP_V_1_0: the core voltage is 1.0V
 984:arch/riscv/mach-gd32vf10x/bsp/gd32vf103_rcu.c ****       \arg        RCU_DEEPSLEEP_V_0_9: the core voltage is 0.9V
 985:arch/riscv/mach-gd32vf10x/bsp/gd32vf103_rcu.c ****     \param[out] none
 986:arch/riscv/mach-gd32vf10x/bsp/gd32vf103_rcu.c ****     \retval     none
 987:arch/riscv/mach-gd32vf10x/bsp/gd32vf103_rcu.c **** */
 988:arch/riscv/mach-gd32vf10x/bsp/gd32vf103_rcu.c **** void rcu_deepsleep_voltage_set(uint32_t dsvol)
 989:arch/riscv/mach-gd32vf10x/bsp/gd32vf103_rcu.c **** {    
 1684              		.loc 1 989 1 is_stmt 1
 1685              		.cfi_startproc
 1686              	.LVL151:
 990:arch/riscv/mach-gd32vf10x/bsp/gd32vf103_rcu.c ****     dsvol &= RCU_DSV_DSLPVS;
 1687              		.loc 1 990 5
 1688              		.loc 1 990 11 is_stmt 0
 1689 0000 0D89     		andi	a0,a0,3
 1690              	.LVL152:
 991:arch/riscv/mach-gd32vf10x/bsp/gd32vf103_rcu.c ****     RCU_DSV = dsvol;
 1691              		.loc 1 991 5 is_stmt 1
 1692              		.loc 1 991 13 is_stmt 0
 1693 0002 B7170240 		li	a5,1073876992
 1694 0006 C8DB     		sw	a0,52(a5)
 992:arch/riscv/mach-gd32vf10x/bsp/gd32vf103_rcu.c **** }
 1695              		.loc 1 992 1
 1696 0008 8280     		ret
 1697              		.cfi_endproc
 1698              	.LFE41:
 1700              		.section	.text.rcu_clock_freq_get,"ax",@progbits
 1701              		.align	1
 1702              		.globl	rcu_clock_freq_get
 1704              	rcu_clock_freq_get:
 1705              	.LFB42:
 993:arch/riscv/mach-gd32vf10x/bsp/gd32vf103_rcu.c **** 
 994:arch/riscv/mach-gd32vf10x/bsp/gd32vf103_rcu.c **** /*!
 995:arch/riscv/mach-gd32vf10x/bsp/gd32vf103_rcu.c ****     \brief      get the system clock, bus and peripheral clock frequency
 996:arch/riscv/mach-gd32vf10x/bsp/gd32vf103_rcu.c ****     \param[in]  clock: the clock frequency which to get
 997:arch/riscv/mach-gd32vf10x/bsp/gd32vf103_rcu.c ****                 only one parameter can be selected which is shown as below:
 998:arch/riscv/mach-gd32vf10x/bsp/gd32vf103_rcu.c ****       \arg        CK_SYS: system clock frequency
 999:arch/riscv/mach-gd32vf10x/bsp/gd32vf103_rcu.c ****       \arg        CK_AHB: AHB clock frequency
1000:arch/riscv/mach-gd32vf10x/bsp/gd32vf103_rcu.c ****       \arg        CK_APB1: APB1 clock frequency
1001:arch/riscv/mach-gd32vf10x/bsp/gd32vf103_rcu.c ****       \arg        CK_APB2: APB2 clock frequency
1002:arch/riscv/mach-gd32vf10x/bsp/gd32vf103_rcu.c ****     \param[out] none
1003:arch/riscv/mach-gd32vf10x/bsp/gd32vf103_rcu.c ****     \retval     clock frequency of system, AHB, APB1, APB2
1004:arch/riscv/mach-gd32vf10x/bsp/gd32vf103_rcu.c **** */
1005:arch/riscv/mach-gd32vf10x/bsp/gd32vf103_rcu.c **** uint32_t rcu_clock_freq_get(rcu_clock_freq_enum clock)
1006:arch/riscv/mach-gd32vf10x/bsp/gd32vf103_rcu.c **** {
 1706              		.loc 1 1006 1 is_stmt 1
 1707              		.cfi_startproc
 1708              	.LVL153:
1007:arch/riscv/mach-gd32vf10x/bsp/gd32vf103_rcu.c ****     uint32_t sws, ck_freq = 0U;
 1709              		.loc 1 1007 5
1008:arch/riscv/mach-gd32vf10x/bsp/gd32vf103_rcu.c ****     uint32_t cksys_freq, ahb_freq, apb1_freq, apb2_freq;
 1710              		.loc 1 1008 5
1009:arch/riscv/mach-gd32vf10x/bsp/gd32vf103_rcu.c ****     uint32_t pllsel, predv0sel, pllmf,ck_src, idx, clk_exp;
 1711              		.loc 1 1009 5
GAS LISTING C:\Users\test\AppData\Local\Temp\cciHZyrV.s 			page 54


1010:arch/riscv/mach-gd32vf10x/bsp/gd32vf103_rcu.c ****     uint32_t predv0, predv1, pll1mf;
 1712              		.loc 1 1010 5
1011:arch/riscv/mach-gd32vf10x/bsp/gd32vf103_rcu.c **** 
1012:arch/riscv/mach-gd32vf10x/bsp/gd32vf103_rcu.c ****     /* exponent of AHB, APB1 and APB2 clock divider */
1013:arch/riscv/mach-gd32vf10x/bsp/gd32vf103_rcu.c ****     uint8_t ahb_exp[16] = {0, 0, 0, 0, 0, 0, 0, 0, 1, 2, 3, 4, 6, 7, 8, 9};
 1713              		.loc 1 1013 5
 1714              		.loc 1 1013 13 is_stmt 0
 1715 0000 B7070304 		li	a5,67305472
 1716 0004 37070809 		li	a4,151519232
1006:arch/riscv/mach-gd32vf10x/bsp/gd32vf103_rcu.c ****     uint32_t sws, ck_freq = 0U;
 1717              		.loc 1 1006 1
 1718 0008 0111     		addi	sp,sp,-32
 1719              	.LCFI0:
 1720              		.cfi_def_cfa_offset 32
 1721              		.loc 1 1013 13
 1722 000a 93871720 		addi	a5,a5,513
 1723 000e 13076770 		addi	a4,a4,1798
 1724 0012 3ECC     		sw	a5,24(sp)
1014:arch/riscv/mach-gd32vf10x/bsp/gd32vf103_rcu.c ****     uint8_t apb1_exp[8] = {0, 0, 0, 0, 1, 2, 3, 4};
 1725              		.loc 1 1014 13
 1726 0014 3EC2     		sw	a5,4(sp)
1015:arch/riscv/mach-gd32vf10x/bsp/gd32vf103_rcu.c ****     uint8_t apb2_exp[8] = {0, 0, 0, 0, 1, 2, 3, 4};
 1727              		.loc 1 1015 13
 1728 0016 3EC6     		sw	a5,12(sp)
1013:arch/riscv/mach-gd32vf10x/bsp/gd32vf103_rcu.c ****     uint8_t apb1_exp[8] = {0, 0, 0, 0, 1, 2, 3, 4};
 1729              		.loc 1 1013 13
 1730 0018 02C8     		sw	zero,16(sp)
 1731 001a 02CA     		sw	zero,20(sp)
 1732 001c 3ACE     		sw	a4,28(sp)
1014:arch/riscv/mach-gd32vf10x/bsp/gd32vf103_rcu.c ****     uint8_t apb1_exp[8] = {0, 0, 0, 0, 1, 2, 3, 4};
 1733              		.loc 1 1014 5 is_stmt 1
 1734              		.loc 1 1015 5
1016:arch/riscv/mach-gd32vf10x/bsp/gd32vf103_rcu.c **** 
1017:arch/riscv/mach-gd32vf10x/bsp/gd32vf103_rcu.c ****     sws = GET_BITS(RCU_CFG0, 2, 3);
 1735              		.loc 1 1017 5
1014:arch/riscv/mach-gd32vf10x/bsp/gd32vf103_rcu.c ****     uint8_t apb2_exp[8] = {0, 0, 0, 0, 1, 2, 3, 4};
 1736              		.loc 1 1014 13 is_stmt 0
 1737 001e 02C0     		sw	zero,0(sp)
1015:arch/riscv/mach-gd32vf10x/bsp/gd32vf103_rcu.c **** 
 1738              		.loc 1 1015 13
 1739 0020 02C4     		sw	zero,8(sp)
 1740              		.loc 1 1017 11
 1741 0022 B7160240 		li	a3,1073876992
 1742 0026 D842     		lw	a4,4(a3)
 1743              	.LVL154:
1018:arch/riscv/mach-gd32vf10x/bsp/gd32vf103_rcu.c ****     switch(sws){
 1744              		.loc 1 1018 5 is_stmt 1
1019:arch/riscv/mach-gd32vf10x/bsp/gd32vf103_rcu.c ****     /* IRC8M is selected as CK_SYS */
1020:arch/riscv/mach-gd32vf10x/bsp/gd32vf103_rcu.c ****     case SEL_IRC8M:
1021:arch/riscv/mach-gd32vf10x/bsp/gd32vf103_rcu.c ****         cksys_freq = IRC8M_VALUE;
 1745              		.loc 1 1021 20 is_stmt 0
 1746 0028 B7177A00 		li	a5,7999488
1018:arch/riscv/mach-gd32vf10x/bsp/gd32vf103_rcu.c ****     switch(sws){
 1747              		.loc 1 1018 5
 1748 002c 0946     		li	a2,2
1017:arch/riscv/mach-gd32vf10x/bsp/gd32vf103_rcu.c ****     switch(sws){
 1749              		.loc 1 1017 11
GAS LISTING C:\Users\test\AppData\Local\Temp\cciHZyrV.s 			page 55


 1750 002e 0983     		srli	a4,a4,2
 1751              	.LVL155:
1017:arch/riscv/mach-gd32vf10x/bsp/gd32vf103_rcu.c ****     switch(sws){
 1752              		.loc 1 1017 9
 1753 0030 0D8B     		andi	a4,a4,3
 1754              	.LVL156:
 1755              		.loc 1 1021 20
 1756 0032 93870720 		addi	a5,a5,512
1018:arch/riscv/mach-gd32vf10x/bsp/gd32vf103_rcu.c ****     switch(sws){
 1757              		.loc 1 1018 5
 1758 0036 630DC704 		beq	a4,a2,.L118
 1759              	.LVL157:
 1760              	.L99:
1022:arch/riscv/mach-gd32vf10x/bsp/gd32vf103_rcu.c ****         break;
1023:arch/riscv/mach-gd32vf10x/bsp/gd32vf103_rcu.c ****     /* HXTAL is selected as CK_SYS */
1024:arch/riscv/mach-gd32vf10x/bsp/gd32vf103_rcu.c ****     case SEL_HXTAL:
1025:arch/riscv/mach-gd32vf10x/bsp/gd32vf103_rcu.c ****         cksys_freq = HXTAL_VALUE;
1026:arch/riscv/mach-gd32vf10x/bsp/gd32vf103_rcu.c ****         break;
1027:arch/riscv/mach-gd32vf10x/bsp/gd32vf103_rcu.c ****     /* PLL is selected as CK_SYS */
1028:arch/riscv/mach-gd32vf10x/bsp/gd32vf103_rcu.c ****     case SEL_PLL:
1029:arch/riscv/mach-gd32vf10x/bsp/gd32vf103_rcu.c ****         /* PLL clock source selection, HXTAL or IRC8M/2 */
1030:arch/riscv/mach-gd32vf10x/bsp/gd32vf103_rcu.c ****         pllsel = (RCU_CFG0 & RCU_CFG0_PLLSEL);
1031:arch/riscv/mach-gd32vf10x/bsp/gd32vf103_rcu.c **** 
1032:arch/riscv/mach-gd32vf10x/bsp/gd32vf103_rcu.c ****         if(RCU_PLLSRC_HXTAL == pllsel) {
1033:arch/riscv/mach-gd32vf10x/bsp/gd32vf103_rcu.c ****             /* PLL clock source is HXTAL */
1034:arch/riscv/mach-gd32vf10x/bsp/gd32vf103_rcu.c ****             ck_src = HXTAL_VALUE;
1035:arch/riscv/mach-gd32vf10x/bsp/gd32vf103_rcu.c **** 
1036:arch/riscv/mach-gd32vf10x/bsp/gd32vf103_rcu.c ****             predv0sel = (RCU_CFG1 & RCU_CFG1_PREDV0SEL);
1037:arch/riscv/mach-gd32vf10x/bsp/gd32vf103_rcu.c ****             /* source clock use PLL1 */
1038:arch/riscv/mach-gd32vf10x/bsp/gd32vf103_rcu.c ****             if(RCU_PREDV0SRC_CKPLL1 == predv0sel){
1039:arch/riscv/mach-gd32vf10x/bsp/gd32vf103_rcu.c ****                 predv1 = (uint32_t)((RCU_CFG1 & RCU_CFG1_PREDV1) >> 4) + 1U;
1040:arch/riscv/mach-gd32vf10x/bsp/gd32vf103_rcu.c ****                 pll1mf = (uint32_t)((RCU_CFG1 & RCU_CFG1_PLL1MF) >> 8) + 2U;
1041:arch/riscv/mach-gd32vf10x/bsp/gd32vf103_rcu.c ****                 if(17U == pll1mf){
1042:arch/riscv/mach-gd32vf10x/bsp/gd32vf103_rcu.c ****                     pll1mf = 20U;
1043:arch/riscv/mach-gd32vf10x/bsp/gd32vf103_rcu.c ****                 }
1044:arch/riscv/mach-gd32vf10x/bsp/gd32vf103_rcu.c ****                 ck_src = (ck_src / predv1) * pll1mf;
1045:arch/riscv/mach-gd32vf10x/bsp/gd32vf103_rcu.c ****             }
1046:arch/riscv/mach-gd32vf10x/bsp/gd32vf103_rcu.c ****             predv0 = (RCU_CFG1 & RCU_CFG1_PREDV0) + 1U;
1047:arch/riscv/mach-gd32vf10x/bsp/gd32vf103_rcu.c ****             ck_src /= predv0;
1048:arch/riscv/mach-gd32vf10x/bsp/gd32vf103_rcu.c ****         }else{
1049:arch/riscv/mach-gd32vf10x/bsp/gd32vf103_rcu.c ****             /* PLL clock source is IRC8M/2 */
1050:arch/riscv/mach-gd32vf10x/bsp/gd32vf103_rcu.c ****             ck_src = IRC8M_VALUE/2U;
1051:arch/riscv/mach-gd32vf10x/bsp/gd32vf103_rcu.c ****         }
1052:arch/riscv/mach-gd32vf10x/bsp/gd32vf103_rcu.c **** 
1053:arch/riscv/mach-gd32vf10x/bsp/gd32vf103_rcu.c ****         /* PLL multiplication factor */
1054:arch/riscv/mach-gd32vf10x/bsp/gd32vf103_rcu.c ****         pllmf = GET_BITS(RCU_CFG0, 18, 21);
1055:arch/riscv/mach-gd32vf10x/bsp/gd32vf103_rcu.c ****         if((RCU_CFG0 & RCU_CFG0_PLLMF_4)){
1056:arch/riscv/mach-gd32vf10x/bsp/gd32vf103_rcu.c ****             pllmf |= 0x10U;
1057:arch/riscv/mach-gd32vf10x/bsp/gd32vf103_rcu.c ****         }
1058:arch/riscv/mach-gd32vf10x/bsp/gd32vf103_rcu.c ****         if(pllmf < 15U){
1059:arch/riscv/mach-gd32vf10x/bsp/gd32vf103_rcu.c ****             pllmf += 2U;
1060:arch/riscv/mach-gd32vf10x/bsp/gd32vf103_rcu.c ****         }else{
1061:arch/riscv/mach-gd32vf10x/bsp/gd32vf103_rcu.c ****             pllmf += 1U;
1062:arch/riscv/mach-gd32vf10x/bsp/gd32vf103_rcu.c ****         }
1063:arch/riscv/mach-gd32vf10x/bsp/gd32vf103_rcu.c **** 
1064:arch/riscv/mach-gd32vf10x/bsp/gd32vf103_rcu.c ****         cksys_freq = ck_src * pllmf;
1065:arch/riscv/mach-gd32vf10x/bsp/gd32vf103_rcu.c **** 
GAS LISTING C:\Users\test\AppData\Local\Temp\cciHZyrV.s 			page 56


1066:arch/riscv/mach-gd32vf10x/bsp/gd32vf103_rcu.c ****         if(15U == pllmf){
1067:arch/riscv/mach-gd32vf10x/bsp/gd32vf103_rcu.c ****             /* PLL source clock multiply by 6.5 */
1068:arch/riscv/mach-gd32vf10x/bsp/gd32vf103_rcu.c ****             cksys_freq = ck_src * 6U + ck_src / 2U;
1069:arch/riscv/mach-gd32vf10x/bsp/gd32vf103_rcu.c ****         }
1070:arch/riscv/mach-gd32vf10x/bsp/gd32vf103_rcu.c **** 
1071:arch/riscv/mach-gd32vf10x/bsp/gd32vf103_rcu.c ****         break;
1072:arch/riscv/mach-gd32vf10x/bsp/gd32vf103_rcu.c ****     /* IRC8M is selected as CK_SYS */
1073:arch/riscv/mach-gd32vf10x/bsp/gd32vf103_rcu.c ****     default:
1074:arch/riscv/mach-gd32vf10x/bsp/gd32vf103_rcu.c ****         cksys_freq = IRC8M_VALUE;
1075:arch/riscv/mach-gd32vf10x/bsp/gd32vf103_rcu.c ****         break;
1076:arch/riscv/mach-gd32vf10x/bsp/gd32vf103_rcu.c ****     }
1077:arch/riscv/mach-gd32vf10x/bsp/gd32vf103_rcu.c **** 
1078:arch/riscv/mach-gd32vf10x/bsp/gd32vf103_rcu.c ****     /* calculate AHB clock frequency */
1079:arch/riscv/mach-gd32vf10x/bsp/gd32vf103_rcu.c ****     idx = GET_BITS(RCU_CFG0, 4, 7);
 1761              		.loc 1 1079 5 is_stmt 1
 1762              		.loc 1 1079 11 is_stmt 0
 1763 003a 37170240 		li	a4,1073876992
 1764 003e 5043     		lw	a2,4(a4)
 1765              	.LVL158:
1080:arch/riscv/mach-gd32vf10x/bsp/gd32vf103_rcu.c ****     clk_exp = ahb_exp[idx];
 1766              		.loc 1 1080 5 is_stmt 1
1081:arch/riscv/mach-gd32vf10x/bsp/gd32vf103_rcu.c ****     ahb_freq = cksys_freq >> clk_exp;
 1767              		.loc 1 1081 5
1082:arch/riscv/mach-gd32vf10x/bsp/gd32vf103_rcu.c ****     
1083:arch/riscv/mach-gd32vf10x/bsp/gd32vf103_rcu.c ****     /* calculate APB1 clock frequency */
1084:arch/riscv/mach-gd32vf10x/bsp/gd32vf103_rcu.c ****     idx = GET_BITS(RCU_CFG0, 8, 10);
 1768              		.loc 1 1084 11 is_stmt 0
 1769 0040 5443     		lw	a3,4(a4)
1085:arch/riscv/mach-gd32vf10x/bsp/gd32vf103_rcu.c ****     clk_exp = apb1_exp[idx];
1086:arch/riscv/mach-gd32vf10x/bsp/gd32vf103_rcu.c ****     apb1_freq = ahb_freq >> clk_exp;
1087:arch/riscv/mach-gd32vf10x/bsp/gd32vf103_rcu.c ****     
1088:arch/riscv/mach-gd32vf10x/bsp/gd32vf103_rcu.c ****     /* calculate APB2 clock frequency */
1089:arch/riscv/mach-gd32vf10x/bsp/gd32vf103_rcu.c ****     idx = GET_BITS(RCU_CFG0, 11, 13);
 1770              		.loc 1 1089 11
 1771 0042 5843     		lw	a4,4(a4)
1079:arch/riscv/mach-gd32vf10x/bsp/gd32vf103_rcu.c ****     clk_exp = ahb_exp[idx];
 1772              		.loc 1 1079 11
 1773 0044 1182     		srli	a2,a2,4
 1774              	.LVL159:
1080:arch/riscv/mach-gd32vf10x/bsp/gd32vf103_rcu.c ****     ahb_freq = cksys_freq >> clk_exp;
 1775              		.loc 1 1080 22
 1776 0046 0C10     		addi	a1,sp,32
1079:arch/riscv/mach-gd32vf10x/bsp/gd32vf103_rcu.c ****     clk_exp = ahb_exp[idx];
 1777              		.loc 1 1079 9
 1778 0048 3D8A     		andi	a2,a2,15
 1779              	.LVL160:
1080:arch/riscv/mach-gd32vf10x/bsp/gd32vf103_rcu.c ****     ahb_freq = cksys_freq >> clk_exp;
 1780              		.loc 1 1080 22
 1781 004a 2E96     		add	a2,a1,a2
 1782              	.LVL161:
1080:arch/riscv/mach-gd32vf10x/bsp/gd32vf103_rcu.c ****     ahb_freq = cksys_freq >> clk_exp;
 1783              		.loc 1 1080 13
 1784 004c 034606FF 		lbu	a2,-16(a2)
1084:arch/riscv/mach-gd32vf10x/bsp/gd32vf103_rcu.c ****     clk_exp = apb1_exp[idx];
 1785              		.loc 1 1084 11
 1786 0050 A182     		srli	a3,a3,8
 1787              		.loc 1 1089 11
GAS LISTING C:\Users\test\AppData\Local\Temp\cciHZyrV.s 			page 57


 1788 0052 2D83     		srli	a4,a4,11
1084:arch/riscv/mach-gd32vf10x/bsp/gd32vf103_rcu.c ****     clk_exp = apb1_exp[idx];
 1789              		.loc 1 1084 9
 1790 0054 9D8A     		andi	a3,a3,7
 1791              		.loc 1 1089 9
 1792 0056 1D8B     		andi	a4,a4,7
1090:arch/riscv/mach-gd32vf10x/bsp/gd32vf103_rcu.c ****     clk_exp = apb2_exp[idx];
 1793              		.loc 1 1090 23
 1794 0058 2E97     		add	a4,a1,a4
1085:arch/riscv/mach-gd32vf10x/bsp/gd32vf103_rcu.c ****     apb1_freq = ahb_freq >> clk_exp;
 1795              		.loc 1 1085 23
 1796 005a AE96     		add	a3,a1,a3
1091:arch/riscv/mach-gd32vf10x/bsp/gd32vf103_rcu.c ****     apb2_freq = ahb_freq >> clk_exp;
1092:arch/riscv/mach-gd32vf10x/bsp/gd32vf103_rcu.c ****     
1093:arch/riscv/mach-gd32vf10x/bsp/gd32vf103_rcu.c ****     /* return the clocks frequency */
1094:arch/riscv/mach-gd32vf10x/bsp/gd32vf103_rcu.c ****     switch(clock){
 1797              		.loc 1 1094 5
 1798 005c 0548     		li	a6,1
1081:arch/riscv/mach-gd32vf10x/bsp/gd32vf103_rcu.c ****     
 1799              		.loc 1 1081 14
 1800 005e 33D6C700 		srl	a2,a5,a2
 1801              	.LVL162:
1084:arch/riscv/mach-gd32vf10x/bsp/gd32vf103_rcu.c ****     clk_exp = apb1_exp[idx];
 1802              		.loc 1 1084 5 is_stmt 1
1085:arch/riscv/mach-gd32vf10x/bsp/gd32vf103_rcu.c ****     apb1_freq = ahb_freq >> clk_exp;
 1803              		.loc 1 1085 5
1085:arch/riscv/mach-gd32vf10x/bsp/gd32vf103_rcu.c ****     apb1_freq = ahb_freq >> clk_exp;
 1804              		.loc 1 1085 23 is_stmt 0
 1805 0062 83C506FE 		lbu	a1,-32(a3)
 1806              	.LVL163:
1086:arch/riscv/mach-gd32vf10x/bsp/gd32vf103_rcu.c ****     
 1807              		.loc 1 1086 5 is_stmt 1
1089:arch/riscv/mach-gd32vf10x/bsp/gd32vf103_rcu.c ****     clk_exp = apb2_exp[idx];
 1808              		.loc 1 1089 5
1090:arch/riscv/mach-gd32vf10x/bsp/gd32vf103_rcu.c ****     apb2_freq = ahb_freq >> clk_exp;
 1809              		.loc 1 1090 5
1090:arch/riscv/mach-gd32vf10x/bsp/gd32vf103_rcu.c ****     apb2_freq = ahb_freq >> clk_exp;
 1810              		.loc 1 1090 23 is_stmt 0
 1811 0066 034787FE 		lbu	a4,-24(a4)
 1812              	.LVL164:
1091:arch/riscv/mach-gd32vf10x/bsp/gd32vf103_rcu.c ****     
 1813              		.loc 1 1091 5 is_stmt 1
 1814              		.loc 1 1094 5
 1815 006a 6301050B 		beq	a0,a6,.L112
 1816 006e 11CD     		beq	a0,zero,.L98
 1817 0070 8946     		li	a3,2
1086:arch/riscv/mach-gd32vf10x/bsp/gd32vf103_rcu.c ****     
 1818              		.loc 1 1086 15 is_stmt 0
 1819 0072 B357B600 		srl	a5,a2,a1
 1820              	.LVL165:
 1821              		.loc 1 1094 5
 1822 0076 630AD500 		beq	a0,a3,.L98
1007:arch/riscv/mach-gd32vf10x/bsp/gd32vf103_rcu.c ****     uint32_t cksys_freq, ahb_freq, apb1_freq, apb2_freq;
 1823              		.loc 1 1007 19
 1824 007a 7515     		addi	a0,a0,-3
 1825              	.LVL166:
 1826 007c 13351500 		seqz	a0,a0
GAS LISTING C:\Users\test\AppData\Local\Temp\cciHZyrV.s 			page 58


 1827              	.LVL167:
1091:arch/riscv/mach-gd32vf10x/bsp/gd32vf103_rcu.c ****     
 1828              		.loc 1 1091 15
 1829 0080 B357E600 		srl	a5,a2,a4
1007:arch/riscv/mach-gd32vf10x/bsp/gd32vf103_rcu.c ****     uint32_t cksys_freq, ahb_freq, apb1_freq, apb2_freq;
 1830              		.loc 1 1007 19
 1831 0084 3305A040 		neg	a0,a0
 1832 0088 E98F     		and	a5,a5,a0
 1833              	.L98:
1095:arch/riscv/mach-gd32vf10x/bsp/gd32vf103_rcu.c ****     case CK_SYS:
1096:arch/riscv/mach-gd32vf10x/bsp/gd32vf103_rcu.c ****         ck_freq = cksys_freq;
1097:arch/riscv/mach-gd32vf10x/bsp/gd32vf103_rcu.c ****         break;
1098:arch/riscv/mach-gd32vf10x/bsp/gd32vf103_rcu.c ****     case CK_AHB:
1099:arch/riscv/mach-gd32vf10x/bsp/gd32vf103_rcu.c ****         ck_freq = ahb_freq;
1100:arch/riscv/mach-gd32vf10x/bsp/gd32vf103_rcu.c ****         break;
1101:arch/riscv/mach-gd32vf10x/bsp/gd32vf103_rcu.c ****     case CK_APB1:
1102:arch/riscv/mach-gd32vf10x/bsp/gd32vf103_rcu.c ****         ck_freq = apb1_freq;
1103:arch/riscv/mach-gd32vf10x/bsp/gd32vf103_rcu.c ****         break;
1104:arch/riscv/mach-gd32vf10x/bsp/gd32vf103_rcu.c ****     case CK_APB2:
1105:arch/riscv/mach-gd32vf10x/bsp/gd32vf103_rcu.c ****         ck_freq = apb2_freq;
1106:arch/riscv/mach-gd32vf10x/bsp/gd32vf103_rcu.c ****         break;
1107:arch/riscv/mach-gd32vf10x/bsp/gd32vf103_rcu.c ****     default:
1108:arch/riscv/mach-gd32vf10x/bsp/gd32vf103_rcu.c ****         break;
1109:arch/riscv/mach-gd32vf10x/bsp/gd32vf103_rcu.c ****     }
1110:arch/riscv/mach-gd32vf10x/bsp/gd32vf103_rcu.c ****     return ck_freq;
1111:arch/riscv/mach-gd32vf10x/bsp/gd32vf103_rcu.c **** }
 1834              		.loc 1 1111 1
 1835 008a 3E85     		mv	a0,a5
 1836 008c 0561     		addi	sp,sp,32
 1837              	.LCFI1:
 1838              		.cfi_remember_state
 1839              		.cfi_def_cfa_offset 0
 1840 008e 8280     		jr	ra
 1841              	.LVL168:
 1842              	.L118:
 1843              	.LCFI2:
 1844              		.cfi_restore_state
1030:arch/riscv/mach-gd32vf10x/bsp/gd32vf103_rcu.c **** 
 1845              		.loc 1 1030 9 is_stmt 1
1030:arch/riscv/mach-gd32vf10x/bsp/gd32vf103_rcu.c **** 
 1846              		.loc 1 1030 19 is_stmt 0
 1847 0090 D842     		lw	a4,4(a3)
 1848              	.LVL169:
1032:arch/riscv/mach-gd32vf10x/bsp/gd32vf103_rcu.c ****             /* PLL clock source is HXTAL */
 1849              		.loc 1 1032 9 is_stmt 1
1032:arch/riscv/mach-gd32vf10x/bsp/gd32vf103_rcu.c ****             /* PLL clock source is HXTAL */
 1850              		.loc 1 1032 11 is_stmt 0
 1851 0092 1316F700 		slli	a2,a4,15
 1852 0096 635F0606 		bge	a2,zero,.L110
1034:arch/riscv/mach-gd32vf10x/bsp/gd32vf103_rcu.c **** 
 1853              		.loc 1 1034 13 is_stmt 1
 1854              	.LVL170:
1036:arch/riscv/mach-gd32vf10x/bsp/gd32vf103_rcu.c ****             /* source clock use PLL1 */
 1855              		.loc 1 1036 13
1036:arch/riscv/mach-gd32vf10x/bsp/gd32vf103_rcu.c ****             /* source clock use PLL1 */
 1856              		.loc 1 1036 26 is_stmt 0
 1857 009a D856     		lw	a4,44(a3)
GAS LISTING C:\Users\test\AppData\Local\Temp\cciHZyrV.s 			page 59


 1858              	.LVL171:
1038:arch/riscv/mach-gd32vf10x/bsp/gd32vf103_rcu.c ****                 predv1 = (uint32_t)((RCU_CFG1 & RCU_CFG1_PREDV1) >> 4) + 1U;
 1859              		.loc 1 1038 13 is_stmt 1
1038:arch/riscv/mach-gd32vf10x/bsp/gd32vf103_rcu.c ****                 predv1 = (uint32_t)((RCU_CFG1 & RCU_CFG1_PREDV1) >> 4) + 1U;
 1860              		.loc 1 1038 15 is_stmt 0
 1861 009c 1316F700 		slli	a2,a4,15
 1862 00a0 63580602 		bge	a2,zero,.L101
1039:arch/riscv/mach-gd32vf10x/bsp/gd32vf103_rcu.c ****                 pll1mf = (uint32_t)((RCU_CFG1 & RCU_CFG1_PLL1MF) >> 8) + 2U;
 1863              		.loc 1 1039 17 is_stmt 1
1039:arch/riscv/mach-gd32vf10x/bsp/gd32vf103_rcu.c ****                 pll1mf = (uint32_t)((RCU_CFG1 & RCU_CFG1_PLL1MF) >> 8) + 2U;
 1864              		.loc 1 1039 38 is_stmt 0
 1865 00a4 D856     		lw	a4,44(a3)
 1866              	.LVL172:
1040:arch/riscv/mach-gd32vf10x/bsp/gd32vf103_rcu.c ****                 if(17U == pll1mf){
 1867              		.loc 1 1040 38
 1868 00a6 DC56     		lw	a5,44(a3)
1041:arch/riscv/mach-gd32vf10x/bsp/gd32vf103_rcu.c ****                     pll1mf = 20U;
 1869              		.loc 1 1041 19
 1870 00a8 4546     		li	a2,17
1039:arch/riscv/mach-gd32vf10x/bsp/gd32vf103_rcu.c ****                 pll1mf = (uint32_t)((RCU_CFG1 & RCU_CFG1_PLL1MF) >> 8) + 2U;
 1871              		.loc 1 1039 26
 1872 00aa 93564700 		srli	a3,a4,4
1040:arch/riscv/mach-gd32vf10x/bsp/gd32vf103_rcu.c ****                 if(17U == pll1mf){
 1873              		.loc 1 1040 26
 1874 00ae A183     		srli	a5,a5,8
 1875 00b0 BD8B     		andi	a5,a5,15
1039:arch/riscv/mach-gd32vf10x/bsp/gd32vf103_rcu.c ****                 pll1mf = (uint32_t)((RCU_CFG1 & RCU_CFG1_PLL1MF) >> 8) + 2U;
 1876              		.loc 1 1039 26
 1877 00b2 BD8A     		andi	a3,a3,15
1040:arch/riscv/mach-gd32vf10x/bsp/gd32vf103_rcu.c ****                 if(17U == pll1mf){
 1878              		.loc 1 1040 24
 1879 00b4 13872700 		addi	a4,a5,2
1039:arch/riscv/mach-gd32vf10x/bsp/gd32vf103_rcu.c ****                 pll1mf = (uint32_t)((RCU_CFG1 & RCU_CFG1_PLL1MF) >> 8) + 2U;
 1880              		.loc 1 1039 24
 1881 00b8 8506     		addi	a3,a3,1
 1882              	.LVL173:
1040:arch/riscv/mach-gd32vf10x/bsp/gd32vf103_rcu.c ****                 if(17U == pll1mf){
 1883              		.loc 1 1040 17 is_stmt 1
1041:arch/riscv/mach-gd32vf10x/bsp/gd32vf103_rcu.c ****                     pll1mf = 20U;
 1884              		.loc 1 1041 17
1041:arch/riscv/mach-gd32vf10x/bsp/gd32vf103_rcu.c ****                     pll1mf = 20U;
 1885              		.loc 1 1041 19 is_stmt 0
 1886 00ba 6313C700 		bne	a4,a2,.L102
1042:arch/riscv/mach-gd32vf10x/bsp/gd32vf103_rcu.c ****                 }
 1887              		.loc 1 1042 28
 1888 00be 5147     		li	a4,20
 1889              	.LVL174:
 1890              	.L102:
1044:arch/riscv/mach-gd32vf10x/bsp/gd32vf103_rcu.c ****             }
 1891              		.loc 1 1044 17 is_stmt 1
1044:arch/riscv/mach-gd32vf10x/bsp/gd32vf103_rcu.c ****             }
 1892              		.loc 1 1044 34 is_stmt 0
 1893 00c0 B7177A00 		li	a5,7999488
 1894 00c4 93870720 		addi	a5,a5,512
 1895 00c8 B3D7D702 		divu	a5,a5,a3
1044:arch/riscv/mach-gd32vf10x/bsp/gd32vf103_rcu.c ****             }
 1896              		.loc 1 1044 24
GAS LISTING C:\Users\test\AppData\Local\Temp\cciHZyrV.s 			page 60


 1897 00cc B387E702 		mul	a5,a5,a4
 1898              	.LVL175:
 1899              	.L101:
1046:arch/riscv/mach-gd32vf10x/bsp/gd32vf103_rcu.c ****             ck_src /= predv0;
 1900              		.loc 1 1046 13 is_stmt 1
1046:arch/riscv/mach-gd32vf10x/bsp/gd32vf103_rcu.c ****             ck_src /= predv0;
 1901              		.loc 1 1046 23 is_stmt 0
 1902 00d0 37170240 		li	a4,1073876992
 1903 00d4 5857     		lw	a4,44(a4)
 1904              	.LVL176:
1047:arch/riscv/mach-gd32vf10x/bsp/gd32vf103_rcu.c ****         }else{
 1905              		.loc 1 1047 13 is_stmt 1
1054:arch/riscv/mach-gd32vf10x/bsp/gd32vf103_rcu.c ****         if((RCU_CFG0 & RCU_CFG0_PLLMF_4)){
 1906              		.loc 1 1054 17 is_stmt 0
 1907 00d6 B7160240 		li	a3,1073876992
1046:arch/riscv/mach-gd32vf10x/bsp/gd32vf103_rcu.c ****             ck_src /= predv0;
 1908              		.loc 1 1046 32
 1909 00da 3D8B     		andi	a4,a4,15
 1910              	.LVL177:
1046:arch/riscv/mach-gd32vf10x/bsp/gd32vf103_rcu.c ****             ck_src /= predv0;
 1911              		.loc 1 1046 20
 1912 00dc 0507     		addi	a4,a4,1
 1913              	.LVL178:
1047:arch/riscv/mach-gd32vf10x/bsp/gd32vf103_rcu.c ****         }else{
 1914              		.loc 1 1047 20
 1915 00de B3D7E702 		divu	a5,a5,a4
 1916              	.LVL179:
1054:arch/riscv/mach-gd32vf10x/bsp/gd32vf103_rcu.c ****         if((RCU_CFG0 & RCU_CFG0_PLLMF_4)){
 1917              		.loc 1 1054 9 is_stmt 1
1054:arch/riscv/mach-gd32vf10x/bsp/gd32vf103_rcu.c ****         if((RCU_CFG0 & RCU_CFG0_PLLMF_4)){
 1918              		.loc 1 1054 17 is_stmt 0
 1919 00e2 D842     		lw	a4,4(a3)
 1920              	.LVL180:
1055:arch/riscv/mach-gd32vf10x/bsp/gd32vf103_rcu.c ****             pllmf |= 0x10U;
 1921              		.loc 1 1055 13
 1922 00e4 D442     		lw	a3,4(a3)
1054:arch/riscv/mach-gd32vf10x/bsp/gd32vf103_rcu.c ****         if((RCU_CFG0 & RCU_CFG0_PLLMF_4)){
 1923              		.loc 1 1054 17
 1924 00e6 4983     		srli	a4,a4,18
1055:arch/riscv/mach-gd32vf10x/bsp/gd32vf103_rcu.c ****             pllmf |= 0x10U;
 1925              		.loc 1 1055 11
 1926 00e8 13962600 		slli	a2,a3,2
1054:arch/riscv/mach-gd32vf10x/bsp/gd32vf103_rcu.c ****         if((RCU_CFG0 & RCU_CFG0_PLLMF_4)){
 1927              		.loc 1 1054 15
 1928 00ec 3D8B     		andi	a4,a4,15
 1929              	.LVL181:
1055:arch/riscv/mach-gd32vf10x/bsp/gd32vf103_rcu.c ****             pllmf |= 0x10U;
 1930              		.loc 1 1055 9 is_stmt 1
1055:arch/riscv/mach-gd32vf10x/bsp/gd32vf103_rcu.c ****             pllmf |= 0x10U;
 1931              		.loc 1 1055 11 is_stmt 0
 1932 00ee 63410604 		blt	a2,zero,.L119
 1933              	.L103:
1058:arch/riscv/mach-gd32vf10x/bsp/gd32vf103_rcu.c ****             pllmf += 2U;
 1934              		.loc 1 1058 9 is_stmt 1
1058:arch/riscv/mach-gd32vf10x/bsp/gd32vf103_rcu.c ****             pllmf += 2U;
 1935              		.loc 1 1058 11 is_stmt 0
 1936 00f2 BD46     		li	a3,15
GAS LISTING C:\Users\test\AppData\Local\Temp\cciHZyrV.s 			page 61


 1937 00f4 6300D704 		beq	a4,a3,.L104
1059:arch/riscv/mach-gd32vf10x/bsp/gd32vf103_rcu.c ****         }else{
 1938              		.loc 1 1059 13 is_stmt 1
1059:arch/riscv/mach-gd32vf10x/bsp/gd32vf103_rcu.c ****         }else{
 1939              		.loc 1 1059 19 is_stmt 0
 1940 00f8 0907     		addi	a4,a4,2
 1941              	.LVL182:
1064:arch/riscv/mach-gd32vf10x/bsp/gd32vf103_rcu.c **** 
 1942              		.loc 1 1064 9 is_stmt 1
1066:arch/riscv/mach-gd32vf10x/bsp/gd32vf103_rcu.c ****             /* PLL source clock multiply by 6.5 */
 1943              		.loc 1 1066 9
1066:arch/riscv/mach-gd32vf10x/bsp/gd32vf103_rcu.c ****             /* PLL source clock multiply by 6.5 */
 1944              		.loc 1 1066 11 is_stmt 0
 1945 00fa 631ED702 		bne	a4,a3,.L117
1068:arch/riscv/mach-gd32vf10x/bsp/gd32vf103_rcu.c ****         }
 1946              		.loc 1 1068 13 is_stmt 1
1068:arch/riscv/mach-gd32vf10x/bsp/gd32vf103_rcu.c ****         }
 1947              		.loc 1 1068 33 is_stmt 0
 1948 00fe 13971700 		slli	a4,a5,1
 1949              	.LVL183:
 1950 0102 3E97     		add	a4,a4,a5
 1951 0104 0607     		slli	a4,a4,1
1068:arch/riscv/mach-gd32vf10x/bsp/gd32vf103_rcu.c ****         }
 1952              		.loc 1 1068 47
 1953 0106 8583     		srli	a5,a5,1
 1954              	.LVL184:
1068:arch/riscv/mach-gd32vf10x/bsp/gd32vf103_rcu.c ****         }
 1955              		.loc 1 1068 24
 1956 0108 BA97     		add	a5,a4,a5
 1957              	.LVL185:
 1958 010a 05BF     		j	.L99
 1959              	.LVL186:
 1960              	.L112:
1099:arch/riscv/mach-gd32vf10x/bsp/gd32vf103_rcu.c ****         break;
 1961              		.loc 1 1099 17
 1962 010c B287     		mv	a5,a2
 1963              	.LVL187:
1110:arch/riscv/mach-gd32vf10x/bsp/gd32vf103_rcu.c **** }
 1964              		.loc 1 1110 5 is_stmt 1
 1965              		.loc 1 1111 1 is_stmt 0
 1966 010e 3E85     		mv	a0,a5
 1967              	.LVL188:
 1968 0110 0561     		addi	sp,sp,32
 1969              	.LCFI3:
 1970              		.cfi_remember_state
 1971              		.cfi_def_cfa_offset 0
 1972 0112 8280     		jr	ra
 1973              	.LVL189:
 1974              	.L110:
 1975              	.LCFI4:
 1976              		.cfi_restore_state
1054:arch/riscv/mach-gd32vf10x/bsp/gd32vf103_rcu.c ****         if((RCU_CFG0 & RCU_CFG0_PLLMF_4)){
 1977              		.loc 1 1054 17
 1978 0114 B7160240 		li	a3,1073876992
 1979 0118 D842     		lw	a4,4(a3)
 1980              	.LVL190:
1055:arch/riscv/mach-gd32vf10x/bsp/gd32vf103_rcu.c ****             pllmf |= 0x10U;
GAS LISTING C:\Users\test\AppData\Local\Temp\cciHZyrV.s 			page 62


 1981              		.loc 1 1055 13
 1982 011a D442     		lw	a3,4(a3)
1050:arch/riscv/mach-gd32vf10x/bsp/gd32vf103_rcu.c ****         }
 1983              		.loc 1 1050 20
 1984 011c B7173D00 		li	a5,4001792
1054:arch/riscv/mach-gd32vf10x/bsp/gd32vf103_rcu.c ****         if((RCU_CFG0 & RCU_CFG0_PLLMF_4)){
 1985              		.loc 1 1054 17
 1986 0120 4983     		srli	a4,a4,18
1055:arch/riscv/mach-gd32vf10x/bsp/gd32vf103_rcu.c ****             pllmf |= 0x10U;
 1987              		.loc 1 1055 11
 1988 0122 13962600 		slli	a2,a3,2
1050:arch/riscv/mach-gd32vf10x/bsp/gd32vf103_rcu.c ****         }
 1989              		.loc 1 1050 20
 1990 0126 93870790 		addi	a5,a5,-1792
 1991              	.LVL191:
1054:arch/riscv/mach-gd32vf10x/bsp/gd32vf103_rcu.c ****         if((RCU_CFG0 & RCU_CFG0_PLLMF_4)){
 1992              		.loc 1 1054 9 is_stmt 1
1054:arch/riscv/mach-gd32vf10x/bsp/gd32vf103_rcu.c ****         if((RCU_CFG0 & RCU_CFG0_PLLMF_4)){
 1993              		.loc 1 1054 15 is_stmt 0
 1994 012a 3D8B     		andi	a4,a4,15
 1995              	.LVL192:
1055:arch/riscv/mach-gd32vf10x/bsp/gd32vf103_rcu.c ****             pllmf |= 0x10U;
 1996              		.loc 1 1055 9 is_stmt 1
1055:arch/riscv/mach-gd32vf10x/bsp/gd32vf103_rcu.c ****             pllmf |= 0x10U;
 1997              		.loc 1 1055 11 is_stmt 0
 1998 012c E35306FC 		bge	a2,zero,.L103
 1999              	.L119:
1056:arch/riscv/mach-gd32vf10x/bsp/gd32vf103_rcu.c ****         }
 2000              		.loc 1 1056 13 is_stmt 1
1056:arch/riscv/mach-gd32vf10x/bsp/gd32vf103_rcu.c ****         }
 2001              		.loc 1 1056 19 is_stmt 0
 2002 0130 13670701 		ori	a4,a4,16
 2003              	.LVL193:
1058:arch/riscv/mach-gd32vf10x/bsp/gd32vf103_rcu.c ****             pllmf += 2U;
 2004              		.loc 1 1058 9 is_stmt 1
 2005              	.L104:
1061:arch/riscv/mach-gd32vf10x/bsp/gd32vf103_rcu.c ****         }
 2006              		.loc 1 1061 13
1064:arch/riscv/mach-gd32vf10x/bsp/gd32vf103_rcu.c **** 
 2007              		.loc 1 1064 9
1061:arch/riscv/mach-gd32vf10x/bsp/gd32vf103_rcu.c ****         }
 2008              		.loc 1 1061 19 is_stmt 0
 2009 0134 0507     		addi	a4,a4,1
 2010              	.LVL194:
 2011              	.L117:
1064:arch/riscv/mach-gd32vf10x/bsp/gd32vf103_rcu.c **** 
 2012              		.loc 1 1064 20
 2013 0136 B307F702 		mul	a5,a4,a5
 2014              	.LVL195:
1066:arch/riscv/mach-gd32vf10x/bsp/gd32vf103_rcu.c ****             /* PLL source clock multiply by 6.5 */
 2015              		.loc 1 1066 9 is_stmt 1
 2016 013a 01B7     		j	.L99
 2017              		.cfi_endproc
 2018              	.LFE42:
 2020              		.text
 2021              	.Letext0:
 2022              		.file 2 "d:\\risc_v_gcc\\riscv-none-embed\\include\\machine\\_default_types.h"
GAS LISTING C:\Users\test\AppData\Local\Temp\cciHZyrV.s 			page 63


 2023              		.file 3 "d:\\risc_v_gcc\\riscv-none-embed\\include\\sys\\_stdint.h"
 2024              		.file 4 "arch/riscv/mach-gd32vf10x/system/gd32vf103.h"
 2025              		.file 5 "arch/riscv/mach-gd32vf10x/bsp/gd32vf103_rcu.h"
 2026              		.file 6 "arch/riscv/mach-gd32vf10x/system/system_gd32vf103.h"
GAS LISTING C:\Users\test\AppData\Local\Temp\cciHZyrV.s 			page 64


DEFINED SYMBOLS
                            *ABS*:0000000000000000 gd32vf103_rcu.c
C:\Users\test\AppData\Local\Temp\cciHZyrV.s:10     .text.rcu_deinit:0000000000000000 rcu_deinit
C:\Users\test\AppData\Local\Temp\cciHZyrV.s:14     .text.rcu_deinit:0000000000000000 .L0 
C:\Users\test\AppData\Local\Temp\cciHZyrV.s:15     .text.rcu_deinit:0000000000000000 .L0 
C:\Users\test\AppData\Local\Temp\cciHZyrV.s:16     .text.rcu_deinit:0000000000000000 .L0 
C:\Users\test\AppData\Local\Temp\cciHZyrV.s:17     .text.rcu_deinit:0000000000000000 .L0 
C:\Users\test\AppData\Local\Temp\cciHZyrV.s:25     .text.rcu_deinit:000000000000000a .L0 
C:\Users\test\AppData\Local\Temp\cciHZyrV.s:31     .text.rcu_deinit:000000000000000e .L0 
C:\Users\test\AppData\Local\Temp\cciHZyrV.s:37     .text.rcu_deinit:0000000000000014 .L0 
C:\Users\test\AppData\Local\Temp\cciHZyrV.s:38     .text.rcu_deinit:0000000000000014 .L0 
C:\Users\test\AppData\Local\Temp\cciHZyrV.s:39     .text.rcu_deinit:0000000000000014 .L0 
C:\Users\test\AppData\Local\Temp\cciHZyrV.s:40     .text.rcu_deinit:0000000000000014 .L0 
C:\Users\test\AppData\Local\Temp\cciHZyrV.s:42     .text.rcu_deinit:0000000000000014 .L0 
C:\Users\test\AppData\Local\Temp\cciHZyrV.s:45     .text.rcu_deinit:0000000000000014 .L0 
C:\Users\test\AppData\Local\Temp\cciHZyrV.s:46     .text.rcu_deinit:0000000000000014 .L0 
C:\Users\test\AppData\Local\Temp\cciHZyrV.s:49     .text.rcu_deinit:0000000000000014 .L0 
C:\Users\test\AppData\Local\Temp\cciHZyrV.s:52     .text.rcu_deinit:0000000000000014 .L0 
C:\Users\test\AppData\Local\Temp\cciHZyrV.s:53     .text.rcu_deinit:0000000000000014 .L0 
C:\Users\test\AppData\Local\Temp\cciHZyrV.s:57     .text.rcu_deinit:0000000000000018 .L0 
C:\Users\test\AppData\Local\Temp\cciHZyrV.s:66     .text.rcu_deinit:000000000000001c .L0 
C:\Users\test\AppData\Local\Temp\cciHZyrV.s:67     .text.rcu_deinit:000000000000001c .L0 
C:\Users\test\AppData\Local\Temp\cciHZyrV.s:68     .text.rcu_deinit:000000000000001c .L0 
C:\Users\test\AppData\Local\Temp\cciHZyrV.s:76     .text.rcu_deinit:0000000000000022 .L0 
C:\Users\test\AppData\Local\Temp\cciHZyrV.s:77     .text.rcu_deinit:0000000000000022 .L0 
C:\Users\test\AppData\Local\Temp\cciHZyrV.s:78     .text.rcu_deinit:0000000000000022 .L0 
C:\Users\test\AppData\Local\Temp\cciHZyrV.s:84     .text.rcu_deinit:000000000000002e .L0 
C:\Users\test\AppData\Local\Temp\cciHZyrV.s:85     .text.rcu_deinit:000000000000002e .L0 
C:\Users\test\AppData\Local\Temp\cciHZyrV.s:91     .text.rcu_deinit:000000000000003a .L0 
C:\Users\test\AppData\Local\Temp\cciHZyrV.s:92     .text.rcu_deinit:000000000000003a .L0 
C:\Users\test\AppData\Local\Temp\cciHZyrV.s:98     .text.rcu_deinit:0000000000000046 .L0 
C:\Users\test\AppData\Local\Temp\cciHZyrV.s:99     .text.rcu_deinit:0000000000000046 .L0 
C:\Users\test\AppData\Local\Temp\cciHZyrV.s:105    .text.rcu_deinit:0000000000000052 .L0 
C:\Users\test\AppData\Local\Temp\cciHZyrV.s:106    .text.rcu_deinit:0000000000000052 .L0 
C:\Users\test\AppData\Local\Temp\cciHZyrV.s:109    .text.rcu_deinit:0000000000000058 .L0 
C:\Users\test\AppData\Local\Temp\cciHZyrV.s:110    .text.rcu_deinit:0000000000000058 .L0 
C:\Users\test\AppData\Local\Temp\cciHZyrV.s:115    .text.rcu_deinit:0000000000000062 .L0 
C:\Users\test\AppData\Local\Temp\cciHZyrV.s:121    .text.rcu_deinit:0000000000000064 .L0 
C:\Users\test\AppData\Local\Temp\cciHZyrV.s:125    .text.rcu_deinit:0000000000000068 .L0 
C:\Users\test\AppData\Local\Temp\cciHZyrV.s:132    .text.rcu_periph_clock_enable:0000000000000000 rcu_periph_clock_enable
C:\Users\test\AppData\Local\Temp\cciHZyrV.s:135    .text.rcu_periph_clock_enable:0000000000000000 .L0 
C:\Users\test\AppData\Local\Temp\cciHZyrV.s:137    .text.rcu_periph_clock_enable:0000000000000000 .L0 
C:\Users\test\AppData\Local\Temp\cciHZyrV.s:138    .text.rcu_periph_clock_enable:0000000000000000 .L0 
C:\Users\test\AppData\Local\Temp\cciHZyrV.s:139    .text.rcu_periph_clock_enable:0000000000000000 .L0 
C:\Users\test\AppData\Local\Temp\cciHZyrV.s:144    .text.rcu_periph_clock_enable:000000000000000c .L0 
C:\Users\test\AppData\Local\Temp\cciHZyrV.s:147    .text.rcu_periph_clock_enable:0000000000000012 .L0 
C:\Users\test\AppData\Local\Temp\cciHZyrV.s:150    .text.rcu_periph_clock_enable:0000000000000016 .L0 
C:\Users\test\AppData\Local\Temp\cciHZyrV.s:151    .text.rcu_periph_clock_enable:0000000000000018 .L0 
C:\Users\test\AppData\Local\Temp\cciHZyrV.s:158    .text.rcu_periph_clock_disable:0000000000000000 rcu_periph_clock_disable
C:\Users\test\AppData\Local\Temp\cciHZyrV.s:161    .text.rcu_periph_clock_disable:0000000000000000 .L0 
C:\Users\test\AppData\Local\Temp\cciHZyrV.s:163    .text.rcu_periph_clock_disable:0000000000000000 .L0 
C:\Users\test\AppData\Local\Temp\cciHZyrV.s:164    .text.rcu_periph_clock_disable:0000000000000000 .L0 
C:\Users\test\AppData\Local\Temp\cciHZyrV.s:165    .text.rcu_periph_clock_disable:0000000000000000 .L0 
C:\Users\test\AppData\Local\Temp\cciHZyrV.s:170    .text.rcu_periph_clock_disable:000000000000000c .L0 
C:\Users\test\AppData\Local\Temp\cciHZyrV.s:173    .text.rcu_periph_clock_disable:0000000000000012 .L0 
C:\Users\test\AppData\Local\Temp\cciHZyrV.s:175    .text.rcu_periph_clock_disable:0000000000000016 .L0 
C:\Users\test\AppData\Local\Temp\cciHZyrV.s:178    .text.rcu_periph_clock_disable:000000000000001a .L0 
GAS LISTING C:\Users\test\AppData\Local\Temp\cciHZyrV.s 			page 65


C:\Users\test\AppData\Local\Temp\cciHZyrV.s:179    .text.rcu_periph_clock_disable:000000000000001c .L0 
C:\Users\test\AppData\Local\Temp\cciHZyrV.s:186    .text.rcu_periph_clock_sleep_enable:0000000000000000 rcu_periph_clock_sleep_enable
C:\Users\test\AppData\Local\Temp\cciHZyrV.s:189    .text.rcu_periph_clock_sleep_enable:0000000000000000 .L0 
C:\Users\test\AppData\Local\Temp\cciHZyrV.s:191    .text.rcu_periph_clock_sleep_enable:0000000000000000 .L0 
C:\Users\test\AppData\Local\Temp\cciHZyrV.s:192    .text.rcu_periph_clock_sleep_enable:0000000000000000 .L0 
C:\Users\test\AppData\Local\Temp\cciHZyrV.s:193    .text.rcu_periph_clock_sleep_enable:0000000000000000 .L0 
C:\Users\test\AppData\Local\Temp\cciHZyrV.s:198    .text.rcu_periph_clock_sleep_enable:000000000000000c .L0 
C:\Users\test\AppData\Local\Temp\cciHZyrV.s:201    .text.rcu_periph_clock_sleep_enable:0000000000000012 .L0 
C:\Users\test\AppData\Local\Temp\cciHZyrV.s:204    .text.rcu_periph_clock_sleep_enable:0000000000000016 .L0 
C:\Users\test\AppData\Local\Temp\cciHZyrV.s:205    .text.rcu_periph_clock_sleep_enable:0000000000000018 .L0 
C:\Users\test\AppData\Local\Temp\cciHZyrV.s:212    .text.rcu_periph_clock_sleep_disable:0000000000000000 rcu_periph_clock_sleep_disable
C:\Users\test\AppData\Local\Temp\cciHZyrV.s:215    .text.rcu_periph_clock_sleep_disable:0000000000000000 .L0 
C:\Users\test\AppData\Local\Temp\cciHZyrV.s:217    .text.rcu_periph_clock_sleep_disable:0000000000000000 .L0 
C:\Users\test\AppData\Local\Temp\cciHZyrV.s:218    .text.rcu_periph_clock_sleep_disable:0000000000000000 .L0 
C:\Users\test\AppData\Local\Temp\cciHZyrV.s:219    .text.rcu_periph_clock_sleep_disable:0000000000000000 .L0 
C:\Users\test\AppData\Local\Temp\cciHZyrV.s:224    .text.rcu_periph_clock_sleep_disable:000000000000000c .L0 
C:\Users\test\AppData\Local\Temp\cciHZyrV.s:227    .text.rcu_periph_clock_sleep_disable:0000000000000012 .L0 
C:\Users\test\AppData\Local\Temp\cciHZyrV.s:229    .text.rcu_periph_clock_sleep_disable:0000000000000016 .L0 
C:\Users\test\AppData\Local\Temp\cciHZyrV.s:232    .text.rcu_periph_clock_sleep_disable:000000000000001a .L0 
C:\Users\test\AppData\Local\Temp\cciHZyrV.s:233    .text.rcu_periph_clock_sleep_disable:000000000000001c .L0 
C:\Users\test\AppData\Local\Temp\cciHZyrV.s:240    .text.rcu_periph_reset_enable:0000000000000000 rcu_periph_reset_enable
C:\Users\test\AppData\Local\Temp\cciHZyrV.s:243    .text.rcu_periph_reset_enable:0000000000000000 .L0 
C:\Users\test\AppData\Local\Temp\cciHZyrV.s:245    .text.rcu_periph_reset_enable:0000000000000000 .L0 
C:\Users\test\AppData\Local\Temp\cciHZyrV.s:246    .text.rcu_periph_reset_enable:0000000000000000 .L0 
C:\Users\test\AppData\Local\Temp\cciHZyrV.s:247    .text.rcu_periph_reset_enable:0000000000000000 .L0 
C:\Users\test\AppData\Local\Temp\cciHZyrV.s:252    .text.rcu_periph_reset_enable:000000000000000c .L0 
C:\Users\test\AppData\Local\Temp\cciHZyrV.s:255    .text.rcu_periph_reset_enable:0000000000000012 .L0 
C:\Users\test\AppData\Local\Temp\cciHZyrV.s:258    .text.rcu_periph_reset_enable:0000000000000016 .L0 
C:\Users\test\AppData\Local\Temp\cciHZyrV.s:259    .text.rcu_periph_reset_enable:0000000000000018 .L0 
C:\Users\test\AppData\Local\Temp\cciHZyrV.s:266    .text.rcu_periph_reset_disable:0000000000000000 rcu_periph_reset_disable
C:\Users\test\AppData\Local\Temp\cciHZyrV.s:269    .text.rcu_periph_reset_disable:0000000000000000 .L0 
C:\Users\test\AppData\Local\Temp\cciHZyrV.s:271    .text.rcu_periph_reset_disable:0000000000000000 .L0 
C:\Users\test\AppData\Local\Temp\cciHZyrV.s:272    .text.rcu_periph_reset_disable:0000000000000000 .L0 
C:\Users\test\AppData\Local\Temp\cciHZyrV.s:273    .text.rcu_periph_reset_disable:0000000000000000 .L0 
C:\Users\test\AppData\Local\Temp\cciHZyrV.s:278    .text.rcu_periph_reset_disable:000000000000000c .L0 
C:\Users\test\AppData\Local\Temp\cciHZyrV.s:281    .text.rcu_periph_reset_disable:0000000000000012 .L0 
C:\Users\test\AppData\Local\Temp\cciHZyrV.s:283    .text.rcu_periph_reset_disable:0000000000000016 .L0 
C:\Users\test\AppData\Local\Temp\cciHZyrV.s:286    .text.rcu_periph_reset_disable:000000000000001a .L0 
C:\Users\test\AppData\Local\Temp\cciHZyrV.s:287    .text.rcu_periph_reset_disable:000000000000001c .L0 
C:\Users\test\AppData\Local\Temp\cciHZyrV.s:294    .text.rcu_bkp_reset_enable:0000000000000000 rcu_bkp_reset_enable
C:\Users\test\AppData\Local\Temp\cciHZyrV.s:297    .text.rcu_bkp_reset_enable:0000000000000000 .L0 
C:\Users\test\AppData\Local\Temp\cciHZyrV.s:298    .text.rcu_bkp_reset_enable:0000000000000000 .L0 
C:\Users\test\AppData\Local\Temp\cciHZyrV.s:299    .text.rcu_bkp_reset_enable:0000000000000000 .L0 
C:\Users\test\AppData\Local\Temp\cciHZyrV.s:300    .text.rcu_bkp_reset_enable:0000000000000000 .L0 
C:\Users\test\AppData\Local\Temp\cciHZyrV.s:306    .text.rcu_bkp_reset_enable:000000000000000c .L0 
C:\Users\test\AppData\Local\Temp\cciHZyrV.s:307    .text.rcu_bkp_reset_enable:000000000000000e .L0 
C:\Users\test\AppData\Local\Temp\cciHZyrV.s:314    .text.rcu_bkp_reset_disable:0000000000000000 rcu_bkp_reset_disable
C:\Users\test\AppData\Local\Temp\cciHZyrV.s:317    .text.rcu_bkp_reset_disable:0000000000000000 .L0 
C:\Users\test\AppData\Local\Temp\cciHZyrV.s:318    .text.rcu_bkp_reset_disable:0000000000000000 .L0 
C:\Users\test\AppData\Local\Temp\cciHZyrV.s:319    .text.rcu_bkp_reset_disable:0000000000000000 .L0 
C:\Users\test\AppData\Local\Temp\cciHZyrV.s:320    .text.rcu_bkp_reset_disable:0000000000000000 .L0 
C:\Users\test\AppData\Local\Temp\cciHZyrV.s:327    .text.rcu_bkp_reset_disable:000000000000000e .L0 
C:\Users\test\AppData\Local\Temp\cciHZyrV.s:328    .text.rcu_bkp_reset_disable:0000000000000010 .L0 
C:\Users\test\AppData\Local\Temp\cciHZyrV.s:335    .text.rcu_system_clock_source_config:0000000000000000 rcu_system_clock_source_config
C:\Users\test\AppData\Local\Temp\cciHZyrV.s:338    .text.rcu_system_clock_source_config:0000000000000000 .L0 
C:\Users\test\AppData\Local\Temp\cciHZyrV.s:340    .text.rcu_system_clock_source_config:0000000000000000 .L0 
C:\Users\test\AppData\Local\Temp\cciHZyrV.s:341    .text.rcu_system_clock_source_config:0000000000000000 .L0 
GAS LISTING C:\Users\test\AppData\Local\Temp\cciHZyrV.s 			page 66


C:\Users\test\AppData\Local\Temp\cciHZyrV.s:342    .text.rcu_system_clock_source_config:0000000000000000 .L0 
C:\Users\test\AppData\Local\Temp\cciHZyrV.s:343    .text.rcu_system_clock_source_config:0000000000000000 .L0 
C:\Users\test\AppData\Local\Temp\cciHZyrV.s:347    .text.rcu_system_clock_source_config:0000000000000006 .L0 
C:\Users\test\AppData\Local\Temp\cciHZyrV.s:348    .text.rcu_system_clock_source_config:0000000000000006 .L0 
C:\Users\test\AppData\Local\Temp\cciHZyrV.s:349    .text.rcu_system_clock_source_config:0000000000000006 .L0 
C:\Users\test\AppData\Local\Temp\cciHZyrV.s:352    .text.rcu_system_clock_source_config:0000000000000008 .L0 
C:\Users\test\AppData\Local\Temp\cciHZyrV.s:355    .text.rcu_system_clock_source_config:000000000000000a .L0 
C:\Users\test\AppData\Local\Temp\cciHZyrV.s:357    .text.rcu_system_clock_source_config:000000000000000c .L0 
C:\Users\test\AppData\Local\Temp\cciHZyrV.s:358    .text.rcu_system_clock_source_config:000000000000000e .L0 
C:\Users\test\AppData\Local\Temp\cciHZyrV.s:365    .text.rcu_system_clock_source_get:0000000000000000 rcu_system_clock_source_get
C:\Users\test\AppData\Local\Temp\cciHZyrV.s:368    .text.rcu_system_clock_source_get:0000000000000000 .L0 
C:\Users\test\AppData\Local\Temp\cciHZyrV.s:369    .text.rcu_system_clock_source_get:0000000000000000 .L0 
C:\Users\test\AppData\Local\Temp\cciHZyrV.s:370    .text.rcu_system_clock_source_get:0000000000000000 .L0 
C:\Users\test\AppData\Local\Temp\cciHZyrV.s:371    .text.rcu_system_clock_source_get:0000000000000000 .L0 
C:\Users\test\AppData\Local\Temp\cciHZyrV.s:374    .text.rcu_system_clock_source_get:0000000000000006 .L0 
C:\Users\test\AppData\Local\Temp\cciHZyrV.s:376    .text.rcu_system_clock_source_get:000000000000000a .L0 
C:\Users\test\AppData\Local\Temp\cciHZyrV.s:383    .text.rcu_ahb_clock_config:0000000000000000 rcu_ahb_clock_config
C:\Users\test\AppData\Local\Temp\cciHZyrV.s:386    .text.rcu_ahb_clock_config:0000000000000000 .L0 
C:\Users\test\AppData\Local\Temp\cciHZyrV.s:388    .text.rcu_ahb_clock_config:0000000000000000 .L0 
C:\Users\test\AppData\Local\Temp\cciHZyrV.s:389    .text.rcu_ahb_clock_config:0000000000000000 .L0 
C:\Users\test\AppData\Local\Temp\cciHZyrV.s:390    .text.rcu_ahb_clock_config:0000000000000000 .L0 
C:\Users\test\AppData\Local\Temp\cciHZyrV.s:391    .text.rcu_ahb_clock_config:0000000000000000 .L0 
C:\Users\test\AppData\Local\Temp\cciHZyrV.s:395    .text.rcu_ahb_clock_config:0000000000000006 .L0 
C:\Users\test\AppData\Local\Temp\cciHZyrV.s:396    .text.rcu_ahb_clock_config:0000000000000006 .L0 
C:\Users\test\AppData\Local\Temp\cciHZyrV.s:397    .text.rcu_ahb_clock_config:0000000000000006 .L0 
C:\Users\test\AppData\Local\Temp\cciHZyrV.s:400    .text.rcu_ahb_clock_config:000000000000000a .L0 
C:\Users\test\AppData\Local\Temp\cciHZyrV.s:403    .text.rcu_ahb_clock_config:000000000000000c .L0 
C:\Users\test\AppData\Local\Temp\cciHZyrV.s:405    .text.rcu_ahb_clock_config:000000000000000e .L0 
C:\Users\test\AppData\Local\Temp\cciHZyrV.s:406    .text.rcu_ahb_clock_config:0000000000000010 .L0 
C:\Users\test\AppData\Local\Temp\cciHZyrV.s:413    .text.rcu_apb1_clock_config:0000000000000000 rcu_apb1_clock_config
C:\Users\test\AppData\Local\Temp\cciHZyrV.s:416    .text.rcu_apb1_clock_config:0000000000000000 .L0 
C:\Users\test\AppData\Local\Temp\cciHZyrV.s:418    .text.rcu_apb1_clock_config:0000000000000000 .L0 
C:\Users\test\AppData\Local\Temp\cciHZyrV.s:419    .text.rcu_apb1_clock_config:0000000000000000 .L0 
C:\Users\test\AppData\Local\Temp\cciHZyrV.s:420    .text.rcu_apb1_clock_config:0000000000000000 .L0 
C:\Users\test\AppData\Local\Temp\cciHZyrV.s:421    .text.rcu_apb1_clock_config:0000000000000000 .L0 
C:\Users\test\AppData\Local\Temp\cciHZyrV.s:425    .text.rcu_apb1_clock_config:0000000000000006 .L0 
C:\Users\test\AppData\Local\Temp\cciHZyrV.s:426    .text.rcu_apb1_clock_config:0000000000000006 .L0 
C:\Users\test\AppData\Local\Temp\cciHZyrV.s:427    .text.rcu_apb1_clock_config:0000000000000006 .L0 
C:\Users\test\AppData\Local\Temp\cciHZyrV.s:430    .text.rcu_apb1_clock_config:000000000000000a .L0 
C:\Users\test\AppData\Local\Temp\cciHZyrV.s:433    .text.rcu_apb1_clock_config:000000000000000c .L0 
C:\Users\test\AppData\Local\Temp\cciHZyrV.s:435    .text.rcu_apb1_clock_config:000000000000000e .L0 
C:\Users\test\AppData\Local\Temp\cciHZyrV.s:436    .text.rcu_apb1_clock_config:0000000000000010 .L0 
C:\Users\test\AppData\Local\Temp\cciHZyrV.s:443    .text.rcu_apb2_clock_config:0000000000000000 rcu_apb2_clock_config
C:\Users\test\AppData\Local\Temp\cciHZyrV.s:446    .text.rcu_apb2_clock_config:0000000000000000 .L0 
C:\Users\test\AppData\Local\Temp\cciHZyrV.s:448    .text.rcu_apb2_clock_config:0000000000000000 .L0 
C:\Users\test\AppData\Local\Temp\cciHZyrV.s:449    .text.rcu_apb2_clock_config:0000000000000000 .L0 
C:\Users\test\AppData\Local\Temp\cciHZyrV.s:450    .text.rcu_apb2_clock_config:0000000000000000 .L0 
C:\Users\test\AppData\Local\Temp\cciHZyrV.s:451    .text.rcu_apb2_clock_config:0000000000000000 .L0 
C:\Users\test\AppData\Local\Temp\cciHZyrV.s:455    .text.rcu_apb2_clock_config:0000000000000006 .L0 
C:\Users\test\AppData\Local\Temp\cciHZyrV.s:456    .text.rcu_apb2_clock_config:0000000000000006 .L0 
C:\Users\test\AppData\Local\Temp\cciHZyrV.s:457    .text.rcu_apb2_clock_config:0000000000000006 .L0 
C:\Users\test\AppData\Local\Temp\cciHZyrV.s:462    .text.rcu_apb2_clock_config:000000000000000e .L0 
C:\Users\test\AppData\Local\Temp\cciHZyrV.s:465    .text.rcu_apb2_clock_config:0000000000000010 .L0 
C:\Users\test\AppData\Local\Temp\cciHZyrV.s:467    .text.rcu_apb2_clock_config:0000000000000012 .L0 
C:\Users\test\AppData\Local\Temp\cciHZyrV.s:468    .text.rcu_apb2_clock_config:0000000000000014 .L0 
C:\Users\test\AppData\Local\Temp\cciHZyrV.s:475    .text.rcu_ckout0_config:0000000000000000 rcu_ckout0_config
C:\Users\test\AppData\Local\Temp\cciHZyrV.s:478    .text.rcu_ckout0_config:0000000000000000 .L0 
GAS LISTING C:\Users\test\AppData\Local\Temp\cciHZyrV.s 			page 67


C:\Users\test\AppData\Local\Temp\cciHZyrV.s:480    .text.rcu_ckout0_config:0000000000000000 .L0 
C:\Users\test\AppData\Local\Temp\cciHZyrV.s:481    .text.rcu_ckout0_config:0000000000000000 .L0 
C:\Users\test\AppData\Local\Temp\cciHZyrV.s:482    .text.rcu_ckout0_config:0000000000000000 .L0 
C:\Users\test\AppData\Local\Temp\cciHZyrV.s:483    .text.rcu_ckout0_config:0000000000000000 .L0 
C:\Users\test\AppData\Local\Temp\cciHZyrV.s:487    .text.rcu_ckout0_config:0000000000000006 .L0 
C:\Users\test\AppData\Local\Temp\cciHZyrV.s:488    .text.rcu_ckout0_config:0000000000000006 .L0 
C:\Users\test\AppData\Local\Temp\cciHZyrV.s:489    .text.rcu_ckout0_config:0000000000000006 .L0 
C:\Users\test\AppData\Local\Temp\cciHZyrV.s:494    .text.rcu_ckout0_config:000000000000000e .L0 
C:\Users\test\AppData\Local\Temp\cciHZyrV.s:497    .text.rcu_ckout0_config:0000000000000010 .L0 
C:\Users\test\AppData\Local\Temp\cciHZyrV.s:499    .text.rcu_ckout0_config:0000000000000012 .L0 
C:\Users\test\AppData\Local\Temp\cciHZyrV.s:500    .text.rcu_ckout0_config:0000000000000014 .L0 
C:\Users\test\AppData\Local\Temp\cciHZyrV.s:507    .text.rcu_pll_config:0000000000000000 rcu_pll_config
C:\Users\test\AppData\Local\Temp\cciHZyrV.s:510    .text.rcu_pll_config:0000000000000000 .L0 
C:\Users\test\AppData\Local\Temp\cciHZyrV.s:512    .text.rcu_pll_config:0000000000000000 .L0 
C:\Users\test\AppData\Local\Temp\cciHZyrV.s:513    .text.rcu_pll_config:0000000000000000 .L0 
C:\Users\test\AppData\Local\Temp\cciHZyrV.s:514    .text.rcu_pll_config:0000000000000000 .L0 
C:\Users\test\AppData\Local\Temp\cciHZyrV.s:515    .text.rcu_pll_config:0000000000000000 .L0 
C:\Users\test\AppData\Local\Temp\cciHZyrV.s:519    .text.rcu_pll_config:0000000000000006 .L0 
C:\Users\test\AppData\Local\Temp\cciHZyrV.s:520    .text.rcu_pll_config:0000000000000006 .L0 
C:\Users\test\AppData\Local\Temp\cciHZyrV.s:521    .text.rcu_pll_config:0000000000000006 .L0 
C:\Users\test\AppData\Local\Temp\cciHZyrV.s:528    .text.rcu_pll_config:0000000000000010 .L0 
C:\Users\test\AppData\Local\Temp\cciHZyrV.s:531    .text.rcu_pll_config:0000000000000012 .L0 
C:\Users\test\AppData\Local\Temp\cciHZyrV.s:532    .text.rcu_pll_config:0000000000000012 .L0 
C:\Users\test\AppData\Local\Temp\cciHZyrV.s:534    .text.rcu_pll_config:0000000000000014 .L0 
C:\Users\test\AppData\Local\Temp\cciHZyrV.s:535    .text.rcu_pll_config:0000000000000016 .L0 
C:\Users\test\AppData\Local\Temp\cciHZyrV.s:542    .text.rcu_predv0_config:0000000000000000 rcu_predv0_config
C:\Users\test\AppData\Local\Temp\cciHZyrV.s:545    .text.rcu_predv0_config:0000000000000000 .L0 
C:\Users\test\AppData\Local\Temp\cciHZyrV.s:547    .text.rcu_predv0_config:0000000000000000 .L0 
C:\Users\test\AppData\Local\Temp\cciHZyrV.s:548    .text.rcu_predv0_config:0000000000000000 .L0 
C:\Users\test\AppData\Local\Temp\cciHZyrV.s:549    .text.rcu_predv0_config:0000000000000000 .L0 
C:\Users\test\AppData\Local\Temp\cciHZyrV.s:550    .text.rcu_predv0_config:0000000000000000 .L0 
C:\Users\test\AppData\Local\Temp\cciHZyrV.s:554    .text.rcu_predv0_config:0000000000000006 .L0 
C:\Users\test\AppData\Local\Temp\cciHZyrV.s:555    .text.rcu_predv0_config:0000000000000006 .L0 
C:\Users\test\AppData\Local\Temp\cciHZyrV.s:556    .text.rcu_predv0_config:0000000000000006 .L0 
C:\Users\test\AppData\Local\Temp\cciHZyrV.s:563    .text.rcu_predv0_config:000000000000000e .L0 
C:\Users\test\AppData\Local\Temp\cciHZyrV.s:566    .text.rcu_predv0_config:0000000000000010 .L0 
C:\Users\test\AppData\Local\Temp\cciHZyrV.s:567    .text.rcu_predv0_config:0000000000000010 .L0 
C:\Users\test\AppData\Local\Temp\cciHZyrV.s:569    .text.rcu_predv0_config:0000000000000012 .L0 
C:\Users\test\AppData\Local\Temp\cciHZyrV.s:570    .text.rcu_predv0_config:0000000000000014 .L0 
C:\Users\test\AppData\Local\Temp\cciHZyrV.s:577    .text.rcu_predv1_config:0000000000000000 rcu_predv1_config
C:\Users\test\AppData\Local\Temp\cciHZyrV.s:580    .text.rcu_predv1_config:0000000000000000 .L0 
C:\Users\test\AppData\Local\Temp\cciHZyrV.s:582    .text.rcu_predv1_config:0000000000000000 .L0 
C:\Users\test\AppData\Local\Temp\cciHZyrV.s:583    .text.rcu_predv1_config:0000000000000000 .L0 
C:\Users\test\AppData\Local\Temp\cciHZyrV.s:584    .text.rcu_predv1_config:0000000000000000 .L0 
C:\Users\test\AppData\Local\Temp\cciHZyrV.s:585    .text.rcu_predv1_config:0000000000000000 .L0 
C:\Users\test\AppData\Local\Temp\cciHZyrV.s:589    .text.rcu_predv1_config:0000000000000006 .L0 
C:\Users\test\AppData\Local\Temp\cciHZyrV.s:590    .text.rcu_predv1_config:0000000000000006 .L0 
C:\Users\test\AppData\Local\Temp\cciHZyrV.s:593    .text.rcu_predv1_config:000000000000000a .L0 
C:\Users\test\AppData\Local\Temp\cciHZyrV.s:594    .text.rcu_predv1_config:000000000000000a .L0 
C:\Users\test\AppData\Local\Temp\cciHZyrV.s:597    .text.rcu_predv1_config:000000000000000c .L0 
C:\Users\test\AppData\Local\Temp\cciHZyrV.s:598    .text.rcu_predv1_config:000000000000000c .L0 
C:\Users\test\AppData\Local\Temp\cciHZyrV.s:600    .text.rcu_predv1_config:000000000000000e .L0 
C:\Users\test\AppData\Local\Temp\cciHZyrV.s:601    .text.rcu_predv1_config:0000000000000010 .L0 
C:\Users\test\AppData\Local\Temp\cciHZyrV.s:608    .text.rcu_pll1_config:0000000000000000 rcu_pll1_config
C:\Users\test\AppData\Local\Temp\cciHZyrV.s:611    .text.rcu_pll1_config:0000000000000000 .L0 
C:\Users\test\AppData\Local\Temp\cciHZyrV.s:613    .text.rcu_pll1_config:0000000000000000 .L0 
C:\Users\test\AppData\Local\Temp\cciHZyrV.s:614    .text.rcu_pll1_config:0000000000000000 .L0 
GAS LISTING C:\Users\test\AppData\Local\Temp\cciHZyrV.s 			page 68


C:\Users\test\AppData\Local\Temp\cciHZyrV.s:615    .text.rcu_pll1_config:0000000000000000 .L0 
C:\Users\test\AppData\Local\Temp\cciHZyrV.s:622    .text.rcu_pll1_config:0000000000000010 .L0 
C:\Users\test\AppData\Local\Temp\cciHZyrV.s:623    .text.rcu_pll1_config:0000000000000010 .L0 
C:\Users\test\AppData\Local\Temp\cciHZyrV.s:628    .text.rcu_pll1_config:0000000000000016 .L0 
C:\Users\test\AppData\Local\Temp\cciHZyrV.s:629    .text.rcu_pll1_config:0000000000000018 .L0 
C:\Users\test\AppData\Local\Temp\cciHZyrV.s:636    .text.rcu_pll2_config:0000000000000000 rcu_pll2_config
C:\Users\test\AppData\Local\Temp\cciHZyrV.s:639    .text.rcu_pll2_config:0000000000000000 .L0 
C:\Users\test\AppData\Local\Temp\cciHZyrV.s:641    .text.rcu_pll2_config:0000000000000000 .L0 
C:\Users\test\AppData\Local\Temp\cciHZyrV.s:642    .text.rcu_pll2_config:0000000000000000 .L0 
C:\Users\test\AppData\Local\Temp\cciHZyrV.s:643    .text.rcu_pll2_config:0000000000000000 .L0 
C:\Users\test\AppData\Local\Temp\cciHZyrV.s:650    .text.rcu_pll2_config:000000000000000e .L0 
C:\Users\test\AppData\Local\Temp\cciHZyrV.s:651    .text.rcu_pll2_config:000000000000000e .L0 
C:\Users\test\AppData\Local\Temp\cciHZyrV.s:656    .text.rcu_pll2_config:0000000000000014 .L0 
C:\Users\test\AppData\Local\Temp\cciHZyrV.s:657    .text.rcu_pll2_config:0000000000000016 .L0 
C:\Users\test\AppData\Local\Temp\cciHZyrV.s:664    .text.rcu_adc_clock_config:0000000000000000 rcu_adc_clock_config
C:\Users\test\AppData\Local\Temp\cciHZyrV.s:667    .text.rcu_adc_clock_config:0000000000000000 .L0 
C:\Users\test\AppData\Local\Temp\cciHZyrV.s:669    .text.rcu_adc_clock_config:0000000000000000 .L0 
C:\Users\test\AppData\Local\Temp\cciHZyrV.s:670    .text.rcu_adc_clock_config:0000000000000000 .L0 
C:\Users\test\AppData\Local\Temp\cciHZyrV.s:671    .text.rcu_adc_clock_config:0000000000000000 .L0 
C:\Users\test\AppData\Local\Temp\cciHZyrV.s:672    .text.rcu_adc_clock_config:0000000000000000 .L0 
C:\Users\test\AppData\Local\Temp\cciHZyrV.s:676    .text.rcu_adc_clock_config:0000000000000006 .L0 
C:\Users\test\AppData\Local\Temp\cciHZyrV.s:677    .text.rcu_adc_clock_config:0000000000000006 .L0 
C:\Users\test\AppData\Local\Temp\cciHZyrV.s:680    .text.rcu_adc_clock_config:000000000000000c .L0 
C:\Users\test\AppData\Local\Temp\cciHZyrV.s:682    .text.rcu_adc_clock_config:000000000000000e .L0 
C:\Users\test\AppData\Local\Temp\cciHZyrV.s:685    .text.rcu_adc_clock_config:0000000000000010 .L0 
C:\Users\test\AppData\Local\Temp\cciHZyrV.s:690    .text.rcu_adc_clock_config:000000000000001e .L0 
C:\Users\test\AppData\Local\Temp\cciHZyrV.s:691    .text.rcu_adc_clock_config:000000000000001e .L0 
C:\Users\test\AppData\Local\Temp\cciHZyrV.s:694    .text.rcu_adc_clock_config:0000000000000020 .L0 
C:\Users\test\AppData\Local\Temp\cciHZyrV.s:698    .text.rcu_adc_clock_config:0000000000000022 .L0 
C:\Users\test\AppData\Local\Temp\cciHZyrV.s:699    .text.rcu_adc_clock_config:0000000000000022 .L0 
C:\Users\test\AppData\Local\Temp\cciHZyrV.s:700    .text.rcu_adc_clock_config:0000000000000022 .L0 
C:\Users\test\AppData\Local\Temp\cciHZyrV.s:703    .text.rcu_adc_clock_config:0000000000000028 .L0 
C:\Users\test\AppData\Local\Temp\cciHZyrV.s:707    .text.rcu_adc_clock_config:000000000000002a .L0 
C:\Users\test\AppData\Local\Temp\cciHZyrV.s:712    .text.rcu_adc_clock_config:0000000000000030 .L0 
C:\Users\test\AppData\Local\Temp\cciHZyrV.s:713    .text.rcu_adc_clock_config:0000000000000030 .L0 
C:\Users\test\AppData\Local\Temp\cciHZyrV.s:714    .text.rcu_adc_clock_config:0000000000000030 .L0 
C:\Users\test\AppData\Local\Temp\cciHZyrV.s:719    .text.rcu_adc_clock_config:0000000000000036 .L0 
C:\Users\test\AppData\Local\Temp\cciHZyrV.s:725    .text.rcu_adc_clock_config:000000000000003e .L0 
C:\Users\test\AppData\Local\Temp\cciHZyrV.s:726    .text.rcu_adc_clock_config:000000000000003e .L0 
C:\Users\test\AppData\Local\Temp\cciHZyrV.s:727    .text.rcu_adc_clock_config:000000000000003e .L0 
C:\Users\test\AppData\Local\Temp\cciHZyrV.s:730    .text.rcu_adc_clock_config:0000000000000044 .L0 
C:\Users\test\AppData\Local\Temp\cciHZyrV.s:731    .text.rcu_adc_clock_config:0000000000000046 .L0 
C:\Users\test\AppData\Local\Temp\cciHZyrV.s:738    .text.rcu_usb_clock_config:0000000000000000 rcu_usb_clock_config
C:\Users\test\AppData\Local\Temp\cciHZyrV.s:741    .text.rcu_usb_clock_config:0000000000000000 .L0 
C:\Users\test\AppData\Local\Temp\cciHZyrV.s:743    .text.rcu_usb_clock_config:0000000000000000 .L0 
C:\Users\test\AppData\Local\Temp\cciHZyrV.s:744    .text.rcu_usb_clock_config:0000000000000000 .L0 
C:\Users\test\AppData\Local\Temp\cciHZyrV.s:745    .text.rcu_usb_clock_config:0000000000000000 .L0 
C:\Users\test\AppData\Local\Temp\cciHZyrV.s:746    .text.rcu_usb_clock_config:0000000000000000 .L0 
C:\Users\test\AppData\Local\Temp\cciHZyrV.s:750    .text.rcu_usb_clock_config:0000000000000006 .L0 
C:\Users\test\AppData\Local\Temp\cciHZyrV.s:751    .text.rcu_usb_clock_config:0000000000000006 .L0 
C:\Users\test\AppData\Local\Temp\cciHZyrV.s:752    .text.rcu_usb_clock_config:0000000000000006 .L0 
C:\Users\test\AppData\Local\Temp\cciHZyrV.s:757    .text.rcu_usb_clock_config:000000000000000e .L0 
C:\Users\test\AppData\Local\Temp\cciHZyrV.s:760    .text.rcu_usb_clock_config:0000000000000010 .L0 
C:\Users\test\AppData\Local\Temp\cciHZyrV.s:762    .text.rcu_usb_clock_config:0000000000000012 .L0 
C:\Users\test\AppData\Local\Temp\cciHZyrV.s:763    .text.rcu_usb_clock_config:0000000000000014 .L0 
C:\Users\test\AppData\Local\Temp\cciHZyrV.s:770    .text.rcu_rtc_clock_config:0000000000000000 rcu_rtc_clock_config
C:\Users\test\AppData\Local\Temp\cciHZyrV.s:773    .text.rcu_rtc_clock_config:0000000000000000 .L0 
GAS LISTING C:\Users\test\AppData\Local\Temp\cciHZyrV.s 			page 69


C:\Users\test\AppData\Local\Temp\cciHZyrV.s:775    .text.rcu_rtc_clock_config:0000000000000000 .L0 
C:\Users\test\AppData\Local\Temp\cciHZyrV.s:776    .text.rcu_rtc_clock_config:0000000000000000 .L0 
C:\Users\test\AppData\Local\Temp\cciHZyrV.s:777    .text.rcu_rtc_clock_config:0000000000000000 .L0 
C:\Users\test\AppData\Local\Temp\cciHZyrV.s:778    .text.rcu_rtc_clock_config:0000000000000000 .L0 
C:\Users\test\AppData\Local\Temp\cciHZyrV.s:782    .text.rcu_rtc_clock_config:0000000000000006 .L0 
C:\Users\test\AppData\Local\Temp\cciHZyrV.s:783    .text.rcu_rtc_clock_config:0000000000000006 .L0 
C:\Users\test\AppData\Local\Temp\cciHZyrV.s:784    .text.rcu_rtc_clock_config:0000000000000006 .L0 
C:\Users\test\AppData\Local\Temp\cciHZyrV.s:787    .text.rcu_rtc_clock_config:000000000000000a .L0 
C:\Users\test\AppData\Local\Temp\cciHZyrV.s:790    .text.rcu_rtc_clock_config:000000000000000c .L0 
C:\Users\test\AppData\Local\Temp\cciHZyrV.s:792    .text.rcu_rtc_clock_config:000000000000000e .L0 
C:\Users\test\AppData\Local\Temp\cciHZyrV.s:793    .text.rcu_rtc_clock_config:0000000000000010 .L0 
C:\Users\test\AppData\Local\Temp\cciHZyrV.s:800    .text.rcu_i2s1_clock_config:0000000000000000 rcu_i2s1_clock_config
C:\Users\test\AppData\Local\Temp\cciHZyrV.s:803    .text.rcu_i2s1_clock_config:0000000000000000 .L0 
C:\Users\test\AppData\Local\Temp\cciHZyrV.s:805    .text.rcu_i2s1_clock_config:0000000000000000 .L0 
C:\Users\test\AppData\Local\Temp\cciHZyrV.s:806    .text.rcu_i2s1_clock_config:0000000000000000 .L0 
C:\Users\test\AppData\Local\Temp\cciHZyrV.s:807    .text.rcu_i2s1_clock_config:0000000000000000 .L0 
C:\Users\test\AppData\Local\Temp\cciHZyrV.s:808    .text.rcu_i2s1_clock_config:0000000000000000 .L0 
C:\Users\test\AppData\Local\Temp\cciHZyrV.s:812    .text.rcu_i2s1_clock_config:0000000000000006 .L0 
C:\Users\test\AppData\Local\Temp\cciHZyrV.s:813    .text.rcu_i2s1_clock_config:0000000000000006 .L0 
C:\Users\test\AppData\Local\Temp\cciHZyrV.s:814    .text.rcu_i2s1_clock_config:0000000000000006 .L0 
C:\Users\test\AppData\Local\Temp\cciHZyrV.s:819    .text.rcu_i2s1_clock_config:000000000000000c .L0 
C:\Users\test\AppData\Local\Temp\cciHZyrV.s:822    .text.rcu_i2s1_clock_config:000000000000000e .L0 
C:\Users\test\AppData\Local\Temp\cciHZyrV.s:824    .text.rcu_i2s1_clock_config:0000000000000010 .L0 
C:\Users\test\AppData\Local\Temp\cciHZyrV.s:825    .text.rcu_i2s1_clock_config:0000000000000012 .L0 
C:\Users\test\AppData\Local\Temp\cciHZyrV.s:832    .text.rcu_i2s2_clock_config:0000000000000000 rcu_i2s2_clock_config
C:\Users\test\AppData\Local\Temp\cciHZyrV.s:835    .text.rcu_i2s2_clock_config:0000000000000000 .L0 
C:\Users\test\AppData\Local\Temp\cciHZyrV.s:837    .text.rcu_i2s2_clock_config:0000000000000000 .L0 
C:\Users\test\AppData\Local\Temp\cciHZyrV.s:838    .text.rcu_i2s2_clock_config:0000000000000000 .L0 
C:\Users\test\AppData\Local\Temp\cciHZyrV.s:839    .text.rcu_i2s2_clock_config:0000000000000000 .L0 
C:\Users\test\AppData\Local\Temp\cciHZyrV.s:840    .text.rcu_i2s2_clock_config:0000000000000000 .L0 
C:\Users\test\AppData\Local\Temp\cciHZyrV.s:844    .text.rcu_i2s2_clock_config:0000000000000006 .L0 
C:\Users\test\AppData\Local\Temp\cciHZyrV.s:845    .text.rcu_i2s2_clock_config:0000000000000006 .L0 
C:\Users\test\AppData\Local\Temp\cciHZyrV.s:846    .text.rcu_i2s2_clock_config:0000000000000006 .L0 
C:\Users\test\AppData\Local\Temp\cciHZyrV.s:851    .text.rcu_i2s2_clock_config:000000000000000e .L0 
C:\Users\test\AppData\Local\Temp\cciHZyrV.s:854    .text.rcu_i2s2_clock_config:0000000000000010 .L0 
C:\Users\test\AppData\Local\Temp\cciHZyrV.s:856    .text.rcu_i2s2_clock_config:0000000000000012 .L0 
C:\Users\test\AppData\Local\Temp\cciHZyrV.s:857    .text.rcu_i2s2_clock_config:0000000000000014 .L0 
C:\Users\test\AppData\Local\Temp\cciHZyrV.s:864    .text.rcu_flag_get:0000000000000000 rcu_flag_get
C:\Users\test\AppData\Local\Temp\cciHZyrV.s:867    .text.rcu_flag_get:0000000000000000 .L0 
C:\Users\test\AppData\Local\Temp\cciHZyrV.s:869    .text.rcu_flag_get:0000000000000000 .L0 
C:\Users\test\AppData\Local\Temp\cciHZyrV.s:870    .text.rcu_flag_get:0000000000000000 .L0 
C:\Users\test\AppData\Local\Temp\cciHZyrV.s:871    .text.rcu_flag_get:0000000000000000 .L0 
C:\Users\test\AppData\Local\Temp\cciHZyrV.s:876    .text.rcu_flag_get:000000000000000c .L0 
C:\Users\test\AppData\Local\Temp\cciHZyrV.s:879    .text.rcu_flag_get:0000000000000010 .L0 
C:\Users\test\AppData\Local\Temp\cciHZyrV.s:881    .text.rcu_flag_get:0000000000000014 .L0 
C:\Users\test\AppData\Local\Temp\cciHZyrV.s:888    .text.rcu_all_reset_flag_clear:0000000000000000 rcu_all_reset_flag_clear
C:\Users\test\AppData\Local\Temp\cciHZyrV.s:891    .text.rcu_all_reset_flag_clear:0000000000000000 .L0 
C:\Users\test\AppData\Local\Temp\cciHZyrV.s:892    .text.rcu_all_reset_flag_clear:0000000000000000 .L0 
C:\Users\test\AppData\Local\Temp\cciHZyrV.s:893    .text.rcu_all_reset_flag_clear:0000000000000000 .L0 
C:\Users\test\AppData\Local\Temp\cciHZyrV.s:894    .text.rcu_all_reset_flag_clear:0000000000000000 .L0 
C:\Users\test\AppData\Local\Temp\cciHZyrV.s:900    .text.rcu_all_reset_flag_clear:000000000000000e .L0 
C:\Users\test\AppData\Local\Temp\cciHZyrV.s:901    .text.rcu_all_reset_flag_clear:0000000000000010 .L0 
C:\Users\test\AppData\Local\Temp\cciHZyrV.s:908    .text.rcu_interrupt_flag_get:0000000000000000 rcu_interrupt_flag_get
C:\Users\test\AppData\Local\Temp\cciHZyrV.s:911    .text.rcu_interrupt_flag_get:0000000000000000 .L0 
C:\Users\test\AppData\Local\Temp\cciHZyrV.s:913    .text.rcu_interrupt_flag_get:0000000000000000 .L0 
C:\Users\test\AppData\Local\Temp\cciHZyrV.s:914    .text.rcu_interrupt_flag_get:0000000000000000 .L0 
C:\Users\test\AppData\Local\Temp\cciHZyrV.s:915    .text.rcu_interrupt_flag_get:0000000000000000 .L0 
GAS LISTING C:\Users\test\AppData\Local\Temp\cciHZyrV.s 			page 70


C:\Users\test\AppData\Local\Temp\cciHZyrV.s:920    .text.rcu_interrupt_flag_get:000000000000000c .L0 
C:\Users\test\AppData\Local\Temp\cciHZyrV.s:923    .text.rcu_interrupt_flag_get:0000000000000010 .L0 
C:\Users\test\AppData\Local\Temp\cciHZyrV.s:925    .text.rcu_interrupt_flag_get:0000000000000014 .L0 
C:\Users\test\AppData\Local\Temp\cciHZyrV.s:932    .text.rcu_interrupt_flag_clear:0000000000000000 rcu_interrupt_flag_clear
C:\Users\test\AppData\Local\Temp\cciHZyrV.s:935    .text.rcu_interrupt_flag_clear:0000000000000000 .L0 
C:\Users\test\AppData\Local\Temp\cciHZyrV.s:937    .text.rcu_interrupt_flag_clear:0000000000000000 .L0 
C:\Users\test\AppData\Local\Temp\cciHZyrV.s:938    .text.rcu_interrupt_flag_clear:0000000000000000 .L0 
C:\Users\test\AppData\Local\Temp\cciHZyrV.s:939    .text.rcu_interrupt_flag_clear:0000000000000000 .L0 
C:\Users\test\AppData\Local\Temp\cciHZyrV.s:944    .text.rcu_interrupt_flag_clear:000000000000000c .L0 
C:\Users\test\AppData\Local\Temp\cciHZyrV.s:947    .text.rcu_interrupt_flag_clear:0000000000000012 .L0 
C:\Users\test\AppData\Local\Temp\cciHZyrV.s:950    .text.rcu_interrupt_flag_clear:0000000000000016 .L0 
C:\Users\test\AppData\Local\Temp\cciHZyrV.s:951    .text.rcu_interrupt_flag_clear:0000000000000018 .L0 
C:\Users\test\AppData\Local\Temp\cciHZyrV.s:958    .text.rcu_interrupt_enable:0000000000000000 rcu_interrupt_enable
C:\Users\test\AppData\Local\Temp\cciHZyrV.s:961    .text.rcu_interrupt_enable:0000000000000000 .L0 
C:\Users\test\AppData\Local\Temp\cciHZyrV.s:963    .text.rcu_interrupt_enable:0000000000000000 .L0 
C:\Users\test\AppData\Local\Temp\cciHZyrV.s:964    .text.rcu_interrupt_enable:0000000000000000 .L0 
C:\Users\test\AppData\Local\Temp\cciHZyrV.s:965    .text.rcu_interrupt_enable:0000000000000000 .L0 
C:\Users\test\AppData\Local\Temp\cciHZyrV.s:970    .text.rcu_interrupt_enable:000000000000000c .L0 
C:\Users\test\AppData\Local\Temp\cciHZyrV.s:973    .text.rcu_interrupt_enable:0000000000000012 .L0 
C:\Users\test\AppData\Local\Temp\cciHZyrV.s:976    .text.rcu_interrupt_enable:0000000000000016 .L0 
C:\Users\test\AppData\Local\Temp\cciHZyrV.s:977    .text.rcu_interrupt_enable:0000000000000018 .L0 
C:\Users\test\AppData\Local\Temp\cciHZyrV.s:984    .text.rcu_interrupt_disable:0000000000000000 rcu_interrupt_disable
C:\Users\test\AppData\Local\Temp\cciHZyrV.s:987    .text.rcu_interrupt_disable:0000000000000000 .L0 
C:\Users\test\AppData\Local\Temp\cciHZyrV.s:989    .text.rcu_interrupt_disable:0000000000000000 .L0 
C:\Users\test\AppData\Local\Temp\cciHZyrV.s:990    .text.rcu_interrupt_disable:0000000000000000 .L0 
C:\Users\test\AppData\Local\Temp\cciHZyrV.s:991    .text.rcu_interrupt_disable:0000000000000000 .L0 
C:\Users\test\AppData\Local\Temp\cciHZyrV.s:996    .text.rcu_interrupt_disable:000000000000000c .L0 
C:\Users\test\AppData\Local\Temp\cciHZyrV.s:999    .text.rcu_interrupt_disable:0000000000000012 .L0 
C:\Users\test\AppData\Local\Temp\cciHZyrV.s:1001   .text.rcu_interrupt_disable:0000000000000016 .L0 
C:\Users\test\AppData\Local\Temp\cciHZyrV.s:1004   .text.rcu_interrupt_disable:000000000000001a .L0 
C:\Users\test\AppData\Local\Temp\cciHZyrV.s:1005   .text.rcu_interrupt_disable:000000000000001c .L0 
C:\Users\test\AppData\Local\Temp\cciHZyrV.s:1012   .text.rcu_osci_stab_wait:0000000000000000 rcu_osci_stab_wait
C:\Users\test\AppData\Local\Temp\cciHZyrV.s:1015   .text.rcu_osci_stab_wait:0000000000000000 .L0 
C:\Users\test\AppData\Local\Temp\cciHZyrV.s:1017   .text.rcu_osci_stab_wait:0000000000000000 .L0 
C:\Users\test\AppData\Local\Temp\cciHZyrV.s:1018   .text.rcu_osci_stab_wait:0000000000000000 .L0 
C:\Users\test\AppData\Local\Temp\cciHZyrV.s:1019   .text.rcu_osci_stab_wait:0000000000000000 .L0 
C:\Users\test\AppData\Local\Temp\cciHZyrV.s:1020   .text.rcu_osci_stab_wait:0000000000000000 .L0 
C:\Users\test\AppData\Local\Temp\cciHZyrV.s:1021   .text.rcu_osci_stab_wait:0000000000000000 .L0 
C:\Users\test\AppData\Local\Temp\cciHZyrV.s:1033   .text.rcu_osci_stab_wait:0000000000000020 .L0 
C:\Users\test\AppData\Local\Temp\cciHZyrV.s:1039   .text.rcu_osci_stab_wait:0000000000000024 .L0 
C:\Users\test\AppData\Local\Temp\cciHZyrV.s:1048   .text.rcu_osci_stab_wait:0000000000000036 .L0 
C:\Users\test\AppData\Local\Temp\cciHZyrV.s:1056   .text.rcu_osci_stab_wait:000000000000003a .L0 
C:\Users\test\AppData\Local\Temp\cciHZyrV.s:1057   .text.rcu_osci_stab_wait:000000000000003a .L0 
C:\Users\test\AppData\Local\Temp\cciHZyrV.s:1060   .text.rcu_osci_stab_wait:000000000000003a .L0 
C:\Users\test\AppData\Local\Temp\cciHZyrV.s:1063   .text.rcu_osci_stab_wait:000000000000003a .L0 
C:\Users\test\AppData\Local\Temp\cciHZyrV.s:1064   .text.rcu_osci_stab_wait:000000000000003a .L0 
C:\Users\test\AppData\Local\Temp\cciHZyrV.s:1068   .text.rcu_osci_stab_wait:000000000000003e .L0 
C:\Users\test\AppData\Local\Temp\cciHZyrV.s:1077   .text.rcu_osci_stab_wait:0000000000000042 .L0 
C:\Users\test\AppData\Local\Temp\cciHZyrV.s:1078   .text.rcu_osci_stab_wait:0000000000000042 .L0 
C:\Users\test\AppData\Local\Temp\cciHZyrV.s:1079   .text.rcu_osci_stab_wait:0000000000000042 .L0 
C:\Users\test\AppData\Local\Temp\cciHZyrV.s:1083   .text.rcu_osci_stab_wait:0000000000000048 .L0 
C:\Users\test\AppData\Local\Temp\cciHZyrV.s:1091   .text.rcu_osci_stab_wait:000000000000004e .L0 
C:\Users\test\AppData\Local\Temp\cciHZyrV.s:1096   .text.rcu_osci_stab_wait:0000000000000052 .L0 
C:\Users\test\AppData\Local\Temp\cciHZyrV.s:1101   .text.rcu_osci_stab_wait:0000000000000058 .L0 
C:\Users\test\AppData\Local\Temp\cciHZyrV.s:1109   .text.rcu_osci_stab_wait:000000000000005c .L0 
C:\Users\test\AppData\Local\Temp\cciHZyrV.s:1110   .text.rcu_osci_stab_wait:000000000000005c .L0 
C:\Users\test\AppData\Local\Temp\cciHZyrV.s:1113   .text.rcu_osci_stab_wait:000000000000005c .L0 
GAS LISTING C:\Users\test\AppData\Local\Temp\cciHZyrV.s 			page 71


C:\Users\test\AppData\Local\Temp\cciHZyrV.s:1116   .text.rcu_osci_stab_wait:000000000000005c .L0 
C:\Users\test\AppData\Local\Temp\cciHZyrV.s:1117   .text.rcu_osci_stab_wait:000000000000005c .L0 
C:\Users\test\AppData\Local\Temp\cciHZyrV.s:1121   .text.rcu_osci_stab_wait:0000000000000060 .L0 
C:\Users\test\AppData\Local\Temp\cciHZyrV.s:1130   .text.rcu_osci_stab_wait:0000000000000068 .L0 
C:\Users\test\AppData\Local\Temp\cciHZyrV.s:1131   .text.rcu_osci_stab_wait:0000000000000068 .L0 
C:\Users\test\AppData\Local\Temp\cciHZyrV.s:1132   .text.rcu_osci_stab_wait:0000000000000068 .L0 
C:\Users\test\AppData\Local\Temp\cciHZyrV.s:1137   .text.rcu_osci_stab_wait:000000000000006e .L0 
C:\Users\test\AppData\Local\Temp\cciHZyrV.s:1145   .text.rcu_osci_stab_wait:0000000000000074 .L0 
C:\Users\test\AppData\Local\Temp\cciHZyrV.s:1150   .text.rcu_osci_stab_wait:0000000000000078 .L0 
C:\Users\test\AppData\Local\Temp\cciHZyrV.s:1155   .text.rcu_osci_stab_wait:000000000000007e .L0 
C:\Users\test\AppData\Local\Temp\cciHZyrV.s:1163   .text.rcu_osci_stab_wait:0000000000000082 .L0 
C:\Users\test\AppData\Local\Temp\cciHZyrV.s:1164   .text.rcu_osci_stab_wait:0000000000000082 .L0 
C:\Users\test\AppData\Local\Temp\cciHZyrV.s:1167   .text.rcu_osci_stab_wait:0000000000000082 .L0 
C:\Users\test\AppData\Local\Temp\cciHZyrV.s:1170   .text.rcu_osci_stab_wait:0000000000000082 .L0 
C:\Users\test\AppData\Local\Temp\cciHZyrV.s:1171   .text.rcu_osci_stab_wait:0000000000000082 .L0 
C:\Users\test\AppData\Local\Temp\cciHZyrV.s:1175   .text.rcu_osci_stab_wait:0000000000000086 .L0 
C:\Users\test\AppData\Local\Temp\cciHZyrV.s:1184   .text.rcu_osci_stab_wait:000000000000008e .L0 
C:\Users\test\AppData\Local\Temp\cciHZyrV.s:1185   .text.rcu_osci_stab_wait:000000000000008e .L0 
C:\Users\test\AppData\Local\Temp\cciHZyrV.s:1186   .text.rcu_osci_stab_wait:000000000000008e .L0 
C:\Users\test\AppData\Local\Temp\cciHZyrV.s:1191   .text.rcu_osci_stab_wait:0000000000000094 .L0 
C:\Users\test\AppData\Local\Temp\cciHZyrV.s:1197   .text.rcu_osci_stab_wait:0000000000000098 .L0 
C:\Users\test\AppData\Local\Temp\cciHZyrV.s:1198   .text.rcu_osci_stab_wait:0000000000000098 .L0 
C:\Users\test\AppData\Local\Temp\cciHZyrV.s:1202   .text.rcu_osci_stab_wait:000000000000009a .L0 
C:\Users\test\AppData\Local\Temp\cciHZyrV.s:1207   .text.rcu_osci_stab_wait:000000000000009e .L0 
C:\Users\test\AppData\Local\Temp\cciHZyrV.s:1212   .text.rcu_osci_stab_wait:00000000000000a4 .L0 
C:\Users\test\AppData\Local\Temp\cciHZyrV.s:1220   .text.rcu_osci_stab_wait:00000000000000a8 .L0 
C:\Users\test\AppData\Local\Temp\cciHZyrV.s:1221   .text.rcu_osci_stab_wait:00000000000000a8 .L0 
C:\Users\test\AppData\Local\Temp\cciHZyrV.s:1224   .text.rcu_osci_stab_wait:00000000000000a8 .L0 
C:\Users\test\AppData\Local\Temp\cciHZyrV.s:1227   .text.rcu_osci_stab_wait:00000000000000a8 .L0 
C:\Users\test\AppData\Local\Temp\cciHZyrV.s:1228   .text.rcu_osci_stab_wait:00000000000000a8 .L0 
C:\Users\test\AppData\Local\Temp\cciHZyrV.s:1232   .text.rcu_osci_stab_wait:00000000000000ac .L0 
C:\Users\test\AppData\Local\Temp\cciHZyrV.s:1241   .text.rcu_osci_stab_wait:00000000000000b0 .L0 
C:\Users\test\AppData\Local\Temp\cciHZyrV.s:1242   .text.rcu_osci_stab_wait:00000000000000b0 .L0 
C:\Users\test\AppData\Local\Temp\cciHZyrV.s:1243   .text.rcu_osci_stab_wait:00000000000000b0 .L0 
C:\Users\test\AppData\Local\Temp\cciHZyrV.s:1247   .text.rcu_osci_stab_wait:00000000000000b6 .L0 
C:\Users\test\AppData\Local\Temp\cciHZyrV.s:1255   .text.rcu_osci_stab_wait:00000000000000bc .L0 
C:\Users\test\AppData\Local\Temp\cciHZyrV.s:1260   .text.rcu_osci_stab_wait:00000000000000c0 .L0 
C:\Users\test\AppData\Local\Temp\cciHZyrV.s:1265   .text.rcu_osci_stab_wait:00000000000000c4 .L0 
C:\Users\test\AppData\Local\Temp\cciHZyrV.s:1273   .text.rcu_osci_stab_wait:00000000000000c8 .L0 
C:\Users\test\AppData\Local\Temp\cciHZyrV.s:1274   .text.rcu_osci_stab_wait:00000000000000c8 .L0 
C:\Users\test\AppData\Local\Temp\cciHZyrV.s:1277   .text.rcu_osci_stab_wait:00000000000000c8 .L0 
C:\Users\test\AppData\Local\Temp\cciHZyrV.s:1280   .text.rcu_osci_stab_wait:00000000000000c8 .L0 
C:\Users\test\AppData\Local\Temp\cciHZyrV.s:1281   .text.rcu_osci_stab_wait:00000000000000c8 .L0 
C:\Users\test\AppData\Local\Temp\cciHZyrV.s:1285   .text.rcu_osci_stab_wait:00000000000000cc .L0 
C:\Users\test\AppData\Local\Temp\cciHZyrV.s:1294   .text.rcu_osci_stab_wait:00000000000000d4 .L0 
C:\Users\test\AppData\Local\Temp\cciHZyrV.s:1295   .text.rcu_osci_stab_wait:00000000000000d4 .L0 
C:\Users\test\AppData\Local\Temp\cciHZyrV.s:1296   .text.rcu_osci_stab_wait:00000000000000d4 .L0 
C:\Users\test\AppData\Local\Temp\cciHZyrV.s:1301   .text.rcu_osci_stab_wait:00000000000000da .L0 
C:\Users\test\AppData\Local\Temp\cciHZyrV.s:1309   .text.rcu_osci_stab_wait:00000000000000e0 .L0 
C:\Users\test\AppData\Local\Temp\cciHZyrV.s:1314   .text.rcu_osci_stab_wait:00000000000000e4 .L0 
C:\Users\test\AppData\Local\Temp\cciHZyrV.s:1319   .text.rcu_osci_stab_wait:00000000000000ea .L0 
C:\Users\test\AppData\Local\Temp\cciHZyrV.s:1327   .text.rcu_osci_stab_wait:00000000000000ee .L0 
C:\Users\test\AppData\Local\Temp\cciHZyrV.s:1328   .text.rcu_osci_stab_wait:00000000000000ee .L0 
C:\Users\test\AppData\Local\Temp\cciHZyrV.s:1331   .text.rcu_osci_stab_wait:00000000000000ee .L0 
C:\Users\test\AppData\Local\Temp\cciHZyrV.s:1334   .text.rcu_osci_stab_wait:00000000000000ee .L0 
C:\Users\test\AppData\Local\Temp\cciHZyrV.s:1335   .text.rcu_osci_stab_wait:00000000000000ee .L0 
C:\Users\test\AppData\Local\Temp\cciHZyrV.s:1339   .text.rcu_osci_stab_wait:00000000000000f2 .L0 
GAS LISTING C:\Users\test\AppData\Local\Temp\cciHZyrV.s 			page 72


C:\Users\test\AppData\Local\Temp\cciHZyrV.s:1348   .text.rcu_osci_stab_wait:00000000000000f6 .L0 
C:\Users\test\AppData\Local\Temp\cciHZyrV.s:1349   .text.rcu_osci_stab_wait:00000000000000f6 .L0 
C:\Users\test\AppData\Local\Temp\cciHZyrV.s:1350   .text.rcu_osci_stab_wait:00000000000000f6 .L0 
C:\Users\test\AppData\Local\Temp\cciHZyrV.s:1354   .text.rcu_osci_stab_wait:00000000000000fc .L0 
C:\Users\test\AppData\Local\Temp\cciHZyrV.s:1362   .text.rcu_osci_stab_wait:0000000000000102 .L0 
C:\Users\test\AppData\Local\Temp\cciHZyrV.s:1367   .text.rcu_osci_stab_wait:0000000000000106 .L0 
C:\Users\test\AppData\Local\Temp\cciHZyrV.s:1372   .text.rcu_osci_stab_wait:000000000000010c .L0 
C:\Users\test\AppData\Local\Temp\cciHZyrV.s:1380   .text.rcu_osci_stab_wait:0000000000000110 .L0 
C:\Users\test\AppData\Local\Temp\cciHZyrV.s:1381   .text.rcu_osci_stab_wait:0000000000000110 .L0 
C:\Users\test\AppData\Local\Temp\cciHZyrV.s:1384   .text.rcu_osci_stab_wait:0000000000000110 .L0 
C:\Users\test\AppData\Local\Temp\cciHZyrV.s:1387   .text.rcu_osci_stab_wait:0000000000000110 .L0 
C:\Users\test\AppData\Local\Temp\cciHZyrV.s:1388   .text.rcu_osci_stab_wait:0000000000000110 .L0 
C:\Users\test\AppData\Local\Temp\cciHZyrV.s:1392   .text.rcu_osci_stab_wait:0000000000000114 .L0 
C:\Users\test\AppData\Local\Temp\cciHZyrV.s:1401   .text.rcu_osci_stab_wait:000000000000011c .L0 
C:\Users\test\AppData\Local\Temp\cciHZyrV.s:1402   .text.rcu_osci_stab_wait:000000000000011c .L0 
C:\Users\test\AppData\Local\Temp\cciHZyrV.s:1403   .text.rcu_osci_stab_wait:000000000000011c .L0 
C:\Users\test\AppData\Local\Temp\cciHZyrV.s:1408   .text.rcu_osci_stab_wait:0000000000000122 .L0 
C:\Users\test\AppData\Local\Temp\cciHZyrV.s:1416   .text.rcu_osci_stab_wait:0000000000000128 .L0 
C:\Users\test\AppData\Local\Temp\cciHZyrV.s:1418   .text.rcu_osci_stab_wait:000000000000012c .L0 
C:\Users\test\AppData\Local\Temp\cciHZyrV.s:1425   .text.rcu_osci_on:0000000000000000 rcu_osci_on
C:\Users\test\AppData\Local\Temp\cciHZyrV.s:1428   .text.rcu_osci_on:0000000000000000 .L0 
C:\Users\test\AppData\Local\Temp\cciHZyrV.s:1430   .text.rcu_osci_on:0000000000000000 .L0 
C:\Users\test\AppData\Local\Temp\cciHZyrV.s:1431   .text.rcu_osci_on:0000000000000000 .L0 
C:\Users\test\AppData\Local\Temp\cciHZyrV.s:1432   .text.rcu_osci_on:0000000000000000 .L0 
C:\Users\test\AppData\Local\Temp\cciHZyrV.s:1437   .text.rcu_osci_on:000000000000000c .L0 
C:\Users\test\AppData\Local\Temp\cciHZyrV.s:1440   .text.rcu_osci_on:0000000000000012 .L0 
C:\Users\test\AppData\Local\Temp\cciHZyrV.s:1443   .text.rcu_osci_on:0000000000000016 .L0 
C:\Users\test\AppData\Local\Temp\cciHZyrV.s:1444   .text.rcu_osci_on:0000000000000018 .L0 
C:\Users\test\AppData\Local\Temp\cciHZyrV.s:1451   .text.rcu_osci_off:0000000000000000 rcu_osci_off
C:\Users\test\AppData\Local\Temp\cciHZyrV.s:1454   .text.rcu_osci_off:0000000000000000 .L0 
C:\Users\test\AppData\Local\Temp\cciHZyrV.s:1456   .text.rcu_osci_off:0000000000000000 .L0 
C:\Users\test\AppData\Local\Temp\cciHZyrV.s:1457   .text.rcu_osci_off:0000000000000000 .L0 
C:\Users\test\AppData\Local\Temp\cciHZyrV.s:1458   .text.rcu_osci_off:0000000000000000 .L0 
C:\Users\test\AppData\Local\Temp\cciHZyrV.s:1463   .text.rcu_osci_off:000000000000000c .L0 
C:\Users\test\AppData\Local\Temp\cciHZyrV.s:1466   .text.rcu_osci_off:0000000000000012 .L0 
C:\Users\test\AppData\Local\Temp\cciHZyrV.s:1468   .text.rcu_osci_off:0000000000000016 .L0 
C:\Users\test\AppData\Local\Temp\cciHZyrV.s:1471   .text.rcu_osci_off:000000000000001a .L0 
C:\Users\test\AppData\Local\Temp\cciHZyrV.s:1472   .text.rcu_osci_off:000000000000001c .L0 
C:\Users\test\AppData\Local\Temp\cciHZyrV.s:1479   .text.rcu_osci_bypass_mode_enable:0000000000000000 rcu_osci_bypass_mode_enable
C:\Users\test\AppData\Local\Temp\cciHZyrV.s:1482   .text.rcu_osci_bypass_mode_enable:0000000000000000 .L0 
C:\Users\test\AppData\Local\Temp\cciHZyrV.s:1484   .text.rcu_osci_bypass_mode_enable:0000000000000000 .L0 
C:\Users\test\AppData\Local\Temp\cciHZyrV.s:1485   .text.rcu_osci_bypass_mode_enable:0000000000000000 .L0 
C:\Users\test\AppData\Local\Temp\cciHZyrV.s:1486   .text.rcu_osci_bypass_mode_enable:0000000000000000 .L0 
C:\Users\test\AppData\Local\Temp\cciHZyrV.s:1492   .text.rcu_osci_bypass_mode_enable:000000000000000c .L0 
C:\Users\test\AppData\Local\Temp\cciHZyrV.s:1493   .text.rcu_osci_bypass_mode_enable:000000000000000c .L0 
C:\Users\test\AppData\Local\Temp\cciHZyrV.s:1497   .text.rcu_osci_bypass_mode_enable:0000000000000012 .L0 
C:\Users\test\AppData\Local\Temp\cciHZyrV.s:1498   .text.rcu_osci_bypass_mode_enable:0000000000000012 .L0 
C:\Users\test\AppData\Local\Temp\cciHZyrV.s:1500   .text.rcu_osci_bypass_mode_enable:0000000000000014 .L0 
C:\Users\test\AppData\Local\Temp\cciHZyrV.s:1503   .text.rcu_osci_bypass_mode_enable:0000000000000018 .L0 
C:\Users\test\AppData\Local\Temp\cciHZyrV.s:1506   .text.rcu_osci_bypass_mode_enable:000000000000001c .L0 
C:\Users\test\AppData\Local\Temp\cciHZyrV.s:1507   .text.rcu_osci_bypass_mode_enable:000000000000001c .L0 
C:\Users\test\AppData\Local\Temp\cciHZyrV.s:1509   .text.rcu_osci_bypass_mode_enable:000000000000001e .L0 
C:\Users\test\AppData\Local\Temp\cciHZyrV.s:1510   .text.rcu_osci_bypass_mode_enable:000000000000001e .L0 
C:\Users\test\AppData\Local\Temp\cciHZyrV.s:1516   .text.rcu_osci_bypass_mode_enable:0000000000000022 .L0 
C:\Users\test\AppData\Local\Temp\cciHZyrV.s:1517   .text.rcu_osci_bypass_mode_enable:0000000000000022 .L0 
C:\Users\test\AppData\Local\Temp\cciHZyrV.s:1521   .text.rcu_osci_bypass_mode_enable:0000000000000028 .L0 
C:\Users\test\AppData\Local\Temp\cciHZyrV.s:1522   .text.rcu_osci_bypass_mode_enable:0000000000000028 .L0 
GAS LISTING C:\Users\test\AppData\Local\Temp\cciHZyrV.s 			page 73


C:\Users\test\AppData\Local\Temp\cciHZyrV.s:1528   .text.rcu_osci_bypass_mode_enable:0000000000000032 .L0 
C:\Users\test\AppData\Local\Temp\cciHZyrV.s:1529   .text.rcu_osci_bypass_mode_enable:0000000000000032 .L0 
C:\Users\test\AppData\Local\Temp\cciHZyrV.s:1533   .text.rcu_osci_bypass_mode_enable:0000000000000038 .L0 
C:\Users\test\AppData\Local\Temp\cciHZyrV.s:1535   .text.rcu_osci_bypass_mode_enable:000000000000003a .L0 
C:\Users\test\AppData\Local\Temp\cciHZyrV.s:1536   .text.rcu_osci_bypass_mode_enable:000000000000003c .L0 
C:\Users\test\AppData\Local\Temp\cciHZyrV.s:1543   .text.rcu_osci_bypass_mode_disable:0000000000000000 rcu_osci_bypass_mode_disable
C:\Users\test\AppData\Local\Temp\cciHZyrV.s:1546   .text.rcu_osci_bypass_mode_disable:0000000000000000 .L0 
C:\Users\test\AppData\Local\Temp\cciHZyrV.s:1548   .text.rcu_osci_bypass_mode_disable:0000000000000000 .L0 
C:\Users\test\AppData\Local\Temp\cciHZyrV.s:1549   .text.rcu_osci_bypass_mode_disable:0000000000000000 .L0 
C:\Users\test\AppData\Local\Temp\cciHZyrV.s:1550   .text.rcu_osci_bypass_mode_disable:0000000000000000 .L0 
C:\Users\test\AppData\Local\Temp\cciHZyrV.s:1556   .text.rcu_osci_bypass_mode_disable:000000000000000c .L0 
C:\Users\test\AppData\Local\Temp\cciHZyrV.s:1557   .text.rcu_osci_bypass_mode_disable:000000000000000c .L0 
C:\Users\test\AppData\Local\Temp\cciHZyrV.s:1561   .text.rcu_osci_bypass_mode_disable:0000000000000012 .L0 
C:\Users\test\AppData\Local\Temp\cciHZyrV.s:1562   .text.rcu_osci_bypass_mode_disable:0000000000000012 .L0 
C:\Users\test\AppData\Local\Temp\cciHZyrV.s:1564   .text.rcu_osci_bypass_mode_disable:0000000000000014 .L0 
C:\Users\test\AppData\Local\Temp\cciHZyrV.s:1567   .text.rcu_osci_bypass_mode_disable:0000000000000016 .L0 
C:\Users\test\AppData\Local\Temp\cciHZyrV.s:1570   .text.rcu_osci_bypass_mode_disable:000000000000001a .L0 
C:\Users\test\AppData\Local\Temp\cciHZyrV.s:1571   .text.rcu_osci_bypass_mode_disable:000000000000001a .L0 
C:\Users\test\AppData\Local\Temp\cciHZyrV.s:1573   .text.rcu_osci_bypass_mode_disable:000000000000001c .L0 
C:\Users\test\AppData\Local\Temp\cciHZyrV.s:1574   .text.rcu_osci_bypass_mode_disable:000000000000001c .L0 
C:\Users\test\AppData\Local\Temp\cciHZyrV.s:1580   .text.rcu_osci_bypass_mode_disable:0000000000000020 .L0 
C:\Users\test\AppData\Local\Temp\cciHZyrV.s:1581   .text.rcu_osci_bypass_mode_disable:0000000000000020 .L0 
C:\Users\test\AppData\Local\Temp\cciHZyrV.s:1585   .text.rcu_osci_bypass_mode_disable:0000000000000026 .L0 
C:\Users\test\AppData\Local\Temp\cciHZyrV.s:1586   .text.rcu_osci_bypass_mode_disable:0000000000000026 .L0 
C:\Users\test\AppData\Local\Temp\cciHZyrV.s:1592   .text.rcu_osci_bypass_mode_disable:0000000000000030 .L0 
C:\Users\test\AppData\Local\Temp\cciHZyrV.s:1593   .text.rcu_osci_bypass_mode_disable:0000000000000030 .L0 
C:\Users\test\AppData\Local\Temp\cciHZyrV.s:1598   .text.rcu_osci_bypass_mode_disable:0000000000000038 .L0 
C:\Users\test\AppData\Local\Temp\cciHZyrV.s:1600   .text.rcu_osci_bypass_mode_disable:000000000000003a .L0 
C:\Users\test\AppData\Local\Temp\cciHZyrV.s:1601   .text.rcu_osci_bypass_mode_disable:000000000000003c .L0 
C:\Users\test\AppData\Local\Temp\cciHZyrV.s:1608   .text.rcu_hxtal_clock_monitor_enable:0000000000000000 rcu_hxtal_clock_monitor_enable
C:\Users\test\AppData\Local\Temp\cciHZyrV.s:1611   .text.rcu_hxtal_clock_monitor_enable:0000000000000000 .L0 
C:\Users\test\AppData\Local\Temp\cciHZyrV.s:1612   .text.rcu_hxtal_clock_monitor_enable:0000000000000000 .L0 
C:\Users\test\AppData\Local\Temp\cciHZyrV.s:1613   .text.rcu_hxtal_clock_monitor_enable:0000000000000000 .L0 
C:\Users\test\AppData\Local\Temp\cciHZyrV.s:1614   .text.rcu_hxtal_clock_monitor_enable:0000000000000000 .L0 
C:\Users\test\AppData\Local\Temp\cciHZyrV.s:1620   .text.rcu_hxtal_clock_monitor_enable:000000000000000e .L0 
C:\Users\test\AppData\Local\Temp\cciHZyrV.s:1621   .text.rcu_hxtal_clock_monitor_enable:0000000000000010 .L0 
C:\Users\test\AppData\Local\Temp\cciHZyrV.s:1628   .text.rcu_hxtal_clock_monitor_disable:0000000000000000 rcu_hxtal_clock_monitor_disable
C:\Users\test\AppData\Local\Temp\cciHZyrV.s:1631   .text.rcu_hxtal_clock_monitor_disable:0000000000000000 .L0 
C:\Users\test\AppData\Local\Temp\cciHZyrV.s:1632   .text.rcu_hxtal_clock_monitor_disable:0000000000000000 .L0 
C:\Users\test\AppData\Local\Temp\cciHZyrV.s:1633   .text.rcu_hxtal_clock_monitor_disable:0000000000000000 .L0 
C:\Users\test\AppData\Local\Temp\cciHZyrV.s:1634   .text.rcu_hxtal_clock_monitor_disable:0000000000000000 .L0 
C:\Users\test\AppData\Local\Temp\cciHZyrV.s:1641   .text.rcu_hxtal_clock_monitor_disable:0000000000000010 .L0 
C:\Users\test\AppData\Local\Temp\cciHZyrV.s:1642   .text.rcu_hxtal_clock_monitor_disable:0000000000000012 .L0 
C:\Users\test\AppData\Local\Temp\cciHZyrV.s:1649   .text.rcu_irc8m_adjust_value_set:0000000000000000 rcu_irc8m_adjust_value_set
C:\Users\test\AppData\Local\Temp\cciHZyrV.s:1652   .text.rcu_irc8m_adjust_value_set:0000000000000000 .L0 
C:\Users\test\AppData\Local\Temp\cciHZyrV.s:1654   .text.rcu_irc8m_adjust_value_set:0000000000000000 .L0 
C:\Users\test\AppData\Local\Temp\cciHZyrV.s:1655   .text.rcu_irc8m_adjust_value_set:0000000000000000 .L0 
C:\Users\test\AppData\Local\Temp\cciHZyrV.s:1656   .text.rcu_irc8m_adjust_value_set:0000000000000000 .L0 
C:\Users\test\AppData\Local\Temp\cciHZyrV.s:1657   .text.rcu_irc8m_adjust_value_set:0000000000000000 .L0 
C:\Users\test\AppData\Local\Temp\cciHZyrV.s:1661   .text.rcu_irc8m_adjust_value_set:0000000000000006 .L0 
C:\Users\test\AppData\Local\Temp\cciHZyrV.s:1662   .text.rcu_irc8m_adjust_value_set:0000000000000006 .L0 
C:\Users\test\AppData\Local\Temp\cciHZyrV.s:1663   .text.rcu_irc8m_adjust_value_set:0000000000000006 .L0 
C:\Users\test\AppData\Local\Temp\cciHZyrV.s:1667   .text.rcu_irc8m_adjust_value_set:000000000000000c .L0 
C:\Users\test\AppData\Local\Temp\cciHZyrV.s:1670   .text.rcu_irc8m_adjust_value_set:0000000000000010 .L0 
C:\Users\test\AppData\Local\Temp\cciHZyrV.s:1672   .text.rcu_irc8m_adjust_value_set:0000000000000012 .L0 
C:\Users\test\AppData\Local\Temp\cciHZyrV.s:1674   .text.rcu_irc8m_adjust_value_set:0000000000000014 .L0 
C:\Users\test\AppData\Local\Temp\cciHZyrV.s:1675   .text.rcu_irc8m_adjust_value_set:0000000000000016 .L0 
GAS LISTING C:\Users\test\AppData\Local\Temp\cciHZyrV.s 			page 74


C:\Users\test\AppData\Local\Temp\cciHZyrV.s:1682   .text.rcu_deepsleep_voltage_set:0000000000000000 rcu_deepsleep_voltage_set
C:\Users\test\AppData\Local\Temp\cciHZyrV.s:1685   .text.rcu_deepsleep_voltage_set:0000000000000000 .L0 
C:\Users\test\AppData\Local\Temp\cciHZyrV.s:1687   .text.rcu_deepsleep_voltage_set:0000000000000000 .L0 
C:\Users\test\AppData\Local\Temp\cciHZyrV.s:1688   .text.rcu_deepsleep_voltage_set:0000000000000000 .L0 
C:\Users\test\AppData\Local\Temp\cciHZyrV.s:1689   .text.rcu_deepsleep_voltage_set:0000000000000000 .L0 
C:\Users\test\AppData\Local\Temp\cciHZyrV.s:1692   .text.rcu_deepsleep_voltage_set:0000000000000002 .L0 
C:\Users\test\AppData\Local\Temp\cciHZyrV.s:1693   .text.rcu_deepsleep_voltage_set:0000000000000002 .L0 
C:\Users\test\AppData\Local\Temp\cciHZyrV.s:1696   .text.rcu_deepsleep_voltage_set:0000000000000008 .L0 
C:\Users\test\AppData\Local\Temp\cciHZyrV.s:1697   .text.rcu_deepsleep_voltage_set:000000000000000a .L0 
C:\Users\test\AppData\Local\Temp\cciHZyrV.s:1704   .text.rcu_clock_freq_get:0000000000000000 rcu_clock_freq_get
C:\Users\test\AppData\Local\Temp\cciHZyrV.s:1707   .text.rcu_clock_freq_get:0000000000000000 .L0 
C:\Users\test\AppData\Local\Temp\cciHZyrV.s:1709   .text.rcu_clock_freq_get:0000000000000000 .L0 
C:\Users\test\AppData\Local\Temp\cciHZyrV.s:1710   .text.rcu_clock_freq_get:0000000000000000 .L0 
C:\Users\test\AppData\Local\Temp\cciHZyrV.s:1711   .text.rcu_clock_freq_get:0000000000000000 .L0 
C:\Users\test\AppData\Local\Temp\cciHZyrV.s:1712   .text.rcu_clock_freq_get:0000000000000000 .L0 
C:\Users\test\AppData\Local\Temp\cciHZyrV.s:1713   .text.rcu_clock_freq_get:0000000000000000 .L0 
C:\Users\test\AppData\Local\Temp\cciHZyrV.s:1714   .text.rcu_clock_freq_get:0000000000000000 .L0 
C:\Users\test\AppData\Local\Temp\cciHZyrV.s:1715   .text.rcu_clock_freq_get:0000000000000000 .L0 
C:\Users\test\AppData\Local\Temp\cciHZyrV.s:1718   .text.rcu_clock_freq_get:0000000000000008 .L0 
C:\Users\test\AppData\Local\Temp\cciHZyrV.s:1720   .text.rcu_clock_freq_get:000000000000000a .L0 
C:\Users\test\AppData\Local\Temp\cciHZyrV.s:1722   .text.rcu_clock_freq_get:000000000000000a .L0 
C:\Users\test\AppData\Local\Temp\cciHZyrV.s:1726   .text.rcu_clock_freq_get:0000000000000014 .L0 
C:\Users\test\AppData\Local\Temp\cciHZyrV.s:1728   .text.rcu_clock_freq_get:0000000000000016 .L0 
C:\Users\test\AppData\Local\Temp\cciHZyrV.s:1730   .text.rcu_clock_freq_get:0000000000000018 .L0 
C:\Users\test\AppData\Local\Temp\cciHZyrV.s:1734   .text.rcu_clock_freq_get:000000000000001e .L0 
C:\Users\test\AppData\Local\Temp\cciHZyrV.s:1735   .text.rcu_clock_freq_get:000000000000001e .L0 
C:\Users\test\AppData\Local\Temp\cciHZyrV.s:1736   .text.rcu_clock_freq_get:000000000000001e .L0 
C:\Users\test\AppData\Local\Temp\cciHZyrV.s:1737   .text.rcu_clock_freq_get:000000000000001e .L0 
C:\Users\test\AppData\Local\Temp\cciHZyrV.s:1739   .text.rcu_clock_freq_get:0000000000000020 .L0 
C:\Users\test\AppData\Local\Temp\cciHZyrV.s:1741   .text.rcu_clock_freq_get:0000000000000022 .L0 
C:\Users\test\AppData\Local\Temp\cciHZyrV.s:1745   .text.rcu_clock_freq_get:0000000000000028 .L0 
C:\Users\test\AppData\Local\Temp\cciHZyrV.s:1746   .text.rcu_clock_freq_get:0000000000000028 .L0 
C:\Users\test\AppData\Local\Temp\cciHZyrV.s:1748   .text.rcu_clock_freq_get:000000000000002c .L0 
C:\Users\test\AppData\Local\Temp\cciHZyrV.s:1750   .text.rcu_clock_freq_get:000000000000002e .L0 
C:\Users\test\AppData\Local\Temp\cciHZyrV.s:1753   .text.rcu_clock_freq_get:0000000000000030 .L0 
C:\Users\test\AppData\Local\Temp\cciHZyrV.s:1756   .text.rcu_clock_freq_get:0000000000000032 .L0 
C:\Users\test\AppData\Local\Temp\cciHZyrV.s:1758   .text.rcu_clock_freq_get:0000000000000036 .L0 
C:\Users\test\AppData\Local\Temp\cciHZyrV.s:1762   .text.rcu_clock_freq_get:000000000000003a .L0 
C:\Users\test\AppData\Local\Temp\cciHZyrV.s:1763   .text.rcu_clock_freq_get:000000000000003a .L0 
C:\Users\test\AppData\Local\Temp\cciHZyrV.s:1767   .text.rcu_clock_freq_get:0000000000000040 .L0 
C:\Users\test\AppData\Local\Temp\cciHZyrV.s:1768   .text.rcu_clock_freq_get:0000000000000040 .L0 
C:\Users\test\AppData\Local\Temp\cciHZyrV.s:1769   .text.rcu_clock_freq_get:0000000000000040 .L0 
C:\Users\test\AppData\Local\Temp\cciHZyrV.s:1771   .text.rcu_clock_freq_get:0000000000000042 .L0 
C:\Users\test\AppData\Local\Temp\cciHZyrV.s:1773   .text.rcu_clock_freq_get:0000000000000044 .L0 
C:\Users\test\AppData\Local\Temp\cciHZyrV.s:1776   .text.rcu_clock_freq_get:0000000000000046 .L0 
C:\Users\test\AppData\Local\Temp\cciHZyrV.s:1778   .text.rcu_clock_freq_get:0000000000000048 .L0 
C:\Users\test\AppData\Local\Temp\cciHZyrV.s:1781   .text.rcu_clock_freq_get:000000000000004a .L0 
C:\Users\test\AppData\Local\Temp\cciHZyrV.s:1784   .text.rcu_clock_freq_get:000000000000004c .L0 
C:\Users\test\AppData\Local\Temp\cciHZyrV.s:1786   .text.rcu_clock_freq_get:0000000000000050 .L0 
C:\Users\test\AppData\Local\Temp\cciHZyrV.s:1788   .text.rcu_clock_freq_get:0000000000000052 .L0 
C:\Users\test\AppData\Local\Temp\cciHZyrV.s:1790   .text.rcu_clock_freq_get:0000000000000054 .L0 
C:\Users\test\AppData\Local\Temp\cciHZyrV.s:1792   .text.rcu_clock_freq_get:0000000000000056 .L0 
C:\Users\test\AppData\Local\Temp\cciHZyrV.s:1794   .text.rcu_clock_freq_get:0000000000000058 .L0 
C:\Users\test\AppData\Local\Temp\cciHZyrV.s:1796   .text.rcu_clock_freq_get:000000000000005a .L0 
C:\Users\test\AppData\Local\Temp\cciHZyrV.s:1798   .text.rcu_clock_freq_get:000000000000005c .L0 
C:\Users\test\AppData\Local\Temp\cciHZyrV.s:1800   .text.rcu_clock_freq_get:000000000000005e .L0 
C:\Users\test\AppData\Local\Temp\cciHZyrV.s:1803   .text.rcu_clock_freq_get:0000000000000062 .L0 
GAS LISTING C:\Users\test\AppData\Local\Temp\cciHZyrV.s 			page 75


C:\Users\test\AppData\Local\Temp\cciHZyrV.s:1804   .text.rcu_clock_freq_get:0000000000000062 .L0 
C:\Users\test\AppData\Local\Temp\cciHZyrV.s:1805   .text.rcu_clock_freq_get:0000000000000062 .L0 
C:\Users\test\AppData\Local\Temp\cciHZyrV.s:1808   .text.rcu_clock_freq_get:0000000000000066 .L0 
C:\Users\test\AppData\Local\Temp\cciHZyrV.s:1809   .text.rcu_clock_freq_get:0000000000000066 .L0 
C:\Users\test\AppData\Local\Temp\cciHZyrV.s:1810   .text.rcu_clock_freq_get:0000000000000066 .L0 
C:\Users\test\AppData\Local\Temp\cciHZyrV.s:1811   .text.rcu_clock_freq_get:0000000000000066 .L0 
C:\Users\test\AppData\Local\Temp\cciHZyrV.s:1814   .text.rcu_clock_freq_get:000000000000006a .L0 
C:\Users\test\AppData\Local\Temp\cciHZyrV.s:1815   .text.rcu_clock_freq_get:000000000000006a .L0 
C:\Users\test\AppData\Local\Temp\cciHZyrV.s:1819   .text.rcu_clock_freq_get:0000000000000072 .L0 
C:\Users\test\AppData\Local\Temp\cciHZyrV.s:1822   .text.rcu_clock_freq_get:0000000000000076 .L0 
C:\Users\test\AppData\Local\Temp\cciHZyrV.s:1824   .text.rcu_clock_freq_get:000000000000007a .L0 
C:\Users\test\AppData\Local\Temp\cciHZyrV.s:1829   .text.rcu_clock_freq_get:0000000000000080 .L0 
C:\Users\test\AppData\Local\Temp\cciHZyrV.s:1831   .text.rcu_clock_freq_get:0000000000000084 .L0 
C:\Users\test\AppData\Local\Temp\cciHZyrV.s:1835   .text.rcu_clock_freq_get:000000000000008a .L0 
C:\Users\test\AppData\Local\Temp\cciHZyrV.s:1838   .text.rcu_clock_freq_get:000000000000008e .L0 
C:\Users\test\AppData\Local\Temp\cciHZyrV.s:1839   .text.rcu_clock_freq_get:000000000000008e .L0 
C:\Users\test\AppData\Local\Temp\cciHZyrV.s:1844   .text.rcu_clock_freq_get:0000000000000090 .L0 
C:\Users\test\AppData\Local\Temp\cciHZyrV.s:1846   .text.rcu_clock_freq_get:0000000000000090 .L0 
C:\Users\test\AppData\Local\Temp\cciHZyrV.s:1847   .text.rcu_clock_freq_get:0000000000000090 .L0 
C:\Users\test\AppData\Local\Temp\cciHZyrV.s:1850   .text.rcu_clock_freq_get:0000000000000092 .L0 
C:\Users\test\AppData\Local\Temp\cciHZyrV.s:1851   .text.rcu_clock_freq_get:0000000000000092 .L0 
C:\Users\test\AppData\Local\Temp\cciHZyrV.s:1855   .text.rcu_clock_freq_get:000000000000009a .L0 
C:\Users\test\AppData\Local\Temp\cciHZyrV.s:1856   .text.rcu_clock_freq_get:000000000000009a .L0 
C:\Users\test\AppData\Local\Temp\cciHZyrV.s:1857   .text.rcu_clock_freq_get:000000000000009a .L0 
C:\Users\test\AppData\Local\Temp\cciHZyrV.s:1860   .text.rcu_clock_freq_get:000000000000009c .L0 
C:\Users\test\AppData\Local\Temp\cciHZyrV.s:1861   .text.rcu_clock_freq_get:000000000000009c .L0 
C:\Users\test\AppData\Local\Temp\cciHZyrV.s:1864   .text.rcu_clock_freq_get:00000000000000a4 .L0 
C:\Users\test\AppData\Local\Temp\cciHZyrV.s:1865   .text.rcu_clock_freq_get:00000000000000a4 .L0 
C:\Users\test\AppData\Local\Temp\cciHZyrV.s:1868   .text.rcu_clock_freq_get:00000000000000a6 .L0 
C:\Users\test\AppData\Local\Temp\cciHZyrV.s:1870   .text.rcu_clock_freq_get:00000000000000a8 .L0 
C:\Users\test\AppData\Local\Temp\cciHZyrV.s:1872   .text.rcu_clock_freq_get:00000000000000aa .L0 
C:\Users\test\AppData\Local\Temp\cciHZyrV.s:1874   .text.rcu_clock_freq_get:00000000000000ae .L0 
C:\Users\test\AppData\Local\Temp\cciHZyrV.s:1877   .text.rcu_clock_freq_get:00000000000000b2 .L0 
C:\Users\test\AppData\Local\Temp\cciHZyrV.s:1879   .text.rcu_clock_freq_get:00000000000000b4 .L0 
C:\Users\test\AppData\Local\Temp\cciHZyrV.s:1881   .text.rcu_clock_freq_get:00000000000000b8 .L0 
C:\Users\test\AppData\Local\Temp\cciHZyrV.s:1884   .text.rcu_clock_freq_get:00000000000000ba .L0 
C:\Users\test\AppData\Local\Temp\cciHZyrV.s:1885   .text.rcu_clock_freq_get:00000000000000ba .L0 
C:\Users\test\AppData\Local\Temp\cciHZyrV.s:1886   .text.rcu_clock_freq_get:00000000000000ba .L0 
C:\Users\test\AppData\Local\Temp\cciHZyrV.s:1888   .text.rcu_clock_freq_get:00000000000000be .L0 
C:\Users\test\AppData\Local\Temp\cciHZyrV.s:1892   .text.rcu_clock_freq_get:00000000000000c0 .L0 
C:\Users\test\AppData\Local\Temp\cciHZyrV.s:1893   .text.rcu_clock_freq_get:00000000000000c0 .L0 
C:\Users\test\AppData\Local\Temp\cciHZyrV.s:1897   .text.rcu_clock_freq_get:00000000000000cc .L0 
C:\Users\test\AppData\Local\Temp\cciHZyrV.s:1901   .text.rcu_clock_freq_get:00000000000000d0 .L0 
C:\Users\test\AppData\Local\Temp\cciHZyrV.s:1902   .text.rcu_clock_freq_get:00000000000000d0 .L0 
C:\Users\test\AppData\Local\Temp\cciHZyrV.s:1906   .text.rcu_clock_freq_get:00000000000000d6 .L0 
C:\Users\test\AppData\Local\Temp\cciHZyrV.s:1907   .text.rcu_clock_freq_get:00000000000000d6 .L0 
C:\Users\test\AppData\Local\Temp\cciHZyrV.s:1909   .text.rcu_clock_freq_get:00000000000000da .L0 
C:\Users\test\AppData\Local\Temp\cciHZyrV.s:1912   .text.rcu_clock_freq_get:00000000000000dc .L0 
C:\Users\test\AppData\Local\Temp\cciHZyrV.s:1915   .text.rcu_clock_freq_get:00000000000000de .L0 
C:\Users\test\AppData\Local\Temp\cciHZyrV.s:1918   .text.rcu_clock_freq_get:00000000000000e2 .L0 
C:\Users\test\AppData\Local\Temp\cciHZyrV.s:1919   .text.rcu_clock_freq_get:00000000000000e2 .L0 
C:\Users\test\AppData\Local\Temp\cciHZyrV.s:1922   .text.rcu_clock_freq_get:00000000000000e4 .L0 
C:\Users\test\AppData\Local\Temp\cciHZyrV.s:1924   .text.rcu_clock_freq_get:00000000000000e6 .L0 
C:\Users\test\AppData\Local\Temp\cciHZyrV.s:1926   .text.rcu_clock_freq_get:00000000000000e8 .L0 
C:\Users\test\AppData\Local\Temp\cciHZyrV.s:1928   .text.rcu_clock_freq_get:00000000000000ec .L0 
C:\Users\test\AppData\Local\Temp\cciHZyrV.s:1931   .text.rcu_clock_freq_get:00000000000000ee .L0 
C:\Users\test\AppData\Local\Temp\cciHZyrV.s:1932   .text.rcu_clock_freq_get:00000000000000ee .L0 
GAS LISTING C:\Users\test\AppData\Local\Temp\cciHZyrV.s 			page 76


C:\Users\test\AppData\Local\Temp\cciHZyrV.s:1935   .text.rcu_clock_freq_get:00000000000000f2 .L0 
C:\Users\test\AppData\Local\Temp\cciHZyrV.s:1936   .text.rcu_clock_freq_get:00000000000000f2 .L0 
C:\Users\test\AppData\Local\Temp\cciHZyrV.s:1939   .text.rcu_clock_freq_get:00000000000000f8 .L0 
C:\Users\test\AppData\Local\Temp\cciHZyrV.s:1940   .text.rcu_clock_freq_get:00000000000000f8 .L0 
C:\Users\test\AppData\Local\Temp\cciHZyrV.s:1943   .text.rcu_clock_freq_get:00000000000000fa .L0 
C:\Users\test\AppData\Local\Temp\cciHZyrV.s:1944   .text.rcu_clock_freq_get:00000000000000fa .L0 
C:\Users\test\AppData\Local\Temp\cciHZyrV.s:1945   .text.rcu_clock_freq_get:00000000000000fa .L0 
C:\Users\test\AppData\Local\Temp\cciHZyrV.s:1947   .text.rcu_clock_freq_get:00000000000000fe .L0 
C:\Users\test\AppData\Local\Temp\cciHZyrV.s:1948   .text.rcu_clock_freq_get:00000000000000fe .L0 
C:\Users\test\AppData\Local\Temp\cciHZyrV.s:1953   .text.rcu_clock_freq_get:0000000000000106 .L0 
C:\Users\test\AppData\Local\Temp\cciHZyrV.s:1956   .text.rcu_clock_freq_get:0000000000000108 .L0 
C:\Users\test\AppData\Local\Temp\cciHZyrV.s:1962   .text.rcu_clock_freq_get:000000000000010c .L0 
C:\Users\test\AppData\Local\Temp\cciHZyrV.s:1965   .text.rcu_clock_freq_get:000000000000010e .L0 
C:\Users\test\AppData\Local\Temp\cciHZyrV.s:1966   .text.rcu_clock_freq_get:000000000000010e .L0 
C:\Users\test\AppData\Local\Temp\cciHZyrV.s:1970   .text.rcu_clock_freq_get:0000000000000112 .L0 
C:\Users\test\AppData\Local\Temp\cciHZyrV.s:1971   .text.rcu_clock_freq_get:0000000000000112 .L0 
C:\Users\test\AppData\Local\Temp\cciHZyrV.s:1976   .text.rcu_clock_freq_get:0000000000000114 .L0 
C:\Users\test\AppData\Local\Temp\cciHZyrV.s:1978   .text.rcu_clock_freq_get:0000000000000114 .L0 
C:\Users\test\AppData\Local\Temp\cciHZyrV.s:1982   .text.rcu_clock_freq_get:000000000000011a .L0 
C:\Users\test\AppData\Local\Temp\cciHZyrV.s:1984   .text.rcu_clock_freq_get:000000000000011c .L0 
C:\Users\test\AppData\Local\Temp\cciHZyrV.s:1986   .text.rcu_clock_freq_get:0000000000000120 .L0 
C:\Users\test\AppData\Local\Temp\cciHZyrV.s:1988   .text.rcu_clock_freq_get:0000000000000122 .L0 
C:\Users\test\AppData\Local\Temp\cciHZyrV.s:1990   .text.rcu_clock_freq_get:0000000000000126 .L0 
C:\Users\test\AppData\Local\Temp\cciHZyrV.s:1993   .text.rcu_clock_freq_get:000000000000012a .L0 
C:\Users\test\AppData\Local\Temp\cciHZyrV.s:1994   .text.rcu_clock_freq_get:000000000000012a .L0 
C:\Users\test\AppData\Local\Temp\cciHZyrV.s:1997   .text.rcu_clock_freq_get:000000000000012c .L0 
C:\Users\test\AppData\Local\Temp\cciHZyrV.s:1998   .text.rcu_clock_freq_get:000000000000012c .L0 
C:\Users\test\AppData\Local\Temp\cciHZyrV.s:2001   .text.rcu_clock_freq_get:0000000000000130 .L0 
C:\Users\test\AppData\Local\Temp\cciHZyrV.s:2002   .text.rcu_clock_freq_get:0000000000000130 .L0 
C:\Users\test\AppData\Local\Temp\cciHZyrV.s:2006   .text.rcu_clock_freq_get:0000000000000134 .L0 
C:\Users\test\AppData\Local\Temp\cciHZyrV.s:2007   .text.rcu_clock_freq_get:0000000000000134 .L0 
C:\Users\test\AppData\Local\Temp\cciHZyrV.s:2008   .text.rcu_clock_freq_get:0000000000000134 .L0 
C:\Users\test\AppData\Local\Temp\cciHZyrV.s:2009   .text.rcu_clock_freq_get:0000000000000134 .L0 
C:\Users\test\AppData\Local\Temp\cciHZyrV.s:2013   .text.rcu_clock_freq_get:0000000000000136 .L0 
C:\Users\test\AppData\Local\Temp\cciHZyrV.s:2016   .text.rcu_clock_freq_get:000000000000013a .L0 
C:\Users\test\AppData\Local\Temp\cciHZyrV.s:2017   .text.rcu_clock_freq_get:000000000000013c .L0 
C:\Users\test\AppData\Local\Temp\cciHZyrV.s:128    .text.rcu_deinit:0000000000000068 .L0 
C:\Users\test\AppData\Local\Temp\cciHZyrV.s:154    .text.rcu_periph_clock_enable:0000000000000018 .L0 
C:\Users\test\AppData\Local\Temp\cciHZyrV.s:182    .text.rcu_periph_clock_disable:000000000000001c .L0 
C:\Users\test\AppData\Local\Temp\cciHZyrV.s:208    .text.rcu_periph_clock_sleep_enable:0000000000000018 .L0 
C:\Users\test\AppData\Local\Temp\cciHZyrV.s:236    .text.rcu_periph_clock_sleep_disable:000000000000001c .L0 
C:\Users\test\AppData\Local\Temp\cciHZyrV.s:262    .text.rcu_periph_reset_enable:0000000000000018 .L0 
C:\Users\test\AppData\Local\Temp\cciHZyrV.s:290    .text.rcu_periph_reset_disable:000000000000001c .L0 
C:\Users\test\AppData\Local\Temp\cciHZyrV.s:310    .text.rcu_bkp_reset_enable:000000000000000e .L0 
C:\Users\test\AppData\Local\Temp\cciHZyrV.s:331    .text.rcu_bkp_reset_disable:0000000000000010 .L0 
C:\Users\test\AppData\Local\Temp\cciHZyrV.s:361    .text.rcu_system_clock_source_config:000000000000000e .L0 
C:\Users\test\AppData\Local\Temp\cciHZyrV.s:379    .text.rcu_system_clock_source_get:000000000000000a .L0 
C:\Users\test\AppData\Local\Temp\cciHZyrV.s:409    .text.rcu_ahb_clock_config:0000000000000010 .L0 
C:\Users\test\AppData\Local\Temp\cciHZyrV.s:439    .text.rcu_apb1_clock_config:0000000000000010 .L0 
C:\Users\test\AppData\Local\Temp\cciHZyrV.s:471    .text.rcu_apb2_clock_config:0000000000000014 .L0 
C:\Users\test\AppData\Local\Temp\cciHZyrV.s:503    .text.rcu_ckout0_config:0000000000000014 .L0 
C:\Users\test\AppData\Local\Temp\cciHZyrV.s:538    .text.rcu_pll_config:0000000000000016 .L0 
C:\Users\test\AppData\Local\Temp\cciHZyrV.s:573    .text.rcu_predv0_config:0000000000000014 .L0 
C:\Users\test\AppData\Local\Temp\cciHZyrV.s:604    .text.rcu_predv1_config:0000000000000010 .L0 
C:\Users\test\AppData\Local\Temp\cciHZyrV.s:632    .text.rcu_pll1_config:0000000000000018 .L0 
C:\Users\test\AppData\Local\Temp\cciHZyrV.s:660    .text.rcu_pll2_config:0000000000000016 .L0 
C:\Users\test\AppData\Local\Temp\cciHZyrV.s:734    .text.rcu_adc_clock_config:0000000000000046 .L0 
GAS LISTING C:\Users\test\AppData\Local\Temp\cciHZyrV.s 			page 77


C:\Users\test\AppData\Local\Temp\cciHZyrV.s:766    .text.rcu_usb_clock_config:0000000000000014 .L0 
C:\Users\test\AppData\Local\Temp\cciHZyrV.s:796    .text.rcu_rtc_clock_config:0000000000000010 .L0 
C:\Users\test\AppData\Local\Temp\cciHZyrV.s:828    .text.rcu_i2s1_clock_config:0000000000000012 .L0 
C:\Users\test\AppData\Local\Temp\cciHZyrV.s:860    .text.rcu_i2s2_clock_config:0000000000000014 .L0 
C:\Users\test\AppData\Local\Temp\cciHZyrV.s:884    .text.rcu_flag_get:0000000000000014 .L0 
C:\Users\test\AppData\Local\Temp\cciHZyrV.s:904    .text.rcu_all_reset_flag_clear:0000000000000010 .L0 
C:\Users\test\AppData\Local\Temp\cciHZyrV.s:928    .text.rcu_interrupt_flag_get:0000000000000014 .L0 
C:\Users\test\AppData\Local\Temp\cciHZyrV.s:954    .text.rcu_interrupt_flag_clear:0000000000000018 .L0 
C:\Users\test\AppData\Local\Temp\cciHZyrV.s:980    .text.rcu_interrupt_enable:0000000000000018 .L0 
C:\Users\test\AppData\Local\Temp\cciHZyrV.s:1008   .text.rcu_interrupt_disable:000000000000001c .L0 
C:\Users\test\AppData\Local\Temp\cciHZyrV.s:1421   .text.rcu_osci_stab_wait:000000000000012c .L0 
C:\Users\test\AppData\Local\Temp\cciHZyrV.s:1447   .text.rcu_osci_on:0000000000000018 .L0 
C:\Users\test\AppData\Local\Temp\cciHZyrV.s:1475   .text.rcu_osci_off:000000000000001c .L0 
C:\Users\test\AppData\Local\Temp\cciHZyrV.s:1539   .text.rcu_osci_bypass_mode_enable:000000000000003c .L0 
C:\Users\test\AppData\Local\Temp\cciHZyrV.s:1604   .text.rcu_osci_bypass_mode_disable:000000000000003c .L0 
C:\Users\test\AppData\Local\Temp\cciHZyrV.s:1624   .text.rcu_hxtal_clock_monitor_enable:0000000000000010 .L0 
C:\Users\test\AppData\Local\Temp\cciHZyrV.s:1645   .text.rcu_hxtal_clock_monitor_disable:0000000000000012 .L0 
C:\Users\test\AppData\Local\Temp\cciHZyrV.s:1678   .text.rcu_irc8m_adjust_value_set:0000000000000016 .L0 
C:\Users\test\AppData\Local\Temp\cciHZyrV.s:1700   .text.rcu_deepsleep_voltage_set:000000000000000a .L0 
C:\Users\test\AppData\Local\Temp\cciHZyrV.s:2020   .text.rcu_clock_freq_get:000000000000013c .L0 
                     .debug_frame:0000000000000000 .L0 
C:\Users\test\AppData\Local\Temp\cciHZyrV.s:117    .text.rcu_deinit:0000000000000064 .L6
C:\Users\test\AppData\Local\Temp\cciHZyrV.s:41     .text.rcu_deinit:0000000000000014 .L3
C:\Users\test\AppData\Local\Temp\cciHZyrV.s:59     .text.rcu_deinit:000000000000001c .L2
C:\Users\test\AppData\Local\Temp\cciHZyrV.s:709    .text.rcu_adc_clock_config:0000000000000030 .L27
C:\Users\test\AppData\Local\Temp\cciHZyrV.s:705    .text.rcu_adc_clock_config:000000000000002a .L28
C:\Users\test\AppData\Local\Temp\cciHZyrV.s:697    .text.rcu_adc_clock_config:0000000000000022 .L29
C:\Users\test\AppData\Local\Temp\cciHZyrV.s:1365   .text.rcu_osci_stab_wait:0000000000000106 .L59
C:\Users\test\AppData\Local\Temp\cciHZyrV.s:1037   .text.rcu_osci_stab_wait:0000000000000024 .L74
C:\Users\test\AppData\Local\Temp\cciHZyrV.s:1312   .text.rcu_osci_stab_wait:00000000000000e4 .L63
C:\Users\test\AppData\Local\Temp\cciHZyrV.s:1205   .text.rcu_osci_stab_wait:000000000000009e .L64
C:\Users\test\AppData\Local\Temp\cciHZyrV.s:1148   .text.rcu_osci_stab_wait:0000000000000078 .L65
C:\Users\test\AppData\Local\Temp\cciHZyrV.s:1258   .text.rcu_osci_stab_wait:00000000000000c0 .L60
C:\Users\test\AppData\Local\Temp\cciHZyrV.s:1094   .text.rcu_osci_stab_wait:0000000000000052 .L61
C:\Users\test\AppData\Local\Temp\cciHZyrV.s:1031   .text.rcu_osci_stab_wait:0000000000000020 .L73
C:\Users\test\AppData\Local\Temp\cciHZyrV.s:1087   .text.rcu_osci_stab_wait:000000000000004e .L75
C:\Users\test\AppData\Local\Temp\cciHZyrV.s:1050   .text.rcu_osci_stab_wait:000000000000003a .L47
C:\Users\test\AppData\Local\Temp\cciHZyrV.s:1070   .text.rcu_osci_stab_wait:0000000000000042 .L54
C:\Users\test\AppData\Local\Temp\cciHZyrV.s:1141   .text.rcu_osci_stab_wait:0000000000000074 .L76
C:\Users\test\AppData\Local\Temp\cciHZyrV.s:1103   .text.rcu_osci_stab_wait:000000000000005c .L46
C:\Users\test\AppData\Local\Temp\cciHZyrV.s:1123   .text.rcu_osci_stab_wait:0000000000000068 .L56
C:\Users\test\AppData\Local\Temp\cciHZyrV.s:1200   .text.rcu_osci_stab_wait:000000000000009a .L77
C:\Users\test\AppData\Local\Temp\cciHZyrV.s:1157   .text.rcu_osci_stab_wait:0000000000000082 .L51
C:\Users\test\AppData\Local\Temp\cciHZyrV.s:1177   .text.rcu_osci_stab_wait:000000000000008e .L58
C:\Users\test\AppData\Local\Temp\cciHZyrV.s:1251   .text.rcu_osci_stab_wait:00000000000000bc .L78
C:\Users\test\AppData\Local\Temp\cciHZyrV.s:1214   .text.rcu_osci_stab_wait:00000000000000a8 .L50
C:\Users\test\AppData\Local\Temp\cciHZyrV.s:1234   .text.rcu_osci_stab_wait:00000000000000b0 .L55
C:\Users\test\AppData\Local\Temp\cciHZyrV.s:1305   .text.rcu_osci_stab_wait:00000000000000e0 .L79
C:\Users\test\AppData\Local\Temp\cciHZyrV.s:1267   .text.rcu_osci_stab_wait:00000000000000c8 .L45
C:\Users\test\AppData\Local\Temp\cciHZyrV.s:1287   .text.rcu_osci_stab_wait:00000000000000d4 .L52
C:\Users\test\AppData\Local\Temp\cciHZyrV.s:1358   .text.rcu_osci_stab_wait:0000000000000102 .L80
C:\Users\test\AppData\Local\Temp\cciHZyrV.s:1321   .text.rcu_osci_stab_wait:00000000000000ee .L49
C:\Users\test\AppData\Local\Temp\cciHZyrV.s:1341   .text.rcu_osci_stab_wait:00000000000000f6 .L53
C:\Users\test\AppData\Local\Temp\cciHZyrV.s:1412   .text.rcu_osci_stab_wait:0000000000000128 .L81
C:\Users\test\AppData\Local\Temp\cciHZyrV.s:1374   .text.rcu_osci_stab_wait:0000000000000110 .L43
C:\Users\test\AppData\Local\Temp\cciHZyrV.s:1394   .text.rcu_osci_stab_wait:000000000000011c .L57
C:\Users\test\AppData\Local\Temp\cciHZyrV.s:1514   .text.rcu_osci_bypass_mode_enable:0000000000000022 .L85
GAS LISTING C:\Users\test\AppData\Local\Temp\cciHZyrV.s 			page 78


C:\Users\test\AppData\Local\Temp\cciHZyrV.s:1511   .text.rcu_osci_bypass_mode_enable:0000000000000020 .L88
C:\Users\test\AppData\Local\Temp\cciHZyrV.s:1578   .text.rcu_osci_bypass_mode_disable:0000000000000020 .L90
C:\Users\test\AppData\Local\Temp\cciHZyrV.s:1575   .text.rcu_osci_bypass_mode_disable:000000000000001e .L93
C:\Users\test\AppData\Local\Temp\cciHZyrV.s:1842   .text.rcu_clock_freq_get:0000000000000090 .L118
C:\Users\test\AppData\Local\Temp\cciHZyrV.s:1960   .text.rcu_clock_freq_get:000000000000010c .L112
C:\Users\test\AppData\Local\Temp\cciHZyrV.s:1833   .text.rcu_clock_freq_get:000000000000008a .L98
C:\Users\test\AppData\Local\Temp\cciHZyrV.s:1974   .text.rcu_clock_freq_get:0000000000000114 .L110
C:\Users\test\AppData\Local\Temp\cciHZyrV.s:1899   .text.rcu_clock_freq_get:00000000000000d0 .L101
C:\Users\test\AppData\Local\Temp\cciHZyrV.s:1890   .text.rcu_clock_freq_get:00000000000000c0 .L102
C:\Users\test\AppData\Local\Temp\cciHZyrV.s:1999   .text.rcu_clock_freq_get:0000000000000130 .L119
C:\Users\test\AppData\Local\Temp\cciHZyrV.s:2005   .text.rcu_clock_freq_get:0000000000000134 .L104
C:\Users\test\AppData\Local\Temp\cciHZyrV.s:2011   .text.rcu_clock_freq_get:0000000000000136 .L117
C:\Users\test\AppData\Local\Temp\cciHZyrV.s:1760   .text.rcu_clock_freq_get:000000000000003a .L99
C:\Users\test\AppData\Local\Temp\cciHZyrV.s:1933   .text.rcu_clock_freq_get:00000000000000f2 .L103
C:\Users\test\AppData\Local\Temp\cciHZyrV.s:4036   .debug_abbrev:0000000000000000 .Ldebug_abbrev0
C:\Users\test\AppData\Local\Temp\cciHZyrV.s:6619   .debug_str:000000000000076b .LASF231
C:\Users\test\AppData\Local\Temp\cciHZyrV.s:6743   .debug_str:0000000000000afd .LASF232
C:\Users\test\AppData\Local\Temp\cciHZyrV.s:6731   .debug_str:0000000000000a88 .LASF233
C:\Users\test\AppData\Local\Temp\cciHZyrV.s:6201   .debug_ranges:0000000000000000 .Ldebug_ranges0
C:\Users\test\AppData\Local\Temp\cciHZyrV.s:6359   .debug_line:0000000000000000 .Ldebug_line0
C:\Users\test\AppData\Local\Temp\cciHZyrV.s:6391   .debug_str:00000000000000e7 .LASF0
C:\Users\test\AppData\Local\Temp\cciHZyrV.s:6791   .debug_str:0000000000000c56 .LASF1
C:\Users\test\AppData\Local\Temp\cciHZyrV.s:6713   .debug_str:0000000000000a13 .LASF4
C:\Users\test\AppData\Local\Temp\cciHZyrV.s:6753   .debug_str:0000000000000b5c .LASF2
C:\Users\test\AppData\Local\Temp\cciHZyrV.s:6681   .debug_str:0000000000000964 .LASF3
C:\Users\test\AppData\Local\Temp\cciHZyrV.s:6477   .debug_str:000000000000039d .LASF5
C:\Users\test\AppData\Local\Temp\cciHZyrV.s:6797   .debug_str:0000000000000c86 .LASF6
C:\Users\test\AppData\Local\Temp\cciHZyrV.s:6685   .debug_str:0000000000000978 .LASF7
C:\Users\test\AppData\Local\Temp\cciHZyrV.s:6757   .debug_str:0000000000000b72 .LASF8
C:\Users\test\AppData\Local\Temp\cciHZyrV.s:6735   .debug_str:0000000000000ac2 .LASF9
C:\Users\test\AppData\Local\Temp\cciHZyrV.s:6601   .debug_str:00000000000006f9 .LASF10
C:\Users\test\AppData\Local\Temp\cciHZyrV.s:6471   .debug_str:0000000000000355 .LASF11
C:\Users\test\AppData\Local\Temp\cciHZyrV.s:6573   .debug_str:0000000000000653 .LASF12
C:\Users\test\AppData\Local\Temp\cciHZyrV.s:6659   .debug_str:00000000000008f6 .LASF13
C:\Users\test\AppData\Local\Temp\cciHZyrV.s:6447   .debug_str:0000000000000290 .LASF14
C:\Users\test\AppData\Local\Temp\cciHZyrV.s:6365   .debug_str:000000000000001b .LASF234
C:\Users\test\AppData\Local\Temp\cciHZyrV.s:6691   .debug_str:0000000000000995 .LASF15
C:\Users\test\AppData\Local\Temp\cciHZyrV.s:6415   .debug_str:00000000000001b0 .LASF16
C:\Users\test\AppData\Local\Temp\cciHZyrV.s:6361   .debug_str:0000000000000000 .LASF17
C:\Users\test\AppData\Local\Temp\cciHZyrV.s:6541   .debug_str:0000000000000559 .LASF18
C:\Users\test\AppData\Local\Temp\cciHZyrV.s:6533   .debug_str:000000000000050c .LASF19
C:\Users\test\AppData\Local\Temp\cciHZyrV.s:6379   .debug_str:00000000000000a3 .LASF20
C:\Users\test\AppData\Local\Temp\cciHZyrV.s:6381   .debug_str:00000000000000ac .LASF21
C:\Users\test\AppData\Local\Temp\cciHZyrV.s:6827   .debug_str:0000000000000da0 .LASF22
C:\Users\test\AppData\Local\Temp\cciHZyrV.s:6741   .debug_str:0000000000000af4 .LASF23
C:\Users\test\AppData\Local\Temp\cciHZyrV.s:6781   .debug_str:0000000000000c07 .LASF24
C:\Users\test\AppData\Local\Temp\cciHZyrV.s:6583   .debug_str:0000000000000695 .LASF25
C:\Users\test\AppData\Local\Temp\cciHZyrV.s:6585   .debug_str:00000000000006a0 .LASF26
C:\Users\test\AppData\Local\Temp\cciHZyrV.s:6587   .debug_str:00000000000006ab .LASF27
C:\Users\test\AppData\Local\Temp\cciHZyrV.s:6589   .debug_str:00000000000006b6 .LASF28
C:\Users\test\AppData\Local\Temp\cciHZyrV.s:6591   .debug_str:00000000000006c1 .LASF29
C:\Users\test\AppData\Local\Temp\cciHZyrV.s:6593   .debug_str:00000000000006cc .LASF30
C:\Users\test\AppData\Local\Temp\cciHZyrV.s:6525   .debug_str:00000000000004cf .LASF31
C:\Users\test\AppData\Local\Temp\cciHZyrV.s:6559   .debug_str:00000000000005e4 .LASF32
C:\Users\test\AppData\Local\Temp\cciHZyrV.s:6561   .debug_str:00000000000005ed .LASF33
C:\Users\test\AppData\Local\Temp\cciHZyrV.s:6775   .debug_str:0000000000000be5 .LASF34
C:\Users\test\AppData\Local\Temp\cciHZyrV.s:6777   .debug_str:0000000000000bf0 .LASF35
GAS LISTING C:\Users\test\AppData\Local\Temp\cciHZyrV.s 			page 79


C:\Users\test\AppData\Local\Temp\cciHZyrV.s:6709   .debug_str:00000000000009ff .LASF36
C:\Users\test\AppData\Local\Temp\cciHZyrV.s:6711   .debug_str:0000000000000a09 .LASF37
C:\Users\test\AppData\Local\Temp\cciHZyrV.s:6521   .debug_str:00000000000004bd .LASF38
C:\Users\test\AppData\Local\Temp\cciHZyrV.s:6523   .debug_str:00000000000004c6 .LASF39
C:\Users\test\AppData\Local\Temp\cciHZyrV.s:6637   .debug_str:0000000000000860 .LASF40
C:\Users\test\AppData\Local\Temp\cciHZyrV.s:6639   .debug_str:0000000000000869 .LASF41
C:\Users\test\AppData\Local\Temp\cciHZyrV.s:6409   .debug_str:0000000000000183 .LASF42
C:\Users\test\AppData\Local\Temp\cciHZyrV.s:6755   .debug_str:0000000000000b6a .LASF43
C:\Users\test\AppData\Local\Temp\cciHZyrV.s:6479   .debug_str:00000000000003a8 .LASF44
C:\Users\test\AppData\Local\Temp\cciHZyrV.s:6387   .debug_str:00000000000000ce .LASF45
C:\Users\test\AppData\Local\Temp\cciHZyrV.s:6745   .debug_str:0000000000000b2b .LASF46
C:\Users\test\AppData\Local\Temp\cciHZyrV.s:6605   .debug_str:0000000000000718 .LASF47
C:\Users\test\AppData\Local\Temp\cciHZyrV.s:6607   .debug_str:0000000000000722 .LASF48
C:\Users\test\AppData\Local\Temp\cciHZyrV.s:6609   .debug_str:000000000000072c .LASF49
C:\Users\test\AppData\Local\Temp\cciHZyrV.s:6611   .debug_str:0000000000000736 .LASF50
C:\Users\test\AppData\Local\Temp\cciHZyrV.s:6613   .debug_str:0000000000000740 .LASF51
C:\Users\test\AppData\Local\Temp\cciHZyrV.s:6771   .debug_str:0000000000000bd3 .LASF52
C:\Users\test\AppData\Local\Temp\cciHZyrV.s:6773   .debug_str:0000000000000bdc .LASF53
C:\Users\test\AppData\Local\Temp\cciHZyrV.s:6581   .debug_str:000000000000068a .LASF54
C:\Users\test\AppData\Local\Temp\cciHZyrV.s:6557   .debug_str:00000000000005db .LASF55
C:\Users\test\AppData\Local\Temp\cciHZyrV.s:6665   .debug_str:0000000000000915 .LASF56
C:\Users\test\AppData\Local\Temp\cciHZyrV.s:6825   .debug_str:0000000000000d90 .LASF57
C:\Users\test\AppData\Local\Temp\cciHZyrV.s:6371   .debug_str:0000000000000065 .LASF58
C:\Users\test\AppData\Local\Temp\cciHZyrV.s:6655   .debug_str:00000000000008dd .LASF59
C:\Users\test\AppData\Local\Temp\cciHZyrV.s:6811   .debug_str:0000000000000d0c .LASF60
C:\Users\test\AppData\Local\Temp\cciHZyrV.s:6575   .debug_str:000000000000065b .LASF61
C:\Users\test\AppData\Local\Temp\cciHZyrV.s:6507   .debug_str:0000000000000454 .LASF62
C:\Users\test\AppData\Local\Temp\cciHZyrV.s:6787   .debug_str:0000000000000c39 .LASF63
C:\Users\test\AppData\Local\Temp\cciHZyrV.s:6595   .debug_str:00000000000006d7 .LASF64
C:\Users\test\AppData\Local\Temp\cciHZyrV.s:6383   .debug_str:00000000000000b5 .LASF65
C:\Users\test\AppData\Local\Temp\cciHZyrV.s:6663   .debug_str:0000000000000907 .LASF66
C:\Users\test\AppData\Local\Temp\cciHZyrV.s:6457   .debug_str:00000000000002ef .LASF67
C:\Users\test\AppData\Local\Temp\cciHZyrV.s:6765   .debug_str:0000000000000bad .LASF68
C:\Users\test\AppData\Local\Temp\cciHZyrV.s:6399   .debug_str:000000000000012a .LASF69
C:\Users\test\AppData\Local\Temp\cciHZyrV.s:6677   .debug_str:0000000000000951 .LASF70
C:\Users\test\AppData\Local\Temp\cciHZyrV.s:6733   .debug_str:0000000000000ab4 .LASF71
C:\Users\test\AppData\Local\Temp\cciHZyrV.s:6519   .debug_str:00000000000004af .LASF72
C:\Users\test\AppData\Local\Temp\cciHZyrV.s:6719   .debug_str:0000000000000a3a .LASF73
C:\Users\test\AppData\Local\Temp\cciHZyrV.s:6509   .debug_str:0000000000000462 .LASF74
C:\Users\test\AppData\Local\Temp\cciHZyrV.s:6763   .debug_str:0000000000000ba1 .LASF75
C:\Users\test\AppData\Local\Temp\cciHZyrV.s:6565   .debug_str:000000000000060c .LASF76
C:\Users\test\AppData\Local\Temp\cciHZyrV.s:6689   .debug_str:0000000000000989 .LASF77
C:\Users\test\AppData\Local\Temp\cciHZyrV.s:6597   .debug_str:00000000000006e5 .LASF78
C:\Users\test\AppData\Local\Temp\cciHZyrV.s:6801   .debug_str:0000000000000caa .LASF79
C:\Users\test\AppData\Local\Temp\cciHZyrV.s:6737   .debug_str:0000000000000ad4 .LASF80
C:\Users\test\AppData\Local\Temp\cciHZyrV.s:6385   .debug_str:00000000000000c3 .LASF81
C:\Users\test\AppData\Local\Temp\cciHZyrV.s:6683   .debug_str:000000000000096e .LASF82
C:\Users\test\AppData\Local\Temp\cciHZyrV.s:6577   .debug_str:0000000000000668 .LASF83
C:\Users\test\AppData\Local\Temp\cciHZyrV.s:6373   .debug_str:0000000000000072 .LASF84
C:\Users\test\AppData\Local\Temp\cciHZyrV.s:6657   .debug_str:00000000000008e9 .LASF85
C:\Users\test\AppData\Local\Temp\cciHZyrV.s:6445   .debug_str:0000000000000283 .LASF86
C:\Users\test\AppData\Local\Temp\cciHZyrV.s:6729   .debug_str:0000000000000a7b .LASF87
C:\Users\test\AppData\Local\Temp\cciHZyrV.s:6497   .debug_str:0000000000000412 .LASF88
C:\Users\test\AppData\Local\Temp\cciHZyrV.s:6779   .debug_str:0000000000000bfb .LASF89
C:\Users\test\AppData\Local\Temp\cciHZyrV.s:6715   .debug_str:0000000000000a1d .LASF90
C:\Users\test\AppData\Local\Temp\cciHZyrV.s:6615   .debug_str:000000000000074a .LASF91
C:\Users\test\AppData\Local\Temp\cciHZyrV.s:6453   .debug_str:00000000000002c6 .LASF92
GAS LISTING C:\Users\test\AppData\Local\Temp\cciHZyrV.s 			page 80


C:\Users\test\AppData\Local\Temp\cciHZyrV.s:6451   .debug_str:00000000000002b0 .LASF93
C:\Users\test\AppData\Local\Temp\cciHZyrV.s:6707   .debug_str:00000000000009ed .LASF94
C:\Users\test\AppData\Local\Temp\cciHZyrV.s:6473   .debug_str:000000000000036c .LASF95
C:\Users\test\AppData\Local\Temp\cciHZyrV.s:6767   .debug_str:0000000000000bba .LASF96
C:\Users\test\AppData\Local\Temp\cciHZyrV.s:6603   .debug_str:0000000000000707 .LASF97
C:\Users\test\AppData\Local\Temp\cciHZyrV.s:6389   .debug_str:00000000000000d6 .LASF98
C:\Users\test\AppData\Local\Temp\cciHZyrV.s:6721   .debug_str:0000000000000a47 .LASF99
C:\Users\test\AppData\Local\Temp\cciHZyrV.s:6393   .debug_str:00000000000000f4 .LASF100
C:\Users\test\AppData\Local\Temp\cciHZyrV.s:6717   .debug_str:0000000000000a2b .LASF101
C:\Users\test\AppData\Local\Temp\cciHZyrV.s:6759   .debug_str:0000000000000b7d .LASF102
C:\Users\test\AppData\Local\Temp\cciHZyrV.s:6789   .debug_str:0000000000000c47 .LASF103
C:\Users\test\AppData\Local\Temp\cciHZyrV.s:6411   .debug_str:000000000000018c .LASF104
C:\Users\test\AppData\Local\Temp\cciHZyrV.s:6651   .debug_str:00000000000008c4 .LASF105
C:\Users\test\AppData\Local\Temp\cciHZyrV.s:6493   .debug_str:00000000000003fd .LASF106
C:\Users\test\AppData\Local\Temp\cciHZyrV.s:6425   .debug_str:00000000000001f4 .LASF107
C:\Users\test\AppData\Local\Temp\cciHZyrV.s:6649   .debug_str:00000000000008ad .LASF108
C:\Users\test\AppData\Local\Temp\cciHZyrV.s:6563   .debug_str:00000000000005f6 .LASF109
C:\Users\test\AppData\Local\Temp\cciHZyrV.s:6543   .debug_str:0000000000000561 .LASF110
C:\Users\test\AppData\Local\Temp\cciHZyrV.s:6807   .debug_str:0000000000000ce1 .LASF111
C:\Users\test\AppData\Local\Temp\cciHZyrV.s:6761   .debug_str:0000000000000b8d .LASF112
C:\Users\test\AppData\Local\Temp\cciHZyrV.s:6527   .debug_str:00000000000004d9 .LASF113
C:\Users\test\AppData\Local\Temp\cciHZyrV.s:6809   .debug_str:0000000000000cf7 .LASF114
C:\Users\test\AppData\Local\Temp\cciHZyrV.s:6813   .debug_str:0000000000000d22 .LASF115
C:\Users\test\AppData\Local\Temp\cciHZyrV.s:6703   .debug_str:00000000000009cc .LASF116
C:\Users\test\AppData\Local\Temp\cciHZyrV.s:6747   .debug_str:0000000000000b32 .LASF117
C:\Users\test\AppData\Local\Temp\cciHZyrV.s:6567   .debug_str:0000000000000618 .LASF118
C:\Users\test\AppData\Local\Temp\cciHZyrV.s:6469   .debug_str:000000000000033b .LASF119
C:\Users\test\AppData\Local\Temp\cciHZyrV.s:6367   .debug_str:000000000000002b .LASF120
C:\Users\test\AppData\Local\Temp\cciHZyrV.s:6529   .debug_str:00000000000004ee .LASF121
C:\Users\test\AppData\Local\Temp\cciHZyrV.s:6625   .debug_str:0000000000000807 .LASF122
C:\Users\test\AppData\Local\Temp\cciHZyrV.s:6785   .debug_str:0000000000000c20 .LASF123
C:\Users\test\AppData\Local\Temp\cciHZyrV.s:6579   .debug_str:0000000000000675 .LASF124
C:\Users\test\AppData\Local\Temp\cciHZyrV.s:6803   .debug_str:0000000000000cb6 .LASF125
C:\Users\test\AppData\Local\Temp\cciHZyrV.s:6553   .debug_str:00000000000005bc .LASF126
C:\Users\test\AppData\Local\Temp\cciHZyrV.s:6551   .debug_str:00000000000005ab .LASF127
C:\Users\test\AppData\Local\Temp\cciHZyrV.s:6539   .debug_str:0000000000000548 .LASF128
C:\Users\test\AppData\Local\Temp\cciHZyrV.s:6799   .debug_str:0000000000000c99 .LASF129
C:\Users\test\AppData\Local\Temp\cciHZyrV.s:6783   .debug_str:0000000000000c11 .LASF130
C:\Users\test\AppData\Local\Temp\cciHZyrV.s:6669   .debug_str:0000000000000926 .LASF131
C:\Users\test\AppData\Local\Temp\cciHZyrV.s:6467   .debug_str:000000000000032b .LASF132
C:\Users\test\AppData\Local\Temp\cciHZyrV.s:6503   .debug_str:0000000000000440 .LASF133
C:\Users\test\AppData\Local\Temp\cciHZyrV.s:6461   .debug_str:0000000000000306 .LASF134
C:\Users\test\AppData\Local\Temp\cciHZyrV.s:6751   .debug_str:0000000000000b52 .LASF135
C:\Users\test\AppData\Local\Temp\cciHZyrV.s:6395   .debug_str:0000000000000107 .LASF136
C:\Users\test\AppData\Local\Temp\cciHZyrV.s:6793   .debug_str:0000000000000c62 .LASF137
C:\Users\test\AppData\Local\Temp\cciHZyrV.s:6723   .debug_str:0000000000000a59 .LASF138
C:\Users\test\AppData\Local\Temp\cciHZyrV.s:6831   .debug_str:0000000000000dbe .LASF139
C:\Users\test\AppData\Local\Temp\cciHZyrV.s:6645   .debug_str:000000000000088f .LASF140
C:\Users\test\AppData\Local\Temp\cciHZyrV.s:6805   .debug_str:0000000000000cce .LASF141
C:\Users\test\AppData\Local\Temp\cciHZyrV.s:6641   .debug_str:0000000000000872 .LASF142
C:\Users\test\AppData\Local\Temp\cciHZyrV.s:6485   .debug_str:00000000000003de .LASF143
C:\Users\test\AppData\Local\Temp\cciHZyrV.s:6695   .debug_str:00000000000009a4 .LASF144
C:\Users\test\AppData\Local\Temp\cciHZyrV.s:6697   .debug_str:00000000000009ac .LASF145
C:\Users\test\AppData\Local\Temp\cciHZyrV.s:6821   .debug_str:0000000000000d6f .LASF146
C:\Users\test\AppData\Local\Temp\cciHZyrV.s:6569   .debug_str:0000000000000632 .LASF183
C:\Users\test\AppData\Local\Temp\cciHZyrV.s:1705   .text.rcu_clock_freq_get:0000000000000000 .LFB42
C:\Users\test\AppData\Local\Temp\cciHZyrV.s:2018   .text.rcu_clock_freq_get:000000000000013c .LFE42
GAS LISTING C:\Users\test\AppData\Local\Temp\cciHZyrV.s 			page 81


C:\Users\test\AppData\Local\Temp\cciHZyrV.s:4747   .debug_loc:0000000000000000 .LLST52
C:\Users\test\AppData\Local\Temp\cciHZyrV.s:6531   .debug_str:0000000000000506 .LASF163
C:\Users\test\AppData\Local\Temp\cciHZyrV.s:4780   .debug_loc:0000000000000050 .LLST53
C:\Users\test\AppData\Local\Temp\cciHZyrV.s:4815   .debug_loc:00000000000000a2 .LLST54
C:\Users\test\AppData\Local\Temp\cciHZyrV.s:6419   .debug_str:00000000000001c6 .LASF147
C:\Users\test\AppData\Local\Temp\cciHZyrV.s:4836   .debug_loc:00000000000000d1 .LLST55
C:\Users\test\AppData\Local\Temp\cciHZyrV.s:6815   .debug_str:0000000000000d33 .LASF148
C:\Users\test\AppData\Local\Temp\cciHZyrV.s:4853   .debug_loc:00000000000000fc .LLST56
C:\Users\test\AppData\Local\Temp\cciHZyrV.s:6701   .debug_str:00000000000009c3 .LASF149
C:\Users\test\AppData\Local\Temp\cciHZyrV.s:4877   .debug_loc:0000000000000135 .LLST57
C:\Users\test\AppData\Local\Temp\cciHZyrV.s:6635   .debug_str:0000000000000856 .LASF150
C:\Users\test\AppData\Local\Temp\cciHZyrV.s:4888   .debug_loc:0000000000000153 .LLST58
C:\Users\test\AppData\Local\Temp\cciHZyrV.s:6405   .debug_str:000000000000015a .LASF151
C:\Users\test\AppData\Local\Temp\cciHZyrV.s:4915   .debug_loc:0000000000000181 .LLST59
C:\Users\test\AppData\Local\Temp\cciHZyrV.s:6505   .debug_str:000000000000044d .LASF152
C:\Users\test\AppData\Local\Temp\cciHZyrV.s:4942   .debug_loc:00000000000001af .LLST60
C:\Users\test\AppData\Local\Temp\cciHZyrV.s:6491   .debug_str:00000000000003f3 .LASF153
C:\Users\test\AppData\Local\Temp\cciHZyrV.s:4965   .debug_loc:00000000000001d9 .LLST61
C:\Users\test\AppData\Local\Temp\cciHZyrV.s:6495   .debug_str:000000000000040c .LASF154
C:\Users\test\AppData\Local\Temp\cciHZyrV.s:4978   .debug_loc:00000000000001f2 .LLST62
C:\Users\test\AppData\Local\Temp\cciHZyrV.s:6427   .debug_str:0000000000000202 .LASF155
C:\Users\test\AppData\Local\Temp\cciHZyrV.s:4999   .debug_loc:0000000000000228 .LLST63
C:\Users\test\AppData\Local\Temp\cciHZyrV.s:5016   .debug_loc:0000000000000256 .LLST64
C:\Users\test\AppData\Local\Temp\cciHZyrV.s:6661   .debug_str:00000000000008ff .LASF156
C:\Users\test\AppData\Local\Temp\cciHZyrV.s:5033   .debug_loc:000000000000027a .LLST65
C:\Users\test\AppData\Local\Temp\cciHZyrV.s:6487   .debug_str:00000000000003e5 .LASF157
C:\Users\test\AppData\Local\Temp\cciHZyrV.s:5099   .debug_loc:00000000000002e4 .LLST66
C:\Users\test\AppData\Local\Temp\cciHZyrV.s:6489   .debug_str:00000000000003ec .LASF158
C:\Users\test\AppData\Local\Temp\cciHZyrV.s:5116   .debug_loc:0000000000000308 .LLST67
C:\Users\test\AppData\Local\Temp\cciHZyrV.s:6679   .debug_str:000000000000095d .LASF159
C:\Users\test\AppData\Local\Temp\cciHZyrV.s:5123   .debug_loc:000000000000031b .LLST68
C:\Users\test\AppData\Local\Temp\cciHZyrV.s:6687   .debug_str:0000000000000981 .LASF160
C:\Users\test\AppData\Local\Temp\cciHZyrV.s:6465   .debug_str:0000000000000322 .LASF161
C:\Users\test\AppData\Local\Temp\cciHZyrV.s:6769   .debug_str:0000000000000bca .LASF162
C:\Users\test\AppData\Local\Temp\cciHZyrV.s:6621   .debug_str:00000000000007e5 .LASF165
C:\Users\test\AppData\Local\Temp\cciHZyrV.s:1683   .text.rcu_deepsleep_voltage_set:0000000000000000 .LFB41
C:\Users\test\AppData\Local\Temp\cciHZyrV.s:1698   .text.rcu_deepsleep_voltage_set:000000000000000a .LFE41
C:\Users\test\AppData\Local\Temp\cciHZyrV.s:6667   .debug_str:0000000000000920 .LASF164
C:\Users\test\AppData\Local\Temp\cciHZyrV.s:5130   .debug_loc:000000000000032e .LLST51
C:\Users\test\AppData\Local\Temp\cciHZyrV.s:6455   .debug_str:00000000000002d4 .LASF166
C:\Users\test\AppData\Local\Temp\cciHZyrV.s:1650   .text.rcu_irc8m_adjust_value_set:0000000000000000 .LFB40
C:\Users\test\AppData\Local\Temp\cciHZyrV.s:1676   .text.rcu_irc8m_adjust_value_set:0000000000000016 .LFE40
C:\Users\test\AppData\Local\Temp\cciHZyrV.s:6675   .debug_str:0000000000000944 .LASF167
C:\Users\test\AppData\Local\Temp\cciHZyrV.s:5141   .debug_loc:000000000000034c .LLST49
C:\Users\test\AppData\Local\Temp\cciHZyrV.s:5155   .debug_loc:000000000000036d .LLST50
C:\Users\test\AppData\Local\Temp\cciHZyrV.s:6369   .debug_str:0000000000000045 .LASF168
C:\Users\test\AppData\Local\Temp\cciHZyrV.s:1629   .text.rcu_hxtal_clock_monitor_disable:0000000000000000 .LFB39
C:\Users\test\AppData\Local\Temp\cciHZyrV.s:1643   .text.rcu_hxtal_clock_monitor_disable:0000000000000012 .LFE39
C:\Users\test\AppData\Local\Temp\cciHZyrV.s:6401   .debug_str:0000000000000136 .LASF169
C:\Users\test\AppData\Local\Temp\cciHZyrV.s:1609   .text.rcu_hxtal_clock_monitor_enable:0000000000000000 .LFB38
C:\Users\test\AppData\Local\Temp\cciHZyrV.s:1622   .text.rcu_hxtal_clock_monitor_enable:0000000000000010 .LFE38
C:\Users\test\AppData\Local\Temp\cciHZyrV.s:6537   .debug_str:000000000000052b .LASF170
C:\Users\test\AppData\Local\Temp\cciHZyrV.s:1544   .text.rcu_osci_bypass_mode_disable:0000000000000000 .LFB37
C:\Users\test\AppData\Local\Temp\cciHZyrV.s:1602   .text.rcu_osci_bypass_mode_disable:000000000000003c .LFE37
C:\Users\test\AppData\Local\Temp\cciHZyrV.s:6749   .debug_str:0000000000000b4d .LASF171
C:\Users\test\AppData\Local\Temp\cciHZyrV.s:5171   .debug_loc:0000000000000391 .LLST47
C:\Users\test\AppData\Local\Temp\cciHZyrV.s:5188   .debug_loc:00000000000003bd .LLST48
GAS LISTING C:\Users\test\AppData\Local\Temp\cciHZyrV.s 			page 82


C:\Users\test\AppData\Local\Temp\cciHZyrV.s:6377   .debug_str:0000000000000087 .LASF172
C:\Users\test\AppData\Local\Temp\cciHZyrV.s:1480   .text.rcu_osci_bypass_mode_enable:0000000000000000 .LFB36
C:\Users\test\AppData\Local\Temp\cciHZyrV.s:1537   .text.rcu_osci_bypass_mode_enable:000000000000003c .LFE36
C:\Users\test\AppData\Local\Temp\cciHZyrV.s:5199   .debug_loc:00000000000003db .LLST45
C:\Users\test\AppData\Local\Temp\cciHZyrV.s:5216   .debug_loc:0000000000000407 .LLST46
C:\Users\test\AppData\Local\Temp\cciHZyrV.s:6555   .debug_str:00000000000005ce .LASF173
C:\Users\test\AppData\Local\Temp\cciHZyrV.s:1452   .text.rcu_osci_off:0000000000000000 .LFB35
C:\Users\test\AppData\Local\Temp\cciHZyrV.s:1473   .text.rcu_osci_off:000000000000001c .LFE35
C:\Users\test\AppData\Local\Temp\cciHZyrV.s:6499   .debug_str:000000000000041e .LASF174
C:\Users\test\AppData\Local\Temp\cciHZyrV.s:1426   .text.rcu_osci_on:0000000000000000 .LFB34
C:\Users\test\AppData\Local\Temp\cciHZyrV.s:1445   .text.rcu_osci_on:0000000000000018 .LFE34
C:\Users\test\AppData\Local\Temp\cciHZyrV.s:6433   .debug_str:0000000000000221 .LASF187
C:\Users\test\AppData\Local\Temp\cciHZyrV.s:6429   .debug_str:0000000000000209 .LASF175
C:\Users\test\AppData\Local\Temp\cciHZyrV.s:6671   .debug_str:0000000000000936 .LASF176
C:\Users\test\AppData\Local\Temp\cciHZyrV.s:6435   .debug_str:0000000000000234 .LASF177
C:\Users\test\AppData\Local\Temp\cciHZyrV.s:6643   .debug_str:0000000000000879 .LASF178
C:\Users\test\AppData\Local\Temp\cciHZyrV.s:985    .text.rcu_interrupt_disable:0000000000000000 .LFB32
C:\Users\test\AppData\Local\Temp\cciHZyrV.s:1006   .text.rcu_interrupt_disable:000000000000001c .LFE32
C:\Users\test\AppData\Local\Temp\cciHZyrV.s:6693   .debug_str:000000000000099b .LASF179
C:\Users\test\AppData\Local\Temp\cciHZyrV.s:6631   .debug_str:0000000000000836 .LASF180
C:\Users\test\AppData\Local\Temp\cciHZyrV.s:959    .text.rcu_interrupt_enable:0000000000000000 .LFB31
C:\Users\test\AppData\Local\Temp\cciHZyrV.s:978    .text.rcu_interrupt_enable:0000000000000018 .LFE31
C:\Users\test\AppData\Local\Temp\cciHZyrV.s:6397   .debug_str:0000000000000111 .LASF181
C:\Users\test\AppData\Local\Temp\cciHZyrV.s:933    .text.rcu_interrupt_flag_clear:0000000000000000 .LFB30
C:\Users\test\AppData\Local\Temp\cciHZyrV.s:952    .text.rcu_interrupt_flag_clear:0000000000000018 .LFE30
C:\Users\test\AppData\Local\Temp\cciHZyrV.s:6699   .debug_str:00000000000009b4 .LASF182
C:\Users\test\AppData\Local\Temp\cciHZyrV.s:6449   .debug_str:0000000000000299 .LASF184
C:\Users\test\AppData\Local\Temp\cciHZyrV.s:909    .text.rcu_interrupt_flag_get:0000000000000000 .LFB29
C:\Users\test\AppData\Local\Temp\cciHZyrV.s:926    .text.rcu_interrupt_flag_get:0000000000000014 .LFE29
C:\Users\test\AppData\Local\Temp\cciHZyrV.s:6459   .debug_str:00000000000002fd .LASF185
C:\Users\test\AppData\Local\Temp\cciHZyrV.s:5227   .debug_loc:0000000000000425 .LLST34
C:\Users\test\AppData\Local\Temp\cciHZyrV.s:6817   .debug_str:0000000000000d3e .LASF186
C:\Users\test\AppData\Local\Temp\cciHZyrV.s:889    .text.rcu_all_reset_flag_clear:0000000000000000 .LFB28
C:\Users\test\AppData\Local\Temp\cciHZyrV.s:902    .text.rcu_all_reset_flag_clear:0000000000000010 .LFE28
C:\Users\test\AppData\Local\Temp\cciHZyrV.s:6823   .debug_str:0000000000000d83 .LASF188
C:\Users\test\AppData\Local\Temp\cciHZyrV.s:6547   .debug_str:0000000000000595 .LASF189
C:\Users\test\AppData\Local\Temp\cciHZyrV.s:6481   .debug_str:00000000000003b0 .LASF190
C:\Users\test\AppData\Local\Temp\cciHZyrV.s:833    .text.rcu_i2s2_clock_config:0000000000000000 .LFB26
C:\Users\test\AppData\Local\Temp\cciHZyrV.s:858    .text.rcu_i2s2_clock_config:0000000000000014 .LFE26
C:\Users\test\AppData\Local\Temp\cciHZyrV.s:6421   .debug_str:00000000000001ce .LASF191
C:\Users\test\AppData\Local\Temp\cciHZyrV.s:5241   .debug_loc:0000000000000446 .LLST31
C:\Users\test\AppData\Local\Temp\cciHZyrV.s:5255   .debug_loc:0000000000000467 .LLST32
C:\Users\test\AppData\Local\Temp\cciHZyrV.s:6501   .debug_str:000000000000042a .LASF192
C:\Users\test\AppData\Local\Temp\cciHZyrV.s:801    .text.rcu_i2s1_clock_config:0000000000000000 .LFB25
C:\Users\test\AppData\Local\Temp\cciHZyrV.s:826    .text.rcu_i2s1_clock_config:0000000000000012 .LFE25
C:\Users\test\AppData\Local\Temp\cciHZyrV.s:5267   .debug_loc:0000000000000481 .LLST29
C:\Users\test\AppData\Local\Temp\cciHZyrV.s:5281   .debug_loc:00000000000004a2 .LLST30
C:\Users\test\AppData\Local\Temp\cciHZyrV.s:6535   .debug_str:0000000000000516 .LASF193
C:\Users\test\AppData\Local\Temp\cciHZyrV.s:771    .text.rcu_rtc_clock_config:0000000000000000 .LFB24
C:\Users\test\AppData\Local\Temp\cciHZyrV.s:794    .text.rcu_rtc_clock_config:0000000000000010 .LFE24
C:\Users\test\AppData\Local\Temp\cciHZyrV.s:6549   .debug_str:000000000000059a .LASF194
C:\Users\test\AppData\Local\Temp\cciHZyrV.s:5293   .debug_loc:00000000000004bc .LLST27
C:\Users\test\AppData\Local\Temp\cciHZyrV.s:5307   .debug_loc:00000000000004dd .LLST28
C:\Users\test\AppData\Local\Temp\cciHZyrV.s:6617   .debug_str:0000000000000756 .LASF195
C:\Users\test\AppData\Local\Temp\cciHZyrV.s:739    .text.rcu_usb_clock_config:0000000000000000 .LFB23
C:\Users\test\AppData\Local\Temp\cciHZyrV.s:764    .text.rcu_usb_clock_config:0000000000000014 .LFE23
C:\Users\test\AppData\Local\Temp\cciHZyrV.s:6375   .debug_str:000000000000007f .LASF196
GAS LISTING C:\Users\test\AppData\Local\Temp\cciHZyrV.s 			page 83


C:\Users\test\AppData\Local\Temp\cciHZyrV.s:5323   .debug_loc:0000000000000501 .LLST25
C:\Users\test\AppData\Local\Temp\cciHZyrV.s:5337   .debug_loc:0000000000000522 .LLST26
C:\Users\test\AppData\Local\Temp\cciHZyrV.s:6423   .debug_str:00000000000001df .LASF197
C:\Users\test\AppData\Local\Temp\cciHZyrV.s:665    .text.rcu_adc_clock_config:0000000000000000 .LFB22
C:\Users\test\AppData\Local\Temp\cciHZyrV.s:732    .text.rcu_adc_clock_config:0000000000000046 .LFE22
C:\Users\test\AppData\Local\Temp\cciHZyrV.s:6623   .debug_str:00000000000007ff .LASF198
C:\Users\test\AppData\Local\Temp\cciHZyrV.s:5349   .debug_loc:000000000000053d .LLST23
C:\Users\test\AppData\Local\Temp\cciHZyrV.s:6403   .debug_str:0000000000000155 .LASF199
C:\Users\test\AppData\Local\Temp\cciHZyrV.s:5386   .debug_loc:000000000000058a .LLST24
C:\Users\test\AppData\Local\Temp\cciHZyrV.s:6431   .debug_str:0000000000000211 .LASF200
C:\Users\test\AppData\Local\Temp\cciHZyrV.s:637    .text.rcu_pll2_config:0000000000000000 .LFB21
C:\Users\test\AppData\Local\Temp\cciHZyrV.s:658    .text.rcu_pll2_config:0000000000000016 .LFE21
C:\Users\test\AppData\Local\Temp\cciHZyrV.s:6599   .debug_str:00000000000006f1 .LASF201
C:\Users\test\AppData\Local\Temp\cciHZyrV.s:5397   .debug_loc:00000000000005a8 .LLST22
C:\Users\test\AppData\Local\Temp\cciHZyrV.s:6727   .debug_str:0000000000000a6b .LASF202
C:\Users\test\AppData\Local\Temp\cciHZyrV.s:609    .text.rcu_pll1_config:0000000000000000 .LFB20
C:\Users\test\AppData\Local\Temp\cciHZyrV.s:630    .text.rcu_pll1_config:0000000000000018 .LFE20
C:\Users\test\AppData\Local\Temp\cciHZyrV.s:5411   .debug_loc:00000000000005c9 .LLST21
C:\Users\test\AppData\Local\Temp\cciHZyrV.s:6647   .debug_str:000000000000089b .LASF203
C:\Users\test\AppData\Local\Temp\cciHZyrV.s:578    .text.rcu_predv1_config:0000000000000000 .LFB19
C:\Users\test\AppData\Local\Temp\cciHZyrV.s:602    .text.rcu_predv1_config:0000000000000010 .LFE19
C:\Users\test\AppData\Local\Temp\cciHZyrV.s:6627   .debug_str:0000000000000820 .LASF204
C:\Users\test\AppData\Local\Temp\cciHZyrV.s:5425   .debug_loc:00000000000005ea .LLST19
C:\Users\test\AppData\Local\Temp\cciHZyrV.s:5439   .debug_loc:000000000000060b .LLST20
C:\Users\test\AppData\Local\Temp\cciHZyrV.s:6463   .debug_str:0000000000000310 .LASF205
C:\Users\test\AppData\Local\Temp\cciHZyrV.s:543    .text.rcu_predv0_config:0000000000000000 .LFB18
C:\Users\test\AppData\Local\Temp\cciHZyrV.s:571    .text.rcu_predv0_config:0000000000000014 .LFE18
C:\Users\test\AppData\Local\Temp\cciHZyrV.s:6571   .debug_str:0000000000000645 .LASF206
C:\Users\test\AppData\Local\Temp\cciHZyrV.s:6417   .debug_str:00000000000001bb .LASF207
C:\Users\test\AppData\Local\Temp\cciHZyrV.s:5455   .debug_loc:0000000000000635 .LLST17
C:\Users\test\AppData\Local\Temp\cciHZyrV.s:5469   .debug_loc:0000000000000656 .LLST18
C:\Users\test\AppData\Local\Temp\cciHZyrV.s:6705   .debug_str:00000000000009de .LASF208
C:\Users\test\AppData\Local\Temp\cciHZyrV.s:508    .text.rcu_pll_config:0000000000000000 .LFB17
C:\Users\test\AppData\Local\Temp\cciHZyrV.s:536    .text.rcu_pll_config:0000000000000016 .LFE17
C:\Users\test\AppData\Local\Temp\cciHZyrV.s:6673   .debug_str:000000000000093c .LASF209
C:\Users\test\AppData\Local\Temp\cciHZyrV.s:5490   .debug_loc:0000000000000687 .LLST15
C:\Users\test\AppData\Local\Temp\cciHZyrV.s:5504   .debug_loc:00000000000006a8 .LLST16
C:\Users\test\AppData\Local\Temp\cciHZyrV.s:6413   .debug_str:000000000000019e .LASF210
C:\Users\test\AppData\Local\Temp\cciHZyrV.s:476    .text.rcu_ckout0_config:0000000000000000 .LFB16
C:\Users\test\AppData\Local\Temp\cciHZyrV.s:501    .text.rcu_ckout0_config:0000000000000014 .LFE16
C:\Users\test\AppData\Local\Temp\cciHZyrV.s:6629   .debug_str:000000000000082b .LASF211
C:\Users\test\AppData\Local\Temp\cciHZyrV.s:5525   .debug_loc:00000000000006db .LLST13
C:\Users\test\AppData\Local\Temp\cciHZyrV.s:5539   .debug_loc:00000000000006fc .LLST14
C:\Users\test\AppData\Local\Temp\cciHZyrV.s:6511   .debug_str:000000000000046f .LASF212
C:\Users\test\AppData\Local\Temp\cciHZyrV.s:444    .text.rcu_apb2_clock_config:0000000000000000 .LFB15
C:\Users\test\AppData\Local\Temp\cciHZyrV.s:469    .text.rcu_apb2_clock_config:0000000000000014 .LFE15
C:\Users\test\AppData\Local\Temp\cciHZyrV.s:6443   .debug_str:000000000000027b .LASF213
C:\Users\test\AppData\Local\Temp\cciHZyrV.s:5551   .debug_loc:0000000000000718 .LLST11
C:\Users\test\AppData\Local\Temp\cciHZyrV.s:5565   .debug_loc:0000000000000739 .LLST12
C:\Users\test\AppData\Local\Temp\cciHZyrV.s:6513   .debug_str:0000000000000485 .LASF214
C:\Users\test\AppData\Local\Temp\cciHZyrV.s:414    .text.rcu_apb1_clock_config:0000000000000000 .LFB14
C:\Users\test\AppData\Local\Temp\cciHZyrV.s:437    .text.rcu_apb1_clock_config:0000000000000010 .LFE14
C:\Users\test\AppData\Local\Temp\cciHZyrV.s:6441   .debug_str:0000000000000273 .LASF215
C:\Users\test\AppData\Local\Temp\cciHZyrV.s:5577   .debug_loc:0000000000000752 .LLST9
C:\Users\test\AppData\Local\Temp\cciHZyrV.s:5591   .debug_loc:0000000000000773 .LLST10
C:\Users\test\AppData\Local\Temp\cciHZyrV.s:6363   .debug_str:0000000000000006 .LASF216
C:\Users\test\AppData\Local\Temp\cciHZyrV.s:384    .text.rcu_ahb_clock_config:0000000000000000 .LFB13
GAS LISTING C:\Users\test\AppData\Local\Temp\cciHZyrV.s 			page 84


C:\Users\test\AppData\Local\Temp\cciHZyrV.s:407    .text.rcu_ahb_clock_config:0000000000000010 .LFE13
C:\Users\test\AppData\Local\Temp\cciHZyrV.s:6515   .debug_str:000000000000049b .LASF217
C:\Users\test\AppData\Local\Temp\cciHZyrV.s:5607   .debug_loc:0000000000000797 .LLST7
C:\Users\test\AppData\Local\Temp\cciHZyrV.s:5621   .debug_loc:00000000000007b8 .LLST8
C:\Users\test\AppData\Local\Temp\cciHZyrV.s:6439   .debug_str:0000000000000257 .LASF235
C:\Users\test\AppData\Local\Temp\cciHZyrV.s:366    .text.rcu_system_clock_source_get:0000000000000000 .LFB12
C:\Users\test\AppData\Local\Temp\cciHZyrV.s:377    .text.rcu_system_clock_source_get:000000000000000a .LFE12
C:\Users\test\AppData\Local\Temp\cciHZyrV.s:6475   .debug_str:000000000000037e .LASF218
C:\Users\test\AppData\Local\Temp\cciHZyrV.s:336    .text.rcu_system_clock_source_config:0000000000000000 .LFB11
C:\Users\test\AppData\Local\Temp\cciHZyrV.s:359    .text.rcu_system_clock_source_config:000000000000000e .LFE11
C:\Users\test\AppData\Local\Temp\cciHZyrV.s:6725   .debug_str:0000000000000a64 .LASF219
C:\Users\test\AppData\Local\Temp\cciHZyrV.s:5637   .debug_loc:00000000000007dc .LLST5
C:\Users\test\AppData\Local\Temp\cciHZyrV.s:5651   .debug_loc:00000000000007fd .LLST6
C:\Users\test\AppData\Local\Temp\cciHZyrV.s:6829   .debug_str:0000000000000da8 .LASF220
C:\Users\test\AppData\Local\Temp\cciHZyrV.s:315    .text.rcu_bkp_reset_disable:0000000000000000 .LFB10
C:\Users\test\AppData\Local\Temp\cciHZyrV.s:329    .text.rcu_bkp_reset_disable:0000000000000010 .LFE10
C:\Users\test\AppData\Local\Temp\cciHZyrV.s:6739   .debug_str:0000000000000adf .LASF221
C:\Users\test\AppData\Local\Temp\cciHZyrV.s:295    .text.rcu_bkp_reset_enable:0000000000000000 .LFB9
C:\Users\test\AppData\Local\Temp\cciHZyrV.s:308    .text.rcu_bkp_reset_enable:000000000000000e .LFE9
C:\Users\test\AppData\Local\Temp\cciHZyrV.s:6437   .debug_str:000000000000023e .LASF222
C:\Users\test\AppData\Local\Temp\cciHZyrV.s:267    .text.rcu_periph_reset_disable:0000000000000000 .LFB8
C:\Users\test\AppData\Local\Temp\cciHZyrV.s:288    .text.rcu_periph_reset_disable:000000000000001c .LFE8
C:\Users\test\AppData\Local\Temp\cciHZyrV.s:6517   .debug_str:00000000000004a2 .LASF223
C:\Users\test\AppData\Local\Temp\cciHZyrV.s:6483   .debug_str:00000000000003c6 .LASF224
C:\Users\test\AppData\Local\Temp\cciHZyrV.s:241    .text.rcu_periph_reset_enable:0000000000000000 .LFB7
C:\Users\test\AppData\Local\Temp\cciHZyrV.s:260    .text.rcu_periph_reset_enable:0000000000000018 .LFE7
C:\Users\test\AppData\Local\Temp\cciHZyrV.s:6407   .debug_str:0000000000000164 .LASF225
C:\Users\test\AppData\Local\Temp\cciHZyrV.s:213    .text.rcu_periph_clock_sleep_disable:0000000000000000 .LFB6
C:\Users\test\AppData\Local\Temp\cciHZyrV.s:234    .text.rcu_periph_clock_sleep_disable:000000000000001c .LFE6
C:\Users\test\AppData\Local\Temp\cciHZyrV.s:6653   .debug_str:00000000000008d6 .LASF226
C:\Users\test\AppData\Local\Temp\cciHZyrV.s:6545   .debug_str:0000000000000577 .LASF227
C:\Users\test\AppData\Local\Temp\cciHZyrV.s:187    .text.rcu_periph_clock_sleep_enable:0000000000000000 .LFB5
C:\Users\test\AppData\Local\Temp\cciHZyrV.s:206    .text.rcu_periph_clock_sleep_enable:0000000000000018 .LFE5
C:\Users\test\AppData\Local\Temp\cciHZyrV.s:6795   .debug_str:0000000000000c6d .LASF228
C:\Users\test\AppData\Local\Temp\cciHZyrV.s:159    .text.rcu_periph_clock_disable:0000000000000000 .LFB4
C:\Users\test\AppData\Local\Temp\cciHZyrV.s:180    .text.rcu_periph_clock_disable:000000000000001c .LFE4
C:\Users\test\AppData\Local\Temp\cciHZyrV.s:6819   .debug_str:0000000000000d57 .LASF229
C:\Users\test\AppData\Local\Temp\cciHZyrV.s:133    .text.rcu_periph_clock_enable:0000000000000000 .LFB3
C:\Users\test\AppData\Local\Temp\cciHZyrV.s:152    .text.rcu_periph_clock_enable:0000000000000018 .LFE3
C:\Users\test\AppData\Local\Temp\cciHZyrV.s:6633   .debug_str:000000000000084b .LASF230
C:\Users\test\AppData\Local\Temp\cciHZyrV.s:11     .text.rcu_deinit:0000000000000000 .LFB2
C:\Users\test\AppData\Local\Temp\cciHZyrV.s:126    .text.rcu_deinit:0000000000000068 .LFE2
C:\Users\test\AppData\Local\Temp\cciHZyrV.s:20     .text.rcu_deinit:000000000000000a .LBB60
C:\Users\test\AppData\Local\Temp\cciHZyrV.s:5667   .debug_loc:0000000000000820 .LLST0
C:\Users\test\AppData\Local\Temp\cciHZyrV.s:5680   .debug_loc:0000000000000840 .LLST1
C:\Users\test\AppData\Local\Temp\cciHZyrV.s:22     .text.rcu_deinit:000000000000000a .LBB62
C:\Users\test\AppData\Local\Temp\cciHZyrV.s:64     .text.rcu_deinit:000000000000001c .LBB68
C:\Users\test\AppData\Local\Temp\cciHZyrV.s:72     .text.rcu_deinit:0000000000000022 .LBE68
C:\Users\test\AppData\Local\Temp\cciHZyrV.s:5710   .debug_loc:000000000000087b .LLST4
C:\Users\test\AppData\Local\Temp\cciHZyrV.s:865    .text.rcu_flag_get:0000000000000000 .LFB27
C:\Users\test\AppData\Local\Temp\cciHZyrV.s:882    .text.rcu_flag_get:0000000000000014 .LFE27
C:\Users\test\AppData\Local\Temp\cciHZyrV.s:5718   .debug_loc:000000000000088f .LLST33
C:\Users\test\AppData\Local\Temp\cciHZyrV.s:1013   .text.rcu_osci_stab_wait:0000000000000000 .LFB33
C:\Users\test\AppData\Local\Temp\cciHZyrV.s:1419   .text.rcu_osci_stab_wait:000000000000012c .LFE33
C:\Users\test\AppData\Local\Temp\cciHZyrV.s:5732   .debug_loc:00000000000008b0 .LLST35
C:\Users\test\AppData\Local\Temp\cciHZyrV.s:5827   .debug_loc:000000000000098b .LLST36
C:\Users\test\AppData\Local\Temp\cciHZyrV.s:6033   .debug_loc:0000000000000b29 .LLST37
GAS LISTING C:\Users\test\AppData\Local\Temp\cciHZyrV.s 			page 85


C:\Users\test\AppData\Local\Temp\cciHZyrV.s:1045   .text.rcu_osci_stab_wait:0000000000000036 .LBB74
C:\Users\test\AppData\Local\Temp\cciHZyrV.s:1075   .text.rcu_osci_stab_wait:0000000000000042 .LBB80
C:\Users\test\AppData\Local\Temp\cciHZyrV.s:1089   .text.rcu_osci_stab_wait:000000000000004e .LBE80
C:\Users\test\AppData\Local\Temp\cciHZyrV.s:6050   .debug_loc:0000000000000b54 .LLST38
C:\Users\test\AppData\Local\Temp\cciHZyrV.s:1098   .text.rcu_osci_stab_wait:0000000000000058 .LBB82
C:\Users\test\AppData\Local\Temp\cciHZyrV.s:1128   .text.rcu_osci_stab_wait:0000000000000068 .LBB88
C:\Users\test\AppData\Local\Temp\cciHZyrV.s:1143   .text.rcu_osci_stab_wait:0000000000000074 .LBE88
C:\Users\test\AppData\Local\Temp\cciHZyrV.s:6058   .debug_loc:0000000000000b68 .LLST39
C:\Users\test\AppData\Local\Temp\cciHZyrV.s:1152   .text.rcu_osci_stab_wait:000000000000007e .LBB90
C:\Users\test\AppData\Local\Temp\cciHZyrV.s:1182   .text.rcu_osci_stab_wait:000000000000008e .LBB96
C:\Users\test\AppData\Local\Temp\cciHZyrV.s:1195   .text.rcu_osci_stab_wait:0000000000000098 .LBE96
C:\Users\test\AppData\Local\Temp\cciHZyrV.s:6066   .debug_loc:0000000000000b7c .LLST40
C:\Users\test\AppData\Local\Temp\cciHZyrV.s:1209   .text.rcu_osci_stab_wait:00000000000000a4 .LBB98
C:\Users\test\AppData\Local\Temp\cciHZyrV.s:1239   .text.rcu_osci_stab_wait:00000000000000b0 .LBB104
C:\Users\test\AppData\Local\Temp\cciHZyrV.s:1253   .text.rcu_osci_stab_wait:00000000000000bc .LBE104
C:\Users\test\AppData\Local\Temp\cciHZyrV.s:6074   .debug_loc:0000000000000b90 .LLST41
C:\Users\test\AppData\Local\Temp\cciHZyrV.s:1262   .text.rcu_osci_stab_wait:00000000000000c4 .LBB106
C:\Users\test\AppData\Local\Temp\cciHZyrV.s:1292   .text.rcu_osci_stab_wait:00000000000000d4 .LBB112
C:\Users\test\AppData\Local\Temp\cciHZyrV.s:1307   .text.rcu_osci_stab_wait:00000000000000e0 .LBE112
C:\Users\test\AppData\Local\Temp\cciHZyrV.s:6083   .debug_loc:0000000000000ba6 .LLST42
C:\Users\test\AppData\Local\Temp\cciHZyrV.s:1316   .text.rcu_osci_stab_wait:00000000000000ea .LBB114
C:\Users\test\AppData\Local\Temp\cciHZyrV.s:1346   .text.rcu_osci_stab_wait:00000000000000f6 .LBB120
C:\Users\test\AppData\Local\Temp\cciHZyrV.s:1360   .text.rcu_osci_stab_wait:0000000000000102 .LBE120
C:\Users\test\AppData\Local\Temp\cciHZyrV.s:6091   .debug_loc:0000000000000bba .LLST43
C:\Users\test\AppData\Local\Temp\cciHZyrV.s:1369   .text.rcu_osci_stab_wait:000000000000010c .LBB122
C:\Users\test\AppData\Local\Temp\cciHZyrV.s:1399   .text.rcu_osci_stab_wait:000000000000011c .LBB128
C:\Users\test\AppData\Local\Temp\cciHZyrV.s:1414   .text.rcu_osci_stab_wait:0000000000000128 .LBE128
C:\Users\test\AppData\Local\Temp\cciHZyrV.s:6100   .debug_loc:0000000000000bd0 .LLST44
C:\Users\test\AppData\Local\Temp\cciHZyrV.s:1719   .text.rcu_clock_freq_get:000000000000000a .LCFI0
C:\Users\test\AppData\Local\Temp\cciHZyrV.s:1837   .text.rcu_clock_freq_get:000000000000008e .LCFI1
C:\Users\test\AppData\Local\Temp\cciHZyrV.s:1843   .text.rcu_clock_freq_get:0000000000000090 .LCFI2
C:\Users\test\AppData\Local\Temp\cciHZyrV.s:1969   .text.rcu_clock_freq_get:0000000000000112 .LCFI3
C:\Users\test\AppData\Local\Temp\cciHZyrV.s:1975   .text.rcu_clock_freq_get:0000000000000114 .LCFI4
C:\Users\test\AppData\Local\Temp\cciHZyrV.s:1708   .text.rcu_clock_freq_get:0000000000000000 .LVL153
C:\Users\test\AppData\Local\Temp\cciHZyrV.s:1825   .text.rcu_clock_freq_get:000000000000007c .LVL166
C:\Users\test\AppData\Local\Temp\cciHZyrV.s:1827   .text.rcu_clock_freq_get:0000000000000080 .LVL167
C:\Users\test\AppData\Local\Temp\cciHZyrV.s:1841   .text.rcu_clock_freq_get:0000000000000090 .LVL168
C:\Users\test\AppData\Local\Temp\cciHZyrV.s:1967   .text.rcu_clock_freq_get:0000000000000110 .LVL188
C:\Users\test\AppData\Local\Temp\cciHZyrV.s:1973   .text.rcu_clock_freq_get:0000000000000114 .LVL189
C:\Users\test\AppData\Local\Temp\cciHZyrV.s:1743   .text.rcu_clock_freq_get:0000000000000028 .LVL154
C:\Users\test\AppData\Local\Temp\cciHZyrV.s:1751   .text.rcu_clock_freq_get:0000000000000030 .LVL155
C:\Users\test\AppData\Local\Temp\cciHZyrV.s:1754   .text.rcu_clock_freq_get:0000000000000032 .LVL156
C:\Users\test\AppData\Local\Temp\cciHZyrV.s:1759   .text.rcu_clock_freq_get:000000000000003a .LVL157
C:\Users\test\AppData\Local\Temp\cciHZyrV.s:1848   .text.rcu_clock_freq_get:0000000000000092 .LVL169
C:\Users\test\AppData\Local\Temp\cciHZyrV.s:1963   .text.rcu_clock_freq_get:000000000000010e .LVL187
C:\Users\test\AppData\Local\Temp\cciHZyrV.s:1820   .text.rcu_clock_freq_get:0000000000000076 .LVL165
C:\Users\test\AppData\Local\Temp\cciHZyrV.s:1941   .text.rcu_clock_freq_get:00000000000000fa .LVL182
C:\Users\test\AppData\Local\Temp\cciHZyrV.s:1949   .text.rcu_clock_freq_get:0000000000000102 .LVL183
C:\Users\test\AppData\Local\Temp\cciHZyrV.s:1957   .text.rcu_clock_freq_get:000000000000010a .LVL185
C:\Users\test\AppData\Local\Temp\cciHZyrV.s:2014   .text.rcu_clock_freq_get:000000000000013a .LVL195
C:\Users\test\AppData\Local\Temp\cciHZyrV.s:1801   .text.rcu_clock_freq_get:0000000000000062 .LVL162
C:\Users\test\AppData\Local\Temp\cciHZyrV.s:1959   .text.rcu_clock_freq_get:000000000000010c .LVL186
C:\Users\test\AppData\Local\Temp\cciHZyrV.s:1806   .text.rcu_clock_freq_get:0000000000000066 .LVL163
C:\Users\test\AppData\Local\Temp\cciHZyrV.s:1812   .text.rcu_clock_freq_get:000000000000006a .LVL164
C:\Users\test\AppData\Local\Temp\cciHZyrV.s:1858   .text.rcu_clock_freq_get:000000000000009c .LVL171
C:\Users\test\AppData\Local\Temp\cciHZyrV.s:1980   .text.rcu_clock_freq_get:000000000000011a .LVL190
C:\Users\test\AppData\Local\Temp\cciHZyrV.s:1866   .text.rcu_clock_freq_get:00000000000000a6 .LVL172
GAS LISTING C:\Users\test\AppData\Local\Temp\cciHZyrV.s 			page 86


C:\Users\test\AppData\Local\Temp\cciHZyrV.s:1929   .text.rcu_clock_freq_get:00000000000000ee .LVL181
C:\Users\test\AppData\Local\Temp\cciHZyrV.s:1995   .text.rcu_clock_freq_get:000000000000012c .LVL192
C:\Users\test\AppData\Local\Temp\cciHZyrV.s:2003   .text.rcu_clock_freq_get:0000000000000134 .LVL193
C:\Users\test\AppData\Local\Temp\cciHZyrV.s:2010   .text.rcu_clock_freq_get:0000000000000136 .LVL194
C:\Users\test\AppData\Local\Temp\cciHZyrV.s:1854   .text.rcu_clock_freq_get:000000000000009a .LVL170
C:\Users\test\AppData\Local\Temp\cciHZyrV.s:1898   .text.rcu_clock_freq_get:00000000000000d0 .LVL175
C:\Users\test\AppData\Local\Temp\cciHZyrV.s:1954   .text.rcu_clock_freq_get:0000000000000108 .LVL184
C:\Users\test\AppData\Local\Temp\cciHZyrV.s:1991   .text.rcu_clock_freq_get:000000000000012a .LVL191
C:\Users\test\AppData\Local\Temp\cciHZyrV.s:1765   .text.rcu_clock_freq_get:0000000000000040 .LVL158
C:\Users\test\AppData\Local\Temp\cciHZyrV.s:1774   .text.rcu_clock_freq_get:0000000000000046 .LVL159
C:\Users\test\AppData\Local\Temp\cciHZyrV.s:1779   .text.rcu_clock_freq_get:000000000000004a .LVL160
C:\Users\test\AppData\Local\Temp\cciHZyrV.s:1782   .text.rcu_clock_freq_get:000000000000004c .LVL161
C:\Users\test\AppData\Local\Temp\cciHZyrV.s:1904   .text.rcu_clock_freq_get:00000000000000d6 .LVL176
C:\Users\test\AppData\Local\Temp\cciHZyrV.s:1910   .text.rcu_clock_freq_get:00000000000000dc .LVL177
C:\Users\test\AppData\Local\Temp\cciHZyrV.s:1913   .text.rcu_clock_freq_get:00000000000000de .LVL178
C:\Users\test\AppData\Local\Temp\cciHZyrV.s:1920   .text.rcu_clock_freq_get:00000000000000e4 .LVL180
C:\Users\test\AppData\Local\Temp\cciHZyrV.s:1882   .text.rcu_clock_freq_get:00000000000000ba .LVL173
C:\Users\test\AppData\Local\Temp\cciHZyrV.s:1686   .text.rcu_deepsleep_voltage_set:0000000000000000 .LVL151
C:\Users\test\AppData\Local\Temp\cciHZyrV.s:1690   .text.rcu_deepsleep_voltage_set:0000000000000002 .LVL152
C:\Users\test\AppData\Local\Temp\cciHZyrV.s:1653   .text.rcu_irc8m_adjust_value_set:0000000000000000 .LVL147
C:\Users\test\AppData\Local\Temp\cciHZyrV.s:1664   .text.rcu_irc8m_adjust_value_set:0000000000000008 .LVL149
C:\Users\test\AppData\Local\Temp\cciHZyrV.s:1659   .text.rcu_irc8m_adjust_value_set:0000000000000006 .LVL148
C:\Users\test\AppData\Local\Temp\cciHZyrV.s:1668   .text.rcu_irc8m_adjust_value_set:0000000000000010 .LVL150
C:\Users\test\AppData\Local\Temp\cciHZyrV.s:1547   .text.rcu_osci_bypass_mode_disable:0000000000000000 .LVL140
C:\Users\test\AppData\Local\Temp\cciHZyrV.s:1553   .text.rcu_osci_bypass_mode_disable:000000000000000a .LVL141
C:\Users\test\AppData\Local\Temp\cciHZyrV.s:1577   .text.rcu_osci_bypass_mode_disable:0000000000000020 .LVL144
C:\Users\test\AppData\Local\Temp\cciHZyrV.s:1559   .text.rcu_osci_bypass_mode_disable:0000000000000012 .LVL142
C:\Users\test\AppData\Local\Temp\cciHZyrV.s:1565   .text.rcu_osci_bypass_mode_disable:0000000000000016 .LVL143
C:\Users\test\AppData\Local\Temp\cciHZyrV.s:1583   .text.rcu_osci_bypass_mode_disable:0000000000000026 .LVL145
C:\Users\test\AppData\Local\Temp\cciHZyrV.s:1596   .text.rcu_osci_bypass_mode_disable:0000000000000038 .LVL146
C:\Users\test\AppData\Local\Temp\cciHZyrV.s:1483   .text.rcu_osci_bypass_mode_enable:0000000000000000 .LVL133
C:\Users\test\AppData\Local\Temp\cciHZyrV.s:1489   .text.rcu_osci_bypass_mode_enable:000000000000000a .LVL134
C:\Users\test\AppData\Local\Temp\cciHZyrV.s:1513   .text.rcu_osci_bypass_mode_enable:0000000000000022 .LVL137
C:\Users\test\AppData\Local\Temp\cciHZyrV.s:1495   .text.rcu_osci_bypass_mode_enable:0000000000000012 .LVL135
C:\Users\test\AppData\Local\Temp\cciHZyrV.s:1501   .text.rcu_osci_bypass_mode_enable:0000000000000018 .LVL136
C:\Users\test\AppData\Local\Temp\cciHZyrV.s:1519   .text.rcu_osci_bypass_mode_enable:0000000000000028 .LVL138
C:\Users\test\AppData\Local\Temp\cciHZyrV.s:1531   .text.rcu_osci_bypass_mode_enable:0000000000000038 .LVL139
C:\Users\test\AppData\Local\Temp\cciHZyrV.s:912    .text.rcu_interrupt_flag_get:0000000000000000 .LVL77
C:\Users\test\AppData\Local\Temp\cciHZyrV.s:921    .text.rcu_interrupt_flag_get:0000000000000010 .LVL78
C:\Users\test\AppData\Local\Temp\cciHZyrV.s:836    .text.rcu_i2s2_clock_config:0000000000000000 .LVL71
C:\Users\test\AppData\Local\Temp\cciHZyrV.s:852    .text.rcu_i2s2_clock_config:0000000000000010 .LVL74
C:\Users\test\AppData\Local\Temp\cciHZyrV.s:842    .text.rcu_i2s2_clock_config:0000000000000006 .LVL72
C:\Users\test\AppData\Local\Temp\cciHZyrV.s:849    .text.rcu_i2s2_clock_config:000000000000000e .LVL73
C:\Users\test\AppData\Local\Temp\cciHZyrV.s:804    .text.rcu_i2s1_clock_config:0000000000000000 .LVL67
C:\Users\test\AppData\Local\Temp\cciHZyrV.s:820    .text.rcu_i2s1_clock_config:000000000000000e .LVL70
C:\Users\test\AppData\Local\Temp\cciHZyrV.s:810    .text.rcu_i2s1_clock_config:0000000000000006 .LVL68
C:\Users\test\AppData\Local\Temp\cciHZyrV.s:817    .text.rcu_i2s1_clock_config:000000000000000c .LVL69
C:\Users\test\AppData\Local\Temp\cciHZyrV.s:774    .text.rcu_rtc_clock_config:0000000000000000 .LVL63
C:\Users\test\AppData\Local\Temp\cciHZyrV.s:788    .text.rcu_rtc_clock_config:000000000000000c .LVL66
C:\Users\test\AppData\Local\Temp\cciHZyrV.s:780    .text.rcu_rtc_clock_config:0000000000000006 .LVL64
C:\Users\test\AppData\Local\Temp\cciHZyrV.s:785    .text.rcu_rtc_clock_config:000000000000000a .LVL65
C:\Users\test\AppData\Local\Temp\cciHZyrV.s:742    .text.rcu_usb_clock_config:0000000000000000 .LVL59
C:\Users\test\AppData\Local\Temp\cciHZyrV.s:758    .text.rcu_usb_clock_config:0000000000000010 .LVL62
C:\Users\test\AppData\Local\Temp\cciHZyrV.s:748    .text.rcu_usb_clock_config:0000000000000006 .LVL60
C:\Users\test\AppData\Local\Temp\cciHZyrV.s:755    .text.rcu_usb_clock_config:000000000000000e .LVL61
C:\Users\test\AppData\Local\Temp\cciHZyrV.s:668    .text.rcu_adc_clock_config:0000000000000000 .LVL49
C:\Users\test\AppData\Local\Temp\cciHZyrV.s:692    .text.rcu_adc_clock_config:0000000000000020 .LVL52
GAS LISTING C:\Users\test\AppData\Local\Temp\cciHZyrV.s 			page 87


C:\Users\test\AppData\Local\Temp\cciHZyrV.s:704    .text.rcu_adc_clock_config:000000000000002a .LVL54
C:\Users\test\AppData\Local\Temp\cciHZyrV.s:711    .text.rcu_adc_clock_config:0000000000000030 .LVL55
C:\Users\test\AppData\Local\Temp\cciHZyrV.s:716    .text.rcu_adc_clock_config:0000000000000034 .LVL56
C:\Users\test\AppData\Local\Temp\cciHZyrV.s:674    .text.rcu_adc_clock_config:0000000000000006 .LVL50
C:\Users\test\AppData\Local\Temp\cciHZyrV.s:721    .text.rcu_adc_clock_config:000000000000003c .LVL57
C:\Users\test\AppData\Local\Temp\cciHZyrV.s:723    .text.rcu_adc_clock_config:000000000000003e .LVL58
C:\Users\test\AppData\Local\Temp\cciHZyrV.s:640    .text.rcu_pll2_config:0000000000000000 .LVL47
C:\Users\test\AppData\Local\Temp\cciHZyrV.s:653    .text.rcu_pll2_config:0000000000000012 .LVL48
C:\Users\test\AppData\Local\Temp\cciHZyrV.s:612    .text.rcu_pll1_config:0000000000000000 .LVL45
C:\Users\test\AppData\Local\Temp\cciHZyrV.s:625    .text.rcu_pll1_config:0000000000000014 .LVL46
C:\Users\test\AppData\Local\Temp\cciHZyrV.s:581    .text.rcu_predv1_config:0000000000000000 .LVL41
C:\Users\test\AppData\Local\Temp\cciHZyrV.s:595    .text.rcu_predv1_config:000000000000000c .LVL44
C:\Users\test\AppData\Local\Temp\cciHZyrV.s:587    .text.rcu_predv1_config:0000000000000006 .LVL42
C:\Users\test\AppData\Local\Temp\cciHZyrV.s:546    .text.rcu_predv0_config:0000000000000000 .LVL36
C:\Users\test\AppData\Local\Temp\cciHZyrV.s:561    .text.rcu_predv0_config:000000000000000e .LVL39
C:\Users\test\AppData\Local\Temp\cciHZyrV.s:552    .text.rcu_predv0_config:0000000000000006 .LVL37
C:\Users\test\AppData\Local\Temp\cciHZyrV.s:559    .text.rcu_predv0_config:000000000000000c .LVL38
C:\Users\test\AppData\Local\Temp\cciHZyrV.s:564    .text.rcu_predv0_config:0000000000000010 .LVL40
C:\Users\test\AppData\Local\Temp\cciHZyrV.s:511    .text.rcu_pll_config:0000000000000000 .LVL31
C:\Users\test\AppData\Local\Temp\cciHZyrV.s:526    .text.rcu_pll_config:0000000000000010 .LVL34
C:\Users\test\AppData\Local\Temp\cciHZyrV.s:517    .text.rcu_pll_config:0000000000000006 .LVL32
C:\Users\test\AppData\Local\Temp\cciHZyrV.s:524    .text.rcu_pll_config:000000000000000e .LVL33
C:\Users\test\AppData\Local\Temp\cciHZyrV.s:529    .text.rcu_pll_config:0000000000000012 .LVL35
C:\Users\test\AppData\Local\Temp\cciHZyrV.s:479    .text.rcu_ckout0_config:0000000000000000 .LVL27
C:\Users\test\AppData\Local\Temp\cciHZyrV.s:495    .text.rcu_ckout0_config:0000000000000010 .LVL30
C:\Users\test\AppData\Local\Temp\cciHZyrV.s:485    .text.rcu_ckout0_config:0000000000000006 .LVL28
C:\Users\test\AppData\Local\Temp\cciHZyrV.s:492    .text.rcu_ckout0_config:000000000000000e .LVL29
C:\Users\test\AppData\Local\Temp\cciHZyrV.s:447    .text.rcu_apb2_clock_config:0000000000000000 .LVL23
C:\Users\test\AppData\Local\Temp\cciHZyrV.s:463    .text.rcu_apb2_clock_config:0000000000000010 .LVL26
C:\Users\test\AppData\Local\Temp\cciHZyrV.s:453    .text.rcu_apb2_clock_config:0000000000000006 .LVL24
C:\Users\test\AppData\Local\Temp\cciHZyrV.s:460    .text.rcu_apb2_clock_config:000000000000000e .LVL25
C:\Users\test\AppData\Local\Temp\cciHZyrV.s:417    .text.rcu_apb1_clock_config:0000000000000000 .LVL19
C:\Users\test\AppData\Local\Temp\cciHZyrV.s:431    .text.rcu_apb1_clock_config:000000000000000c .LVL22
C:\Users\test\AppData\Local\Temp\cciHZyrV.s:423    .text.rcu_apb1_clock_config:0000000000000006 .LVL20
C:\Users\test\AppData\Local\Temp\cciHZyrV.s:428    .text.rcu_apb1_clock_config:000000000000000a .LVL21
C:\Users\test\AppData\Local\Temp\cciHZyrV.s:387    .text.rcu_ahb_clock_config:0000000000000000 .LVL15
C:\Users\test\AppData\Local\Temp\cciHZyrV.s:401    .text.rcu_ahb_clock_config:000000000000000c .LVL18
C:\Users\test\AppData\Local\Temp\cciHZyrV.s:393    .text.rcu_ahb_clock_config:0000000000000006 .LVL16
C:\Users\test\AppData\Local\Temp\cciHZyrV.s:398    .text.rcu_ahb_clock_config:000000000000000a .LVL17
C:\Users\test\AppData\Local\Temp\cciHZyrV.s:339    .text.rcu_system_clock_source_config:0000000000000000 .LVL11
C:\Users\test\AppData\Local\Temp\cciHZyrV.s:353    .text.rcu_system_clock_source_config:000000000000000a .LVL14
C:\Users\test\AppData\Local\Temp\cciHZyrV.s:345    .text.rcu_system_clock_source_config:0000000000000006 .LVL12
C:\Users\test\AppData\Local\Temp\cciHZyrV.s:350    .text.rcu_system_clock_source_config:0000000000000008 .LVL13
C:\Users\test\AppData\Local\Temp\cciHZyrV.s:34     .text.rcu_deinit:0000000000000014 .LVL0
C:\Users\test\AppData\Local\Temp\cciHZyrV.s:70     .text.rcu_deinit:0000000000000022 .LVL3
C:\Users\test\AppData\Local\Temp\cciHZyrV.s:116    .text.rcu_deinit:0000000000000064 .LVL4
C:\Users\test\AppData\Local\Temp\cciHZyrV.s:55     .text.rcu_deinit:0000000000000018 .LVL1
C:\Users\test\AppData\Local\Temp\cciHZyrV.s:63     .text.rcu_deinit:000000000000001c .LVL2
C:\Users\test\AppData\Local\Temp\cciHZyrV.s:868    .text.rcu_flag_get:0000000000000000 .LVL75
C:\Users\test\AppData\Local\Temp\cciHZyrV.s:877    .text.rcu_flag_get:0000000000000010 .LVL76
C:\Users\test\AppData\Local\Temp\cciHZyrV.s:1016   .text.rcu_osci_stab_wait:0000000000000000 .LVL82
C:\Users\test\AppData\Local\Temp\cciHZyrV.s:1034   .text.rcu_osci_stab_wait:0000000000000022 .LVL83
C:\Users\test\AppData\Local\Temp\cciHZyrV.s:1036   .text.rcu_osci_stab_wait:0000000000000024 .LVL84
C:\Users\test\AppData\Local\Temp\cciHZyrV.s:1081   .text.rcu_osci_stab_wait:0000000000000048 .LVL88
C:\Users\test\AppData\Local\Temp\cciHZyrV.s:1086   .text.rcu_osci_stab_wait:000000000000004e .LVL89
C:\Users\test\AppData\Local\Temp\cciHZyrV.s:1135   .text.rcu_osci_stab_wait:000000000000006e .LVL95
C:\Users\test\AppData\Local\Temp\cciHZyrV.s:1140   .text.rcu_osci_stab_wait:0000000000000074 .LVL96
GAS LISTING C:\Users\test\AppData\Local\Temp\cciHZyrV.s 			page 88


C:\Users\test\AppData\Local\Temp\cciHZyrV.s:1189   .text.rcu_osci_stab_wait:0000000000000094 .LVL102
C:\Users\test\AppData\Local\Temp\cciHZyrV.s:1199   .text.rcu_osci_stab_wait:000000000000009a .LVL104
C:\Users\test\AppData\Local\Temp\cciHZyrV.s:1245   .text.rcu_osci_stab_wait:00000000000000b6 .LVL109
C:\Users\test\AppData\Local\Temp\cciHZyrV.s:1250   .text.rcu_osci_stab_wait:00000000000000bc .LVL110
C:\Users\test\AppData\Local\Temp\cciHZyrV.s:1299   .text.rcu_osci_stab_wait:00000000000000da .LVL116
C:\Users\test\AppData\Local\Temp\cciHZyrV.s:1304   .text.rcu_osci_stab_wait:00000000000000e0 .LVL117
C:\Users\test\AppData\Local\Temp\cciHZyrV.s:1352   .text.rcu_osci_stab_wait:00000000000000fc .LVL122
C:\Users\test\AppData\Local\Temp\cciHZyrV.s:1357   .text.rcu_osci_stab_wait:0000000000000102 .LVL123
C:\Users\test\AppData\Local\Temp\cciHZyrV.s:1406   .text.rcu_osci_stab_wait:0000000000000122 .LVL129
C:\Users\test\AppData\Local\Temp\cciHZyrV.s:1411   .text.rcu_osci_stab_wait:0000000000000128 .LVL130
C:\Users\test\AppData\Local\Temp\cciHZyrV.s:1049   .text.rcu_osci_stab_wait:000000000000003a .LVL85
C:\Users\test\AppData\Local\Temp\cciHZyrV.s:1066   .text.rcu_osci_stab_wait:000000000000003e .LVL86
C:\Users\test\AppData\Local\Temp\cciHZyrV.s:1093   .text.rcu_osci_stab_wait:0000000000000052 .LVL90
C:\Users\test\AppData\Local\Temp\cciHZyrV.s:1102   .text.rcu_osci_stab_wait:000000000000005c .LVL91
C:\Users\test\AppData\Local\Temp\cciHZyrV.s:1119   .text.rcu_osci_stab_wait:0000000000000060 .LVL92
C:\Users\test\AppData\Local\Temp\cciHZyrV.s:1133   .text.rcu_osci_stab_wait:000000000000006c .LVL94
C:\Users\test\AppData\Local\Temp\cciHZyrV.s:1147   .text.rcu_osci_stab_wait:0000000000000078 .LVL97
C:\Users\test\AppData\Local\Temp\cciHZyrV.s:1156   .text.rcu_osci_stab_wait:0000000000000082 .LVL98
C:\Users\test\AppData\Local\Temp\cciHZyrV.s:1173   .text.rcu_osci_stab_wait:0000000000000086 .LVL99
C:\Users\test\AppData\Local\Temp\cciHZyrV.s:1187   .text.rcu_osci_stab_wait:0000000000000092 .LVL101
C:\Users\test\AppData\Local\Temp\cciHZyrV.s:1204   .text.rcu_osci_stab_wait:000000000000009e .LVL105
C:\Users\test\AppData\Local\Temp\cciHZyrV.s:1213   .text.rcu_osci_stab_wait:00000000000000a8 .LVL106
C:\Users\test\AppData\Local\Temp\cciHZyrV.s:1230   .text.rcu_osci_stab_wait:00000000000000ac .LVL107
C:\Users\test\AppData\Local\Temp\cciHZyrV.s:1257   .text.rcu_osci_stab_wait:00000000000000c0 .LVL111
C:\Users\test\AppData\Local\Temp\cciHZyrV.s:1266   .text.rcu_osci_stab_wait:00000000000000c8 .LVL112
C:\Users\test\AppData\Local\Temp\cciHZyrV.s:1283   .text.rcu_osci_stab_wait:00000000000000cc .LVL113
C:\Users\test\AppData\Local\Temp\cciHZyrV.s:1297   .text.rcu_osci_stab_wait:00000000000000d8 .LVL115
C:\Users\test\AppData\Local\Temp\cciHZyrV.s:1311   .text.rcu_osci_stab_wait:00000000000000e4 .LVL118
C:\Users\test\AppData\Local\Temp\cciHZyrV.s:1320   .text.rcu_osci_stab_wait:00000000000000ee .LVL119
C:\Users\test\AppData\Local\Temp\cciHZyrV.s:1337   .text.rcu_osci_stab_wait:00000000000000f2 .LVL120
C:\Users\test\AppData\Local\Temp\cciHZyrV.s:1364   .text.rcu_osci_stab_wait:0000000000000106 .LVL124
C:\Users\test\AppData\Local\Temp\cciHZyrV.s:1373   .text.rcu_osci_stab_wait:0000000000000110 .LVL125
C:\Users\test\AppData\Local\Temp\cciHZyrV.s:1390   .text.rcu_osci_stab_wait:0000000000000114 .LVL126
C:\Users\test\AppData\Local\Temp\cciHZyrV.s:1404   .text.rcu_osci_stab_wait:0000000000000120 .LVL128
C:\Users\test\AppData\Local\Temp\cciHZyrV.s:1193   .text.rcu_osci_stab_wait:0000000000000098 .LVL103
C:\Users\test\AppData\Local\Temp\cciHZyrV.s:1074   .text.rcu_osci_stab_wait:0000000000000042 .LVL87
C:\Users\test\AppData\Local\Temp\cciHZyrV.s:1127   .text.rcu_osci_stab_wait:0000000000000068 .LVL93
C:\Users\test\AppData\Local\Temp\cciHZyrV.s:1181   .text.rcu_osci_stab_wait:000000000000008e .LVL100
C:\Users\test\AppData\Local\Temp\cciHZyrV.s:1238   .text.rcu_osci_stab_wait:00000000000000b0 .LVL108
C:\Users\test\AppData\Local\Temp\cciHZyrV.s:1291   .text.rcu_osci_stab_wait:00000000000000d4 .LVL114
C:\Users\test\AppData\Local\Temp\cciHZyrV.s:1345   .text.rcu_osci_stab_wait:00000000000000f6 .LVL121
C:\Users\test\AppData\Local\Temp\cciHZyrV.s:1398   .text.rcu_osci_stab_wait:000000000000011c .LVL127
C:\Users\test\AppData\Local\Temp\cciHZyrV.s:2028   .debug_info:0000000000000000 .Ldebug_info0
C:\Users\test\AppData\Local\Temp\cciHZyrV.s:29     .text.rcu_deinit:000000000000000e .LBE60
C:\Users\test\AppData\Local\Temp\cciHZyrV.s:35     .text.rcu_deinit:0000000000000014 .LBB72
C:\Users\test\AppData\Local\Temp\cciHZyrV.s:75     .text.rcu_deinit:0000000000000022 .LBE72
C:\Users\test\AppData\Local\Temp\cciHZyrV.s:118    .text.rcu_deinit:0000000000000064 .LBB73
C:\Users\test\AppData\Local\Temp\cciHZyrV.s:124    .text.rcu_deinit:0000000000000068 .LBE73
C:\Users\test\AppData\Local\Temp\cciHZyrV.s:27     .text.rcu_deinit:000000000000000e .LBE62
C:\Users\test\AppData\Local\Temp\cciHZyrV.s:43     .text.rcu_deinit:0000000000000014 .LBB66
C:\Users\test\AppData\Local\Temp\cciHZyrV.s:48     .text.rcu_deinit:0000000000000014 .LBE66
C:\Users\test\AppData\Local\Temp\cciHZyrV.s:50     .text.rcu_deinit:0000000000000014 .LBB67
C:\Users\test\AppData\Local\Temp\cciHZyrV.s:61     .text.rcu_deinit:000000000000001c .LBE67
C:\Users\test\AppData\Local\Temp\cciHZyrV.s:1052   .text.rcu_osci_stab_wait:000000000000003a .LBE74
C:\Users\test\AppData\Local\Temp\cciHZyrV.s:1054   .text.rcu_osci_stab_wait:000000000000003a .LBB78
C:\Users\test\AppData\Local\Temp\cciHZyrV.s:1059   .text.rcu_osci_stab_wait:000000000000003a .LBE78
C:\Users\test\AppData\Local\Temp\cciHZyrV.s:1061   .text.rcu_osci_stab_wait:000000000000003a .LBB79
GAS LISTING C:\Users\test\AppData\Local\Temp\cciHZyrV.s 			page 89


C:\Users\test\AppData\Local\Temp\cciHZyrV.s:1072   .text.rcu_osci_stab_wait:0000000000000042 .LBE79
C:\Users\test\AppData\Local\Temp\cciHZyrV.s:1105   .text.rcu_osci_stab_wait:000000000000005c .LBE82
C:\Users\test\AppData\Local\Temp\cciHZyrV.s:1107   .text.rcu_osci_stab_wait:000000000000005c .LBB86
C:\Users\test\AppData\Local\Temp\cciHZyrV.s:1112   .text.rcu_osci_stab_wait:000000000000005c .LBE86
C:\Users\test\AppData\Local\Temp\cciHZyrV.s:1114   .text.rcu_osci_stab_wait:000000000000005c .LBB87
C:\Users\test\AppData\Local\Temp\cciHZyrV.s:1125   .text.rcu_osci_stab_wait:0000000000000068 .LBE87
C:\Users\test\AppData\Local\Temp\cciHZyrV.s:1159   .text.rcu_osci_stab_wait:0000000000000082 .LBE90
C:\Users\test\AppData\Local\Temp\cciHZyrV.s:1161   .text.rcu_osci_stab_wait:0000000000000082 .LBB94
C:\Users\test\AppData\Local\Temp\cciHZyrV.s:1166   .text.rcu_osci_stab_wait:0000000000000082 .LBE94
C:\Users\test\AppData\Local\Temp\cciHZyrV.s:1168   .text.rcu_osci_stab_wait:0000000000000082 .LBB95
C:\Users\test\AppData\Local\Temp\cciHZyrV.s:1179   .text.rcu_osci_stab_wait:000000000000008e .LBE95
C:\Users\test\AppData\Local\Temp\cciHZyrV.s:1216   .text.rcu_osci_stab_wait:00000000000000a8 .LBE98
C:\Users\test\AppData\Local\Temp\cciHZyrV.s:1218   .text.rcu_osci_stab_wait:00000000000000a8 .LBB102
C:\Users\test\AppData\Local\Temp\cciHZyrV.s:1223   .text.rcu_osci_stab_wait:00000000000000a8 .LBE102
C:\Users\test\AppData\Local\Temp\cciHZyrV.s:1225   .text.rcu_osci_stab_wait:00000000000000a8 .LBB103
C:\Users\test\AppData\Local\Temp\cciHZyrV.s:1236   .text.rcu_osci_stab_wait:00000000000000b0 .LBE103
C:\Users\test\AppData\Local\Temp\cciHZyrV.s:1269   .text.rcu_osci_stab_wait:00000000000000c8 .LBE106
C:\Users\test\AppData\Local\Temp\cciHZyrV.s:1271   .text.rcu_osci_stab_wait:00000000000000c8 .LBB110
C:\Users\test\AppData\Local\Temp\cciHZyrV.s:1276   .text.rcu_osci_stab_wait:00000000000000c8 .LBE110
C:\Users\test\AppData\Local\Temp\cciHZyrV.s:1278   .text.rcu_osci_stab_wait:00000000000000c8 .LBB111
C:\Users\test\AppData\Local\Temp\cciHZyrV.s:1289   .text.rcu_osci_stab_wait:00000000000000d4 .LBE111
C:\Users\test\AppData\Local\Temp\cciHZyrV.s:1323   .text.rcu_osci_stab_wait:00000000000000ee .LBE114
C:\Users\test\AppData\Local\Temp\cciHZyrV.s:1325   .text.rcu_osci_stab_wait:00000000000000ee .LBB118
C:\Users\test\AppData\Local\Temp\cciHZyrV.s:1330   .text.rcu_osci_stab_wait:00000000000000ee .LBE118
C:\Users\test\AppData\Local\Temp\cciHZyrV.s:1332   .text.rcu_osci_stab_wait:00000000000000ee .LBB119
C:\Users\test\AppData\Local\Temp\cciHZyrV.s:1343   .text.rcu_osci_stab_wait:00000000000000f6 .LBE119
C:\Users\test\AppData\Local\Temp\cciHZyrV.s:1376   .text.rcu_osci_stab_wait:0000000000000110 .LBE122
C:\Users\test\AppData\Local\Temp\cciHZyrV.s:1378   .text.rcu_osci_stab_wait:0000000000000110 .LBB126
C:\Users\test\AppData\Local\Temp\cciHZyrV.s:1383   .text.rcu_osci_stab_wait:0000000000000110 .LBE126
C:\Users\test\AppData\Local\Temp\cciHZyrV.s:1385   .text.rcu_osci_stab_wait:0000000000000110 .LBB127
C:\Users\test\AppData\Local\Temp\cciHZyrV.s:1396   .text.rcu_osci_stab_wait:000000000000011c .LBE127

NO UNDEFINED SYMBOLS
