GAS LISTING C:\Users\test\AppData\Local\Temp\ccdvqI39.s 			page 1


   1              		.file	"gd32vf103_dma.c"
   2              		.option nopic
   3              		.text
   4              	.Ltext0:
   5              		.cfi_sections	.debug_frame
   6              		.section	.text.dma_deinit,"ax",@progbits
   7              		.align	1
   8              		.globl	dma_deinit
  10              	dma_deinit:
  11              	.LFB2:
  12              		.file 1 "arch/riscv/mach-gd32vf10x/bsp/gd32vf103_dma.c"
   1:arch/riscv/mach-gd32vf10x/bsp/gd32vf103_dma.c **** /*!
   2:arch/riscv/mach-gd32vf10x/bsp/gd32vf103_dma.c ****     \file    gd32vf103_dma.c
   3:arch/riscv/mach-gd32vf10x/bsp/gd32vf103_dma.c ****     \brief   DMA driver
   4:arch/riscv/mach-gd32vf10x/bsp/gd32vf103_dma.c **** 
   5:arch/riscv/mach-gd32vf10x/bsp/gd32vf103_dma.c ****     \version 2019-6-5, V1.0.0, firmware for GD32VF103
   6:arch/riscv/mach-gd32vf10x/bsp/gd32vf103_dma.c **** */
   7:arch/riscv/mach-gd32vf10x/bsp/gd32vf103_dma.c **** 
   8:arch/riscv/mach-gd32vf10x/bsp/gd32vf103_dma.c **** /*
   9:arch/riscv/mach-gd32vf10x/bsp/gd32vf103_dma.c ****     Copyright (c) 2019, GigaDevice Semiconductor Inc.
  10:arch/riscv/mach-gd32vf10x/bsp/gd32vf103_dma.c **** 
  11:arch/riscv/mach-gd32vf10x/bsp/gd32vf103_dma.c ****     Redistribution and use in source and binary forms, with or without modification, 
  12:arch/riscv/mach-gd32vf10x/bsp/gd32vf103_dma.c **** are permitted provided that the following conditions are met:
  13:arch/riscv/mach-gd32vf10x/bsp/gd32vf103_dma.c **** 
  14:arch/riscv/mach-gd32vf10x/bsp/gd32vf103_dma.c ****     1. Redistributions of source code must retain the above copyright notice, this 
  15:arch/riscv/mach-gd32vf10x/bsp/gd32vf103_dma.c ****        list of conditions and the following disclaimer.
  16:arch/riscv/mach-gd32vf10x/bsp/gd32vf103_dma.c ****     2. Redistributions in binary form must reproduce the above copyright notice, 
  17:arch/riscv/mach-gd32vf10x/bsp/gd32vf103_dma.c ****        this list of conditions and the following disclaimer in the documentation 
  18:arch/riscv/mach-gd32vf10x/bsp/gd32vf103_dma.c ****        and/or other materials provided with the distribution.
  19:arch/riscv/mach-gd32vf10x/bsp/gd32vf103_dma.c ****     3. Neither the name of the copyright holder nor the names of its contributors 
  20:arch/riscv/mach-gd32vf10x/bsp/gd32vf103_dma.c ****        may be used to endorse or promote products derived from this software without 
  21:arch/riscv/mach-gd32vf10x/bsp/gd32vf103_dma.c ****        specific prior written permission.
  22:arch/riscv/mach-gd32vf10x/bsp/gd32vf103_dma.c **** 
  23:arch/riscv/mach-gd32vf10x/bsp/gd32vf103_dma.c ****     THIS SOFTWARE IS PROVIDED BY THE COPYRIGHT HOLDERS AND CONTRIBUTORS "AS IS" 
  24:arch/riscv/mach-gd32vf10x/bsp/gd32vf103_dma.c **** AND ANY EXPRESS OR IMPLIED WARRANTIES, INCLUDING, BUT NOT LIMITED TO, THE IMPLIED 
  25:arch/riscv/mach-gd32vf10x/bsp/gd32vf103_dma.c **** WARRANTIES OF MERCHANTABILITY AND FITNESS FOR A PARTICULAR PURPOSE ARE DISCLAIMED. 
  26:arch/riscv/mach-gd32vf10x/bsp/gd32vf103_dma.c **** IN NO EVENT SHALL THE COPYRIGHT HOLDER OR CONTRIBUTORS BE LIABLE FOR ANY DIRECT, 
  27:arch/riscv/mach-gd32vf10x/bsp/gd32vf103_dma.c **** INDIRECT, INCIDENTAL, SPECIAL, EXEMPLARY, OR CONSEQUENTIAL DAMAGES (INCLUDING, BUT 
  28:arch/riscv/mach-gd32vf10x/bsp/gd32vf103_dma.c **** NOT LIMITED TO, PROCUREMENT OF SUBSTITUTE GOODS OR SERVICES; LOSS OF USE, DATA, OR 
  29:arch/riscv/mach-gd32vf10x/bsp/gd32vf103_dma.c **** PROFITS; OR BUSINESS INTERRUPTION) HOWEVER CAUSED AND ON ANY THEORY OF LIABILITY, 
  30:arch/riscv/mach-gd32vf10x/bsp/gd32vf103_dma.c **** WHETHER IN CONTRACT, STRICT LIABILITY, OR TORT (INCLUDING NEGLIGENCE OR OTHERWISE) 
  31:arch/riscv/mach-gd32vf10x/bsp/gd32vf103_dma.c **** ARISING IN ANY WAY OUT OF THE USE OF THIS SOFTWARE, EVEN IF ADVISED OF THE POSSIBILITY 
  32:arch/riscv/mach-gd32vf10x/bsp/gd32vf103_dma.c **** OF SUCH DAMAGE.
  33:arch/riscv/mach-gd32vf10x/bsp/gd32vf103_dma.c **** */
  34:arch/riscv/mach-gd32vf10x/bsp/gd32vf103_dma.c **** 
  35:arch/riscv/mach-gd32vf10x/bsp/gd32vf103_dma.c **** #include "gd32vf103_dma.h"
  36:arch/riscv/mach-gd32vf10x/bsp/gd32vf103_dma.c **** 
  37:arch/riscv/mach-gd32vf10x/bsp/gd32vf103_dma.c **** #define DMA_WRONG_HANDLE        while(1){}
  38:arch/riscv/mach-gd32vf10x/bsp/gd32vf103_dma.c **** 
  39:arch/riscv/mach-gd32vf10x/bsp/gd32vf103_dma.c **** /* check whether peripheral matches channels or not */
  40:arch/riscv/mach-gd32vf10x/bsp/gd32vf103_dma.c **** static ErrStatus dma_periph_and_channel_check(uint32_t dma_periph, dma_channel_enum channelx);
  41:arch/riscv/mach-gd32vf10x/bsp/gd32vf103_dma.c **** 
  42:arch/riscv/mach-gd32vf10x/bsp/gd32vf103_dma.c **** /*!
  43:arch/riscv/mach-gd32vf10x/bsp/gd32vf103_dma.c ****     \brief      deinitialize DMA a channel registers
  44:arch/riscv/mach-gd32vf10x/bsp/gd32vf103_dma.c ****     \param[in]  dma_periph: DMAx(x=0,1)
  45:arch/riscv/mach-gd32vf10x/bsp/gd32vf103_dma.c ****       \arg        DMAx(x=0,1)
  46:arch/riscv/mach-gd32vf10x/bsp/gd32vf103_dma.c ****     \param[in]  channelx: specify which DMA channel is deinitialized
GAS LISTING C:\Users\test\AppData\Local\Temp\ccdvqI39.s 			page 2


  47:arch/riscv/mach-gd32vf10x/bsp/gd32vf103_dma.c ****                 only one parameter can be selected which is shown as below:
  48:arch/riscv/mach-gd32vf10x/bsp/gd32vf103_dma.c ****       \arg        DMA0: DMA_CHx(x=0..6), DMA1: DMA_CHx(x=0..4)
  49:arch/riscv/mach-gd32vf10x/bsp/gd32vf103_dma.c ****     \param[out] none
  50:arch/riscv/mach-gd32vf10x/bsp/gd32vf103_dma.c ****     \retval     none
  51:arch/riscv/mach-gd32vf10x/bsp/gd32vf103_dma.c **** */
  52:arch/riscv/mach-gd32vf10x/bsp/gd32vf103_dma.c **** void dma_deinit(uint32_t dma_periph, dma_channel_enum channelx)
  53:arch/riscv/mach-gd32vf10x/bsp/gd32vf103_dma.c **** {
  13              		.loc 1 53 1
  14              		.cfi_startproc
  15              	.LVL0:
  54:arch/riscv/mach-gd32vf10x/bsp/gd32vf103_dma.c **** 	if(ERROR == dma_periph_and_channel_check(dma_periph, channelx)){
  16              		.loc 1 54 2
  17              	.LBB46:
  18              	.LBB47:
  55:arch/riscv/mach-gd32vf10x/bsp/gd32vf103_dma.c **** 		DMA_WRONG_HANDLE
  56:arch/riscv/mach-gd32vf10x/bsp/gd32vf103_dma.c **** 	}
  57:arch/riscv/mach-gd32vf10x/bsp/gd32vf103_dma.c **** 
  58:arch/riscv/mach-gd32vf10x/bsp/gd32vf103_dma.c **** 	/* disable DMA a channel */
  59:arch/riscv/mach-gd32vf10x/bsp/gd32vf103_dma.c **** 	DMA_CHCTL(dma_periph, channelx) &= ~DMA_CHXCTL_CHEN;
  60:arch/riscv/mach-gd32vf10x/bsp/gd32vf103_dma.c **** 	/* reset DMA channel registers */
  61:arch/riscv/mach-gd32vf10x/bsp/gd32vf103_dma.c **** 	DMA_CHCTL(dma_periph, channelx) = DMA_CHCTL_RESET_VALUE;
  62:arch/riscv/mach-gd32vf10x/bsp/gd32vf103_dma.c **** 	DMA_CHCNT(dma_periph, channelx) = DMA_CHCNT_RESET_VALUE;
  63:arch/riscv/mach-gd32vf10x/bsp/gd32vf103_dma.c **** 	DMA_CHPADDR(dma_periph, channelx) = DMA_CHPADDR_RESET_VALUE;
  64:arch/riscv/mach-gd32vf10x/bsp/gd32vf103_dma.c **** 	DMA_CHMADDR(dma_periph, channelx) = DMA_CHMADDR_RESET_VALUE;
  65:arch/riscv/mach-gd32vf10x/bsp/gd32vf103_dma.c **** 	DMA_INTC(dma_periph) |= DMA_FLAG_ADD(DMA_CHINTF_RESET_VALUE, channelx);
  66:arch/riscv/mach-gd32vf10x/bsp/gd32vf103_dma.c **** }
  67:arch/riscv/mach-gd32vf10x/bsp/gd32vf103_dma.c **** 
  68:arch/riscv/mach-gd32vf10x/bsp/gd32vf103_dma.c **** /*!
  69:arch/riscv/mach-gd32vf10x/bsp/gd32vf103_dma.c ****     \brief      initialize the parameters of DMA struct with the default values
  70:arch/riscv/mach-gd32vf10x/bsp/gd32vf103_dma.c ****     \param[in]  init_struct: the initialization data needed to initialize DMA channel
  71:arch/riscv/mach-gd32vf10x/bsp/gd32vf103_dma.c ****     \param[out] none
  72:arch/riscv/mach-gd32vf10x/bsp/gd32vf103_dma.c ****     \retval     none
  73:arch/riscv/mach-gd32vf10x/bsp/gd32vf103_dma.c **** */
  74:arch/riscv/mach-gd32vf10x/bsp/gd32vf103_dma.c **** void dma_struct_para_init(dma_parameter_struct* init_struct)
  75:arch/riscv/mach-gd32vf10x/bsp/gd32vf103_dma.c **** {
  76:arch/riscv/mach-gd32vf10x/bsp/gd32vf103_dma.c ****     /* set the DMA struct with the default values */
  77:arch/riscv/mach-gd32vf10x/bsp/gd32vf103_dma.c ****     init_struct->periph_addr  = 0U;
  78:arch/riscv/mach-gd32vf10x/bsp/gd32vf103_dma.c ****     init_struct->periph_width = 0U;
  79:arch/riscv/mach-gd32vf10x/bsp/gd32vf103_dma.c ****     init_struct->periph_inc   = DMA_PERIPH_INCREASE_DISABLE;
  80:arch/riscv/mach-gd32vf10x/bsp/gd32vf103_dma.c ****     init_struct->memory_addr  = 0U;
  81:arch/riscv/mach-gd32vf10x/bsp/gd32vf103_dma.c ****     init_struct->memory_width = 0U;
  82:arch/riscv/mach-gd32vf10x/bsp/gd32vf103_dma.c ****     init_struct->memory_inc   = DMA_MEMORY_INCREASE_DISABLE;
  83:arch/riscv/mach-gd32vf10x/bsp/gd32vf103_dma.c ****     init_struct->number       = 0U;
  84:arch/riscv/mach-gd32vf10x/bsp/gd32vf103_dma.c ****     init_struct->direction    = DMA_PERIPHERAL_TO_MEMORY;
  85:arch/riscv/mach-gd32vf10x/bsp/gd32vf103_dma.c ****     init_struct->priority     = DMA_PRIORITY_LOW;
  86:arch/riscv/mach-gd32vf10x/bsp/gd32vf103_dma.c **** }
  87:arch/riscv/mach-gd32vf10x/bsp/gd32vf103_dma.c **** 
  88:arch/riscv/mach-gd32vf10x/bsp/gd32vf103_dma.c **** /*!
  89:arch/riscv/mach-gd32vf10x/bsp/gd32vf103_dma.c ****     \brief      initialize DMA channel
  90:arch/riscv/mach-gd32vf10x/bsp/gd32vf103_dma.c ****     \param[in]  dma_periph: DMAx(x=0,1)
  91:arch/riscv/mach-gd32vf10x/bsp/gd32vf103_dma.c ****       \arg        DMAx(x=0,1)
  92:arch/riscv/mach-gd32vf10x/bsp/gd32vf103_dma.c ****     \param[in]  channelx: specify which DMA channel is initialized
  93:arch/riscv/mach-gd32vf10x/bsp/gd32vf103_dma.c ****                 only one parameter can be selected which is shown as below:
  94:arch/riscv/mach-gd32vf10x/bsp/gd32vf103_dma.c ****       \arg        DMA0: DMA_CHx(x=0..6), DMA1: DMA_CHx(x=0..4)
  95:arch/riscv/mach-gd32vf10x/bsp/gd32vf103_dma.c ****     \param[in]  init_struct: the data needed to initialize DMA channel
  96:arch/riscv/mach-gd32vf10x/bsp/gd32vf103_dma.c ****                   periph_addr: peripheral base address
  97:arch/riscv/mach-gd32vf10x/bsp/gd32vf103_dma.c ****                   periph_width: DMA_PERIPHERAL_WIDTH_8BIT, DMA_PERIPHERAL_WIDTH_16BIT, DMA_PERIPHER
GAS LISTING C:\Users\test\AppData\Local\Temp\ccdvqI39.s 			page 3


  98:arch/riscv/mach-gd32vf10x/bsp/gd32vf103_dma.c ****                   periph_inc: DMA_PERIPH_INCREASE_ENABLE, DMA_PERIPH_INCREASE_DISABLE
  99:arch/riscv/mach-gd32vf10x/bsp/gd32vf103_dma.c ****                   memory_addr: memory base address
 100:arch/riscv/mach-gd32vf10x/bsp/gd32vf103_dma.c ****                   memory_width: DMA_MEMORY_WIDTH_8BIT, DMA_MEMORY_WIDTH_16BIT, DMA_MEMORY_WIDTH_32B
 101:arch/riscv/mach-gd32vf10x/bsp/gd32vf103_dma.c ****                   memory_inc: DMA_MEMORY_INCREASE_ENABLE, DMA_MEMORY_INCREASE_DISABLE
 102:arch/riscv/mach-gd32vf10x/bsp/gd32vf103_dma.c ****                   direction: DMA_PERIPHERAL_TO_MEMORY, DMA_MEMORY_TO_PERIPHERAL
 103:arch/riscv/mach-gd32vf10x/bsp/gd32vf103_dma.c ****                   number: the number of remaining data to be transferred by the DMA
 104:arch/riscv/mach-gd32vf10x/bsp/gd32vf103_dma.c ****                   priority: DMA_PRIORITY_LOW, DMA_PRIORITY_MEDIUM, DMA_PRIORITY_HIGH, DMA_PRIORITY_
 105:arch/riscv/mach-gd32vf10x/bsp/gd32vf103_dma.c ****     \param[out] none
 106:arch/riscv/mach-gd32vf10x/bsp/gd32vf103_dma.c ****     \retval     none
 107:arch/riscv/mach-gd32vf10x/bsp/gd32vf103_dma.c **** */
 108:arch/riscv/mach-gd32vf10x/bsp/gd32vf103_dma.c **** void dma_init(uint32_t dma_periph, dma_channel_enum channelx, dma_parameter_struct* init_struct)
 109:arch/riscv/mach-gd32vf10x/bsp/gd32vf103_dma.c **** {
 110:arch/riscv/mach-gd32vf10x/bsp/gd32vf103_dma.c ****     uint32_t ctl;
 111:arch/riscv/mach-gd32vf10x/bsp/gd32vf103_dma.c **** 
 112:arch/riscv/mach-gd32vf10x/bsp/gd32vf103_dma.c ****     if(ERROR == dma_periph_and_channel_check(dma_periph, channelx)){
 113:arch/riscv/mach-gd32vf10x/bsp/gd32vf103_dma.c ****         DMA_WRONG_HANDLE
 114:arch/riscv/mach-gd32vf10x/bsp/gd32vf103_dma.c ****     }
 115:arch/riscv/mach-gd32vf10x/bsp/gd32vf103_dma.c **** 
 116:arch/riscv/mach-gd32vf10x/bsp/gd32vf103_dma.c ****     /* configure peripheral base address */
 117:arch/riscv/mach-gd32vf10x/bsp/gd32vf103_dma.c ****     DMA_CHPADDR(dma_periph, channelx) = init_struct->periph_addr;
 118:arch/riscv/mach-gd32vf10x/bsp/gd32vf103_dma.c **** 
 119:arch/riscv/mach-gd32vf10x/bsp/gd32vf103_dma.c ****     /* configure memory base address */
 120:arch/riscv/mach-gd32vf10x/bsp/gd32vf103_dma.c ****     DMA_CHMADDR(dma_periph, channelx) = init_struct->memory_addr;
 121:arch/riscv/mach-gd32vf10x/bsp/gd32vf103_dma.c **** 
 122:arch/riscv/mach-gd32vf10x/bsp/gd32vf103_dma.c ****     /* configure the number of remaining data to be transferred */
 123:arch/riscv/mach-gd32vf10x/bsp/gd32vf103_dma.c ****     DMA_CHCNT(dma_periph, channelx) = (init_struct->number & DMA_CHANNEL_CNT_MASK);
 124:arch/riscv/mach-gd32vf10x/bsp/gd32vf103_dma.c **** 
 125:arch/riscv/mach-gd32vf10x/bsp/gd32vf103_dma.c ****     /* configure peripheral transfer width,memory transfer width and priority */
 126:arch/riscv/mach-gd32vf10x/bsp/gd32vf103_dma.c ****     ctl = DMA_CHCTL(dma_periph, channelx);
 127:arch/riscv/mach-gd32vf10x/bsp/gd32vf103_dma.c ****     ctl &= ~(DMA_CHXCTL_PWIDTH | DMA_CHXCTL_MWIDTH | DMA_CHXCTL_PRIO);
 128:arch/riscv/mach-gd32vf10x/bsp/gd32vf103_dma.c ****     ctl |= (init_struct->periph_width | init_struct->memory_width | init_struct->priority);
 129:arch/riscv/mach-gd32vf10x/bsp/gd32vf103_dma.c ****     DMA_CHCTL(dma_periph, channelx) = ctl;
 130:arch/riscv/mach-gd32vf10x/bsp/gd32vf103_dma.c **** 
 131:arch/riscv/mach-gd32vf10x/bsp/gd32vf103_dma.c ****     /* configure peripheral increasing mode */
 132:arch/riscv/mach-gd32vf10x/bsp/gd32vf103_dma.c ****     if(DMA_PERIPH_INCREASE_ENABLE == init_struct->periph_inc){
 133:arch/riscv/mach-gd32vf10x/bsp/gd32vf103_dma.c ****         DMA_CHCTL(dma_periph, channelx) |= DMA_CHXCTL_PNAGA;
 134:arch/riscv/mach-gd32vf10x/bsp/gd32vf103_dma.c ****     }else{
 135:arch/riscv/mach-gd32vf10x/bsp/gd32vf103_dma.c ****         DMA_CHCTL(dma_periph, channelx) &= ~DMA_CHXCTL_PNAGA;
 136:arch/riscv/mach-gd32vf10x/bsp/gd32vf103_dma.c ****     }
 137:arch/riscv/mach-gd32vf10x/bsp/gd32vf103_dma.c **** 
 138:arch/riscv/mach-gd32vf10x/bsp/gd32vf103_dma.c ****     /* configure memory increasing mode */
 139:arch/riscv/mach-gd32vf10x/bsp/gd32vf103_dma.c ****     if(DMA_MEMORY_INCREASE_ENABLE == init_struct->memory_inc){
 140:arch/riscv/mach-gd32vf10x/bsp/gd32vf103_dma.c ****         DMA_CHCTL(dma_periph, channelx) |= DMA_CHXCTL_MNAGA;
 141:arch/riscv/mach-gd32vf10x/bsp/gd32vf103_dma.c ****     }else{
 142:arch/riscv/mach-gd32vf10x/bsp/gd32vf103_dma.c ****         DMA_CHCTL(dma_periph, channelx) &= ~DMA_CHXCTL_MNAGA;
 143:arch/riscv/mach-gd32vf10x/bsp/gd32vf103_dma.c ****     }
 144:arch/riscv/mach-gd32vf10x/bsp/gd32vf103_dma.c **** 
 145:arch/riscv/mach-gd32vf10x/bsp/gd32vf103_dma.c ****     /* configure the direction of data transfer */
 146:arch/riscv/mach-gd32vf10x/bsp/gd32vf103_dma.c ****     if(DMA_PERIPHERAL_TO_MEMORY == init_struct->direction){
 147:arch/riscv/mach-gd32vf10x/bsp/gd32vf103_dma.c ****         DMA_CHCTL(dma_periph, channelx) &= ~DMA_CHXCTL_DIR;
 148:arch/riscv/mach-gd32vf10x/bsp/gd32vf103_dma.c ****     }else{
 149:arch/riscv/mach-gd32vf10x/bsp/gd32vf103_dma.c ****         DMA_CHCTL(dma_periph, channelx) |= DMA_CHXCTL_DIR;
 150:arch/riscv/mach-gd32vf10x/bsp/gd32vf103_dma.c ****     }
 151:arch/riscv/mach-gd32vf10x/bsp/gd32vf103_dma.c **** }
 152:arch/riscv/mach-gd32vf10x/bsp/gd32vf103_dma.c **** 
 153:arch/riscv/mach-gd32vf10x/bsp/gd32vf103_dma.c **** /*!
 154:arch/riscv/mach-gd32vf10x/bsp/gd32vf103_dma.c ****     \brief      enable DMA circulation mode
GAS LISTING C:\Users\test\AppData\Local\Temp\ccdvqI39.s 			page 4


 155:arch/riscv/mach-gd32vf10x/bsp/gd32vf103_dma.c ****     \param[in]  dma_periph: DMAx(x=0,1)
 156:arch/riscv/mach-gd32vf10x/bsp/gd32vf103_dma.c ****       \arg        DMAx(x=0,1)
 157:arch/riscv/mach-gd32vf10x/bsp/gd32vf103_dma.c ****     \param[in]  channelx: specify which DMA channel
 158:arch/riscv/mach-gd32vf10x/bsp/gd32vf103_dma.c ****                 only one parameter can be selected which is shown as below:
 159:arch/riscv/mach-gd32vf10x/bsp/gd32vf103_dma.c ****       \arg        DMA0: DMA_CHx(x=0..6), DMA1: DMA_CHx(x=0..4)
 160:arch/riscv/mach-gd32vf10x/bsp/gd32vf103_dma.c ****     \param[out] none
 161:arch/riscv/mach-gd32vf10x/bsp/gd32vf103_dma.c ****     \retval     none
 162:arch/riscv/mach-gd32vf10x/bsp/gd32vf103_dma.c **** */
 163:arch/riscv/mach-gd32vf10x/bsp/gd32vf103_dma.c **** void dma_circulation_enable(uint32_t dma_periph, dma_channel_enum channelx)
 164:arch/riscv/mach-gd32vf10x/bsp/gd32vf103_dma.c **** {
 165:arch/riscv/mach-gd32vf10x/bsp/gd32vf103_dma.c ****     if(ERROR == dma_periph_and_channel_check(dma_periph, channelx)){
 166:arch/riscv/mach-gd32vf10x/bsp/gd32vf103_dma.c ****         DMA_WRONG_HANDLE
 167:arch/riscv/mach-gd32vf10x/bsp/gd32vf103_dma.c ****     }
 168:arch/riscv/mach-gd32vf10x/bsp/gd32vf103_dma.c **** 
 169:arch/riscv/mach-gd32vf10x/bsp/gd32vf103_dma.c ****     DMA_CHCTL(dma_periph, channelx) |= DMA_CHXCTL_CMEN;
 170:arch/riscv/mach-gd32vf10x/bsp/gd32vf103_dma.c **** }
 171:arch/riscv/mach-gd32vf10x/bsp/gd32vf103_dma.c **** 
 172:arch/riscv/mach-gd32vf10x/bsp/gd32vf103_dma.c **** /*!
 173:arch/riscv/mach-gd32vf10x/bsp/gd32vf103_dma.c ****     \brief      disable DMA circulation mode
 174:arch/riscv/mach-gd32vf10x/bsp/gd32vf103_dma.c ****     \param[in]  dma_periph: DMAx(x=0,1)
 175:arch/riscv/mach-gd32vf10x/bsp/gd32vf103_dma.c ****       \arg        DMAx(x=0,1)
 176:arch/riscv/mach-gd32vf10x/bsp/gd32vf103_dma.c ****     \param[in]  channelx: specify which DMA channel
 177:arch/riscv/mach-gd32vf10x/bsp/gd32vf103_dma.c ****                 only one parameter can be selected which is shown as below:
 178:arch/riscv/mach-gd32vf10x/bsp/gd32vf103_dma.c ****       \arg        DMA0: DMA_CHx(x=0..6), DMA1: DMA_CHx(x=0..4)
 179:arch/riscv/mach-gd32vf10x/bsp/gd32vf103_dma.c ****     \param[out] none
 180:arch/riscv/mach-gd32vf10x/bsp/gd32vf103_dma.c ****     \retval     none
 181:arch/riscv/mach-gd32vf10x/bsp/gd32vf103_dma.c **** */
 182:arch/riscv/mach-gd32vf10x/bsp/gd32vf103_dma.c **** void dma_circulation_disable(uint32_t dma_periph, dma_channel_enum channelx)
 183:arch/riscv/mach-gd32vf10x/bsp/gd32vf103_dma.c **** {
 184:arch/riscv/mach-gd32vf10x/bsp/gd32vf103_dma.c ****     if(ERROR == dma_periph_and_channel_check(dma_periph, channelx)){
 185:arch/riscv/mach-gd32vf10x/bsp/gd32vf103_dma.c ****         DMA_WRONG_HANDLE
 186:arch/riscv/mach-gd32vf10x/bsp/gd32vf103_dma.c ****     }
 187:arch/riscv/mach-gd32vf10x/bsp/gd32vf103_dma.c **** 
 188:arch/riscv/mach-gd32vf10x/bsp/gd32vf103_dma.c ****     DMA_CHCTL(dma_periph, channelx) &= ~DMA_CHXCTL_CMEN;
 189:arch/riscv/mach-gd32vf10x/bsp/gd32vf103_dma.c **** }
 190:arch/riscv/mach-gd32vf10x/bsp/gd32vf103_dma.c **** 
 191:arch/riscv/mach-gd32vf10x/bsp/gd32vf103_dma.c **** /*!
 192:arch/riscv/mach-gd32vf10x/bsp/gd32vf103_dma.c ****     \brief      enable memory to memory mode
 193:arch/riscv/mach-gd32vf10x/bsp/gd32vf103_dma.c ****     \param[in]  dma_periph: DMAx(x=0,1)
 194:arch/riscv/mach-gd32vf10x/bsp/gd32vf103_dma.c ****       \arg        DMAx(x=0,1)
 195:arch/riscv/mach-gd32vf10x/bsp/gd32vf103_dma.c ****     \param[in]  channelx: specify which DMA channel
 196:arch/riscv/mach-gd32vf10x/bsp/gd32vf103_dma.c ****                 only one parameter can be selected which is shown as below:
 197:arch/riscv/mach-gd32vf10x/bsp/gd32vf103_dma.c ****       \arg        DMA0: DMA_CHx(x=0..6), DMA1: DMA_CHx(x=0..4)
 198:arch/riscv/mach-gd32vf10x/bsp/gd32vf103_dma.c ****     \param[out] none
 199:arch/riscv/mach-gd32vf10x/bsp/gd32vf103_dma.c ****     \retval     none
 200:arch/riscv/mach-gd32vf10x/bsp/gd32vf103_dma.c **** */
 201:arch/riscv/mach-gd32vf10x/bsp/gd32vf103_dma.c **** void dma_memory_to_memory_enable(uint32_t dma_periph, dma_channel_enum channelx)
 202:arch/riscv/mach-gd32vf10x/bsp/gd32vf103_dma.c **** {
 203:arch/riscv/mach-gd32vf10x/bsp/gd32vf103_dma.c ****     if(ERROR == dma_periph_and_channel_check(dma_periph, channelx)){
 204:arch/riscv/mach-gd32vf10x/bsp/gd32vf103_dma.c ****         DMA_WRONG_HANDLE
 205:arch/riscv/mach-gd32vf10x/bsp/gd32vf103_dma.c ****     }
 206:arch/riscv/mach-gd32vf10x/bsp/gd32vf103_dma.c **** 
 207:arch/riscv/mach-gd32vf10x/bsp/gd32vf103_dma.c ****     DMA_CHCTL(dma_periph, channelx) |= DMA_CHXCTL_M2M;
 208:arch/riscv/mach-gd32vf10x/bsp/gd32vf103_dma.c **** }
 209:arch/riscv/mach-gd32vf10x/bsp/gd32vf103_dma.c **** 
 210:arch/riscv/mach-gd32vf10x/bsp/gd32vf103_dma.c **** /*!
 211:arch/riscv/mach-gd32vf10x/bsp/gd32vf103_dma.c ****     \brief      disable memory to memory mode
GAS LISTING C:\Users\test\AppData\Local\Temp\ccdvqI39.s 			page 5


 212:arch/riscv/mach-gd32vf10x/bsp/gd32vf103_dma.c ****     \param[in]  dma_periph: DMAx(x=0,1)
 213:arch/riscv/mach-gd32vf10x/bsp/gd32vf103_dma.c ****       \arg        DMAx(x=0,1)
 214:arch/riscv/mach-gd32vf10x/bsp/gd32vf103_dma.c ****     \param[in]  channelx: specify which DMA channel
 215:arch/riscv/mach-gd32vf10x/bsp/gd32vf103_dma.c ****                 only one parameter can be selected which is shown as below:
 216:arch/riscv/mach-gd32vf10x/bsp/gd32vf103_dma.c ****       \arg        DMA0: DMA_CHx(x=0..6), DMA1: DMA_CHx(x=0..4)
 217:arch/riscv/mach-gd32vf10x/bsp/gd32vf103_dma.c ****     \param[out] none
 218:arch/riscv/mach-gd32vf10x/bsp/gd32vf103_dma.c ****     \retval     none
 219:arch/riscv/mach-gd32vf10x/bsp/gd32vf103_dma.c **** */
 220:arch/riscv/mach-gd32vf10x/bsp/gd32vf103_dma.c **** void dma_memory_to_memory_disable(uint32_t dma_periph, dma_channel_enum channelx)
 221:arch/riscv/mach-gd32vf10x/bsp/gd32vf103_dma.c **** {
 222:arch/riscv/mach-gd32vf10x/bsp/gd32vf103_dma.c ****     if(ERROR == dma_periph_and_channel_check(dma_periph, channelx)){
 223:arch/riscv/mach-gd32vf10x/bsp/gd32vf103_dma.c ****         DMA_WRONG_HANDLE
 224:arch/riscv/mach-gd32vf10x/bsp/gd32vf103_dma.c ****     }
 225:arch/riscv/mach-gd32vf10x/bsp/gd32vf103_dma.c **** 
 226:arch/riscv/mach-gd32vf10x/bsp/gd32vf103_dma.c ****     DMA_CHCTL(dma_periph, channelx) &= ~DMA_CHXCTL_M2M;
 227:arch/riscv/mach-gd32vf10x/bsp/gd32vf103_dma.c **** }
 228:arch/riscv/mach-gd32vf10x/bsp/gd32vf103_dma.c **** 
 229:arch/riscv/mach-gd32vf10x/bsp/gd32vf103_dma.c **** /*!
 230:arch/riscv/mach-gd32vf10x/bsp/gd32vf103_dma.c ****     \brief      enable DMA channel
 231:arch/riscv/mach-gd32vf10x/bsp/gd32vf103_dma.c ****     \param[in]  dma_periph: DMAx(x=0,1)
 232:arch/riscv/mach-gd32vf10x/bsp/gd32vf103_dma.c ****       \arg        DMAx(x=0,1)
 233:arch/riscv/mach-gd32vf10x/bsp/gd32vf103_dma.c ****     \param[in]  channelx: specify which DMA channel
 234:arch/riscv/mach-gd32vf10x/bsp/gd32vf103_dma.c ****                 only one parameter can be selected which is shown as below:
 235:arch/riscv/mach-gd32vf10x/bsp/gd32vf103_dma.c ****       \arg        DMA0: DMA_CHx(x=0..6), DMA1: DMA_CHx(x=0..4)
 236:arch/riscv/mach-gd32vf10x/bsp/gd32vf103_dma.c ****     \param[out] none
 237:arch/riscv/mach-gd32vf10x/bsp/gd32vf103_dma.c ****     \retval     none
 238:arch/riscv/mach-gd32vf10x/bsp/gd32vf103_dma.c **** */
 239:arch/riscv/mach-gd32vf10x/bsp/gd32vf103_dma.c **** void dma_channel_enable(uint32_t dma_periph, dma_channel_enum channelx)
 240:arch/riscv/mach-gd32vf10x/bsp/gd32vf103_dma.c **** {
 241:arch/riscv/mach-gd32vf10x/bsp/gd32vf103_dma.c ****     if(ERROR == dma_periph_and_channel_check(dma_periph, channelx)){
 242:arch/riscv/mach-gd32vf10x/bsp/gd32vf103_dma.c ****         DMA_WRONG_HANDLE
 243:arch/riscv/mach-gd32vf10x/bsp/gd32vf103_dma.c ****     }
 244:arch/riscv/mach-gd32vf10x/bsp/gd32vf103_dma.c **** 
 245:arch/riscv/mach-gd32vf10x/bsp/gd32vf103_dma.c ****     DMA_CHCTL(dma_periph, channelx) |= DMA_CHXCTL_CHEN;
 246:arch/riscv/mach-gd32vf10x/bsp/gd32vf103_dma.c **** }
 247:arch/riscv/mach-gd32vf10x/bsp/gd32vf103_dma.c **** 
 248:arch/riscv/mach-gd32vf10x/bsp/gd32vf103_dma.c **** /*!
 249:arch/riscv/mach-gd32vf10x/bsp/gd32vf103_dma.c ****     \brief      disable DMA channel
 250:arch/riscv/mach-gd32vf10x/bsp/gd32vf103_dma.c ****     \param[in]  dma_periph: DMAx(x=0,1)
 251:arch/riscv/mach-gd32vf10x/bsp/gd32vf103_dma.c ****       \arg        DMAx(x=0,1)
 252:arch/riscv/mach-gd32vf10x/bsp/gd32vf103_dma.c ****     \param[in]  channelx: specify which DMA channel
 253:arch/riscv/mach-gd32vf10x/bsp/gd32vf103_dma.c ****                 only one parameter can be selected which is shown as below:
 254:arch/riscv/mach-gd32vf10x/bsp/gd32vf103_dma.c ****       \arg        DMA0: DMA_CHx(x=0..6), DMA1: DMA_CHx(x=0..4)
 255:arch/riscv/mach-gd32vf10x/bsp/gd32vf103_dma.c ****     \param[out] none
 256:arch/riscv/mach-gd32vf10x/bsp/gd32vf103_dma.c ****     \retval     none
 257:arch/riscv/mach-gd32vf10x/bsp/gd32vf103_dma.c **** */
 258:arch/riscv/mach-gd32vf10x/bsp/gd32vf103_dma.c **** void dma_channel_disable(uint32_t dma_periph, dma_channel_enum channelx)
 259:arch/riscv/mach-gd32vf10x/bsp/gd32vf103_dma.c **** {
 260:arch/riscv/mach-gd32vf10x/bsp/gd32vf103_dma.c ****     if(ERROR == dma_periph_and_channel_check(dma_periph, channelx)){
 261:arch/riscv/mach-gd32vf10x/bsp/gd32vf103_dma.c ****         DMA_WRONG_HANDLE
 262:arch/riscv/mach-gd32vf10x/bsp/gd32vf103_dma.c ****     }
 263:arch/riscv/mach-gd32vf10x/bsp/gd32vf103_dma.c **** 
 264:arch/riscv/mach-gd32vf10x/bsp/gd32vf103_dma.c ****     DMA_CHCTL(dma_periph, channelx) &= ~DMA_CHXCTL_CHEN;
 265:arch/riscv/mach-gd32vf10x/bsp/gd32vf103_dma.c **** }
 266:arch/riscv/mach-gd32vf10x/bsp/gd32vf103_dma.c **** 
 267:arch/riscv/mach-gd32vf10x/bsp/gd32vf103_dma.c **** /*!
 268:arch/riscv/mach-gd32vf10x/bsp/gd32vf103_dma.c ****     \brief      set DMA peripheral base address
GAS LISTING C:\Users\test\AppData\Local\Temp\ccdvqI39.s 			page 6


 269:arch/riscv/mach-gd32vf10x/bsp/gd32vf103_dma.c ****     \param[in]  dma_periph: DMAx(x=0,1)
 270:arch/riscv/mach-gd32vf10x/bsp/gd32vf103_dma.c ****       \arg        DMAx(x=0,1)
 271:arch/riscv/mach-gd32vf10x/bsp/gd32vf103_dma.c ****     \param[in]  channelx: specify which DMA channel to set peripheral base address
 272:arch/riscv/mach-gd32vf10x/bsp/gd32vf103_dma.c ****                 only one parameter can be selected which is shown as below:
 273:arch/riscv/mach-gd32vf10x/bsp/gd32vf103_dma.c ****       \arg        DMA0: DMA_CHx(x=0..6), DMA1: DMA_CHx(x=0..4)
 274:arch/riscv/mach-gd32vf10x/bsp/gd32vf103_dma.c ****     \param[in]  address: peripheral base address
 275:arch/riscv/mach-gd32vf10x/bsp/gd32vf103_dma.c ****     \param[out] none
 276:arch/riscv/mach-gd32vf10x/bsp/gd32vf103_dma.c ****     \retval     none
 277:arch/riscv/mach-gd32vf10x/bsp/gd32vf103_dma.c **** */
 278:arch/riscv/mach-gd32vf10x/bsp/gd32vf103_dma.c **** void dma_periph_address_config(uint32_t dma_periph, dma_channel_enum channelx, uint32_t address)
 279:arch/riscv/mach-gd32vf10x/bsp/gd32vf103_dma.c **** {
 280:arch/riscv/mach-gd32vf10x/bsp/gd32vf103_dma.c ****     if(ERROR == dma_periph_and_channel_check(dma_periph, channelx)){
 281:arch/riscv/mach-gd32vf10x/bsp/gd32vf103_dma.c ****         DMA_WRONG_HANDLE
 282:arch/riscv/mach-gd32vf10x/bsp/gd32vf103_dma.c ****     }
 283:arch/riscv/mach-gd32vf10x/bsp/gd32vf103_dma.c **** 
 284:arch/riscv/mach-gd32vf10x/bsp/gd32vf103_dma.c ****     DMA_CHPADDR(dma_periph, channelx) = address;
 285:arch/riscv/mach-gd32vf10x/bsp/gd32vf103_dma.c **** }
 286:arch/riscv/mach-gd32vf10x/bsp/gd32vf103_dma.c **** 
 287:arch/riscv/mach-gd32vf10x/bsp/gd32vf103_dma.c **** /*!
 288:arch/riscv/mach-gd32vf10x/bsp/gd32vf103_dma.c ****     \brief      set DMA memory base address
 289:arch/riscv/mach-gd32vf10x/bsp/gd32vf103_dma.c ****     \param[in]  dma_periph: DMAx(x=0,1)
 290:arch/riscv/mach-gd32vf10x/bsp/gd32vf103_dma.c ****       \arg        DMAx(x=0,1)
 291:arch/riscv/mach-gd32vf10x/bsp/gd32vf103_dma.c ****     \param[in]  channelx: specify which DMA channel to set memory base address
 292:arch/riscv/mach-gd32vf10x/bsp/gd32vf103_dma.c ****                 only one parameter can be selected which is shown as below:
 293:arch/riscv/mach-gd32vf10x/bsp/gd32vf103_dma.c ****       \arg        DMA0: DMA_CHx(x=0..6), DMA1: DMA_CHx(x=0..4)
 294:arch/riscv/mach-gd32vf10x/bsp/gd32vf103_dma.c ****     \param[in]  address: memory base address
 295:arch/riscv/mach-gd32vf10x/bsp/gd32vf103_dma.c ****     \param[out] none
 296:arch/riscv/mach-gd32vf10x/bsp/gd32vf103_dma.c ****     \retval     none
 297:arch/riscv/mach-gd32vf10x/bsp/gd32vf103_dma.c **** */
 298:arch/riscv/mach-gd32vf10x/bsp/gd32vf103_dma.c **** void dma_memory_address_config(uint32_t dma_periph, dma_channel_enum channelx, uint32_t address)
 299:arch/riscv/mach-gd32vf10x/bsp/gd32vf103_dma.c **** {
 300:arch/riscv/mach-gd32vf10x/bsp/gd32vf103_dma.c ****     if(ERROR == dma_periph_and_channel_check(dma_periph, channelx)){
 301:arch/riscv/mach-gd32vf10x/bsp/gd32vf103_dma.c ****         DMA_WRONG_HANDLE
 302:arch/riscv/mach-gd32vf10x/bsp/gd32vf103_dma.c ****     }
 303:arch/riscv/mach-gd32vf10x/bsp/gd32vf103_dma.c **** 
 304:arch/riscv/mach-gd32vf10x/bsp/gd32vf103_dma.c ****     DMA_CHMADDR(dma_periph, channelx) = address;
 305:arch/riscv/mach-gd32vf10x/bsp/gd32vf103_dma.c **** }
 306:arch/riscv/mach-gd32vf10x/bsp/gd32vf103_dma.c **** 
 307:arch/riscv/mach-gd32vf10x/bsp/gd32vf103_dma.c **** /*!
 308:arch/riscv/mach-gd32vf10x/bsp/gd32vf103_dma.c ****     \brief      set the number of remaining data to be transferred by the DMA
 309:arch/riscv/mach-gd32vf10x/bsp/gd32vf103_dma.c ****     \param[in]  dma_periph: DMAx(x=0,1)
 310:arch/riscv/mach-gd32vf10x/bsp/gd32vf103_dma.c ****       \arg        DMAx(x=0,1)
 311:arch/riscv/mach-gd32vf10x/bsp/gd32vf103_dma.c ****     \param[in]  channelx: specify which DMA channel to set number
 312:arch/riscv/mach-gd32vf10x/bsp/gd32vf103_dma.c ****                 only one parameter can be selected which is shown as below:
 313:arch/riscv/mach-gd32vf10x/bsp/gd32vf103_dma.c ****       \arg        DMA0: DMA_CHx(x=0..6), DMA1: DMA_CHx(x=0..4)
 314:arch/riscv/mach-gd32vf10x/bsp/gd32vf103_dma.c ****     \param[in]  number: the number of remaining data to be transferred by the DMA
 315:arch/riscv/mach-gd32vf10x/bsp/gd32vf103_dma.c ****     \param[out] none
 316:arch/riscv/mach-gd32vf10x/bsp/gd32vf103_dma.c ****     \retval     none
 317:arch/riscv/mach-gd32vf10x/bsp/gd32vf103_dma.c **** */
 318:arch/riscv/mach-gd32vf10x/bsp/gd32vf103_dma.c **** void dma_transfer_number_config(uint32_t dma_periph, dma_channel_enum channelx, uint32_t number)
 319:arch/riscv/mach-gd32vf10x/bsp/gd32vf103_dma.c **** {
 320:arch/riscv/mach-gd32vf10x/bsp/gd32vf103_dma.c ****     if(ERROR == dma_periph_and_channel_check(dma_periph, channelx)){
 321:arch/riscv/mach-gd32vf10x/bsp/gd32vf103_dma.c ****         DMA_WRONG_HANDLE
 322:arch/riscv/mach-gd32vf10x/bsp/gd32vf103_dma.c ****     }
 323:arch/riscv/mach-gd32vf10x/bsp/gd32vf103_dma.c **** 
 324:arch/riscv/mach-gd32vf10x/bsp/gd32vf103_dma.c ****     DMA_CHCNT(dma_periph, channelx) = (number & DMA_CHANNEL_CNT_MASK);
 325:arch/riscv/mach-gd32vf10x/bsp/gd32vf103_dma.c **** }
GAS LISTING C:\Users\test\AppData\Local\Temp\ccdvqI39.s 			page 7


 326:arch/riscv/mach-gd32vf10x/bsp/gd32vf103_dma.c **** 
 327:arch/riscv/mach-gd32vf10x/bsp/gd32vf103_dma.c **** /*!
 328:arch/riscv/mach-gd32vf10x/bsp/gd32vf103_dma.c ****     \brief      get the number of remaining data to be transferred by the DMA
 329:arch/riscv/mach-gd32vf10x/bsp/gd32vf103_dma.c ****     \param[in]  dma_periph: DMAx(x=0,1)
 330:arch/riscv/mach-gd32vf10x/bsp/gd32vf103_dma.c ****       \arg        DMAx(x=0,1)
 331:arch/riscv/mach-gd32vf10x/bsp/gd32vf103_dma.c ****     \param[in]  channelx: specify which DMA channel to set number
 332:arch/riscv/mach-gd32vf10x/bsp/gd32vf103_dma.c ****                 only one parameter can be selected which is shown as below:
 333:arch/riscv/mach-gd32vf10x/bsp/gd32vf103_dma.c ****       \arg        DMA0: DMA_CHx(x=0..6), DMA1: DMA_CHx(x=0..4)
 334:arch/riscv/mach-gd32vf10x/bsp/gd32vf103_dma.c ****     \param[out] none
 335:arch/riscv/mach-gd32vf10x/bsp/gd32vf103_dma.c ****     \retval     uint32_t: the number of remaining data to be transferred by the DMA
 336:arch/riscv/mach-gd32vf10x/bsp/gd32vf103_dma.c **** */
 337:arch/riscv/mach-gd32vf10x/bsp/gd32vf103_dma.c **** uint32_t dma_transfer_number_get(uint32_t dma_periph, dma_channel_enum channelx)
 338:arch/riscv/mach-gd32vf10x/bsp/gd32vf103_dma.c **** {
 339:arch/riscv/mach-gd32vf10x/bsp/gd32vf103_dma.c ****     if(ERROR == dma_periph_and_channel_check(dma_periph, channelx)){
 340:arch/riscv/mach-gd32vf10x/bsp/gd32vf103_dma.c ****         DMA_WRONG_HANDLE
 341:arch/riscv/mach-gd32vf10x/bsp/gd32vf103_dma.c ****     }
 342:arch/riscv/mach-gd32vf10x/bsp/gd32vf103_dma.c **** 
 343:arch/riscv/mach-gd32vf10x/bsp/gd32vf103_dma.c ****     return (uint32_t)DMA_CHCNT(dma_periph, channelx);
 344:arch/riscv/mach-gd32vf10x/bsp/gd32vf103_dma.c **** }
 345:arch/riscv/mach-gd32vf10x/bsp/gd32vf103_dma.c **** 
 346:arch/riscv/mach-gd32vf10x/bsp/gd32vf103_dma.c **** /*!
 347:arch/riscv/mach-gd32vf10x/bsp/gd32vf103_dma.c ****     \brief      configure priority level of DMA channel
 348:arch/riscv/mach-gd32vf10x/bsp/gd32vf103_dma.c ****     \param[in]  dma_periph: DMAx(x=0,1)
 349:arch/riscv/mach-gd32vf10x/bsp/gd32vf103_dma.c ****       \arg        DMAx(x=0,1)
 350:arch/riscv/mach-gd32vf10x/bsp/gd32vf103_dma.c ****     \param[in]  channelx: specify which DMA channel
 351:arch/riscv/mach-gd32vf10x/bsp/gd32vf103_dma.c ****                 only one parameter can be selected which is shown as below:
 352:arch/riscv/mach-gd32vf10x/bsp/gd32vf103_dma.c ****       \arg        DMA0: DMA_CHx(x=0..6), DMA1: DMA_CHx(x=0..4)
 353:arch/riscv/mach-gd32vf10x/bsp/gd32vf103_dma.c ****     \param[in]  priority: priority Level of this channel
 354:arch/riscv/mach-gd32vf10x/bsp/gd32vf103_dma.c ****                 only one parameter can be selected which is shown as below:
 355:arch/riscv/mach-gd32vf10x/bsp/gd32vf103_dma.c ****       \arg        DMA_PRIORITY_LOW: low priority
 356:arch/riscv/mach-gd32vf10x/bsp/gd32vf103_dma.c ****       \arg        DMA_PRIORITY_MEDIUM: medium priority
 357:arch/riscv/mach-gd32vf10x/bsp/gd32vf103_dma.c ****       \arg        DMA_PRIORITY_HIGH: high priority
 358:arch/riscv/mach-gd32vf10x/bsp/gd32vf103_dma.c ****       \arg        DMA_PRIORITY_ULTRA_HIGH: ultra high priority
 359:arch/riscv/mach-gd32vf10x/bsp/gd32vf103_dma.c ****     \param[out] none
 360:arch/riscv/mach-gd32vf10x/bsp/gd32vf103_dma.c ****     \retval     none
 361:arch/riscv/mach-gd32vf10x/bsp/gd32vf103_dma.c **** */
 362:arch/riscv/mach-gd32vf10x/bsp/gd32vf103_dma.c **** void dma_priority_config(uint32_t dma_periph, dma_channel_enum channelx, uint32_t priority)
 363:arch/riscv/mach-gd32vf10x/bsp/gd32vf103_dma.c **** {
 364:arch/riscv/mach-gd32vf10x/bsp/gd32vf103_dma.c ****     uint32_t ctl;
 365:arch/riscv/mach-gd32vf10x/bsp/gd32vf103_dma.c **** 
 366:arch/riscv/mach-gd32vf10x/bsp/gd32vf103_dma.c ****     if(ERROR == dma_periph_and_channel_check(dma_periph, channelx)){
 367:arch/riscv/mach-gd32vf10x/bsp/gd32vf103_dma.c ****         DMA_WRONG_HANDLE
 368:arch/riscv/mach-gd32vf10x/bsp/gd32vf103_dma.c ****     }
 369:arch/riscv/mach-gd32vf10x/bsp/gd32vf103_dma.c **** 
 370:arch/riscv/mach-gd32vf10x/bsp/gd32vf103_dma.c ****     /* acquire DMA_CHxCTL register */
 371:arch/riscv/mach-gd32vf10x/bsp/gd32vf103_dma.c ****     ctl = DMA_CHCTL(dma_periph, channelx);
 372:arch/riscv/mach-gd32vf10x/bsp/gd32vf103_dma.c ****     /* assign regiser */
 373:arch/riscv/mach-gd32vf10x/bsp/gd32vf103_dma.c ****     ctl &= ~DMA_CHXCTL_PRIO;
 374:arch/riscv/mach-gd32vf10x/bsp/gd32vf103_dma.c ****     ctl |= priority;
 375:arch/riscv/mach-gd32vf10x/bsp/gd32vf103_dma.c ****     DMA_CHCTL(dma_periph, channelx) = ctl;
 376:arch/riscv/mach-gd32vf10x/bsp/gd32vf103_dma.c **** }
 377:arch/riscv/mach-gd32vf10x/bsp/gd32vf103_dma.c **** 
 378:arch/riscv/mach-gd32vf10x/bsp/gd32vf103_dma.c **** /*!
 379:arch/riscv/mach-gd32vf10x/bsp/gd32vf103_dma.c ****     \brief      configure transfer data size of memory
 380:arch/riscv/mach-gd32vf10x/bsp/gd32vf103_dma.c ****     \param[in]  dma_periph: DMAx(x=0,1)
 381:arch/riscv/mach-gd32vf10x/bsp/gd32vf103_dma.c ****       \arg        DMAx(x=0,1)
 382:arch/riscv/mach-gd32vf10x/bsp/gd32vf103_dma.c ****     \param[in]  channelx: specify which DMA channel
GAS LISTING C:\Users\test\AppData\Local\Temp\ccdvqI39.s 			page 8


 383:arch/riscv/mach-gd32vf10x/bsp/gd32vf103_dma.c ****                 only one parameter can be selected which is shown as below:
 384:arch/riscv/mach-gd32vf10x/bsp/gd32vf103_dma.c ****       \arg        DMA0: DMA_CHx(x=0..6), DMA1: DMA_CHx(x=0..4)
 385:arch/riscv/mach-gd32vf10x/bsp/gd32vf103_dma.c ****     \param[in]  mwidth: transfer data width of memory
 386:arch/riscv/mach-gd32vf10x/bsp/gd32vf103_dma.c ****                 only one parameter can be selected which is shown as below:
 387:arch/riscv/mach-gd32vf10x/bsp/gd32vf103_dma.c ****       \arg        DMA_MEMORY_WIDTH_8BIT: transfer data width of memory is 8-bit
 388:arch/riscv/mach-gd32vf10x/bsp/gd32vf103_dma.c ****       \arg        DMA_MEMORY_WIDTH_16BIT: transfer data width of memory is 16-bit
 389:arch/riscv/mach-gd32vf10x/bsp/gd32vf103_dma.c ****       \arg        DMA_MEMORY_WIDTH_32BIT: transfer data width of memory is 32-bit
 390:arch/riscv/mach-gd32vf10x/bsp/gd32vf103_dma.c ****     \param[out] none
 391:arch/riscv/mach-gd32vf10x/bsp/gd32vf103_dma.c ****     \retval     none
 392:arch/riscv/mach-gd32vf10x/bsp/gd32vf103_dma.c **** */
 393:arch/riscv/mach-gd32vf10x/bsp/gd32vf103_dma.c **** void dma_memory_width_config(uint32_t dma_periph, dma_channel_enum channelx, uint32_t mwidth)
 394:arch/riscv/mach-gd32vf10x/bsp/gd32vf103_dma.c **** {
 395:arch/riscv/mach-gd32vf10x/bsp/gd32vf103_dma.c ****     uint32_t ctl;
 396:arch/riscv/mach-gd32vf10x/bsp/gd32vf103_dma.c **** 
 397:arch/riscv/mach-gd32vf10x/bsp/gd32vf103_dma.c ****     if(ERROR == dma_periph_and_channel_check(dma_periph, channelx)){
 398:arch/riscv/mach-gd32vf10x/bsp/gd32vf103_dma.c ****         DMA_WRONG_HANDLE
 399:arch/riscv/mach-gd32vf10x/bsp/gd32vf103_dma.c ****     }
 400:arch/riscv/mach-gd32vf10x/bsp/gd32vf103_dma.c **** 
 401:arch/riscv/mach-gd32vf10x/bsp/gd32vf103_dma.c ****     /* acquire DMA_CHxCTL register */
 402:arch/riscv/mach-gd32vf10x/bsp/gd32vf103_dma.c ****     ctl = DMA_CHCTL(dma_periph, channelx);
 403:arch/riscv/mach-gd32vf10x/bsp/gd32vf103_dma.c ****     /* assign regiser */
 404:arch/riscv/mach-gd32vf10x/bsp/gd32vf103_dma.c ****     ctl &= ~DMA_CHXCTL_MWIDTH;
 405:arch/riscv/mach-gd32vf10x/bsp/gd32vf103_dma.c ****     ctl |= mwidth;
 406:arch/riscv/mach-gd32vf10x/bsp/gd32vf103_dma.c ****     DMA_CHCTL(dma_periph, channelx) = ctl;
 407:arch/riscv/mach-gd32vf10x/bsp/gd32vf103_dma.c **** }
 408:arch/riscv/mach-gd32vf10x/bsp/gd32vf103_dma.c **** 
 409:arch/riscv/mach-gd32vf10x/bsp/gd32vf103_dma.c **** /*!
 410:arch/riscv/mach-gd32vf10x/bsp/gd32vf103_dma.c ****     \brief      configure transfer data size of peripheral
 411:arch/riscv/mach-gd32vf10x/bsp/gd32vf103_dma.c ****     \param[in]  dma_periph: DMAx(x=0,1)
 412:arch/riscv/mach-gd32vf10x/bsp/gd32vf103_dma.c ****       \arg        DMAx(x=0,1)
 413:arch/riscv/mach-gd32vf10x/bsp/gd32vf103_dma.c ****     \param[in]  channelx: specify which DMA channel
 414:arch/riscv/mach-gd32vf10x/bsp/gd32vf103_dma.c ****                 only one parameter can be selected which is shown as below:
 415:arch/riscv/mach-gd32vf10x/bsp/gd32vf103_dma.c ****       \arg        DMA0: DMA_CHx(x=0..6), DMA1: DMA_CHx(x=0..4)
 416:arch/riscv/mach-gd32vf10x/bsp/gd32vf103_dma.c ****     \param[in]  pwidth: transfer data width of peripheral
 417:arch/riscv/mach-gd32vf10x/bsp/gd32vf103_dma.c ****                 only one parameter can be selected which is shown as below:
 418:arch/riscv/mach-gd32vf10x/bsp/gd32vf103_dma.c ****       \arg        DMA_PERIPHERAL_WIDTH_8BIT: transfer data width of peripheral is 8-bit
 419:arch/riscv/mach-gd32vf10x/bsp/gd32vf103_dma.c ****       \arg        DMA_PERIPHERAL_WIDTH_16BIT: transfer data width of peripheral is 16-bit
 420:arch/riscv/mach-gd32vf10x/bsp/gd32vf103_dma.c ****       \arg        DMA_PERIPHERAL_WIDTH_32BIT: transfer data width of peripheral is 32-bit
 421:arch/riscv/mach-gd32vf10x/bsp/gd32vf103_dma.c ****     \param[out] none
 422:arch/riscv/mach-gd32vf10x/bsp/gd32vf103_dma.c ****     \retval     none
 423:arch/riscv/mach-gd32vf10x/bsp/gd32vf103_dma.c **** */
 424:arch/riscv/mach-gd32vf10x/bsp/gd32vf103_dma.c **** void dma_periph_width_config (uint32_t dma_periph, dma_channel_enum channelx, uint32_t pwidth)
 425:arch/riscv/mach-gd32vf10x/bsp/gd32vf103_dma.c **** {
 426:arch/riscv/mach-gd32vf10x/bsp/gd32vf103_dma.c ****     uint32_t ctl;
 427:arch/riscv/mach-gd32vf10x/bsp/gd32vf103_dma.c **** 
 428:arch/riscv/mach-gd32vf10x/bsp/gd32vf103_dma.c ****     if(ERROR == dma_periph_and_channel_check(dma_periph, channelx)){
 429:arch/riscv/mach-gd32vf10x/bsp/gd32vf103_dma.c ****         DMA_WRONG_HANDLE
 430:arch/riscv/mach-gd32vf10x/bsp/gd32vf103_dma.c ****     }
 431:arch/riscv/mach-gd32vf10x/bsp/gd32vf103_dma.c **** 
 432:arch/riscv/mach-gd32vf10x/bsp/gd32vf103_dma.c ****     /* acquire DMA_CHxCTL register */
 433:arch/riscv/mach-gd32vf10x/bsp/gd32vf103_dma.c ****     ctl = DMA_CHCTL(dma_periph, channelx);
 434:arch/riscv/mach-gd32vf10x/bsp/gd32vf103_dma.c ****     /* assign regiser */
 435:arch/riscv/mach-gd32vf10x/bsp/gd32vf103_dma.c ****     ctl &= ~DMA_CHXCTL_PWIDTH;
 436:arch/riscv/mach-gd32vf10x/bsp/gd32vf103_dma.c ****     ctl |= pwidth;
 437:arch/riscv/mach-gd32vf10x/bsp/gd32vf103_dma.c ****     DMA_CHCTL(dma_periph, channelx) = ctl;
 438:arch/riscv/mach-gd32vf10x/bsp/gd32vf103_dma.c **** }
 439:arch/riscv/mach-gd32vf10x/bsp/gd32vf103_dma.c **** 
GAS LISTING C:\Users\test\AppData\Local\Temp\ccdvqI39.s 			page 9


 440:arch/riscv/mach-gd32vf10x/bsp/gd32vf103_dma.c **** /*!
 441:arch/riscv/mach-gd32vf10x/bsp/gd32vf103_dma.c ****     \brief      enable next address increasement algorithm of memory
 442:arch/riscv/mach-gd32vf10x/bsp/gd32vf103_dma.c ****     \param[in]  dma_periph: DMAx(x=0,1)
 443:arch/riscv/mach-gd32vf10x/bsp/gd32vf103_dma.c ****       \arg        DMAx(x=0,1)
 444:arch/riscv/mach-gd32vf10x/bsp/gd32vf103_dma.c ****     \param[in]  channelx: specify which DMA channel
 445:arch/riscv/mach-gd32vf10x/bsp/gd32vf103_dma.c ****                 only one parameter can be selected which is shown as below:
 446:arch/riscv/mach-gd32vf10x/bsp/gd32vf103_dma.c ****       \arg        DMA0: DMA_CHx(x=0..6), DMA1: DMA_CHx(x=0..4)
 447:arch/riscv/mach-gd32vf10x/bsp/gd32vf103_dma.c ****     \param[out] none
 448:arch/riscv/mach-gd32vf10x/bsp/gd32vf103_dma.c ****     \retval     none
 449:arch/riscv/mach-gd32vf10x/bsp/gd32vf103_dma.c **** */
 450:arch/riscv/mach-gd32vf10x/bsp/gd32vf103_dma.c **** void dma_memory_increase_enable(uint32_t dma_periph, dma_channel_enum channelx)
 451:arch/riscv/mach-gd32vf10x/bsp/gd32vf103_dma.c **** {
 452:arch/riscv/mach-gd32vf10x/bsp/gd32vf103_dma.c ****     if(ERROR == dma_periph_and_channel_check(dma_periph, channelx)){
 453:arch/riscv/mach-gd32vf10x/bsp/gd32vf103_dma.c ****         DMA_WRONG_HANDLE
 454:arch/riscv/mach-gd32vf10x/bsp/gd32vf103_dma.c ****     }
 455:arch/riscv/mach-gd32vf10x/bsp/gd32vf103_dma.c **** 
 456:arch/riscv/mach-gd32vf10x/bsp/gd32vf103_dma.c ****     DMA_CHCTL(dma_periph, channelx) |= DMA_CHXCTL_MNAGA;
 457:arch/riscv/mach-gd32vf10x/bsp/gd32vf103_dma.c **** }
 458:arch/riscv/mach-gd32vf10x/bsp/gd32vf103_dma.c **** 
 459:arch/riscv/mach-gd32vf10x/bsp/gd32vf103_dma.c **** /*!
 460:arch/riscv/mach-gd32vf10x/bsp/gd32vf103_dma.c ****     \brief      disable next address increasement algorithm of memory
 461:arch/riscv/mach-gd32vf10x/bsp/gd32vf103_dma.c ****     \param[in]  dma_periph: DMAx(x=0,1)
 462:arch/riscv/mach-gd32vf10x/bsp/gd32vf103_dma.c ****       \arg        DMAx(x=0,1)
 463:arch/riscv/mach-gd32vf10x/bsp/gd32vf103_dma.c ****     \param[in]  channelx: specify which DMA channel
 464:arch/riscv/mach-gd32vf10x/bsp/gd32vf103_dma.c ****                 only one parameter can be selected which is shown as below:
 465:arch/riscv/mach-gd32vf10x/bsp/gd32vf103_dma.c ****       \arg        DMA0: DMA_CHx(x=0..6), DMA1: DMA_CHx(x=0..4)
 466:arch/riscv/mach-gd32vf10x/bsp/gd32vf103_dma.c ****     \param[out] none
 467:arch/riscv/mach-gd32vf10x/bsp/gd32vf103_dma.c ****     \retval     none
 468:arch/riscv/mach-gd32vf10x/bsp/gd32vf103_dma.c **** */
 469:arch/riscv/mach-gd32vf10x/bsp/gd32vf103_dma.c **** void dma_memory_increase_disable(uint32_t dma_periph, dma_channel_enum channelx)
 470:arch/riscv/mach-gd32vf10x/bsp/gd32vf103_dma.c **** {
 471:arch/riscv/mach-gd32vf10x/bsp/gd32vf103_dma.c ****     if(ERROR == dma_periph_and_channel_check(dma_periph, channelx)){
 472:arch/riscv/mach-gd32vf10x/bsp/gd32vf103_dma.c ****         DMA_WRONG_HANDLE
 473:arch/riscv/mach-gd32vf10x/bsp/gd32vf103_dma.c ****     }
 474:arch/riscv/mach-gd32vf10x/bsp/gd32vf103_dma.c **** 
 475:arch/riscv/mach-gd32vf10x/bsp/gd32vf103_dma.c ****     DMA_CHCTL(dma_periph, channelx) &= ~DMA_CHXCTL_MNAGA;
 476:arch/riscv/mach-gd32vf10x/bsp/gd32vf103_dma.c **** }
 477:arch/riscv/mach-gd32vf10x/bsp/gd32vf103_dma.c **** 
 478:arch/riscv/mach-gd32vf10x/bsp/gd32vf103_dma.c **** /*!
 479:arch/riscv/mach-gd32vf10x/bsp/gd32vf103_dma.c ****     \brief      enable next address increasement algorithm of peripheral
 480:arch/riscv/mach-gd32vf10x/bsp/gd32vf103_dma.c ****     \param[in]  dma_periph: DMAx(x=0,1)
 481:arch/riscv/mach-gd32vf10x/bsp/gd32vf103_dma.c ****       \arg        DMAx(x=0,1)
 482:arch/riscv/mach-gd32vf10x/bsp/gd32vf103_dma.c ****     \param[in]  channelx: specify which DMA channel
 483:arch/riscv/mach-gd32vf10x/bsp/gd32vf103_dma.c ****                 only one parameter can be selected which is shown as below:
 484:arch/riscv/mach-gd32vf10x/bsp/gd32vf103_dma.c ****       \arg        DMA0: DMA_CHx(x=0..6), DMA1: DMA_CHx(x=0..4)
 485:arch/riscv/mach-gd32vf10x/bsp/gd32vf103_dma.c ****     \param[out] none
 486:arch/riscv/mach-gd32vf10x/bsp/gd32vf103_dma.c ****     \retval     none
 487:arch/riscv/mach-gd32vf10x/bsp/gd32vf103_dma.c **** */
 488:arch/riscv/mach-gd32vf10x/bsp/gd32vf103_dma.c **** void dma_periph_increase_enable(uint32_t dma_periph, dma_channel_enum channelx)
 489:arch/riscv/mach-gd32vf10x/bsp/gd32vf103_dma.c **** {
 490:arch/riscv/mach-gd32vf10x/bsp/gd32vf103_dma.c ****     if(ERROR == dma_periph_and_channel_check(dma_periph, channelx)){
 491:arch/riscv/mach-gd32vf10x/bsp/gd32vf103_dma.c ****         DMA_WRONG_HANDLE
 492:arch/riscv/mach-gd32vf10x/bsp/gd32vf103_dma.c ****     }
 493:arch/riscv/mach-gd32vf10x/bsp/gd32vf103_dma.c **** 
 494:arch/riscv/mach-gd32vf10x/bsp/gd32vf103_dma.c ****     DMA_CHCTL(dma_periph, channelx) |= DMA_CHXCTL_PNAGA;
 495:arch/riscv/mach-gd32vf10x/bsp/gd32vf103_dma.c **** }
 496:arch/riscv/mach-gd32vf10x/bsp/gd32vf103_dma.c **** 
GAS LISTING C:\Users\test\AppData\Local\Temp\ccdvqI39.s 			page 10


 497:arch/riscv/mach-gd32vf10x/bsp/gd32vf103_dma.c **** /*!
 498:arch/riscv/mach-gd32vf10x/bsp/gd32vf103_dma.c ****     \brief      disable next address increasement algorithm of peripheral
 499:arch/riscv/mach-gd32vf10x/bsp/gd32vf103_dma.c ****     \param[in]  dma_periph: DMAx(x=0,1)
 500:arch/riscv/mach-gd32vf10x/bsp/gd32vf103_dma.c ****       \arg        DMAx(x=0,1)
 501:arch/riscv/mach-gd32vf10x/bsp/gd32vf103_dma.c ****     \param[in]  channelx: specify which DMA channel
 502:arch/riscv/mach-gd32vf10x/bsp/gd32vf103_dma.c ****                 only one parameter can be selected which is shown as below:
 503:arch/riscv/mach-gd32vf10x/bsp/gd32vf103_dma.c ****       \arg        DMA0: DMA_CHx(x=0..6), DMA1: DMA_CHx(x=0..4)
 504:arch/riscv/mach-gd32vf10x/bsp/gd32vf103_dma.c ****     \param[out] none
 505:arch/riscv/mach-gd32vf10x/bsp/gd32vf103_dma.c ****     \retval     none
 506:arch/riscv/mach-gd32vf10x/bsp/gd32vf103_dma.c **** */
 507:arch/riscv/mach-gd32vf10x/bsp/gd32vf103_dma.c **** void dma_periph_increase_disable(uint32_t dma_periph, dma_channel_enum channelx)
 508:arch/riscv/mach-gd32vf10x/bsp/gd32vf103_dma.c **** {
 509:arch/riscv/mach-gd32vf10x/bsp/gd32vf103_dma.c ****     if(ERROR == dma_periph_and_channel_check(dma_periph, channelx)){
 510:arch/riscv/mach-gd32vf10x/bsp/gd32vf103_dma.c ****         DMA_WRONG_HANDLE
 511:arch/riscv/mach-gd32vf10x/bsp/gd32vf103_dma.c ****     }
 512:arch/riscv/mach-gd32vf10x/bsp/gd32vf103_dma.c **** 
 513:arch/riscv/mach-gd32vf10x/bsp/gd32vf103_dma.c ****     DMA_CHCTL(dma_periph, channelx) &= ~DMA_CHXCTL_PNAGA;
 514:arch/riscv/mach-gd32vf10x/bsp/gd32vf103_dma.c **** }
 515:arch/riscv/mach-gd32vf10x/bsp/gd32vf103_dma.c **** 
 516:arch/riscv/mach-gd32vf10x/bsp/gd32vf103_dma.c **** /*!
 517:arch/riscv/mach-gd32vf10x/bsp/gd32vf103_dma.c ****     \brief      configure the direction of data transfer on the channel
 518:arch/riscv/mach-gd32vf10x/bsp/gd32vf103_dma.c ****     \param[in]  dma_periph: DMAx(x=0,1)
 519:arch/riscv/mach-gd32vf10x/bsp/gd32vf103_dma.c ****       \arg        DMAx(x=0,1)
 520:arch/riscv/mach-gd32vf10x/bsp/gd32vf103_dma.c ****     \param[in]  channelx: specify which DMA channel
 521:arch/riscv/mach-gd32vf10x/bsp/gd32vf103_dma.c ****                 only one parameter can be selected which is shown as below:
 522:arch/riscv/mach-gd32vf10x/bsp/gd32vf103_dma.c ****       \arg        DMA0: DMA_CHx(x=0..6), DMA1: DMA_CHx(x=0..4)
 523:arch/riscv/mach-gd32vf10x/bsp/gd32vf103_dma.c ****     \param[in]  direction: specify the direction of data transfer
 524:arch/riscv/mach-gd32vf10x/bsp/gd32vf103_dma.c ****                 only one parameter can be selected which is shown as below:
 525:arch/riscv/mach-gd32vf10x/bsp/gd32vf103_dma.c ****       \arg        DMA_PERIPHERAL_TO_MEMORY: read from peripheral and write to memory
 526:arch/riscv/mach-gd32vf10x/bsp/gd32vf103_dma.c ****       \arg        DMA_MEMORY_TO_PERIPHERAL: read from memory and write to peripheral
 527:arch/riscv/mach-gd32vf10x/bsp/gd32vf103_dma.c ****     \param[out] none
 528:arch/riscv/mach-gd32vf10x/bsp/gd32vf103_dma.c ****     \retval     none
 529:arch/riscv/mach-gd32vf10x/bsp/gd32vf103_dma.c **** */
 530:arch/riscv/mach-gd32vf10x/bsp/gd32vf103_dma.c **** void dma_transfer_direction_config(uint32_t dma_periph, dma_channel_enum channelx, uint32_t directi
 531:arch/riscv/mach-gd32vf10x/bsp/gd32vf103_dma.c **** {
 532:arch/riscv/mach-gd32vf10x/bsp/gd32vf103_dma.c ****     if(ERROR == dma_periph_and_channel_check(dma_periph, channelx)){
 533:arch/riscv/mach-gd32vf10x/bsp/gd32vf103_dma.c ****         DMA_WRONG_HANDLE
 534:arch/riscv/mach-gd32vf10x/bsp/gd32vf103_dma.c ****     }
 535:arch/riscv/mach-gd32vf10x/bsp/gd32vf103_dma.c **** 
 536:arch/riscv/mach-gd32vf10x/bsp/gd32vf103_dma.c ****     if(DMA_PERIPHERAL_TO_MEMORY == direction){
 537:arch/riscv/mach-gd32vf10x/bsp/gd32vf103_dma.c ****         DMA_CHCTL(dma_periph, channelx) &= ~DMA_CHXCTL_DIR;
 538:arch/riscv/mach-gd32vf10x/bsp/gd32vf103_dma.c ****     } else {
 539:arch/riscv/mach-gd32vf10x/bsp/gd32vf103_dma.c ****         DMA_CHCTL(dma_periph, channelx) |= DMA_CHXCTL_DIR;
 540:arch/riscv/mach-gd32vf10x/bsp/gd32vf103_dma.c ****     }
 541:arch/riscv/mach-gd32vf10x/bsp/gd32vf103_dma.c **** }
 542:arch/riscv/mach-gd32vf10x/bsp/gd32vf103_dma.c **** 
 543:arch/riscv/mach-gd32vf10x/bsp/gd32vf103_dma.c **** /*!
 544:arch/riscv/mach-gd32vf10x/bsp/gd32vf103_dma.c ****     \brief      check DMA flag is set or not
 545:arch/riscv/mach-gd32vf10x/bsp/gd32vf103_dma.c ****     \param[in]  dma_periph: DMAx(x=0,1)
 546:arch/riscv/mach-gd32vf10x/bsp/gd32vf103_dma.c ****       \arg        DMAx(x=0,1)
 547:arch/riscv/mach-gd32vf10x/bsp/gd32vf103_dma.c ****     \param[in]  channelx: specify which DMA channel to get flag
 548:arch/riscv/mach-gd32vf10x/bsp/gd32vf103_dma.c ****                 only one parameter can be selected which is shown as below:
 549:arch/riscv/mach-gd32vf10x/bsp/gd32vf103_dma.c ****       \arg        DMA0: DMA_CHx(x=0..6), DMA1: DMA_CHx(x=0..4)
 550:arch/riscv/mach-gd32vf10x/bsp/gd32vf103_dma.c ****     \param[in]  flag: specify get which flag
 551:arch/riscv/mach-gd32vf10x/bsp/gd32vf103_dma.c ****                 only one parameter can be selected which is shown as below:
 552:arch/riscv/mach-gd32vf10x/bsp/gd32vf103_dma.c ****       \arg        DMA_FLAG_G: global interrupt flag of channel
 553:arch/riscv/mach-gd32vf10x/bsp/gd32vf103_dma.c ****       \arg        DMA_FLAG_FTF: full transfer finish flag of channel
GAS LISTING C:\Users\test\AppData\Local\Temp\ccdvqI39.s 			page 11


 554:arch/riscv/mach-gd32vf10x/bsp/gd32vf103_dma.c ****       \arg        DMA_FLAG_HTF: half transfer finish flag of channel
 555:arch/riscv/mach-gd32vf10x/bsp/gd32vf103_dma.c ****       \arg        DMA_FLAG_ERR: error flag of channel
 556:arch/riscv/mach-gd32vf10x/bsp/gd32vf103_dma.c ****     \param[out] none
 557:arch/riscv/mach-gd32vf10x/bsp/gd32vf103_dma.c ****     \retval     FlagStatus: SET or RESET
 558:arch/riscv/mach-gd32vf10x/bsp/gd32vf103_dma.c **** */
 559:arch/riscv/mach-gd32vf10x/bsp/gd32vf103_dma.c **** FlagStatus dma_flag_get(uint32_t dma_periph, dma_channel_enum channelx, uint32_t flag)
 560:arch/riscv/mach-gd32vf10x/bsp/gd32vf103_dma.c **** {
 561:arch/riscv/mach-gd32vf10x/bsp/gd32vf103_dma.c ****     FlagStatus reval;
 562:arch/riscv/mach-gd32vf10x/bsp/gd32vf103_dma.c **** 
 563:arch/riscv/mach-gd32vf10x/bsp/gd32vf103_dma.c ****     if(RESET != (DMA_INTF(dma_periph) & DMA_FLAG_ADD(flag, channelx))){
 564:arch/riscv/mach-gd32vf10x/bsp/gd32vf103_dma.c ****         reval = SET;
 565:arch/riscv/mach-gd32vf10x/bsp/gd32vf103_dma.c ****     }else{
 566:arch/riscv/mach-gd32vf10x/bsp/gd32vf103_dma.c ****         reval = RESET;
 567:arch/riscv/mach-gd32vf10x/bsp/gd32vf103_dma.c ****     }
 568:arch/riscv/mach-gd32vf10x/bsp/gd32vf103_dma.c **** 
 569:arch/riscv/mach-gd32vf10x/bsp/gd32vf103_dma.c ****     return reval;
 570:arch/riscv/mach-gd32vf10x/bsp/gd32vf103_dma.c **** }
 571:arch/riscv/mach-gd32vf10x/bsp/gd32vf103_dma.c **** 
 572:arch/riscv/mach-gd32vf10x/bsp/gd32vf103_dma.c **** /*!
 573:arch/riscv/mach-gd32vf10x/bsp/gd32vf103_dma.c ****     \brief      clear DMA a channel flag
 574:arch/riscv/mach-gd32vf10x/bsp/gd32vf103_dma.c ****     \param[in]  dma_periph: DMAx(x=0,1)
 575:arch/riscv/mach-gd32vf10x/bsp/gd32vf103_dma.c ****       \arg        DMAx(x=0,1)
 576:arch/riscv/mach-gd32vf10x/bsp/gd32vf103_dma.c ****     \param[in]  channelx: specify which DMA channel to clear flag
 577:arch/riscv/mach-gd32vf10x/bsp/gd32vf103_dma.c ****                 only one parameter can be selected which is shown as below:
 578:arch/riscv/mach-gd32vf10x/bsp/gd32vf103_dma.c ****       \arg        DMA0: DMA_CHx(x=0..6), DMA1: DMA_CHx(x=0..4)
 579:arch/riscv/mach-gd32vf10x/bsp/gd32vf103_dma.c ****     \param[in]  flag: specify get which flag
 580:arch/riscv/mach-gd32vf10x/bsp/gd32vf103_dma.c ****                 only one parameter can be selected which is shown as below:
 581:arch/riscv/mach-gd32vf10x/bsp/gd32vf103_dma.c ****       \arg        DMA_FLAG_G: global interrupt flag of channel
 582:arch/riscv/mach-gd32vf10x/bsp/gd32vf103_dma.c ****       \arg        DMA_FLAG_FTF: full transfer finish flag of channel
 583:arch/riscv/mach-gd32vf10x/bsp/gd32vf103_dma.c ****       \arg        DMA_FLAG_HTF: half transfer finish flag of channel
 584:arch/riscv/mach-gd32vf10x/bsp/gd32vf103_dma.c ****       \arg        DMA_FLAG_ERR: error flag of channel
 585:arch/riscv/mach-gd32vf10x/bsp/gd32vf103_dma.c ****     \param[out] none
 586:arch/riscv/mach-gd32vf10x/bsp/gd32vf103_dma.c ****     \retval     none
 587:arch/riscv/mach-gd32vf10x/bsp/gd32vf103_dma.c **** */
 588:arch/riscv/mach-gd32vf10x/bsp/gd32vf103_dma.c **** void dma_flag_clear(uint32_t dma_periph, dma_channel_enum channelx, uint32_t flag)
 589:arch/riscv/mach-gd32vf10x/bsp/gd32vf103_dma.c **** {
 590:arch/riscv/mach-gd32vf10x/bsp/gd32vf103_dma.c ****     DMA_INTC(dma_periph) |= DMA_FLAG_ADD(flag, channelx);
 591:arch/riscv/mach-gd32vf10x/bsp/gd32vf103_dma.c **** }
 592:arch/riscv/mach-gd32vf10x/bsp/gd32vf103_dma.c **** 
 593:arch/riscv/mach-gd32vf10x/bsp/gd32vf103_dma.c **** /*!
 594:arch/riscv/mach-gd32vf10x/bsp/gd32vf103_dma.c ****     \brief      check DMA flag and interrupt enable bit is set or not
 595:arch/riscv/mach-gd32vf10x/bsp/gd32vf103_dma.c ****     \param[in]  dma_periph: DMAx(x=0,1)
 596:arch/riscv/mach-gd32vf10x/bsp/gd32vf103_dma.c ****       \arg        DMAx(x=0,1)
 597:arch/riscv/mach-gd32vf10x/bsp/gd32vf103_dma.c ****     \param[in]  channelx: specify which DMA channel to get flag
 598:arch/riscv/mach-gd32vf10x/bsp/gd32vf103_dma.c ****                 only one parameter can be selected which is shown as below:
 599:arch/riscv/mach-gd32vf10x/bsp/gd32vf103_dma.c ****       \arg        DMA0: DMA_CHx(x=0..6), DMA1: DMA_CHx(x=0..4)
 600:arch/riscv/mach-gd32vf10x/bsp/gd32vf103_dma.c ****     \param[in]  flag: specify get which flag
 601:arch/riscv/mach-gd32vf10x/bsp/gd32vf103_dma.c ****                 only one parameter can be selected which is shown as below:
 602:arch/riscv/mach-gd32vf10x/bsp/gd32vf103_dma.c ****       \arg        DMA_INT_FLAG_FTF: full transfer finish interrupt flag of channel
 603:arch/riscv/mach-gd32vf10x/bsp/gd32vf103_dma.c ****       \arg        DMA_INT_FLAG_HTF: half transfer finish interrupt flag of channel
 604:arch/riscv/mach-gd32vf10x/bsp/gd32vf103_dma.c ****       \arg        DMA_INT_FLAG_ERR: error interrupt flag of channel
 605:arch/riscv/mach-gd32vf10x/bsp/gd32vf103_dma.c ****     \param[out] none
 606:arch/riscv/mach-gd32vf10x/bsp/gd32vf103_dma.c ****     \retval     FlagStatus: SET or RESET
 607:arch/riscv/mach-gd32vf10x/bsp/gd32vf103_dma.c **** */
 608:arch/riscv/mach-gd32vf10x/bsp/gd32vf103_dma.c **** FlagStatus dma_interrupt_flag_get(uint32_t dma_periph, dma_channel_enum channelx, uint32_t flag)
 609:arch/riscv/mach-gd32vf10x/bsp/gd32vf103_dma.c **** {
 610:arch/riscv/mach-gd32vf10x/bsp/gd32vf103_dma.c **** 	uint32_t interrupt_enable = 0U, interrupt_flag = 0U;
GAS LISTING C:\Users\test\AppData\Local\Temp\ccdvqI39.s 			page 12


 611:arch/riscv/mach-gd32vf10x/bsp/gd32vf103_dma.c **** 
 612:arch/riscv/mach-gd32vf10x/bsp/gd32vf103_dma.c **** 	switch(flag){
 613:arch/riscv/mach-gd32vf10x/bsp/gd32vf103_dma.c **** 		case DMA_INT_FLAG_FTF:
 614:arch/riscv/mach-gd32vf10x/bsp/gd32vf103_dma.c **** 			/* check whether the full transfer finish interrupt flag is set and enabled */
 615:arch/riscv/mach-gd32vf10x/bsp/gd32vf103_dma.c **** 			interrupt_flag = DMA_INTF(dma_periph) & DMA_FLAG_ADD(flag, channelx);
 616:arch/riscv/mach-gd32vf10x/bsp/gd32vf103_dma.c **** 			interrupt_enable = DMA_CHCTL(dma_periph, channelx) & DMA_CHXCTL_FTFIE;
 617:arch/riscv/mach-gd32vf10x/bsp/gd32vf103_dma.c **** 			break;
 618:arch/riscv/mach-gd32vf10x/bsp/gd32vf103_dma.c **** 		case DMA_INT_FLAG_HTF:
 619:arch/riscv/mach-gd32vf10x/bsp/gd32vf103_dma.c **** 			/* check whether the half transfer finish interrupt flag is set and enabled */
 620:arch/riscv/mach-gd32vf10x/bsp/gd32vf103_dma.c **** 			interrupt_flag = DMA_INTF(dma_periph) & DMA_FLAG_ADD(flag, channelx);
 621:arch/riscv/mach-gd32vf10x/bsp/gd32vf103_dma.c **** 			interrupt_enable = DMA_CHCTL(dma_periph, channelx) & DMA_CHXCTL_HTFIE;
 622:arch/riscv/mach-gd32vf10x/bsp/gd32vf103_dma.c **** 			break;
 623:arch/riscv/mach-gd32vf10x/bsp/gd32vf103_dma.c **** 		case DMA_INT_FLAG_ERR:
 624:arch/riscv/mach-gd32vf10x/bsp/gd32vf103_dma.c **** 			/* check whether the error interrupt flag is set and enabled */
 625:arch/riscv/mach-gd32vf10x/bsp/gd32vf103_dma.c **** 			interrupt_flag = DMA_INTF(dma_periph) & DMA_FLAG_ADD(flag, channelx);
 626:arch/riscv/mach-gd32vf10x/bsp/gd32vf103_dma.c **** 			interrupt_enable = DMA_CHCTL(dma_periph, channelx) & DMA_CHXCTL_ERRIE;
 627:arch/riscv/mach-gd32vf10x/bsp/gd32vf103_dma.c **** 			break;
 628:arch/riscv/mach-gd32vf10x/bsp/gd32vf103_dma.c **** 		default:
 629:arch/riscv/mach-gd32vf10x/bsp/gd32vf103_dma.c **** 			DMA_WRONG_HANDLE
 630:arch/riscv/mach-gd32vf10x/bsp/gd32vf103_dma.c **** 	}
 631:arch/riscv/mach-gd32vf10x/bsp/gd32vf103_dma.c **** 
 632:arch/riscv/mach-gd32vf10x/bsp/gd32vf103_dma.c **** 	/* when the interrupt flag is set and enabled, return SET */
 633:arch/riscv/mach-gd32vf10x/bsp/gd32vf103_dma.c **** 	if(interrupt_flag && interrupt_enable){
 634:arch/riscv/mach-gd32vf10x/bsp/gd32vf103_dma.c **** 		return SET;
 635:arch/riscv/mach-gd32vf10x/bsp/gd32vf103_dma.c **** 	}else{
 636:arch/riscv/mach-gd32vf10x/bsp/gd32vf103_dma.c **** 		return RESET;
 637:arch/riscv/mach-gd32vf10x/bsp/gd32vf103_dma.c **** 	}
 638:arch/riscv/mach-gd32vf10x/bsp/gd32vf103_dma.c **** }
 639:arch/riscv/mach-gd32vf10x/bsp/gd32vf103_dma.c **** 
 640:arch/riscv/mach-gd32vf10x/bsp/gd32vf103_dma.c **** /*!
 641:arch/riscv/mach-gd32vf10x/bsp/gd32vf103_dma.c ****     \brief      clear DMA a channel flag
 642:arch/riscv/mach-gd32vf10x/bsp/gd32vf103_dma.c ****     \param[in]  dma_periph: DMAx(x=0,1)
 643:arch/riscv/mach-gd32vf10x/bsp/gd32vf103_dma.c ****       \arg        DMAx(x=0,1)
 644:arch/riscv/mach-gd32vf10x/bsp/gd32vf103_dma.c ****     \param[in]  channelx: specify which DMA channel to clear flag
 645:arch/riscv/mach-gd32vf10x/bsp/gd32vf103_dma.c ****                 only one parameter can be selected which is shown as below:
 646:arch/riscv/mach-gd32vf10x/bsp/gd32vf103_dma.c ****       \arg        DMA0: DMA_CHx(x=0..6), DMA1: DMA_CHx(x=0..4)
 647:arch/riscv/mach-gd32vf10x/bsp/gd32vf103_dma.c ****     \param[in]  flag: specify get which flag
 648:arch/riscv/mach-gd32vf10x/bsp/gd32vf103_dma.c ****                 only one parameter can be selected which is shown as below:
 649:arch/riscv/mach-gd32vf10x/bsp/gd32vf103_dma.c ****       \arg        DMA_INT_FLAG_G: global interrupt flag of channel
 650:arch/riscv/mach-gd32vf10x/bsp/gd32vf103_dma.c ****       \arg        DMA_INT_FLAG_FTF: full transfer finish interrupt flag of channel
 651:arch/riscv/mach-gd32vf10x/bsp/gd32vf103_dma.c ****       \arg        DMA_INT_FLAG_HTF: half transfer finish interrupt flag of channel
 652:arch/riscv/mach-gd32vf10x/bsp/gd32vf103_dma.c ****       \arg        DMA_INT_FLAG_ERR: error interrupt flag of channel
 653:arch/riscv/mach-gd32vf10x/bsp/gd32vf103_dma.c ****     \param[out] none
 654:arch/riscv/mach-gd32vf10x/bsp/gd32vf103_dma.c ****     \retval     none
 655:arch/riscv/mach-gd32vf10x/bsp/gd32vf103_dma.c **** */
 656:arch/riscv/mach-gd32vf10x/bsp/gd32vf103_dma.c **** void dma_interrupt_flag_clear(uint32_t dma_periph, dma_channel_enum channelx, uint32_t flag)
 657:arch/riscv/mach-gd32vf10x/bsp/gd32vf103_dma.c **** {
 658:arch/riscv/mach-gd32vf10x/bsp/gd32vf103_dma.c ****     DMA_INTC(dma_periph) |= DMA_FLAG_ADD(flag, channelx);
 659:arch/riscv/mach-gd32vf10x/bsp/gd32vf103_dma.c **** }
 660:arch/riscv/mach-gd32vf10x/bsp/gd32vf103_dma.c **** 
 661:arch/riscv/mach-gd32vf10x/bsp/gd32vf103_dma.c **** /*!
 662:arch/riscv/mach-gd32vf10x/bsp/gd32vf103_dma.c ****     \brief      enable DMA interrupt
 663:arch/riscv/mach-gd32vf10x/bsp/gd32vf103_dma.c ****     \param[in]  dma_periph: DMAx(x=0,1)
 664:arch/riscv/mach-gd32vf10x/bsp/gd32vf103_dma.c ****       \arg        DMAx(x=0,1)
 665:arch/riscv/mach-gd32vf10x/bsp/gd32vf103_dma.c ****     \param[in]  channelx: specify which DMA channel
 666:arch/riscv/mach-gd32vf10x/bsp/gd32vf103_dma.c ****                 only one parameter can be selected which is shown as below:
 667:arch/riscv/mach-gd32vf10x/bsp/gd32vf103_dma.c ****       \arg        DMA0: DMA_CHx(x=0..6), DMA1: DMA_CHx(x=0..4)
GAS LISTING C:\Users\test\AppData\Local\Temp\ccdvqI39.s 			page 13


 668:arch/riscv/mach-gd32vf10x/bsp/gd32vf103_dma.c ****     \param[in]  source: specify which interrupt to enbale
 669:arch/riscv/mach-gd32vf10x/bsp/gd32vf103_dma.c ****                 one or more parameters can be selected which are shown as below
 670:arch/riscv/mach-gd32vf10x/bsp/gd32vf103_dma.c ****       \arg        DMA_INT_FTF: channel full transfer finish interrupt
 671:arch/riscv/mach-gd32vf10x/bsp/gd32vf103_dma.c ****       \arg        DMA_INT_HTF: channel half transfer finish interrupt
 672:arch/riscv/mach-gd32vf10x/bsp/gd32vf103_dma.c ****       \arg        DMA_INT_ERR: channel error interrupt
 673:arch/riscv/mach-gd32vf10x/bsp/gd32vf103_dma.c ****     \param[out] none
 674:arch/riscv/mach-gd32vf10x/bsp/gd32vf103_dma.c ****     \retval     none
 675:arch/riscv/mach-gd32vf10x/bsp/gd32vf103_dma.c **** */
 676:arch/riscv/mach-gd32vf10x/bsp/gd32vf103_dma.c **** void dma_interrupt_enable(uint32_t dma_periph, dma_channel_enum channelx, uint32_t source)
 677:arch/riscv/mach-gd32vf10x/bsp/gd32vf103_dma.c **** {
 678:arch/riscv/mach-gd32vf10x/bsp/gd32vf103_dma.c ****     if(ERROR == dma_periph_and_channel_check(dma_periph, channelx)){
 679:arch/riscv/mach-gd32vf10x/bsp/gd32vf103_dma.c ****         DMA_WRONG_HANDLE
 680:arch/riscv/mach-gd32vf10x/bsp/gd32vf103_dma.c ****     }
 681:arch/riscv/mach-gd32vf10x/bsp/gd32vf103_dma.c **** 
 682:arch/riscv/mach-gd32vf10x/bsp/gd32vf103_dma.c ****     DMA_CHCTL(dma_periph, channelx) |= source;
 683:arch/riscv/mach-gd32vf10x/bsp/gd32vf103_dma.c **** }
 684:arch/riscv/mach-gd32vf10x/bsp/gd32vf103_dma.c **** 
 685:arch/riscv/mach-gd32vf10x/bsp/gd32vf103_dma.c **** /*!
 686:arch/riscv/mach-gd32vf10x/bsp/gd32vf103_dma.c ****     \brief      disable DMA interrupt
 687:arch/riscv/mach-gd32vf10x/bsp/gd32vf103_dma.c ****     \param[in]  dma_periph: DMAx(x=0,1)
 688:arch/riscv/mach-gd32vf10x/bsp/gd32vf103_dma.c ****       \arg        DMAx(x=0,1)
 689:arch/riscv/mach-gd32vf10x/bsp/gd32vf103_dma.c ****     \param[in]  channelx: specify which DMA channel
 690:arch/riscv/mach-gd32vf10x/bsp/gd32vf103_dma.c ****                 only one parameter can be selected which is shown as below:
 691:arch/riscv/mach-gd32vf10x/bsp/gd32vf103_dma.c ****       \arg        DMA0: DMA_CHx(x=0..6), DMA1: DMA_CHx(x=0..4)
 692:arch/riscv/mach-gd32vf10x/bsp/gd32vf103_dma.c ****     \param[in]  source: specify which interrupt to disbale
 693:arch/riscv/mach-gd32vf10x/bsp/gd32vf103_dma.c ****                 one or more parameters can be selected which are shown as below
 694:arch/riscv/mach-gd32vf10x/bsp/gd32vf103_dma.c ****       \arg        DMA_INT_FTF: channel full transfer finish interrupt
 695:arch/riscv/mach-gd32vf10x/bsp/gd32vf103_dma.c ****       \arg        DMA_INT_HTF: channel half transfer finish interrupt
 696:arch/riscv/mach-gd32vf10x/bsp/gd32vf103_dma.c ****       \arg        DMA_INT_ERR: channel error interrupt
 697:arch/riscv/mach-gd32vf10x/bsp/gd32vf103_dma.c ****     \param[out] none
 698:arch/riscv/mach-gd32vf10x/bsp/gd32vf103_dma.c ****     \retval     none
 699:arch/riscv/mach-gd32vf10x/bsp/gd32vf103_dma.c **** */
 700:arch/riscv/mach-gd32vf10x/bsp/gd32vf103_dma.c **** void dma_interrupt_disable(uint32_t dma_periph, dma_channel_enum channelx, uint32_t source)
 701:arch/riscv/mach-gd32vf10x/bsp/gd32vf103_dma.c **** {
 702:arch/riscv/mach-gd32vf10x/bsp/gd32vf103_dma.c ****     if(ERROR == dma_periph_and_channel_check(dma_periph, channelx)){
 703:arch/riscv/mach-gd32vf10x/bsp/gd32vf103_dma.c ****         DMA_WRONG_HANDLE
 704:arch/riscv/mach-gd32vf10x/bsp/gd32vf103_dma.c ****     }
 705:arch/riscv/mach-gd32vf10x/bsp/gd32vf103_dma.c **** 
 706:arch/riscv/mach-gd32vf10x/bsp/gd32vf103_dma.c ****     DMA_CHCTL(dma_periph, channelx) &= ~source;
 707:arch/riscv/mach-gd32vf10x/bsp/gd32vf103_dma.c **** }
 708:arch/riscv/mach-gd32vf10x/bsp/gd32vf103_dma.c **** 
 709:arch/riscv/mach-gd32vf10x/bsp/gd32vf103_dma.c **** /*!
 710:arch/riscv/mach-gd32vf10x/bsp/gd32vf103_dma.c ****     \brief      check whether peripheral and channels match
 711:arch/riscv/mach-gd32vf10x/bsp/gd32vf103_dma.c ****     \param[in]  dma_periph: DMAx(x=0,1)
 712:arch/riscv/mach-gd32vf10x/bsp/gd32vf103_dma.c ****       \arg        DMAx(x=0,1)
 713:arch/riscv/mach-gd32vf10x/bsp/gd32vf103_dma.c ****     \param[in]  channelx: specify which DMA channel
 714:arch/riscv/mach-gd32vf10x/bsp/gd32vf103_dma.c ****                 only one parameter can be selected which is shown as below:
 715:arch/riscv/mach-gd32vf10x/bsp/gd32vf103_dma.c ****       \arg        DMA_CHx(x=0..6)
 716:arch/riscv/mach-gd32vf10x/bsp/gd32vf103_dma.c ****     \param[out] none
 717:arch/riscv/mach-gd32vf10x/bsp/gd32vf103_dma.c ****     \retval     none
 718:arch/riscv/mach-gd32vf10x/bsp/gd32vf103_dma.c **** */
 719:arch/riscv/mach-gd32vf10x/bsp/gd32vf103_dma.c **** static ErrStatus dma_periph_and_channel_check(uint32_t dma_periph, dma_channel_enum channelx)
 720:arch/riscv/mach-gd32vf10x/bsp/gd32vf103_dma.c **** {
 721:arch/riscv/mach-gd32vf10x/bsp/gd32vf103_dma.c ****     ErrStatus val = SUCCESS;
 722:arch/riscv/mach-gd32vf10x/bsp/gd32vf103_dma.c **** 
 723:arch/riscv/mach-gd32vf10x/bsp/gd32vf103_dma.c ****     if(DMA1 == dma_periph){
  19              		.loc 1 723 7 is_stmt 0
GAS LISTING C:\Users\test\AppData\Local\Temp\ccdvqI39.s 			page 14


  20 0000 B7070240 		li	a5,1073872896
  21 0004 93870740 		addi	a5,a5,1024
  22              	.LVL1:
 721:arch/riscv/mach-gd32vf10x/bsp/gd32vf103_dma.c **** 
  23              		.loc 1 721 5 is_stmt 1
  24              		.loc 1 723 5
  25              		.loc 1 723 7 is_stmt 0
  26 0008 630AF502 		beq	a0,a5,.L5
  27              	.L2:
  28              	.LBE47:
  29              	.LBE46:
  59:arch/riscv/mach-gd32vf10x/bsp/gd32vf103_dma.c **** 	/* reset DMA channel registers */
  30              		.loc 1 59 2 is_stmt 1
  59:arch/riscv/mach-gd32vf10x/bsp/gd32vf103_dma.c **** 	/* reset DMA channel registers */
  31              		.loc 1 59 34 is_stmt 0
  32 000c 13962500 		slli	a2,a1,2
  33 0010 B307B600 		add	a5,a2,a1
  34 0014 8A07     		slli	a5,a5,2
  35 0016 AA97     		add	a5,a5,a0
  36 0018 9447     		lw	a3,8(a5)
  65:arch/riscv/mach-gd32vf10x/bsp/gd32vf103_dma.c **** }
  37              		.loc 1 65 26
  38 001a 3D47     		li	a4,15
  39 001c 3317C700 		sll	a4,a4,a2
  59:arch/riscv/mach-gd32vf10x/bsp/gd32vf103_dma.c **** 	/* reset DMA channel registers */
  40              		.loc 1 59 34
  41 0020 F99A     		andi	a3,a3,-2
  42 0022 94C7     		sw	a3,8(a5)
  61:arch/riscv/mach-gd32vf10x/bsp/gd32vf103_dma.c **** 	DMA_CHCNT(dma_periph, channelx) = DMA_CHCNT_RESET_VALUE;
  43              		.loc 1 61 2 is_stmt 1
  61:arch/riscv/mach-gd32vf10x/bsp/gd32vf103_dma.c **** 	DMA_CHCNT(dma_periph, channelx) = DMA_CHCNT_RESET_VALUE;
  44              		.loc 1 61 34 is_stmt 0
  45 0024 23A40700 		sw	zero,8(a5)
  62:arch/riscv/mach-gd32vf10x/bsp/gd32vf103_dma.c **** 	DMA_CHPADDR(dma_periph, channelx) = DMA_CHPADDR_RESET_VALUE;
  46              		.loc 1 62 2 is_stmt 1
  62:arch/riscv/mach-gd32vf10x/bsp/gd32vf103_dma.c **** 	DMA_CHPADDR(dma_periph, channelx) = DMA_CHPADDR_RESET_VALUE;
  47              		.loc 1 62 34 is_stmt 0
  48 0028 23A60700 		sw	zero,12(a5)
  63:arch/riscv/mach-gd32vf10x/bsp/gd32vf103_dma.c **** 	DMA_CHMADDR(dma_periph, channelx) = DMA_CHMADDR_RESET_VALUE;
  49              		.loc 1 63 2 is_stmt 1
  63:arch/riscv/mach-gd32vf10x/bsp/gd32vf103_dma.c **** 	DMA_CHMADDR(dma_periph, channelx) = DMA_CHMADDR_RESET_VALUE;
  50              		.loc 1 63 36 is_stmt 0
  51 002c 23A80700 		sw	zero,16(a5)
  64:arch/riscv/mach-gd32vf10x/bsp/gd32vf103_dma.c **** 	DMA_INTC(dma_periph) |= DMA_FLAG_ADD(DMA_CHINTF_RESET_VALUE, channelx);
  52              		.loc 1 64 2 is_stmt 1
  64:arch/riscv/mach-gd32vf10x/bsp/gd32vf103_dma.c **** 	DMA_INTC(dma_periph) |= DMA_FLAG_ADD(DMA_CHINTF_RESET_VALUE, channelx);
  53              		.loc 1 64 36 is_stmt 0
  54 0030 23AA0700 		sw	zero,20(a5)
  65:arch/riscv/mach-gd32vf10x/bsp/gd32vf103_dma.c **** }
  55              		.loc 1 65 2 is_stmt 1
  65:arch/riscv/mach-gd32vf10x/bsp/gd32vf103_dma.c **** }
  56              		.loc 1 65 23 is_stmt 0
  57 0034 5C41     		lw	a5,4(a0)
  58 0036 D98F     		or	a5,a4,a5
  59 0038 5CC1     		sw	a5,4(a0)
  66:arch/riscv/mach-gd32vf10x/bsp/gd32vf103_dma.c **** 
  60              		.loc 1 66 1
GAS LISTING C:\Users\test\AppData\Local\Temp\ccdvqI39.s 			page 15


  61 003a 8280     		ret
  62              	.L5:
  63              	.LBB49:
  64              	.LBB48:
 724:arch/riscv/mach-gd32vf10x/bsp/gd32vf103_dma.c ****         /* for DMA1, the channel is from DMA_CH0 to DMA_CH4 */
 725:arch/riscv/mach-gd32vf10x/bsp/gd32vf103_dma.c ****         if(channelx > DMA_CH4){
  65              		.loc 1 725 9 is_stmt 1
  66              		.loc 1 725 11 is_stmt 0
  67 003c 9147     		li	a5,4
  68 003e E3F7B7FC 		bleu	a1,a5,.L2
  69              	.L3:
  70              	.LBE48:
  71              	.LBE49:
  55:arch/riscv/mach-gd32vf10x/bsp/gd32vf103_dma.c **** 	}
  72              		.loc 1 55 3 is_stmt 1 discriminator 1
  55:arch/riscv/mach-gd32vf10x/bsp/gd32vf103_dma.c **** 	}
  73              		.loc 1 55 3 discriminator 1
  55:arch/riscv/mach-gd32vf10x/bsp/gd32vf103_dma.c **** 	}
  74              		.loc 1 55 3 discriminator 1
  55:arch/riscv/mach-gd32vf10x/bsp/gd32vf103_dma.c **** 	}
  75              		.loc 1 55 3 discriminator 1
  76 0042 01A0     		j	.L3
  77              		.cfi_endproc
  78              	.LFE2:
  80              		.section	.text.dma_struct_para_init,"ax",@progbits
  81              		.align	1
  82              		.globl	dma_struct_para_init
  84              	dma_struct_para_init:
  85              	.LFB3:
  75:arch/riscv/mach-gd32vf10x/bsp/gd32vf103_dma.c ****     /* set the DMA struct with the default values */
  86              		.loc 1 75 1
  87              		.cfi_startproc
  88              	.LVL2:
  77:arch/riscv/mach-gd32vf10x/bsp/gd32vf103_dma.c ****     init_struct->periph_width = 0U;
  89              		.loc 1 77 5
  78:arch/riscv/mach-gd32vf10x/bsp/gd32vf103_dma.c ****     init_struct->periph_inc   = DMA_PERIPH_INCREASE_DISABLE;
  90              		.loc 1 78 5
  79:arch/riscv/mach-gd32vf10x/bsp/gd32vf103_dma.c ****     init_struct->memory_addr  = 0U;
  91              		.loc 1 79 5
  80:arch/riscv/mach-gd32vf10x/bsp/gd32vf103_dma.c ****     init_struct->memory_width = 0U;
  92              		.loc 1 80 5
  81:arch/riscv/mach-gd32vf10x/bsp/gd32vf103_dma.c ****     init_struct->memory_inc   = DMA_MEMORY_INCREASE_DISABLE;
  93              		.loc 1 81 5
  82:arch/riscv/mach-gd32vf10x/bsp/gd32vf103_dma.c ****     init_struct->number       = 0U;
  94              		.loc 1 82 5
  83:arch/riscv/mach-gd32vf10x/bsp/gd32vf103_dma.c ****     init_struct->direction    = DMA_PERIPHERAL_TO_MEMORY;
  95              		.loc 1 83 5
  84:arch/riscv/mach-gd32vf10x/bsp/gd32vf103_dma.c ****     init_struct->priority     = DMA_PRIORITY_LOW;
  96              		.loc 1 84 5
  85:arch/riscv/mach-gd32vf10x/bsp/gd32vf103_dma.c **** }
  97              		.loc 1 85 5
  77:arch/riscv/mach-gd32vf10x/bsp/gd32vf103_dma.c ****     init_struct->periph_width = 0U;
  98              		.loc 1 77 31 is_stmt 0
  99 0000 23200500 		sw	zero,0(a0)
  78:arch/riscv/mach-gd32vf10x/bsp/gd32vf103_dma.c ****     init_struct->periph_inc   = DMA_PERIPH_INCREASE_DISABLE;
 100              		.loc 1 78 31
 101 0004 23220500 		sw	zero,4(a0)
GAS LISTING C:\Users\test\AppData\Local\Temp\ccdvqI39.s 			page 16


  80:arch/riscv/mach-gd32vf10x/bsp/gd32vf103_dma.c ****     init_struct->memory_width = 0U;
 102              		.loc 1 80 31
 103 0008 23240500 		sw	zero,8(a0)
  81:arch/riscv/mach-gd32vf10x/bsp/gd32vf103_dma.c ****     init_struct->memory_inc   = DMA_MEMORY_INCREASE_DISABLE;
 104              		.loc 1 81 31
 105 000c 23260500 		sw	zero,12(a0)
  83:arch/riscv/mach-gd32vf10x/bsp/gd32vf103_dma.c ****     init_struct->direction    = DMA_PERIPHERAL_TO_MEMORY;
 106              		.loc 1 83 31
 107 0010 23280500 		sw	zero,16(a0)
  85:arch/riscv/mach-gd32vf10x/bsp/gd32vf103_dma.c **** }
 108              		.loc 1 85 31
 109 0014 232A0500 		sw	zero,20(a0)
  79:arch/riscv/mach-gd32vf10x/bsp/gd32vf103_dma.c ****     init_struct->memory_addr  = 0U;
 110              		.loc 1 79 31
 111 0018 231C0500 		sh	zero,24(a0)
  84:arch/riscv/mach-gd32vf10x/bsp/gd32vf103_dma.c ****     init_struct->priority     = DMA_PRIORITY_LOW;
 112              		.loc 1 84 31
 113 001c 230D0500 		sb	zero,26(a0)
  86:arch/riscv/mach-gd32vf10x/bsp/gd32vf103_dma.c **** 
 114              		.loc 1 86 1
 115 0020 8280     		ret
 116              		.cfi_endproc
 117              	.LFE3:
 119              		.section	.text.dma_init,"ax",@progbits
 120              		.align	1
 121              		.globl	dma_init
 123              	dma_init:
 124              	.LFB4:
 109:arch/riscv/mach-gd32vf10x/bsp/gd32vf103_dma.c ****     uint32_t ctl;
 125              		.loc 1 109 1 is_stmt 1
 126              		.cfi_startproc
 127              	.LVL3:
 110:arch/riscv/mach-gd32vf10x/bsp/gd32vf103_dma.c **** 
 128              		.loc 1 110 5
 112:arch/riscv/mach-gd32vf10x/bsp/gd32vf103_dma.c ****         DMA_WRONG_HANDLE
 129              		.loc 1 112 5
 130              	.LBB50:
 131              	.LBB51:
 723:arch/riscv/mach-gd32vf10x/bsp/gd32vf103_dma.c ****         /* for DMA1, the channel is from DMA_CH0 to DMA_CH4 */
 132              		.loc 1 723 7 is_stmt 0
 133 0000 B7070240 		li	a5,1073872896
 134 0004 93870740 		addi	a5,a5,1024
 135              	.LVL4:
 721:arch/riscv/mach-gd32vf10x/bsp/gd32vf103_dma.c **** 
 136              		.loc 1 721 5 is_stmt 1
 723:arch/riscv/mach-gd32vf10x/bsp/gd32vf103_dma.c ****         /* for DMA1, the channel is from DMA_CH0 to DMA_CH4 */
 137              		.loc 1 723 5
 723:arch/riscv/mach-gd32vf10x/bsp/gd32vf103_dma.c ****         /* for DMA1, the channel is from DMA_CH0 to DMA_CH4 */
 138              		.loc 1 723 7 is_stmt 0
 139 0008 6304F508 		beq	a0,a5,.L16
 140              	.L8:
 141              	.LBE51:
 142              	.LBE50:
 117:arch/riscv/mach-gd32vf10x/bsp/gd32vf103_dma.c **** 
 143              		.loc 1 117 5 is_stmt 1
 144 000c 93972500 		slli	a5,a1,2
 117:arch/riscv/mach-gd32vf10x/bsp/gd32vf103_dma.c **** 
GAS LISTING C:\Users\test\AppData\Local\Temp\ccdvqI39.s 			page 17


 145              		.loc 1 117 52 is_stmt 0
 146 0010 1842     		lw	a4,0(a2)
 117:arch/riscv/mach-gd32vf10x/bsp/gd32vf103_dma.c **** 
 147              		.loc 1 117 5
 148 0012 AE97     		add	a5,a5,a1
 149 0014 8A07     		slli	a5,a5,2
 150 0016 AA97     		add	a5,a5,a0
 117:arch/riscv/mach-gd32vf10x/bsp/gd32vf103_dma.c **** 
 151              		.loc 1 117 39
 152 0018 98CB     		sw	a4,16(a5)
 120:arch/riscv/mach-gd32vf10x/bsp/gd32vf103_dma.c **** 
 153              		.loc 1 120 5 is_stmt 1
 120:arch/riscv/mach-gd32vf10x/bsp/gd32vf103_dma.c **** 
 154              		.loc 1 120 52 is_stmt 0
 155 001a 1846     		lw	a4,8(a2)
 132:arch/riscv/mach-gd32vf10x/bsp/gd32vf103_dma.c ****         DMA_CHCTL(dma_periph, channelx) |= DMA_CHXCTL_PNAGA;
 156              		.loc 1 132 7
 157 001c 0545     		li	a0,1
 158              	.LVL5:
 120:arch/riscv/mach-gd32vf10x/bsp/gd32vf103_dma.c **** 
 159              		.loc 1 120 39
 160 001e D8CB     		sw	a4,20(a5)
 123:arch/riscv/mach-gd32vf10x/bsp/gd32vf103_dma.c **** 
 161              		.loc 1 123 5 is_stmt 1
 123:arch/riscv/mach-gd32vf10x/bsp/gd32vf103_dma.c **** 
 162              		.loc 1 123 60 is_stmt 0
 163 0020 03570601 		lhu	a4,16(a2)
 123:arch/riscv/mach-gd32vf10x/bsp/gd32vf103_dma.c **** 
 164              		.loc 1 123 37
 165 0024 D8C7     		sw	a4,12(a5)
 126:arch/riscv/mach-gd32vf10x/bsp/gd32vf103_dma.c ****     ctl &= ~(DMA_CHXCTL_PWIDTH | DMA_CHXCTL_MWIDTH | DMA_CHXCTL_PRIO);
 166              		.loc 1 126 5 is_stmt 1
 128:arch/riscv/mach-gd32vf10x/bsp/gd32vf103_dma.c ****     DMA_CHCTL(dma_periph, channelx) = ctl;
 167              		.loc 1 128 39 is_stmt 0
 168 0026 4C46     		lw	a1,12(a2)
 169              	.LVL6:
 170 0028 5842     		lw	a4,4(a2)
 126:arch/riscv/mach-gd32vf10x/bsp/gd32vf103_dma.c ****     ctl &= ~(DMA_CHXCTL_PWIDTH | DMA_CHXCTL_MWIDTH | DMA_CHXCTL_PRIO);
 171              		.loc 1 126 9
 172 002a 9447     		lw	a3,8(a5)
 173              	.LVL7:
 127:arch/riscv/mach-gd32vf10x/bsp/gd32vf103_dma.c ****     ctl |= (init_struct->periph_width | init_struct->memory_width | init_struct->priority);
 174              		.loc 1 127 5 is_stmt 1
 128:arch/riscv/mach-gd32vf10x/bsp/gd32vf103_dma.c ****     DMA_CHCTL(dma_periph, channelx) = ctl;
 175              		.loc 1 128 67 is_stmt 0
 176 002c 03284601 		lw	a6,20(a2)
 128:arch/riscv/mach-gd32vf10x/bsp/gd32vf103_dma.c ****     DMA_CHCTL(dma_periph, channelx) = ctl;
 177              		.loc 1 128 39
 178 0030 4D8F     		or	a4,a4,a1
 127:arch/riscv/mach-gd32vf10x/bsp/gd32vf103_dma.c ****     ctl |= (init_struct->periph_width | init_struct->memory_width | init_struct->priority);
 179              		.loc 1 127 9
 180 0032 F175     		li	a1,-16384
 181 0034 9385F50F 		addi	a1,a1,255
 182 0038 ED8E     		and	a3,a3,a1
 183              	.LVL8:
 128:arch/riscv/mach-gd32vf10x/bsp/gd32vf103_dma.c ****     DMA_CHCTL(dma_periph, channelx) = ctl;
 184              		.loc 1 128 5 is_stmt 1
GAS LISTING C:\Users\test\AppData\Local\Temp\ccdvqI39.s 			page 18


 128:arch/riscv/mach-gd32vf10x/bsp/gd32vf103_dma.c ****     DMA_CHCTL(dma_periph, channelx) = ctl;
 185              		.loc 1 128 67 is_stmt 0
 186 003a 33670701 		or	a4,a4,a6
 128:arch/riscv/mach-gd32vf10x/bsp/gd32vf103_dma.c ****     DMA_CHCTL(dma_periph, channelx) = ctl;
 187              		.loc 1 128 9
 188 003e 558F     		or	a4,a4,a3
 189              	.LVL9:
 129:arch/riscv/mach-gd32vf10x/bsp/gd32vf103_dma.c **** 
 190              		.loc 1 129 5 is_stmt 1
 129:arch/riscv/mach-gd32vf10x/bsp/gd32vf103_dma.c **** 
 191              		.loc 1 129 37 is_stmt 0
 192 0040 98C7     		sw	a4,8(a5)
 132:arch/riscv/mach-gd32vf10x/bsp/gd32vf103_dma.c ****         DMA_CHCTL(dma_periph, channelx) |= DMA_CHXCTL_PNAGA;
 193              		.loc 1 132 5 is_stmt 1
 132:arch/riscv/mach-gd32vf10x/bsp/gd32vf103_dma.c ****         DMA_CHCTL(dma_periph, channelx) |= DMA_CHXCTL_PNAGA;
 194              		.loc 1 132 7 is_stmt 0
 195 0042 03478601 		lbu	a4,24(a2)
 196              	.LVL10:
 197 0046 6300A704 		beq	a4,a0,.L17
 135:arch/riscv/mach-gd32vf10x/bsp/gd32vf103_dma.c ****     }
 198              		.loc 1 135 9 is_stmt 1
 135:arch/riscv/mach-gd32vf10x/bsp/gd32vf103_dma.c ****     }
 199              		.loc 1 135 41 is_stmt 0
 200 004a 9847     		lw	a4,8(a5)
 201 004c 1377F7FB 		andi	a4,a4,-65
 202 0050 98C7     		sw	a4,8(a5)
 203              	.LVL11:
 204              	.L11:
 139:arch/riscv/mach-gd32vf10x/bsp/gd32vf103_dma.c ****         DMA_CHCTL(dma_periph, channelx) |= DMA_CHXCTL_MNAGA;
 205              		.loc 1 139 5 is_stmt 1
 139:arch/riscv/mach-gd32vf10x/bsp/gd32vf103_dma.c ****         DMA_CHCTL(dma_periph, channelx) |= DMA_CHXCTL_MNAGA;
 206              		.loc 1 139 7 is_stmt 0
 207 0052 83469601 		lbu	a3,25(a2)
 208 0056 0547     		li	a4,1
 209 0058 6382E602 		beq	a3,a4,.L18
 142:arch/riscv/mach-gd32vf10x/bsp/gd32vf103_dma.c ****     }
 210              		.loc 1 142 9 is_stmt 1
 142:arch/riscv/mach-gd32vf10x/bsp/gd32vf103_dma.c ****     }
 211              		.loc 1 142 41 is_stmt 0
 212 005c 9847     		lw	a4,8(a5)
 213 005e 1377F7F7 		andi	a4,a4,-129
 214 0062 98C7     		sw	a4,8(a5)
 215              	.L13:
 146:arch/riscv/mach-gd32vf10x/bsp/gd32vf103_dma.c ****         DMA_CHCTL(dma_periph, channelx) &= ~DMA_CHXCTL_DIR;
 216              		.loc 1 146 5 is_stmt 1
 146:arch/riscv/mach-gd32vf10x/bsp/gd32vf103_dma.c ****         DMA_CHCTL(dma_periph, channelx) &= ~DMA_CHXCTL_DIR;
 217              		.loc 1 146 7 is_stmt 0
 218 0064 0347A601 		lbu	a4,26(a2)
 219 0068 09E7     		bne	a4,zero,.L14
 147:arch/riscv/mach-gd32vf10x/bsp/gd32vf103_dma.c ****     }else{
 220              		.loc 1 147 9 is_stmt 1
 147:arch/riscv/mach-gd32vf10x/bsp/gd32vf103_dma.c ****     }else{
 221              		.loc 1 147 41 is_stmt 0
 222 006a 9847     		lw	a4,8(a5)
 223 006c 3D9B     		andi	a4,a4,-17
 224 006e 98C7     		sw	a4,8(a5)
 225 0070 8280     		ret
GAS LISTING C:\Users\test\AppData\Local\Temp\ccdvqI39.s 			page 19


 226              	.L14:
 149:arch/riscv/mach-gd32vf10x/bsp/gd32vf103_dma.c ****     }
 227              		.loc 1 149 9 is_stmt 1
 149:arch/riscv/mach-gd32vf10x/bsp/gd32vf103_dma.c ****     }
 228              		.loc 1 149 41 is_stmt 0
 229 0072 9847     		lw	a4,8(a5)
 230 0074 13670701 		ori	a4,a4,16
 231 0078 98C7     		sw	a4,8(a5)
 151:arch/riscv/mach-gd32vf10x/bsp/gd32vf103_dma.c **** 
 232              		.loc 1 151 1
 233 007a 8280     		ret
 234              	.L18:
 140:arch/riscv/mach-gd32vf10x/bsp/gd32vf103_dma.c ****     }else{
 235              		.loc 1 140 9 is_stmt 1
 140:arch/riscv/mach-gd32vf10x/bsp/gd32vf103_dma.c ****     }else{
 236              		.loc 1 140 41 is_stmt 0
 237 007c 9847     		lw	a4,8(a5)
 238 007e 13670708 		ori	a4,a4,128
 239 0082 98C7     		sw	a4,8(a5)
 240 0084 C5B7     		j	.L13
 241              	.LVL12:
 242              	.L17:
 133:arch/riscv/mach-gd32vf10x/bsp/gd32vf103_dma.c ****     }else{
 243              		.loc 1 133 9 is_stmt 1
 133:arch/riscv/mach-gd32vf10x/bsp/gd32vf103_dma.c ****     }else{
 244              		.loc 1 133 41 is_stmt 0
 245 0086 9847     		lw	a4,8(a5)
 246 0088 13670704 		ori	a4,a4,64
 247 008c 98C7     		sw	a4,8(a5)
 248              	.LVL13:
 249 008e D1B7     		j	.L11
 250              	.LVL14:
 251              	.L16:
 252              	.LBB53:
 253              	.LBB52:
 254              		.loc 1 725 9 is_stmt 1
 255              		.loc 1 725 11 is_stmt 0
 256 0090 9147     		li	a5,4
 257 0092 E3FDB7F6 		bleu	a1,a5,.L8
 258              	.L9:
 259              	.LBE52:
 260              	.LBE53:
 113:arch/riscv/mach-gd32vf10x/bsp/gd32vf103_dma.c ****     }
 261              		.loc 1 113 9 is_stmt 1 discriminator 1
 113:arch/riscv/mach-gd32vf10x/bsp/gd32vf103_dma.c ****     }
 262              		.loc 1 113 9 discriminator 1
 113:arch/riscv/mach-gd32vf10x/bsp/gd32vf103_dma.c ****     }
 263              		.loc 1 113 9 discriminator 1
 113:arch/riscv/mach-gd32vf10x/bsp/gd32vf103_dma.c ****     }
 264              		.loc 1 113 9 discriminator 1
 265 0096 01A0     		j	.L9
 266              		.cfi_endproc
 267              	.LFE4:
 269              		.section	.text.dma_circulation_enable,"ax",@progbits
 270              		.align	1
 271              		.globl	dma_circulation_enable
 273              	dma_circulation_enable:
GAS LISTING C:\Users\test\AppData\Local\Temp\ccdvqI39.s 			page 20


 274              	.LFB5:
 164:arch/riscv/mach-gd32vf10x/bsp/gd32vf103_dma.c ****     if(ERROR == dma_periph_and_channel_check(dma_periph, channelx)){
 275              		.loc 1 164 1
 276              		.cfi_startproc
 277              	.LVL15:
 165:arch/riscv/mach-gd32vf10x/bsp/gd32vf103_dma.c ****         DMA_WRONG_HANDLE
 278              		.loc 1 165 5
 279              	.LBB54:
 280              	.LBB55:
 723:arch/riscv/mach-gd32vf10x/bsp/gd32vf103_dma.c ****         /* for DMA1, the channel is from DMA_CH0 to DMA_CH4 */
 281              		.loc 1 723 7 is_stmt 0
 282 0000 B7070240 		li	a5,1073872896
 283 0004 93870740 		addi	a5,a5,1024
 284              	.LVL16:
 721:arch/riscv/mach-gd32vf10x/bsp/gd32vf103_dma.c **** 
 285              		.loc 1 721 5 is_stmt 1
 723:arch/riscv/mach-gd32vf10x/bsp/gd32vf103_dma.c ****         /* for DMA1, the channel is from DMA_CH0 to DMA_CH4 */
 286              		.loc 1 723 5
 723:arch/riscv/mach-gd32vf10x/bsp/gd32vf103_dma.c ****         /* for DMA1, the channel is from DMA_CH0 to DMA_CH4 */
 287              		.loc 1 723 7 is_stmt 0
 288 0008 630CF500 		beq	a0,a5,.L22
 289              	.L20:
 290              	.LBE55:
 291              	.LBE54:
 169:arch/riscv/mach-gd32vf10x/bsp/gd32vf103_dma.c **** }
 292              		.loc 1 169 5 is_stmt 1
 169:arch/riscv/mach-gd32vf10x/bsp/gd32vf103_dma.c **** }
 293              		.loc 1 169 37 is_stmt 0
 294 000c 93972500 		slli	a5,a1,2
 295 0010 AE97     		add	a5,a5,a1
 296 0012 8A07     		slli	a5,a5,2
 297 0014 AA97     		add	a5,a5,a0
 298 0016 9847     		lw	a4,8(a5)
 299 0018 13670702 		ori	a4,a4,32
 300 001c 98C7     		sw	a4,8(a5)
 170:arch/riscv/mach-gd32vf10x/bsp/gd32vf103_dma.c **** 
 301              		.loc 1 170 1
 302 001e 8280     		ret
 303              	.L22:
 304              	.LBB57:
 305              	.LBB56:
 306              		.loc 1 725 9 is_stmt 1
 307              		.loc 1 725 11 is_stmt 0
 308 0020 9147     		li	a5,4
 309 0022 E3F5B7FE 		bleu	a1,a5,.L20
 310              	.L21:
 311              	.LBE56:
 312              	.LBE57:
 166:arch/riscv/mach-gd32vf10x/bsp/gd32vf103_dma.c ****     }
 313              		.loc 1 166 9 is_stmt 1 discriminator 1
 166:arch/riscv/mach-gd32vf10x/bsp/gd32vf103_dma.c ****     }
 314              		.loc 1 166 9 discriminator 1
 166:arch/riscv/mach-gd32vf10x/bsp/gd32vf103_dma.c ****     }
 315              		.loc 1 166 9 discriminator 1
 166:arch/riscv/mach-gd32vf10x/bsp/gd32vf103_dma.c ****     }
 316              		.loc 1 166 9 discriminator 1
 317 0026 01A0     		j	.L21
GAS LISTING C:\Users\test\AppData\Local\Temp\ccdvqI39.s 			page 21


 318              		.cfi_endproc
 319              	.LFE5:
 321              		.section	.text.dma_circulation_disable,"ax",@progbits
 322              		.align	1
 323              		.globl	dma_circulation_disable
 325              	dma_circulation_disable:
 326              	.LFB6:
 183:arch/riscv/mach-gd32vf10x/bsp/gd32vf103_dma.c ****     if(ERROR == dma_periph_and_channel_check(dma_periph, channelx)){
 327              		.loc 1 183 1
 328              		.cfi_startproc
 329              	.LVL17:
 184:arch/riscv/mach-gd32vf10x/bsp/gd32vf103_dma.c ****         DMA_WRONG_HANDLE
 330              		.loc 1 184 5
 331              	.LBB58:
 332              	.LBB59:
 723:arch/riscv/mach-gd32vf10x/bsp/gd32vf103_dma.c ****         /* for DMA1, the channel is from DMA_CH0 to DMA_CH4 */
 333              		.loc 1 723 7 is_stmt 0
 334 0000 B7070240 		li	a5,1073872896
 335 0004 93870740 		addi	a5,a5,1024
 336              	.LVL18:
 721:arch/riscv/mach-gd32vf10x/bsp/gd32vf103_dma.c **** 
 337              		.loc 1 721 5 is_stmt 1
 723:arch/riscv/mach-gd32vf10x/bsp/gd32vf103_dma.c ****         /* for DMA1, the channel is from DMA_CH0 to DMA_CH4 */
 338              		.loc 1 723 5
 723:arch/riscv/mach-gd32vf10x/bsp/gd32vf103_dma.c ****         /* for DMA1, the channel is from DMA_CH0 to DMA_CH4 */
 339              		.loc 1 723 7 is_stmt 0
 340 0008 630CF500 		beq	a0,a5,.L26
 341              	.L24:
 342              	.LBE59:
 343              	.LBE58:
 188:arch/riscv/mach-gd32vf10x/bsp/gd32vf103_dma.c **** }
 344              		.loc 1 188 5 is_stmt 1
 188:arch/riscv/mach-gd32vf10x/bsp/gd32vf103_dma.c **** }
 345              		.loc 1 188 37 is_stmt 0
 346 000c 93972500 		slli	a5,a1,2
 347 0010 AE97     		add	a5,a5,a1
 348 0012 8A07     		slli	a5,a5,2
 349 0014 AA97     		add	a5,a5,a0
 350 0016 9847     		lw	a4,8(a5)
 351 0018 1377F7FD 		andi	a4,a4,-33
 352 001c 98C7     		sw	a4,8(a5)
 189:arch/riscv/mach-gd32vf10x/bsp/gd32vf103_dma.c **** 
 353              		.loc 1 189 1
 354 001e 8280     		ret
 355              	.L26:
 356              	.LBB61:
 357              	.LBB60:
 358              		.loc 1 725 9 is_stmt 1
 359              		.loc 1 725 11 is_stmt 0
 360 0020 9147     		li	a5,4
 361 0022 E3F5B7FE 		bleu	a1,a5,.L24
 362              	.L25:
 363              	.LBE60:
 364              	.LBE61:
 185:arch/riscv/mach-gd32vf10x/bsp/gd32vf103_dma.c ****     }
 365              		.loc 1 185 9 is_stmt 1 discriminator 1
 185:arch/riscv/mach-gd32vf10x/bsp/gd32vf103_dma.c ****     }
GAS LISTING C:\Users\test\AppData\Local\Temp\ccdvqI39.s 			page 22


 366              		.loc 1 185 9 discriminator 1
 185:arch/riscv/mach-gd32vf10x/bsp/gd32vf103_dma.c ****     }
 367              		.loc 1 185 9 discriminator 1
 185:arch/riscv/mach-gd32vf10x/bsp/gd32vf103_dma.c ****     }
 368              		.loc 1 185 9 discriminator 1
 369 0026 01A0     		j	.L25
 370              		.cfi_endproc
 371              	.LFE6:
 373              		.section	.text.dma_memory_to_memory_enable,"ax",@progbits
 374              		.align	1
 375              		.globl	dma_memory_to_memory_enable
 377              	dma_memory_to_memory_enable:
 378              	.LFB7:
 202:arch/riscv/mach-gd32vf10x/bsp/gd32vf103_dma.c ****     if(ERROR == dma_periph_and_channel_check(dma_periph, channelx)){
 379              		.loc 1 202 1
 380              		.cfi_startproc
 381              	.LVL19:
 203:arch/riscv/mach-gd32vf10x/bsp/gd32vf103_dma.c ****         DMA_WRONG_HANDLE
 382              		.loc 1 203 5
 383              	.LBB62:
 384              	.LBB63:
 723:arch/riscv/mach-gd32vf10x/bsp/gd32vf103_dma.c ****         /* for DMA1, the channel is from DMA_CH0 to DMA_CH4 */
 385              		.loc 1 723 7 is_stmt 0
 386 0000 B7070240 		li	a5,1073872896
 387 0004 93870740 		addi	a5,a5,1024
 388              	.LVL20:
 721:arch/riscv/mach-gd32vf10x/bsp/gd32vf103_dma.c **** 
 389              		.loc 1 721 5 is_stmt 1
 723:arch/riscv/mach-gd32vf10x/bsp/gd32vf103_dma.c ****         /* for DMA1, the channel is from DMA_CH0 to DMA_CH4 */
 390              		.loc 1 723 5
 723:arch/riscv/mach-gd32vf10x/bsp/gd32vf103_dma.c ****         /* for DMA1, the channel is from DMA_CH0 to DMA_CH4 */
 391              		.loc 1 723 7 is_stmt 0
 392 0008 630CF500 		beq	a0,a5,.L30
 393              	.L28:
 394              	.LBE63:
 395              	.LBE62:
 207:arch/riscv/mach-gd32vf10x/bsp/gd32vf103_dma.c **** }
 396              		.loc 1 207 5 is_stmt 1
 207:arch/riscv/mach-gd32vf10x/bsp/gd32vf103_dma.c **** }
 397              		.loc 1 207 37 is_stmt 0
 398 000c 93972500 		slli	a5,a1,2
 399 0010 AE97     		add	a5,a5,a1
 400 0012 8A07     		slli	a5,a5,2
 401 0014 AA97     		add	a5,a5,a0
 402 0016 9847     		lw	a4,8(a5)
 403 0018 9166     		li	a3,16384
 404 001a 558F     		or	a4,a4,a3
 405 001c 98C7     		sw	a4,8(a5)
 208:arch/riscv/mach-gd32vf10x/bsp/gd32vf103_dma.c **** 
 406              		.loc 1 208 1
 407 001e 8280     		ret
 408              	.L30:
 409              	.LBB65:
 410              	.LBB64:
 411              		.loc 1 725 9 is_stmt 1
 412              		.loc 1 725 11 is_stmt 0
 413 0020 9147     		li	a5,4
GAS LISTING C:\Users\test\AppData\Local\Temp\ccdvqI39.s 			page 23


 414 0022 E3F5B7FE 		bleu	a1,a5,.L28
 415              	.L29:
 416              	.LBE64:
 417              	.LBE65:
 204:arch/riscv/mach-gd32vf10x/bsp/gd32vf103_dma.c ****     }
 418              		.loc 1 204 9 is_stmt 1 discriminator 1
 204:arch/riscv/mach-gd32vf10x/bsp/gd32vf103_dma.c ****     }
 419              		.loc 1 204 9 discriminator 1
 204:arch/riscv/mach-gd32vf10x/bsp/gd32vf103_dma.c ****     }
 420              		.loc 1 204 9 discriminator 1
 204:arch/riscv/mach-gd32vf10x/bsp/gd32vf103_dma.c ****     }
 421              		.loc 1 204 9 discriminator 1
 422 0026 01A0     		j	.L29
 423              		.cfi_endproc
 424              	.LFE7:
 426              		.section	.text.dma_memory_to_memory_disable,"ax",@progbits
 427              		.align	1
 428              		.globl	dma_memory_to_memory_disable
 430              	dma_memory_to_memory_disable:
 431              	.LFB8:
 221:arch/riscv/mach-gd32vf10x/bsp/gd32vf103_dma.c ****     if(ERROR == dma_periph_and_channel_check(dma_periph, channelx)){
 432              		.loc 1 221 1
 433              		.cfi_startproc
 434              	.LVL21:
 222:arch/riscv/mach-gd32vf10x/bsp/gd32vf103_dma.c ****         DMA_WRONG_HANDLE
 435              		.loc 1 222 5
 436              	.LBB66:
 437              	.LBB67:
 723:arch/riscv/mach-gd32vf10x/bsp/gd32vf103_dma.c ****         /* for DMA1, the channel is from DMA_CH0 to DMA_CH4 */
 438              		.loc 1 723 7 is_stmt 0
 439 0000 B7070240 		li	a5,1073872896
 440 0004 93870740 		addi	a5,a5,1024
 441              	.LVL22:
 721:arch/riscv/mach-gd32vf10x/bsp/gd32vf103_dma.c **** 
 442              		.loc 1 721 5 is_stmt 1
 723:arch/riscv/mach-gd32vf10x/bsp/gd32vf103_dma.c ****         /* for DMA1, the channel is from DMA_CH0 to DMA_CH4 */
 443              		.loc 1 723 5
 723:arch/riscv/mach-gd32vf10x/bsp/gd32vf103_dma.c ****         /* for DMA1, the channel is from DMA_CH0 to DMA_CH4 */
 444              		.loc 1 723 7 is_stmt 0
 445 0008 630DF500 		beq	a0,a5,.L34
 446              	.L32:
 447              	.LBE67:
 448              	.LBE66:
 226:arch/riscv/mach-gd32vf10x/bsp/gd32vf103_dma.c **** }
 449              		.loc 1 226 5 is_stmt 1
 226:arch/riscv/mach-gd32vf10x/bsp/gd32vf103_dma.c **** }
 450              		.loc 1 226 37 is_stmt 0
 451 000c 93972500 		slli	a5,a1,2
 452 0010 AE97     		add	a5,a5,a1
 453 0012 8A07     		slli	a5,a5,2
 454 0014 AA97     		add	a5,a5,a0
 455 0016 9847     		lw	a4,8(a5)
 456 0018 F176     		li	a3,-16384
 457 001a FD16     		addi	a3,a3,-1
 458 001c 758F     		and	a4,a4,a3
 459 001e 98C7     		sw	a4,8(a5)
 227:arch/riscv/mach-gd32vf10x/bsp/gd32vf103_dma.c **** 
GAS LISTING C:\Users\test\AppData\Local\Temp\ccdvqI39.s 			page 24


 460              		.loc 1 227 1
 461 0020 8280     		ret
 462              	.L34:
 463              	.LBB69:
 464              	.LBB68:
 465              		.loc 1 725 9 is_stmt 1
 466              		.loc 1 725 11 is_stmt 0
 467 0022 9147     		li	a5,4
 468 0024 E3F4B7FE 		bleu	a1,a5,.L32
 469              	.L33:
 470              	.LBE68:
 471              	.LBE69:
 223:arch/riscv/mach-gd32vf10x/bsp/gd32vf103_dma.c ****     }
 472              		.loc 1 223 9 is_stmt 1 discriminator 1
 223:arch/riscv/mach-gd32vf10x/bsp/gd32vf103_dma.c ****     }
 473              		.loc 1 223 9 discriminator 1
 223:arch/riscv/mach-gd32vf10x/bsp/gd32vf103_dma.c ****     }
 474              		.loc 1 223 9 discriminator 1
 223:arch/riscv/mach-gd32vf10x/bsp/gd32vf103_dma.c ****     }
 475              		.loc 1 223 9 discriminator 1
 476 0028 01A0     		j	.L33
 477              		.cfi_endproc
 478              	.LFE8:
 480              		.section	.text.dma_channel_enable,"ax",@progbits
 481              		.align	1
 482              		.globl	dma_channel_enable
 484              	dma_channel_enable:
 485              	.LFB9:
 240:arch/riscv/mach-gd32vf10x/bsp/gd32vf103_dma.c ****     if(ERROR == dma_periph_and_channel_check(dma_periph, channelx)){
 486              		.loc 1 240 1
 487              		.cfi_startproc
 488              	.LVL23:
 241:arch/riscv/mach-gd32vf10x/bsp/gd32vf103_dma.c ****         DMA_WRONG_HANDLE
 489              		.loc 1 241 5
 490              	.LBB70:
 491              	.LBB71:
 723:arch/riscv/mach-gd32vf10x/bsp/gd32vf103_dma.c ****         /* for DMA1, the channel is from DMA_CH0 to DMA_CH4 */
 492              		.loc 1 723 7 is_stmt 0
 493 0000 B7070240 		li	a5,1073872896
 494 0004 93870740 		addi	a5,a5,1024
 495              	.LVL24:
 721:arch/riscv/mach-gd32vf10x/bsp/gd32vf103_dma.c **** 
 496              		.loc 1 721 5 is_stmt 1
 723:arch/riscv/mach-gd32vf10x/bsp/gd32vf103_dma.c ****         /* for DMA1, the channel is from DMA_CH0 to DMA_CH4 */
 497              		.loc 1 723 5
 723:arch/riscv/mach-gd32vf10x/bsp/gd32vf103_dma.c ****         /* for DMA1, the channel is from DMA_CH0 to DMA_CH4 */
 498              		.loc 1 723 7 is_stmt 0
 499 0008 630CF500 		beq	a0,a5,.L38
 500              	.L36:
 501              	.LBE71:
 502              	.LBE70:
 245:arch/riscv/mach-gd32vf10x/bsp/gd32vf103_dma.c **** }
 503              		.loc 1 245 5 is_stmt 1
 245:arch/riscv/mach-gd32vf10x/bsp/gd32vf103_dma.c **** }
 504              		.loc 1 245 37 is_stmt 0
 505 000c 93972500 		slli	a5,a1,2
 506 0010 AE97     		add	a5,a5,a1
GAS LISTING C:\Users\test\AppData\Local\Temp\ccdvqI39.s 			page 25


 507 0012 8A07     		slli	a5,a5,2
 508 0014 AA97     		add	a5,a5,a0
 509 0016 9847     		lw	a4,8(a5)
 510 0018 13671700 		ori	a4,a4,1
 511 001c 98C7     		sw	a4,8(a5)
 246:arch/riscv/mach-gd32vf10x/bsp/gd32vf103_dma.c **** 
 512              		.loc 1 246 1
 513 001e 8280     		ret
 514              	.L38:
 515              	.LBB73:
 516              	.LBB72:
 517              		.loc 1 725 9 is_stmt 1
 518              		.loc 1 725 11 is_stmt 0
 519 0020 9147     		li	a5,4
 520 0022 E3F5B7FE 		bleu	a1,a5,.L36
 521              	.L37:
 522              	.LBE72:
 523              	.LBE73:
 242:arch/riscv/mach-gd32vf10x/bsp/gd32vf103_dma.c ****     }
 524              		.loc 1 242 9 is_stmt 1 discriminator 1
 242:arch/riscv/mach-gd32vf10x/bsp/gd32vf103_dma.c ****     }
 525              		.loc 1 242 9 discriminator 1
 242:arch/riscv/mach-gd32vf10x/bsp/gd32vf103_dma.c ****     }
 526              		.loc 1 242 9 discriminator 1
 242:arch/riscv/mach-gd32vf10x/bsp/gd32vf103_dma.c ****     }
 527              		.loc 1 242 9 discriminator 1
 528 0026 01A0     		j	.L37
 529              		.cfi_endproc
 530              	.LFE9:
 532              		.section	.text.dma_channel_disable,"ax",@progbits
 533              		.align	1
 534              		.globl	dma_channel_disable
 536              	dma_channel_disable:
 537              	.LFB10:
 259:arch/riscv/mach-gd32vf10x/bsp/gd32vf103_dma.c ****     if(ERROR == dma_periph_and_channel_check(dma_periph, channelx)){
 538              		.loc 1 259 1
 539              		.cfi_startproc
 540              	.LVL25:
 260:arch/riscv/mach-gd32vf10x/bsp/gd32vf103_dma.c ****         DMA_WRONG_HANDLE
 541              		.loc 1 260 5
 542              	.LBB74:
 543              	.LBB75:
 723:arch/riscv/mach-gd32vf10x/bsp/gd32vf103_dma.c ****         /* for DMA1, the channel is from DMA_CH0 to DMA_CH4 */
 544              		.loc 1 723 7 is_stmt 0
 545 0000 B7070240 		li	a5,1073872896
 546 0004 93870740 		addi	a5,a5,1024
 547              	.LVL26:
 721:arch/riscv/mach-gd32vf10x/bsp/gd32vf103_dma.c **** 
 548              		.loc 1 721 5 is_stmt 1
 723:arch/riscv/mach-gd32vf10x/bsp/gd32vf103_dma.c ****         /* for DMA1, the channel is from DMA_CH0 to DMA_CH4 */
 549              		.loc 1 723 5
 723:arch/riscv/mach-gd32vf10x/bsp/gd32vf103_dma.c ****         /* for DMA1, the channel is from DMA_CH0 to DMA_CH4 */
 550              		.loc 1 723 7 is_stmt 0
 551 0008 630BF500 		beq	a0,a5,.L42
 552              	.L40:
 553              	.LBE75:
 554              	.LBE74:
GAS LISTING C:\Users\test\AppData\Local\Temp\ccdvqI39.s 			page 26


 264:arch/riscv/mach-gd32vf10x/bsp/gd32vf103_dma.c **** }
 555              		.loc 1 264 5 is_stmt 1
 264:arch/riscv/mach-gd32vf10x/bsp/gd32vf103_dma.c **** }
 556              		.loc 1 264 37 is_stmt 0
 557 000c 93972500 		slli	a5,a1,2
 558 0010 AE97     		add	a5,a5,a1
 559 0012 8A07     		slli	a5,a5,2
 560 0014 AA97     		add	a5,a5,a0
 561 0016 9847     		lw	a4,8(a5)
 562 0018 799B     		andi	a4,a4,-2
 563 001a 98C7     		sw	a4,8(a5)
 265:arch/riscv/mach-gd32vf10x/bsp/gd32vf103_dma.c **** 
 564              		.loc 1 265 1
 565 001c 8280     		ret
 566              	.L42:
 567              	.LBB77:
 568              	.LBB76:
 569              		.loc 1 725 9 is_stmt 1
 570              		.loc 1 725 11 is_stmt 0
 571 001e 9147     		li	a5,4
 572 0020 E3F6B7FE 		bleu	a1,a5,.L40
 573              	.L41:
 574              	.LBE76:
 575              	.LBE77:
 261:arch/riscv/mach-gd32vf10x/bsp/gd32vf103_dma.c ****     }
 576              		.loc 1 261 9 is_stmt 1 discriminator 1
 261:arch/riscv/mach-gd32vf10x/bsp/gd32vf103_dma.c ****     }
 577              		.loc 1 261 9 discriminator 1
 261:arch/riscv/mach-gd32vf10x/bsp/gd32vf103_dma.c ****     }
 578              		.loc 1 261 9 discriminator 1
 261:arch/riscv/mach-gd32vf10x/bsp/gd32vf103_dma.c ****     }
 579              		.loc 1 261 9 discriminator 1
 580 0024 01A0     		j	.L41
 581              		.cfi_endproc
 582              	.LFE10:
 584              		.section	.text.dma_periph_address_config,"ax",@progbits
 585              		.align	1
 586              		.globl	dma_periph_address_config
 588              	dma_periph_address_config:
 589              	.LFB11:
 279:arch/riscv/mach-gd32vf10x/bsp/gd32vf103_dma.c ****     if(ERROR == dma_periph_and_channel_check(dma_periph, channelx)){
 590              		.loc 1 279 1
 591              		.cfi_startproc
 592              	.LVL27:
 280:arch/riscv/mach-gd32vf10x/bsp/gd32vf103_dma.c ****         DMA_WRONG_HANDLE
 593              		.loc 1 280 5
 594              	.LBB78:
 595              	.LBB79:
 723:arch/riscv/mach-gd32vf10x/bsp/gd32vf103_dma.c ****         /* for DMA1, the channel is from DMA_CH0 to DMA_CH4 */
 596              		.loc 1 723 7 is_stmt 0
 597 0000 B7070240 		li	a5,1073872896
 598 0004 93870740 		addi	a5,a5,1024
 599              	.LVL28:
 721:arch/riscv/mach-gd32vf10x/bsp/gd32vf103_dma.c **** 
 600              		.loc 1 721 5 is_stmt 1
 723:arch/riscv/mach-gd32vf10x/bsp/gd32vf103_dma.c ****         /* for DMA1, the channel is from DMA_CH0 to DMA_CH4 */
 601              		.loc 1 723 5
GAS LISTING C:\Users\test\AppData\Local\Temp\ccdvqI39.s 			page 27


 723:arch/riscv/mach-gd32vf10x/bsp/gd32vf103_dma.c ****         /* for DMA1, the channel is from DMA_CH0 to DMA_CH4 */
 602              		.loc 1 723 7 is_stmt 0
 603 0008 6309F500 		beq	a0,a5,.L46
 604              	.L44:
 605              	.LBE79:
 606              	.LBE78:
 284:arch/riscv/mach-gd32vf10x/bsp/gd32vf103_dma.c **** }
 607              		.loc 1 284 5 is_stmt 1
 608 000c 93972500 		slli	a5,a1,2
 609 0010 AE97     		add	a5,a5,a1
 610 0012 8A07     		slli	a5,a5,2
 611 0014 AA97     		add	a5,a5,a0
 284:arch/riscv/mach-gd32vf10x/bsp/gd32vf103_dma.c **** }
 612              		.loc 1 284 39 is_stmt 0
 613 0016 90CB     		sw	a2,16(a5)
 285:arch/riscv/mach-gd32vf10x/bsp/gd32vf103_dma.c **** 
 614              		.loc 1 285 1
 615 0018 8280     		ret
 616              	.L46:
 617              	.LBB81:
 618              	.LBB80:
 619              		.loc 1 725 9 is_stmt 1
 620              		.loc 1 725 11 is_stmt 0
 621 001a 9147     		li	a5,4
 622 001c E3F8B7FE 		bleu	a1,a5,.L44
 623              	.L45:
 624              	.LBE80:
 625              	.LBE81:
 281:arch/riscv/mach-gd32vf10x/bsp/gd32vf103_dma.c ****     }
 626              		.loc 1 281 9 is_stmt 1 discriminator 1
 281:arch/riscv/mach-gd32vf10x/bsp/gd32vf103_dma.c ****     }
 627              		.loc 1 281 9 discriminator 1
 281:arch/riscv/mach-gd32vf10x/bsp/gd32vf103_dma.c ****     }
 628              		.loc 1 281 9 discriminator 1
 281:arch/riscv/mach-gd32vf10x/bsp/gd32vf103_dma.c ****     }
 629              		.loc 1 281 9 discriminator 1
 630 0020 01A0     		j	.L45
 631              		.cfi_endproc
 632              	.LFE11:
 634              		.section	.text.dma_memory_address_config,"ax",@progbits
 635              		.align	1
 636              		.globl	dma_memory_address_config
 638              	dma_memory_address_config:
 639              	.LFB12:
 299:arch/riscv/mach-gd32vf10x/bsp/gd32vf103_dma.c ****     if(ERROR == dma_periph_and_channel_check(dma_periph, channelx)){
 640              		.loc 1 299 1
 641              		.cfi_startproc
 642              	.LVL29:
 300:arch/riscv/mach-gd32vf10x/bsp/gd32vf103_dma.c ****         DMA_WRONG_HANDLE
 643              		.loc 1 300 5
 644              	.LBB82:
 645              	.LBB83:
 723:arch/riscv/mach-gd32vf10x/bsp/gd32vf103_dma.c ****         /* for DMA1, the channel is from DMA_CH0 to DMA_CH4 */
 646              		.loc 1 723 7 is_stmt 0
 647 0000 B7070240 		li	a5,1073872896
 648 0004 93870740 		addi	a5,a5,1024
 649              	.LVL30:
GAS LISTING C:\Users\test\AppData\Local\Temp\ccdvqI39.s 			page 28


 721:arch/riscv/mach-gd32vf10x/bsp/gd32vf103_dma.c **** 
 650              		.loc 1 721 5 is_stmt 1
 723:arch/riscv/mach-gd32vf10x/bsp/gd32vf103_dma.c ****         /* for DMA1, the channel is from DMA_CH0 to DMA_CH4 */
 651              		.loc 1 723 5
 723:arch/riscv/mach-gd32vf10x/bsp/gd32vf103_dma.c ****         /* for DMA1, the channel is from DMA_CH0 to DMA_CH4 */
 652              		.loc 1 723 7 is_stmt 0
 653 0008 6309F500 		beq	a0,a5,.L50
 654              	.L48:
 655              	.LBE83:
 656              	.LBE82:
 304:arch/riscv/mach-gd32vf10x/bsp/gd32vf103_dma.c **** }
 657              		.loc 1 304 5 is_stmt 1
 658 000c 93972500 		slli	a5,a1,2
 659 0010 AE97     		add	a5,a5,a1
 660 0012 8A07     		slli	a5,a5,2
 661 0014 AA97     		add	a5,a5,a0
 304:arch/riscv/mach-gd32vf10x/bsp/gd32vf103_dma.c **** }
 662              		.loc 1 304 39 is_stmt 0
 663 0016 D0CB     		sw	a2,20(a5)
 305:arch/riscv/mach-gd32vf10x/bsp/gd32vf103_dma.c **** 
 664              		.loc 1 305 1
 665 0018 8280     		ret
 666              	.L50:
 667              	.LBB85:
 668              	.LBB84:
 669              		.loc 1 725 9 is_stmt 1
 670              		.loc 1 725 11 is_stmt 0
 671 001a 9147     		li	a5,4
 672 001c E3F8B7FE 		bleu	a1,a5,.L48
 673              	.L49:
 674              	.LBE84:
 675              	.LBE85:
 301:arch/riscv/mach-gd32vf10x/bsp/gd32vf103_dma.c ****     }
 676              		.loc 1 301 9 is_stmt 1 discriminator 1
 301:arch/riscv/mach-gd32vf10x/bsp/gd32vf103_dma.c ****     }
 677              		.loc 1 301 9 discriminator 1
 301:arch/riscv/mach-gd32vf10x/bsp/gd32vf103_dma.c ****     }
 678              		.loc 1 301 9 discriminator 1
 301:arch/riscv/mach-gd32vf10x/bsp/gd32vf103_dma.c ****     }
 679              		.loc 1 301 9 discriminator 1
 680 0020 01A0     		j	.L49
 681              		.cfi_endproc
 682              	.LFE12:
 684              		.section	.text.dma_transfer_number_config,"ax",@progbits
 685              		.align	1
 686              		.globl	dma_transfer_number_config
 688              	dma_transfer_number_config:
 689              	.LFB13:
 319:arch/riscv/mach-gd32vf10x/bsp/gd32vf103_dma.c ****     if(ERROR == dma_periph_and_channel_check(dma_periph, channelx)){
 690              		.loc 1 319 1
 691              		.cfi_startproc
 692              	.LVL31:
 320:arch/riscv/mach-gd32vf10x/bsp/gd32vf103_dma.c ****         DMA_WRONG_HANDLE
 693              		.loc 1 320 5
 694              	.LBB86:
 695              	.LBB87:
 723:arch/riscv/mach-gd32vf10x/bsp/gd32vf103_dma.c ****         /* for DMA1, the channel is from DMA_CH0 to DMA_CH4 */
GAS LISTING C:\Users\test\AppData\Local\Temp\ccdvqI39.s 			page 29


 696              		.loc 1 723 7 is_stmt 0
 697 0000 B7070240 		li	a5,1073872896
 698 0004 93870740 		addi	a5,a5,1024
 699              	.LVL32:
 721:arch/riscv/mach-gd32vf10x/bsp/gd32vf103_dma.c **** 
 700              		.loc 1 721 5 is_stmt 1
 723:arch/riscv/mach-gd32vf10x/bsp/gd32vf103_dma.c ****         /* for DMA1, the channel is from DMA_CH0 to DMA_CH4 */
 701              		.loc 1 723 5
 723:arch/riscv/mach-gd32vf10x/bsp/gd32vf103_dma.c ****         /* for DMA1, the channel is from DMA_CH0 to DMA_CH4 */
 702              		.loc 1 723 7 is_stmt 0
 703 0008 630BF500 		beq	a0,a5,.L54
 704              	.L52:
 705              	.LBE87:
 706              	.LBE86:
 324:arch/riscv/mach-gd32vf10x/bsp/gd32vf103_dma.c **** }
 707              		.loc 1 324 5 is_stmt 1
 708 000c 93972500 		slli	a5,a1,2
 709 0010 AE97     		add	a5,a5,a1
 710 0012 8A07     		slli	a5,a5,2
 324:arch/riscv/mach-gd32vf10x/bsp/gd32vf103_dma.c **** }
 711              		.loc 1 324 47 is_stmt 0
 712 0014 4206     		slli	a2,a2,16
 713              	.LVL33:
 324:arch/riscv/mach-gd32vf10x/bsp/gd32vf103_dma.c **** }
 714              		.loc 1 324 5
 715 0016 AA97     		add	a5,a5,a0
 324:arch/riscv/mach-gd32vf10x/bsp/gd32vf103_dma.c **** }
 716              		.loc 1 324 47
 717 0018 4182     		srli	a2,a2,16
 324:arch/riscv/mach-gd32vf10x/bsp/gd32vf103_dma.c **** }
 718              		.loc 1 324 37
 719 001a D0C7     		sw	a2,12(a5)
 325:arch/riscv/mach-gd32vf10x/bsp/gd32vf103_dma.c **** 
 720              		.loc 1 325 1
 721 001c 8280     		ret
 722              	.LVL34:
 723              	.L54:
 724              	.LBB89:
 725              	.LBB88:
 726              		.loc 1 725 9 is_stmt 1
 727              		.loc 1 725 11 is_stmt 0
 728 001e 9147     		li	a5,4
 729 0020 E3F6B7FE 		bleu	a1,a5,.L52
 730              	.L53:
 731              	.LBE88:
 732              	.LBE89:
 321:arch/riscv/mach-gd32vf10x/bsp/gd32vf103_dma.c ****     }
 733              		.loc 1 321 9 is_stmt 1 discriminator 1
 321:arch/riscv/mach-gd32vf10x/bsp/gd32vf103_dma.c ****     }
 734              		.loc 1 321 9 discriminator 1
 321:arch/riscv/mach-gd32vf10x/bsp/gd32vf103_dma.c ****     }
 735              		.loc 1 321 9 discriminator 1
 321:arch/riscv/mach-gd32vf10x/bsp/gd32vf103_dma.c ****     }
 736              		.loc 1 321 9 discriminator 1
 737 0024 01A0     		j	.L53
 738              		.cfi_endproc
 739              	.LFE13:
GAS LISTING C:\Users\test\AppData\Local\Temp\ccdvqI39.s 			page 30


 741              		.section	.text.dma_transfer_number_get,"ax",@progbits
 742              		.align	1
 743              		.globl	dma_transfer_number_get
 745              	dma_transfer_number_get:
 746              	.LFB14:
 338:arch/riscv/mach-gd32vf10x/bsp/gd32vf103_dma.c ****     if(ERROR == dma_periph_and_channel_check(dma_periph, channelx)){
 747              		.loc 1 338 1
 748              		.cfi_startproc
 749              	.LVL35:
 339:arch/riscv/mach-gd32vf10x/bsp/gd32vf103_dma.c ****         DMA_WRONG_HANDLE
 750              		.loc 1 339 5
 751              	.LBB90:
 752              	.LBB91:
 723:arch/riscv/mach-gd32vf10x/bsp/gd32vf103_dma.c ****         /* for DMA1, the channel is from DMA_CH0 to DMA_CH4 */
 753              		.loc 1 723 7 is_stmt 0
 754 0000 B7070240 		li	a5,1073872896
 755 0004 93870740 		addi	a5,a5,1024
 756              	.LVL36:
 721:arch/riscv/mach-gd32vf10x/bsp/gd32vf103_dma.c **** 
 757              		.loc 1 721 5 is_stmt 1
 723:arch/riscv/mach-gd32vf10x/bsp/gd32vf103_dma.c ****         /* for DMA1, the channel is from DMA_CH0 to DMA_CH4 */
 758              		.loc 1 723 5
 723:arch/riscv/mach-gd32vf10x/bsp/gd32vf103_dma.c ****         /* for DMA1, the channel is from DMA_CH0 to DMA_CH4 */
 759              		.loc 1 723 7 is_stmt 0
 760 0008 6309F500 		beq	a0,a5,.L58
 761              	.L56:
 762              	.LBE91:
 763              	.LBE90:
 343:arch/riscv/mach-gd32vf10x/bsp/gd32vf103_dma.c **** }
 764              		.loc 1 343 5 is_stmt 1
 343:arch/riscv/mach-gd32vf10x/bsp/gd32vf103_dma.c **** }
 765              		.loc 1 343 22 is_stmt 0
 766 000c 93972500 		slli	a5,a1,2
 767 0010 AE97     		add	a5,a5,a1
 768 0012 8A07     		slli	a5,a5,2
 769 0014 AA97     		add	a5,a5,a0
 343:arch/riscv/mach-gd32vf10x/bsp/gd32vf103_dma.c **** }
 770              		.loc 1 343 12
 771 0016 C847     		lw	a0,12(a5)
 772              	.LVL37:
 344:arch/riscv/mach-gd32vf10x/bsp/gd32vf103_dma.c **** 
 773              		.loc 1 344 1
 774 0018 8280     		ret
 775              	.LVL38:
 776              	.L58:
 777              	.LBB93:
 778              	.LBB92:
 779              		.loc 1 725 9 is_stmt 1
 780              		.loc 1 725 11 is_stmt 0
 781 001a 9147     		li	a5,4
 782 001c E3F8B7FE 		bleu	a1,a5,.L56
 783              	.L57:
 784              	.LBE92:
 785              	.LBE93:
 340:arch/riscv/mach-gd32vf10x/bsp/gd32vf103_dma.c ****     }
 786              		.loc 1 340 9 is_stmt 1 discriminator 1
 340:arch/riscv/mach-gd32vf10x/bsp/gd32vf103_dma.c ****     }
GAS LISTING C:\Users\test\AppData\Local\Temp\ccdvqI39.s 			page 31


 787              		.loc 1 340 9 discriminator 1
 340:arch/riscv/mach-gd32vf10x/bsp/gd32vf103_dma.c ****     }
 788              		.loc 1 340 9 discriminator 1
 340:arch/riscv/mach-gd32vf10x/bsp/gd32vf103_dma.c ****     }
 789              		.loc 1 340 9 discriminator 1
 790 0020 01A0     		j	.L57
 791              		.cfi_endproc
 792              	.LFE14:
 794              		.section	.text.dma_priority_config,"ax",@progbits
 795              		.align	1
 796              		.globl	dma_priority_config
 798              	dma_priority_config:
 799              	.LFB15:
 363:arch/riscv/mach-gd32vf10x/bsp/gd32vf103_dma.c ****     uint32_t ctl;
 800              		.loc 1 363 1
 801              		.cfi_startproc
 802              	.LVL39:
 364:arch/riscv/mach-gd32vf10x/bsp/gd32vf103_dma.c **** 
 803              		.loc 1 364 5
 366:arch/riscv/mach-gd32vf10x/bsp/gd32vf103_dma.c ****         DMA_WRONG_HANDLE
 804              		.loc 1 366 5
 805              	.LBB94:
 806              	.LBB95:
 723:arch/riscv/mach-gd32vf10x/bsp/gd32vf103_dma.c ****         /* for DMA1, the channel is from DMA_CH0 to DMA_CH4 */
 807              		.loc 1 723 7 is_stmt 0
 808 0000 B7070240 		li	a5,1073872896
 809 0004 93870740 		addi	a5,a5,1024
 810              	.LVL40:
 721:arch/riscv/mach-gd32vf10x/bsp/gd32vf103_dma.c **** 
 811              		.loc 1 721 5 is_stmt 1
 723:arch/riscv/mach-gd32vf10x/bsp/gd32vf103_dma.c ****         /* for DMA1, the channel is from DMA_CH0 to DMA_CH4 */
 812              		.loc 1 723 5
 723:arch/riscv/mach-gd32vf10x/bsp/gd32vf103_dma.c ****         /* for DMA1, the channel is from DMA_CH0 to DMA_CH4 */
 813              		.loc 1 723 7 is_stmt 0
 814 0008 630EF500 		beq	a0,a5,.L62
 815              	.L60:
 816              	.LBE95:
 817              	.LBE94:
 371:arch/riscv/mach-gd32vf10x/bsp/gd32vf103_dma.c ****     /* assign regiser */
 818              		.loc 1 371 5 is_stmt 1
 371:arch/riscv/mach-gd32vf10x/bsp/gd32vf103_dma.c ****     /* assign regiser */
 819              		.loc 1 371 11 is_stmt 0
 820 000c 93972500 		slli	a5,a1,2
 821 0010 AE97     		add	a5,a5,a1
 822 0012 8A07     		slli	a5,a5,2
 823 0014 AA97     		add	a5,a5,a0
 371:arch/riscv/mach-gd32vf10x/bsp/gd32vf103_dma.c ****     /* assign regiser */
 824              		.loc 1 371 9
 825 0016 9847     		lw	a4,8(a5)
 826              	.LVL41:
 373:arch/riscv/mach-gd32vf10x/bsp/gd32vf103_dma.c ****     ctl |= priority;
 827              		.loc 1 373 5 is_stmt 1
 373:arch/riscv/mach-gd32vf10x/bsp/gd32vf103_dma.c ****     ctl |= priority;
 828              		.loc 1 373 9 is_stmt 0
 829 0018 F576     		li	a3,-12288
 830 001a FD16     		addi	a3,a3,-1
 831 001c 758F     		and	a4,a4,a3
GAS LISTING C:\Users\test\AppData\Local\Temp\ccdvqI39.s 			page 32


 832              	.LVL42:
 374:arch/riscv/mach-gd32vf10x/bsp/gd32vf103_dma.c ****     DMA_CHCTL(dma_periph, channelx) = ctl;
 833              		.loc 1 374 5 is_stmt 1
 374:arch/riscv/mach-gd32vf10x/bsp/gd32vf103_dma.c ****     DMA_CHCTL(dma_periph, channelx) = ctl;
 834              		.loc 1 374 9 is_stmt 0
 835 001e 518F     		or	a4,a4,a2
 836              	.LVL43:
 375:arch/riscv/mach-gd32vf10x/bsp/gd32vf103_dma.c **** }
 837              		.loc 1 375 5 is_stmt 1
 375:arch/riscv/mach-gd32vf10x/bsp/gd32vf103_dma.c **** }
 838              		.loc 1 375 37 is_stmt 0
 839 0020 98C7     		sw	a4,8(a5)
 376:arch/riscv/mach-gd32vf10x/bsp/gd32vf103_dma.c **** 
 840              		.loc 1 376 1
 841 0022 8280     		ret
 842              	.LVL44:
 843              	.L62:
 844              	.LBB97:
 845              	.LBB96:
 846              		.loc 1 725 9 is_stmt 1
 847              		.loc 1 725 11 is_stmt 0
 848 0024 9147     		li	a5,4
 849 0026 E3F3B7FE 		bleu	a1,a5,.L60
 850              	.L61:
 851              	.LBE96:
 852              	.LBE97:
 367:arch/riscv/mach-gd32vf10x/bsp/gd32vf103_dma.c ****     }
 853              		.loc 1 367 9 is_stmt 1 discriminator 1
 367:arch/riscv/mach-gd32vf10x/bsp/gd32vf103_dma.c ****     }
 854              		.loc 1 367 9 discriminator 1
 367:arch/riscv/mach-gd32vf10x/bsp/gd32vf103_dma.c ****     }
 855              		.loc 1 367 9 discriminator 1
 367:arch/riscv/mach-gd32vf10x/bsp/gd32vf103_dma.c ****     }
 856              		.loc 1 367 9 discriminator 1
 857 002a 01A0     		j	.L61
 858              		.cfi_endproc
 859              	.LFE15:
 861              		.section	.text.dma_memory_width_config,"ax",@progbits
 862              		.align	1
 863              		.globl	dma_memory_width_config
 865              	dma_memory_width_config:
 866              	.LFB16:
 394:arch/riscv/mach-gd32vf10x/bsp/gd32vf103_dma.c ****     uint32_t ctl;
 867              		.loc 1 394 1
 868              		.cfi_startproc
 869              	.LVL45:
 395:arch/riscv/mach-gd32vf10x/bsp/gd32vf103_dma.c **** 
 870              		.loc 1 395 5
 397:arch/riscv/mach-gd32vf10x/bsp/gd32vf103_dma.c ****         DMA_WRONG_HANDLE
 871              		.loc 1 397 5
 872              	.LBB98:
 873              	.LBB99:
 723:arch/riscv/mach-gd32vf10x/bsp/gd32vf103_dma.c ****         /* for DMA1, the channel is from DMA_CH0 to DMA_CH4 */
 874              		.loc 1 723 7 is_stmt 0
 875 0000 B7070240 		li	a5,1073872896
 876 0004 93870740 		addi	a5,a5,1024
 877              	.LVL46:
GAS LISTING C:\Users\test\AppData\Local\Temp\ccdvqI39.s 			page 33


 721:arch/riscv/mach-gd32vf10x/bsp/gd32vf103_dma.c **** 
 878              		.loc 1 721 5 is_stmt 1
 723:arch/riscv/mach-gd32vf10x/bsp/gd32vf103_dma.c ****         /* for DMA1, the channel is from DMA_CH0 to DMA_CH4 */
 879              		.loc 1 723 5
 723:arch/riscv/mach-gd32vf10x/bsp/gd32vf103_dma.c ****         /* for DMA1, the channel is from DMA_CH0 to DMA_CH4 */
 880              		.loc 1 723 7 is_stmt 0
 881 0008 630FF500 		beq	a0,a5,.L66
 882              	.L64:
 883              	.LBE99:
 884              	.LBE98:
 402:arch/riscv/mach-gd32vf10x/bsp/gd32vf103_dma.c ****     /* assign regiser */
 885              		.loc 1 402 5 is_stmt 1
 402:arch/riscv/mach-gd32vf10x/bsp/gd32vf103_dma.c ****     /* assign regiser */
 886              		.loc 1 402 11 is_stmt 0
 887 000c 93972500 		slli	a5,a1,2
 888 0010 AE97     		add	a5,a5,a1
 889 0012 8A07     		slli	a5,a5,2
 890 0014 AA97     		add	a5,a5,a0
 402:arch/riscv/mach-gd32vf10x/bsp/gd32vf103_dma.c ****     /* assign regiser */
 891              		.loc 1 402 9
 892 0016 9847     		lw	a4,8(a5)
 893              	.LVL47:
 404:arch/riscv/mach-gd32vf10x/bsp/gd32vf103_dma.c ****     ctl |= mwidth;
 894              		.loc 1 404 5 is_stmt 1
 404:arch/riscv/mach-gd32vf10x/bsp/gd32vf103_dma.c ****     ctl |= mwidth;
 895              		.loc 1 404 9 is_stmt 0
 896 0018 FD76     		li	a3,-4096
 897 001a 9386F63F 		addi	a3,a3,1023
 898 001e 758F     		and	a4,a4,a3
 899              	.LVL48:
 405:arch/riscv/mach-gd32vf10x/bsp/gd32vf103_dma.c ****     DMA_CHCTL(dma_periph, channelx) = ctl;
 900              		.loc 1 405 5 is_stmt 1
 405:arch/riscv/mach-gd32vf10x/bsp/gd32vf103_dma.c ****     DMA_CHCTL(dma_periph, channelx) = ctl;
 901              		.loc 1 405 9 is_stmt 0
 902 0020 518F     		or	a4,a4,a2
 903              	.LVL49:
 406:arch/riscv/mach-gd32vf10x/bsp/gd32vf103_dma.c **** }
 904              		.loc 1 406 5 is_stmt 1
 406:arch/riscv/mach-gd32vf10x/bsp/gd32vf103_dma.c **** }
 905              		.loc 1 406 37 is_stmt 0
 906 0022 98C7     		sw	a4,8(a5)
 407:arch/riscv/mach-gd32vf10x/bsp/gd32vf103_dma.c **** 
 907              		.loc 1 407 1
 908 0024 8280     		ret
 909              	.LVL50:
 910              	.L66:
 911              	.LBB101:
 912              	.LBB100:
 913              		.loc 1 725 9 is_stmt 1
 914              		.loc 1 725 11 is_stmt 0
 915 0026 9147     		li	a5,4
 916 0028 E3F2B7FE 		bleu	a1,a5,.L64
 917              	.L65:
 918              	.LBE100:
 919              	.LBE101:
 398:arch/riscv/mach-gd32vf10x/bsp/gd32vf103_dma.c ****     }
 920              		.loc 1 398 9 is_stmt 1 discriminator 1
GAS LISTING C:\Users\test\AppData\Local\Temp\ccdvqI39.s 			page 34


 398:arch/riscv/mach-gd32vf10x/bsp/gd32vf103_dma.c ****     }
 921              		.loc 1 398 9 discriminator 1
 398:arch/riscv/mach-gd32vf10x/bsp/gd32vf103_dma.c ****     }
 922              		.loc 1 398 9 discriminator 1
 398:arch/riscv/mach-gd32vf10x/bsp/gd32vf103_dma.c ****     }
 923              		.loc 1 398 9 discriminator 1
 924 002c 01A0     		j	.L65
 925              		.cfi_endproc
 926              	.LFE16:
 928              		.section	.text.dma_periph_width_config,"ax",@progbits
 929              		.align	1
 930              		.globl	dma_periph_width_config
 932              	dma_periph_width_config:
 933              	.LFB17:
 425:arch/riscv/mach-gd32vf10x/bsp/gd32vf103_dma.c ****     uint32_t ctl;
 934              		.loc 1 425 1
 935              		.cfi_startproc
 936              	.LVL51:
 426:arch/riscv/mach-gd32vf10x/bsp/gd32vf103_dma.c **** 
 937              		.loc 1 426 5
 428:arch/riscv/mach-gd32vf10x/bsp/gd32vf103_dma.c ****         DMA_WRONG_HANDLE
 938              		.loc 1 428 5
 939              	.LBB102:
 940              	.LBB103:
 723:arch/riscv/mach-gd32vf10x/bsp/gd32vf103_dma.c ****         /* for DMA1, the channel is from DMA_CH0 to DMA_CH4 */
 941              		.loc 1 723 7 is_stmt 0
 942 0000 B7070240 		li	a5,1073872896
 943 0004 93870740 		addi	a5,a5,1024
 944              	.LVL52:
 721:arch/riscv/mach-gd32vf10x/bsp/gd32vf103_dma.c **** 
 945              		.loc 1 721 5 is_stmt 1
 723:arch/riscv/mach-gd32vf10x/bsp/gd32vf103_dma.c ****         /* for DMA1, the channel is from DMA_CH0 to DMA_CH4 */
 946              		.loc 1 723 5
 723:arch/riscv/mach-gd32vf10x/bsp/gd32vf103_dma.c ****         /* for DMA1, the channel is from DMA_CH0 to DMA_CH4 */
 947              		.loc 1 723 7 is_stmt 0
 948 0008 630DF500 		beq	a0,a5,.L70
 949              	.L68:
 950              	.LBE103:
 951              	.LBE102:
 433:arch/riscv/mach-gd32vf10x/bsp/gd32vf103_dma.c ****     /* assign regiser */
 952              		.loc 1 433 5 is_stmt 1
 433:arch/riscv/mach-gd32vf10x/bsp/gd32vf103_dma.c ****     /* assign regiser */
 953              		.loc 1 433 11 is_stmt 0
 954 000c 93972500 		slli	a5,a1,2
 955 0010 AE97     		add	a5,a5,a1
 956 0012 8A07     		slli	a5,a5,2
 957 0014 AA97     		add	a5,a5,a0
 433:arch/riscv/mach-gd32vf10x/bsp/gd32vf103_dma.c ****     /* assign regiser */
 958              		.loc 1 433 9
 959 0016 9847     		lw	a4,8(a5)
 960              	.LVL53:
 435:arch/riscv/mach-gd32vf10x/bsp/gd32vf103_dma.c ****     ctl |= pwidth;
 961              		.loc 1 435 5 is_stmt 1
 435:arch/riscv/mach-gd32vf10x/bsp/gd32vf103_dma.c ****     ctl |= pwidth;
 962              		.loc 1 435 9 is_stmt 0
 963 0018 1377F7CF 		andi	a4,a4,-769
 964              	.LVL54:
GAS LISTING C:\Users\test\AppData\Local\Temp\ccdvqI39.s 			page 35


 436:arch/riscv/mach-gd32vf10x/bsp/gd32vf103_dma.c ****     DMA_CHCTL(dma_periph, channelx) = ctl;
 965              		.loc 1 436 5 is_stmt 1
 436:arch/riscv/mach-gd32vf10x/bsp/gd32vf103_dma.c ****     DMA_CHCTL(dma_periph, channelx) = ctl;
 966              		.loc 1 436 9 is_stmt 0
 967 001c 518F     		or	a4,a4,a2
 968              	.LVL55:
 437:arch/riscv/mach-gd32vf10x/bsp/gd32vf103_dma.c **** }
 969              		.loc 1 437 5 is_stmt 1
 437:arch/riscv/mach-gd32vf10x/bsp/gd32vf103_dma.c **** }
 970              		.loc 1 437 37 is_stmt 0
 971 001e 98C7     		sw	a4,8(a5)
 438:arch/riscv/mach-gd32vf10x/bsp/gd32vf103_dma.c **** 
 972              		.loc 1 438 1
 973 0020 8280     		ret
 974              	.LVL56:
 975              	.L70:
 976              	.LBB105:
 977              	.LBB104:
 978              		.loc 1 725 9 is_stmt 1
 979              		.loc 1 725 11 is_stmt 0
 980 0022 9147     		li	a5,4
 981 0024 E3F4B7FE 		bleu	a1,a5,.L68
 982              	.L69:
 983              	.LBE104:
 984              	.LBE105:
 429:arch/riscv/mach-gd32vf10x/bsp/gd32vf103_dma.c ****     }
 985              		.loc 1 429 9 is_stmt 1 discriminator 1
 429:arch/riscv/mach-gd32vf10x/bsp/gd32vf103_dma.c ****     }
 986              		.loc 1 429 9 discriminator 1
 429:arch/riscv/mach-gd32vf10x/bsp/gd32vf103_dma.c ****     }
 987              		.loc 1 429 9 discriminator 1
 429:arch/riscv/mach-gd32vf10x/bsp/gd32vf103_dma.c ****     }
 988              		.loc 1 429 9 discriminator 1
 989 0028 01A0     		j	.L69
 990              		.cfi_endproc
 991              	.LFE17:
 993              		.section	.text.dma_memory_increase_enable,"ax",@progbits
 994              		.align	1
 995              		.globl	dma_memory_increase_enable
 997              	dma_memory_increase_enable:
 998              	.LFB18:
 451:arch/riscv/mach-gd32vf10x/bsp/gd32vf103_dma.c ****     if(ERROR == dma_periph_and_channel_check(dma_periph, channelx)){
 999              		.loc 1 451 1
 1000              		.cfi_startproc
 1001              	.LVL57:
 452:arch/riscv/mach-gd32vf10x/bsp/gd32vf103_dma.c ****         DMA_WRONG_HANDLE
 1002              		.loc 1 452 5
 1003              	.LBB106:
 1004              	.LBB107:
 723:arch/riscv/mach-gd32vf10x/bsp/gd32vf103_dma.c ****         /* for DMA1, the channel is from DMA_CH0 to DMA_CH4 */
 1005              		.loc 1 723 7 is_stmt 0
 1006 0000 B7070240 		li	a5,1073872896
 1007 0004 93870740 		addi	a5,a5,1024
 1008              	.LVL58:
 721:arch/riscv/mach-gd32vf10x/bsp/gd32vf103_dma.c **** 
 1009              		.loc 1 721 5 is_stmt 1
 723:arch/riscv/mach-gd32vf10x/bsp/gd32vf103_dma.c ****         /* for DMA1, the channel is from DMA_CH0 to DMA_CH4 */
GAS LISTING C:\Users\test\AppData\Local\Temp\ccdvqI39.s 			page 36


 1010              		.loc 1 723 5
 723:arch/riscv/mach-gd32vf10x/bsp/gd32vf103_dma.c ****         /* for DMA1, the channel is from DMA_CH0 to DMA_CH4 */
 1011              		.loc 1 723 7 is_stmt 0
 1012 0008 630CF500 		beq	a0,a5,.L74
 1013              	.L72:
 1014              	.LBE107:
 1015              	.LBE106:
 456:arch/riscv/mach-gd32vf10x/bsp/gd32vf103_dma.c **** }
 1016              		.loc 1 456 5 is_stmt 1
 456:arch/riscv/mach-gd32vf10x/bsp/gd32vf103_dma.c **** }
 1017              		.loc 1 456 37 is_stmt 0
 1018 000c 93972500 		slli	a5,a1,2
 1019 0010 AE97     		add	a5,a5,a1
 1020 0012 8A07     		slli	a5,a5,2
 1021 0014 AA97     		add	a5,a5,a0
 1022 0016 9847     		lw	a4,8(a5)
 1023 0018 13670708 		ori	a4,a4,128
 1024 001c 98C7     		sw	a4,8(a5)
 457:arch/riscv/mach-gd32vf10x/bsp/gd32vf103_dma.c **** 
 1025              		.loc 1 457 1
 1026 001e 8280     		ret
 1027              	.L74:
 1028              	.LBB109:
 1029              	.LBB108:
 1030              		.loc 1 725 9 is_stmt 1
 1031              		.loc 1 725 11 is_stmt 0
 1032 0020 9147     		li	a5,4
 1033 0022 E3F5B7FE 		bleu	a1,a5,.L72
 1034              	.L73:
 1035              	.LBE108:
 1036              	.LBE109:
 453:arch/riscv/mach-gd32vf10x/bsp/gd32vf103_dma.c ****     }
 1037              		.loc 1 453 9 is_stmt 1 discriminator 1
 453:arch/riscv/mach-gd32vf10x/bsp/gd32vf103_dma.c ****     }
 1038              		.loc 1 453 9 discriminator 1
 453:arch/riscv/mach-gd32vf10x/bsp/gd32vf103_dma.c ****     }
 1039              		.loc 1 453 9 discriminator 1
 453:arch/riscv/mach-gd32vf10x/bsp/gd32vf103_dma.c ****     }
 1040              		.loc 1 453 9 discriminator 1
 1041 0026 01A0     		j	.L73
 1042              		.cfi_endproc
 1043              	.LFE18:
 1045              		.section	.text.dma_memory_increase_disable,"ax",@progbits
 1046              		.align	1
 1047              		.globl	dma_memory_increase_disable
 1049              	dma_memory_increase_disable:
 1050              	.LFB19:
 470:arch/riscv/mach-gd32vf10x/bsp/gd32vf103_dma.c ****     if(ERROR == dma_periph_and_channel_check(dma_periph, channelx)){
 1051              		.loc 1 470 1
 1052              		.cfi_startproc
 1053              	.LVL59:
 471:arch/riscv/mach-gd32vf10x/bsp/gd32vf103_dma.c ****         DMA_WRONG_HANDLE
 1054              		.loc 1 471 5
 1055              	.LBB110:
 1056              	.LBB111:
 723:arch/riscv/mach-gd32vf10x/bsp/gd32vf103_dma.c ****         /* for DMA1, the channel is from DMA_CH0 to DMA_CH4 */
 1057              		.loc 1 723 7 is_stmt 0
GAS LISTING C:\Users\test\AppData\Local\Temp\ccdvqI39.s 			page 37


 1058 0000 B7070240 		li	a5,1073872896
 1059 0004 93870740 		addi	a5,a5,1024
 1060              	.LVL60:
 721:arch/riscv/mach-gd32vf10x/bsp/gd32vf103_dma.c **** 
 1061              		.loc 1 721 5 is_stmt 1
 723:arch/riscv/mach-gd32vf10x/bsp/gd32vf103_dma.c ****         /* for DMA1, the channel is from DMA_CH0 to DMA_CH4 */
 1062              		.loc 1 723 5
 723:arch/riscv/mach-gd32vf10x/bsp/gd32vf103_dma.c ****         /* for DMA1, the channel is from DMA_CH0 to DMA_CH4 */
 1063              		.loc 1 723 7 is_stmt 0
 1064 0008 630CF500 		beq	a0,a5,.L78
 1065              	.L76:
 1066              	.LBE111:
 1067              	.LBE110:
 475:arch/riscv/mach-gd32vf10x/bsp/gd32vf103_dma.c **** }
 1068              		.loc 1 475 5 is_stmt 1
 475:arch/riscv/mach-gd32vf10x/bsp/gd32vf103_dma.c **** }
 1069              		.loc 1 475 37 is_stmt 0
 1070 000c 93972500 		slli	a5,a1,2
 1071 0010 AE97     		add	a5,a5,a1
 1072 0012 8A07     		slli	a5,a5,2
 1073 0014 AA97     		add	a5,a5,a0
 1074 0016 9847     		lw	a4,8(a5)
 1075 0018 1377F7F7 		andi	a4,a4,-129
 1076 001c 98C7     		sw	a4,8(a5)
 476:arch/riscv/mach-gd32vf10x/bsp/gd32vf103_dma.c **** 
 1077              		.loc 1 476 1
 1078 001e 8280     		ret
 1079              	.L78:
 1080              	.LBB113:
 1081              	.LBB112:
 1082              		.loc 1 725 9 is_stmt 1
 1083              		.loc 1 725 11 is_stmt 0
 1084 0020 9147     		li	a5,4
 1085 0022 E3F5B7FE 		bleu	a1,a5,.L76
 1086              	.L77:
 1087              	.LBE112:
 1088              	.LBE113:
 472:arch/riscv/mach-gd32vf10x/bsp/gd32vf103_dma.c ****     }
 1089              		.loc 1 472 9 is_stmt 1 discriminator 1
 472:arch/riscv/mach-gd32vf10x/bsp/gd32vf103_dma.c ****     }
 1090              		.loc 1 472 9 discriminator 1
 472:arch/riscv/mach-gd32vf10x/bsp/gd32vf103_dma.c ****     }
 1091              		.loc 1 472 9 discriminator 1
 472:arch/riscv/mach-gd32vf10x/bsp/gd32vf103_dma.c ****     }
 1092              		.loc 1 472 9 discriminator 1
 1093 0026 01A0     		j	.L77
 1094              		.cfi_endproc
 1095              	.LFE19:
 1097              		.section	.text.dma_periph_increase_enable,"ax",@progbits
 1098              		.align	1
 1099              		.globl	dma_periph_increase_enable
 1101              	dma_periph_increase_enable:
 1102              	.LFB20:
 489:arch/riscv/mach-gd32vf10x/bsp/gd32vf103_dma.c ****     if(ERROR == dma_periph_and_channel_check(dma_periph, channelx)){
 1103              		.loc 1 489 1
 1104              		.cfi_startproc
 1105              	.LVL61:
GAS LISTING C:\Users\test\AppData\Local\Temp\ccdvqI39.s 			page 38


 490:arch/riscv/mach-gd32vf10x/bsp/gd32vf103_dma.c ****         DMA_WRONG_HANDLE
 1106              		.loc 1 490 5
 1107              	.LBB114:
 1108              	.LBB115:
 723:arch/riscv/mach-gd32vf10x/bsp/gd32vf103_dma.c ****         /* for DMA1, the channel is from DMA_CH0 to DMA_CH4 */
 1109              		.loc 1 723 7 is_stmt 0
 1110 0000 B7070240 		li	a5,1073872896
 1111 0004 93870740 		addi	a5,a5,1024
 1112              	.LVL62:
 721:arch/riscv/mach-gd32vf10x/bsp/gd32vf103_dma.c **** 
 1113              		.loc 1 721 5 is_stmt 1
 723:arch/riscv/mach-gd32vf10x/bsp/gd32vf103_dma.c ****         /* for DMA1, the channel is from DMA_CH0 to DMA_CH4 */
 1114              		.loc 1 723 5
 723:arch/riscv/mach-gd32vf10x/bsp/gd32vf103_dma.c ****         /* for DMA1, the channel is from DMA_CH0 to DMA_CH4 */
 1115              		.loc 1 723 7 is_stmt 0
 1116 0008 630CF500 		beq	a0,a5,.L82
 1117              	.L80:
 1118              	.LBE115:
 1119              	.LBE114:
 494:arch/riscv/mach-gd32vf10x/bsp/gd32vf103_dma.c **** }
 1120              		.loc 1 494 5 is_stmt 1
 494:arch/riscv/mach-gd32vf10x/bsp/gd32vf103_dma.c **** }
 1121              		.loc 1 494 37 is_stmt 0
 1122 000c 93972500 		slli	a5,a1,2
 1123 0010 AE97     		add	a5,a5,a1
 1124 0012 8A07     		slli	a5,a5,2
 1125 0014 AA97     		add	a5,a5,a0
 1126 0016 9847     		lw	a4,8(a5)
 1127 0018 13670704 		ori	a4,a4,64
 1128 001c 98C7     		sw	a4,8(a5)
 495:arch/riscv/mach-gd32vf10x/bsp/gd32vf103_dma.c **** 
 1129              		.loc 1 495 1
 1130 001e 8280     		ret
 1131              	.L82:
 1132              	.LBB117:
 1133              	.LBB116:
 1134              		.loc 1 725 9 is_stmt 1
 1135              		.loc 1 725 11 is_stmt 0
 1136 0020 9147     		li	a5,4
 1137 0022 E3F5B7FE 		bleu	a1,a5,.L80
 1138              	.L81:
 1139              	.LBE116:
 1140              	.LBE117:
 491:arch/riscv/mach-gd32vf10x/bsp/gd32vf103_dma.c ****     }
 1141              		.loc 1 491 9 is_stmt 1 discriminator 1
 491:arch/riscv/mach-gd32vf10x/bsp/gd32vf103_dma.c ****     }
 1142              		.loc 1 491 9 discriminator 1
 491:arch/riscv/mach-gd32vf10x/bsp/gd32vf103_dma.c ****     }
 1143              		.loc 1 491 9 discriminator 1
 491:arch/riscv/mach-gd32vf10x/bsp/gd32vf103_dma.c ****     }
 1144              		.loc 1 491 9 discriminator 1
 1145 0026 01A0     		j	.L81
 1146              		.cfi_endproc
 1147              	.LFE20:
 1149              		.section	.text.dma_periph_increase_disable,"ax",@progbits
 1150              		.align	1
 1151              		.globl	dma_periph_increase_disable
GAS LISTING C:\Users\test\AppData\Local\Temp\ccdvqI39.s 			page 39


 1153              	dma_periph_increase_disable:
 1154              	.LFB21:
 508:arch/riscv/mach-gd32vf10x/bsp/gd32vf103_dma.c ****     if(ERROR == dma_periph_and_channel_check(dma_periph, channelx)){
 1155              		.loc 1 508 1
 1156              		.cfi_startproc
 1157              	.LVL63:
 509:arch/riscv/mach-gd32vf10x/bsp/gd32vf103_dma.c ****         DMA_WRONG_HANDLE
 1158              		.loc 1 509 5
 1159              	.LBB118:
 1160              	.LBB119:
 723:arch/riscv/mach-gd32vf10x/bsp/gd32vf103_dma.c ****         /* for DMA1, the channel is from DMA_CH0 to DMA_CH4 */
 1161              		.loc 1 723 7 is_stmt 0
 1162 0000 B7070240 		li	a5,1073872896
 1163 0004 93870740 		addi	a5,a5,1024
 1164              	.LVL64:
 721:arch/riscv/mach-gd32vf10x/bsp/gd32vf103_dma.c **** 
 1165              		.loc 1 721 5 is_stmt 1
 723:arch/riscv/mach-gd32vf10x/bsp/gd32vf103_dma.c ****         /* for DMA1, the channel is from DMA_CH0 to DMA_CH4 */
 1166              		.loc 1 723 5
 723:arch/riscv/mach-gd32vf10x/bsp/gd32vf103_dma.c ****         /* for DMA1, the channel is from DMA_CH0 to DMA_CH4 */
 1167              		.loc 1 723 7 is_stmt 0
 1168 0008 630CF500 		beq	a0,a5,.L86
 1169              	.L84:
 1170              	.LBE119:
 1171              	.LBE118:
 513:arch/riscv/mach-gd32vf10x/bsp/gd32vf103_dma.c **** }
 1172              		.loc 1 513 5 is_stmt 1
 513:arch/riscv/mach-gd32vf10x/bsp/gd32vf103_dma.c **** }
 1173              		.loc 1 513 37 is_stmt 0
 1174 000c 93972500 		slli	a5,a1,2
 1175 0010 AE97     		add	a5,a5,a1
 1176 0012 8A07     		slli	a5,a5,2
 1177 0014 AA97     		add	a5,a5,a0
 1178 0016 9847     		lw	a4,8(a5)
 1179 0018 1377F7FB 		andi	a4,a4,-65
 1180 001c 98C7     		sw	a4,8(a5)
 514:arch/riscv/mach-gd32vf10x/bsp/gd32vf103_dma.c **** 
 1181              		.loc 1 514 1
 1182 001e 8280     		ret
 1183              	.L86:
 1184              	.LBB121:
 1185              	.LBB120:
 1186              		.loc 1 725 9 is_stmt 1
 1187              		.loc 1 725 11 is_stmt 0
 1188 0020 9147     		li	a5,4
 1189 0022 E3F5B7FE 		bleu	a1,a5,.L84
 1190              	.L85:
 1191              	.LBE120:
 1192              	.LBE121:
 510:arch/riscv/mach-gd32vf10x/bsp/gd32vf103_dma.c ****     }
 1193              		.loc 1 510 9 is_stmt 1 discriminator 1
 510:arch/riscv/mach-gd32vf10x/bsp/gd32vf103_dma.c ****     }
 1194              		.loc 1 510 9 discriminator 1
 510:arch/riscv/mach-gd32vf10x/bsp/gd32vf103_dma.c ****     }
 1195              		.loc 1 510 9 discriminator 1
 510:arch/riscv/mach-gd32vf10x/bsp/gd32vf103_dma.c ****     }
 1196              		.loc 1 510 9 discriminator 1
GAS LISTING C:\Users\test\AppData\Local\Temp\ccdvqI39.s 			page 40


 1197 0026 01A0     		j	.L85
 1198              		.cfi_endproc
 1199              	.LFE21:
 1201              		.section	.text.dma_transfer_direction_config,"ax",@progbits
 1202              		.align	1
 1203              		.globl	dma_transfer_direction_config
 1205              	dma_transfer_direction_config:
 1206              	.LFB22:
 531:arch/riscv/mach-gd32vf10x/bsp/gd32vf103_dma.c ****     if(ERROR == dma_periph_and_channel_check(dma_periph, channelx)){
 1207              		.loc 1 531 1
 1208              		.cfi_startproc
 1209              	.LVL65:
 532:arch/riscv/mach-gd32vf10x/bsp/gd32vf103_dma.c ****         DMA_WRONG_HANDLE
 1210              		.loc 1 532 5
 1211              	.LBB122:
 1212              	.LBB123:
 723:arch/riscv/mach-gd32vf10x/bsp/gd32vf103_dma.c ****         /* for DMA1, the channel is from DMA_CH0 to DMA_CH4 */
 1213              		.loc 1 723 7 is_stmt 0
 1214 0000 B7070240 		li	a5,1073872896
 1215 0004 93870740 		addi	a5,a5,1024
 1216              	.LVL66:
 721:arch/riscv/mach-gd32vf10x/bsp/gd32vf103_dma.c **** 
 1217              		.loc 1 721 5 is_stmt 1
 723:arch/riscv/mach-gd32vf10x/bsp/gd32vf103_dma.c ****         /* for DMA1, the channel is from DMA_CH0 to DMA_CH4 */
 1218              		.loc 1 723 5
 723:arch/riscv/mach-gd32vf10x/bsp/gd32vf103_dma.c ****         /* for DMA1, the channel is from DMA_CH0 to DMA_CH4 */
 1219              		.loc 1 723 7 is_stmt 0
 1220 0008 6300F502 		beq	a0,a5,.L92
 1221              	.L88:
 1222              	.LBE123:
 1223              	.LBE122:
 536:arch/riscv/mach-gd32vf10x/bsp/gd32vf103_dma.c ****         DMA_CHCTL(dma_periph, channelx) &= ~DMA_CHXCTL_DIR;
 1224              		.loc 1 536 5 is_stmt 1
 1225 000c 93972500 		slli	a5,a1,2
 1226 0010 AE97     		add	a5,a5,a1
 1227 0012 8A07     		slli	a5,a5,2
 1228 0014 AA97     		add	a5,a5,a0
 537:arch/riscv/mach-gd32vf10x/bsp/gd32vf103_dma.c ****     } else {
 1229              		.loc 1 537 41 is_stmt 0
 1230 0016 9847     		lw	a4,8(a5)
 536:arch/riscv/mach-gd32vf10x/bsp/gd32vf103_dma.c ****         DMA_CHCTL(dma_periph, channelx) &= ~DMA_CHXCTL_DIR;
 1231              		.loc 1 536 7
 1232 0018 01E6     		bne	a2,zero,.L90
 537:arch/riscv/mach-gd32vf10x/bsp/gd32vf103_dma.c ****     } else {
 1233              		.loc 1 537 9 is_stmt 1
 537:arch/riscv/mach-gd32vf10x/bsp/gd32vf103_dma.c ****     } else {
 1234              		.loc 1 537 41 is_stmt 0
 1235 001a 3D9B     		andi	a4,a4,-17
 1236 001c 98C7     		sw	a4,8(a5)
 1237 001e 8280     		ret
 1238              	.L90:
 539:arch/riscv/mach-gd32vf10x/bsp/gd32vf103_dma.c ****     }
 1239              		.loc 1 539 9 is_stmt 1
 539:arch/riscv/mach-gd32vf10x/bsp/gd32vf103_dma.c ****     }
 1240              		.loc 1 539 41 is_stmt 0
 1241 0020 13670701 		ori	a4,a4,16
 1242 0024 98C7     		sw	a4,8(a5)
GAS LISTING C:\Users\test\AppData\Local\Temp\ccdvqI39.s 			page 41


 541:arch/riscv/mach-gd32vf10x/bsp/gd32vf103_dma.c **** 
 1243              		.loc 1 541 1
 1244 0026 8280     		ret
 1245              	.L92:
 1246              	.LBB125:
 1247              	.LBB124:
 1248              		.loc 1 725 9 is_stmt 1
 1249              		.loc 1 725 11 is_stmt 0
 1250 0028 9147     		li	a5,4
 1251 002a E3F1B7FE 		bleu	a1,a5,.L88
 1252              	.L89:
 1253              	.LBE124:
 1254              	.LBE125:
 533:arch/riscv/mach-gd32vf10x/bsp/gd32vf103_dma.c ****     }
 1255              		.loc 1 533 9 is_stmt 1 discriminator 1
 533:arch/riscv/mach-gd32vf10x/bsp/gd32vf103_dma.c ****     }
 1256              		.loc 1 533 9 discriminator 1
 533:arch/riscv/mach-gd32vf10x/bsp/gd32vf103_dma.c ****     }
 1257              		.loc 1 533 9 discriminator 1
 533:arch/riscv/mach-gd32vf10x/bsp/gd32vf103_dma.c ****     }
 1258              		.loc 1 533 9 discriminator 1
 1259 002e 01A0     		j	.L89
 1260              		.cfi_endproc
 1261              	.LFE22:
 1263              		.section	.text.dma_flag_get,"ax",@progbits
 1264              		.align	1
 1265              		.globl	dma_flag_get
 1267              	dma_flag_get:
 1268              	.LFB23:
 560:arch/riscv/mach-gd32vf10x/bsp/gd32vf103_dma.c ****     FlagStatus reval;
 1269              		.loc 1 560 1
 1270              		.cfi_startproc
 1271              	.LVL67:
 561:arch/riscv/mach-gd32vf10x/bsp/gd32vf103_dma.c **** 
 1272              		.loc 1 561 5
 563:arch/riscv/mach-gd32vf10x/bsp/gd32vf103_dma.c ****         reval = SET;
 1273              		.loc 1 563 5
 563:arch/riscv/mach-gd32vf10x/bsp/gd32vf103_dma.c ****         reval = SET;
 1274              		.loc 1 563 18 is_stmt 0
 1275 0000 0841     		lw	a0,0(a0)
 1276              	.LVL68:
 569:arch/riscv/mach-gd32vf10x/bsp/gd32vf103_dma.c **** }
 1277              		.loc 1 569 5 is_stmt 1
 563:arch/riscv/mach-gd32vf10x/bsp/gd32vf103_dma.c ****         reval = SET;
 1278              		.loc 1 563 41 is_stmt 0
 1279 0002 8A05     		slli	a1,a1,2
 1280              	.LVL69:
 1281 0004 B315B600 		sll	a1,a2,a1
 1282              	.LVL70:
 563:arch/riscv/mach-gd32vf10x/bsp/gd32vf103_dma.c ****         reval = SET;
 1283              		.loc 1 563 39
 1284 0008 6D8D     		and	a0,a1,a0
 1285              	.LVL71:
 570:arch/riscv/mach-gd32vf10x/bsp/gd32vf103_dma.c **** 
 1286              		.loc 1 570 1
 1287 000a 3335A000 		snez	a0,a0
 1288 000e 8280     		ret
GAS LISTING C:\Users\test\AppData\Local\Temp\ccdvqI39.s 			page 42


 1289              		.cfi_endproc
 1290              	.LFE23:
 1292              		.section	.text.dma_flag_clear,"ax",@progbits
 1293              		.align	1
 1294              		.globl	dma_flag_clear
 1296              	dma_flag_clear:
 1297              	.LFB24:
 589:arch/riscv/mach-gd32vf10x/bsp/gd32vf103_dma.c ****     DMA_INTC(dma_periph) |= DMA_FLAG_ADD(flag, channelx);
 1298              		.loc 1 589 1 is_stmt 1
 1299              		.cfi_startproc
 1300              	.LVL72:
 590:arch/riscv/mach-gd32vf10x/bsp/gd32vf103_dma.c **** }
 1301              		.loc 1 590 5
 590:arch/riscv/mach-gd32vf10x/bsp/gd32vf103_dma.c **** }
 1302              		.loc 1 590 26 is_stmt 0
 1303 0000 5C41     		lw	a5,4(a0)
 590:arch/riscv/mach-gd32vf10x/bsp/gd32vf103_dma.c **** }
 1304              		.loc 1 590 29
 1305 0002 8A05     		slli	a1,a1,2
 1306              	.LVL73:
 1307 0004 3316B600 		sll	a2,a2,a1
 1308              	.LVL74:
 590:arch/riscv/mach-gd32vf10x/bsp/gd32vf103_dma.c **** }
 1309              		.loc 1 590 26
 1310 0008 5D8E     		or	a2,a2,a5
 1311 000a 50C1     		sw	a2,4(a0)
 591:arch/riscv/mach-gd32vf10x/bsp/gd32vf103_dma.c **** 
 1312              		.loc 1 591 1
 1313 000c 8280     		ret
 1314              		.cfi_endproc
 1315              	.LFE24:
 1317              		.section	.text.dma_interrupt_flag_get,"ax",@progbits
 1318              		.align	1
 1319              		.globl	dma_interrupt_flag_get
 1321              	dma_interrupt_flag_get:
 1322              	.LFB25:
 609:arch/riscv/mach-gd32vf10x/bsp/gd32vf103_dma.c **** 	uint32_t interrupt_enable = 0U, interrupt_flag = 0U;
 1323              		.loc 1 609 1 is_stmt 1
 1324              		.cfi_startproc
 1325              	.LVL75:
 610:arch/riscv/mach-gd32vf10x/bsp/gd32vf103_dma.c **** 
 1326              		.loc 1 610 2
 612:arch/riscv/mach-gd32vf10x/bsp/gd32vf103_dma.c **** 		case DMA_INT_FLAG_FTF:
 1327              		.loc 1 612 2
 1328 0000 9147     		li	a5,4
 1329 0002 6308F604 		beq	a2,a5,.L96
 1330 0006 A147     		li	a5,8
 1331 0008 6307F602 		beq	a2,a5,.L97
 1332 000c 8947     		li	a5,2
 1333 000e 6303F600 		beq	a2,a5,.L105
 1334              	.L98:
 629:arch/riscv/mach-gd32vf10x/bsp/gd32vf103_dma.c **** 	}
 1335              		.loc 1 629 4 discriminator 1
 629:arch/riscv/mach-gd32vf10x/bsp/gd32vf103_dma.c **** 	}
 1336              		.loc 1 629 4 discriminator 1
 629:arch/riscv/mach-gd32vf10x/bsp/gd32vf103_dma.c **** 	}
 1337              		.loc 1 629 4 discriminator 1
GAS LISTING C:\Users\test\AppData\Local\Temp\ccdvqI39.s 			page 43


 629:arch/riscv/mach-gd32vf10x/bsp/gd32vf103_dma.c **** 	}
 1338              		.loc 1 629 4 discriminator 1
 1339 0012 01A0     		j	.L98
 1340              	.L105:
 615:arch/riscv/mach-gd32vf10x/bsp/gd32vf103_dma.c **** 			interrupt_enable = DMA_CHCTL(dma_periph, channelx) & DMA_CHXCTL_FTFIE;
 1341              		.loc 1 615 4
 615:arch/riscv/mach-gd32vf10x/bsp/gd32vf103_dma.c **** 			interrupt_enable = DMA_CHCTL(dma_periph, channelx) & DMA_CHXCTL_FTFIE;
 1342              		.loc 1 615 44 is_stmt 0
 1343 0014 13972500 		slli	a4,a1,2
 616:arch/riscv/mach-gd32vf10x/bsp/gd32vf103_dma.c **** 			break;
 1344              		.loc 1 616 23
 1345 0018 B307B700 		add	a5,a4,a1
 1346 001c 8A07     		slli	a5,a5,2
 1347 001e A107     		addi	a5,a5,8
 1348 0020 AA97     		add	a5,a5,a0
 615:arch/riscv/mach-gd32vf10x/bsp/gd32vf103_dma.c **** 			interrupt_enable = DMA_CHCTL(dma_periph, channelx) & DMA_CHXCTL_FTFIE;
 1349              		.loc 1 615 21
 1350 0022 0841     		lw	a0,0(a0)
 1351              	.LVL76:
 616:arch/riscv/mach-gd32vf10x/bsp/gd32vf103_dma.c **** 			break;
 1352              		.loc 1 616 23
 1353 0024 9C43     		lw	a5,0(a5)
 615:arch/riscv/mach-gd32vf10x/bsp/gd32vf103_dma.c **** 			interrupt_enable = DMA_CHCTL(dma_periph, channelx) & DMA_CHXCTL_FTFIE;
 1354              		.loc 1 615 44
 1355 0026 3317E600 		sll	a4,a2,a4
 615:arch/riscv/mach-gd32vf10x/bsp/gd32vf103_dma.c **** 			interrupt_enable = DMA_CHCTL(dma_periph, channelx) & DMA_CHXCTL_FTFIE;
 1356              		.loc 1 615 19
 1357 002a 798D     		and	a0,a4,a0
 1358              	.LVL77:
 616:arch/riscv/mach-gd32vf10x/bsp/gd32vf103_dma.c **** 			break;
 1359              		.loc 1 616 4 is_stmt 1
 616:arch/riscv/mach-gd32vf10x/bsp/gd32vf103_dma.c **** 			break;
 1360              		.loc 1 616 21 is_stmt 0
 1361 002c 898B     		andi	a5,a5,2
 1362              	.LVL78:
 617:arch/riscv/mach-gd32vf10x/bsp/gd32vf103_dma.c **** 		case DMA_INT_FLAG_HTF:
 1363              		.loc 1 617 4 is_stmt 1
 1364              	.L99:
 633:arch/riscv/mach-gd32vf10x/bsp/gd32vf103_dma.c **** 		return SET;
 1365              		.loc 1 633 2
 633:arch/riscv/mach-gd32vf10x/bsp/gd32vf103_dma.c **** 		return SET;
 1366              		.loc 1 633 4 is_stmt 0
 1367 002e 19C1     		beq	a0,zero,.L95
 633:arch/riscv/mach-gd32vf10x/bsp/gd32vf103_dma.c **** 		return SET;
 1368              		.loc 1 633 20 discriminator 1
 1369 0030 3335F000 		snez	a0,a5
 1370              	.LVL79:
 1371              	.L95:
 638:arch/riscv/mach-gd32vf10x/bsp/gd32vf103_dma.c **** 
 1372              		.loc 1 638 1
 1373 0034 8280     		ret
 1374              	.LVL80:
 1375              	.L97:
 625:arch/riscv/mach-gd32vf10x/bsp/gd32vf103_dma.c **** 			interrupt_enable = DMA_CHCTL(dma_periph, channelx) & DMA_CHXCTL_ERRIE;
 1376              		.loc 1 625 4 is_stmt 1
 625:arch/riscv/mach-gd32vf10x/bsp/gd32vf103_dma.c **** 			interrupt_enable = DMA_CHCTL(dma_periph, channelx) & DMA_CHXCTL_ERRIE;
 1377              		.loc 1 625 44 is_stmt 0
GAS LISTING C:\Users\test\AppData\Local\Temp\ccdvqI39.s 			page 44


 1378 0036 13972500 		slli	a4,a1,2
 626:arch/riscv/mach-gd32vf10x/bsp/gd32vf103_dma.c **** 			break;
 1379              		.loc 1 626 23
 1380 003a B307B700 		add	a5,a4,a1
 1381 003e 8A07     		slli	a5,a5,2
 1382 0040 A107     		addi	a5,a5,8
 1383 0042 AA97     		add	a5,a5,a0
 625:arch/riscv/mach-gd32vf10x/bsp/gd32vf103_dma.c **** 			interrupt_enable = DMA_CHCTL(dma_periph, channelx) & DMA_CHXCTL_ERRIE;
 1384              		.loc 1 625 21
 1385 0044 0841     		lw	a0,0(a0)
 1386              	.LVL81:
 626:arch/riscv/mach-gd32vf10x/bsp/gd32vf103_dma.c **** 			break;
 1387              		.loc 1 626 23
 1388 0046 9C43     		lw	a5,0(a5)
 625:arch/riscv/mach-gd32vf10x/bsp/gd32vf103_dma.c **** 			interrupt_enable = DMA_CHCTL(dma_periph, channelx) & DMA_CHXCTL_ERRIE;
 1389              		.loc 1 625 44
 1390 0048 3316E600 		sll	a2,a2,a4
 1391              	.LVL82:
 625:arch/riscv/mach-gd32vf10x/bsp/gd32vf103_dma.c **** 			interrupt_enable = DMA_CHCTL(dma_periph, channelx) & DMA_CHXCTL_ERRIE;
 1392              		.loc 1 625 19
 1393 004c 718D     		and	a0,a2,a0
 1394              	.LVL83:
 626:arch/riscv/mach-gd32vf10x/bsp/gd32vf103_dma.c **** 			break;
 1395              		.loc 1 626 4 is_stmt 1
 626:arch/riscv/mach-gd32vf10x/bsp/gd32vf103_dma.c **** 			break;
 1396              		.loc 1 626 21 is_stmt 0
 1397 004e A18B     		andi	a5,a5,8
 1398              	.LVL84:
 627:arch/riscv/mach-gd32vf10x/bsp/gd32vf103_dma.c **** 		default:
 1399              		.loc 1 627 4 is_stmt 1
 1400 0050 F9BF     		j	.L99
 1401              	.LVL85:
 1402              	.L96:
 620:arch/riscv/mach-gd32vf10x/bsp/gd32vf103_dma.c **** 			interrupt_enable = DMA_CHCTL(dma_periph, channelx) & DMA_CHXCTL_HTFIE;
 1403              		.loc 1 620 4
 620:arch/riscv/mach-gd32vf10x/bsp/gd32vf103_dma.c **** 			interrupt_enable = DMA_CHCTL(dma_periph, channelx) & DMA_CHXCTL_HTFIE;
 1404              		.loc 1 620 44 is_stmt 0
 1405 0052 13972500 		slli	a4,a1,2
 621:arch/riscv/mach-gd32vf10x/bsp/gd32vf103_dma.c **** 			break;
 1406              		.loc 1 621 23
 1407 0056 B307B700 		add	a5,a4,a1
 1408 005a 8A07     		slli	a5,a5,2
 1409 005c A107     		addi	a5,a5,8
 1410 005e AA97     		add	a5,a5,a0
 620:arch/riscv/mach-gd32vf10x/bsp/gd32vf103_dma.c **** 			interrupt_enable = DMA_CHCTL(dma_periph, channelx) & DMA_CHXCTL_HTFIE;
 1411              		.loc 1 620 21
 1412 0060 0841     		lw	a0,0(a0)
 1413              	.LVL86:
 621:arch/riscv/mach-gd32vf10x/bsp/gd32vf103_dma.c **** 			break;
 1414              		.loc 1 621 23
 1415 0062 9C43     		lw	a5,0(a5)
 620:arch/riscv/mach-gd32vf10x/bsp/gd32vf103_dma.c **** 			interrupt_enable = DMA_CHCTL(dma_periph, channelx) & DMA_CHXCTL_HTFIE;
 1416              		.loc 1 620 44
 1417 0064 3317E600 		sll	a4,a2,a4
 620:arch/riscv/mach-gd32vf10x/bsp/gd32vf103_dma.c **** 			interrupt_enable = DMA_CHCTL(dma_periph, channelx) & DMA_CHXCTL_HTFIE;
 1418              		.loc 1 620 19
 1419 0068 798D     		and	a0,a4,a0
GAS LISTING C:\Users\test\AppData\Local\Temp\ccdvqI39.s 			page 45


 1420              	.LVL87:
 621:arch/riscv/mach-gd32vf10x/bsp/gd32vf103_dma.c **** 			break;
 1421              		.loc 1 621 4 is_stmt 1
 621:arch/riscv/mach-gd32vf10x/bsp/gd32vf103_dma.c **** 			break;
 1422              		.loc 1 621 21 is_stmt 0
 1423 006a 918B     		andi	a5,a5,4
 1424              	.LVL88:
 622:arch/riscv/mach-gd32vf10x/bsp/gd32vf103_dma.c **** 		case DMA_INT_FLAG_ERR:
 1425              		.loc 1 622 4 is_stmt 1
 1426 006c C9B7     		j	.L99
 1427              		.cfi_endproc
 1428              	.LFE25:
 1430              		.section	.text.dma_interrupt_flag_clear,"ax",@progbits
 1431              		.align	1
 1432              		.globl	dma_interrupt_flag_clear
 1434              	dma_interrupt_flag_clear:
 1435              	.LFB31:
 1436              		.cfi_startproc
 1437 0000 17030000 		tail	dma_flag_clear
 1437      67000300 
 1438              		.cfi_endproc
 1439              	.LFE31:
 1441              		.section	.text.dma_interrupt_enable,"ax",@progbits
 1442              		.align	1
 1443              		.globl	dma_interrupt_enable
 1445              	dma_interrupt_enable:
 1446              	.LFB27:
 677:arch/riscv/mach-gd32vf10x/bsp/gd32vf103_dma.c ****     if(ERROR == dma_periph_and_channel_check(dma_periph, channelx)){
 1447              		.loc 1 677 1
 1448              		.cfi_startproc
 1449              	.LVL89:
 678:arch/riscv/mach-gd32vf10x/bsp/gd32vf103_dma.c ****         DMA_WRONG_HANDLE
 1450              		.loc 1 678 5
 1451              	.LBB126:
 1452              	.LBB127:
 723:arch/riscv/mach-gd32vf10x/bsp/gd32vf103_dma.c ****         /* for DMA1, the channel is from DMA_CH0 to DMA_CH4 */
 1453              		.loc 1 723 7 is_stmt 0
 1454 0000 B7070240 		li	a5,1073872896
 1455 0004 93870740 		addi	a5,a5,1024
 1456              	.LVL90:
 721:arch/riscv/mach-gd32vf10x/bsp/gd32vf103_dma.c **** 
 1457              		.loc 1 721 5 is_stmt 1
 723:arch/riscv/mach-gd32vf10x/bsp/gd32vf103_dma.c ****         /* for DMA1, the channel is from DMA_CH0 to DMA_CH4 */
 1458              		.loc 1 723 5
 723:arch/riscv/mach-gd32vf10x/bsp/gd32vf103_dma.c ****         /* for DMA1, the channel is from DMA_CH0 to DMA_CH4 */
 1459              		.loc 1 723 7 is_stmt 0
 1460 0008 630BF500 		beq	a0,a5,.L110
 1461              	.L108:
 1462              	.LBE127:
 1463              	.LBE126:
 682:arch/riscv/mach-gd32vf10x/bsp/gd32vf103_dma.c **** }
 1464              		.loc 1 682 5 is_stmt 1
 682:arch/riscv/mach-gd32vf10x/bsp/gd32vf103_dma.c **** }
 1465              		.loc 1 682 37 is_stmt 0
 1466 000c 93972500 		slli	a5,a1,2
 1467 0010 AE97     		add	a5,a5,a1
 1468 0012 8A07     		slli	a5,a5,2
GAS LISTING C:\Users\test\AppData\Local\Temp\ccdvqI39.s 			page 46


 1469 0014 AA97     		add	a5,a5,a0
 1470 0016 9847     		lw	a4,8(a5)
 1471 0018 518F     		or	a4,a4,a2
 1472 001a 98C7     		sw	a4,8(a5)
 683:arch/riscv/mach-gd32vf10x/bsp/gd32vf103_dma.c **** 
 1473              		.loc 1 683 1
 1474 001c 8280     		ret
 1475              	.L110:
 1476              	.LBB129:
 1477              	.LBB128:
 1478              		.loc 1 725 9 is_stmt 1
 1479              		.loc 1 725 11 is_stmt 0
 1480 001e 9147     		li	a5,4
 1481 0020 E3F6B7FE 		bleu	a1,a5,.L108
 1482              	.L109:
 1483              	.LBE128:
 1484              	.LBE129:
 679:arch/riscv/mach-gd32vf10x/bsp/gd32vf103_dma.c ****     }
 1485              		.loc 1 679 9 is_stmt 1 discriminator 1
 679:arch/riscv/mach-gd32vf10x/bsp/gd32vf103_dma.c ****     }
 1486              		.loc 1 679 9 discriminator 1
 679:arch/riscv/mach-gd32vf10x/bsp/gd32vf103_dma.c ****     }
 1487              		.loc 1 679 9 discriminator 1
 679:arch/riscv/mach-gd32vf10x/bsp/gd32vf103_dma.c ****     }
 1488              		.loc 1 679 9 discriminator 1
 1489 0024 01A0     		j	.L109
 1490              		.cfi_endproc
 1491              	.LFE27:
 1493              		.section	.text.dma_interrupt_disable,"ax",@progbits
 1494              		.align	1
 1495              		.globl	dma_interrupt_disable
 1497              	dma_interrupt_disable:
 1498              	.LFB28:
 701:arch/riscv/mach-gd32vf10x/bsp/gd32vf103_dma.c ****     if(ERROR == dma_periph_and_channel_check(dma_periph, channelx)){
 1499              		.loc 1 701 1
 1500              		.cfi_startproc
 1501              	.LVL91:
 702:arch/riscv/mach-gd32vf10x/bsp/gd32vf103_dma.c ****         DMA_WRONG_HANDLE
 1502              		.loc 1 702 5
 1503              	.LBB130:
 1504              	.LBB131:
 723:arch/riscv/mach-gd32vf10x/bsp/gd32vf103_dma.c ****         /* for DMA1, the channel is from DMA_CH0 to DMA_CH4 */
 1505              		.loc 1 723 7 is_stmt 0
 1506 0000 B7070240 		li	a5,1073872896
 1507 0004 93870740 		addi	a5,a5,1024
 1508              	.LVL92:
 721:arch/riscv/mach-gd32vf10x/bsp/gd32vf103_dma.c **** 
 1509              		.loc 1 721 5 is_stmt 1
 723:arch/riscv/mach-gd32vf10x/bsp/gd32vf103_dma.c ****         /* for DMA1, the channel is from DMA_CH0 to DMA_CH4 */
 1510              		.loc 1 723 5
 723:arch/riscv/mach-gd32vf10x/bsp/gd32vf103_dma.c ****         /* for DMA1, the channel is from DMA_CH0 to DMA_CH4 */
 1511              		.loc 1 723 7 is_stmt 0
 1512 0008 630DF500 		beq	a0,a5,.L114
 1513              	.L112:
 1514              	.LBE131:
 1515              	.LBE130:
 706:arch/riscv/mach-gd32vf10x/bsp/gd32vf103_dma.c **** }
GAS LISTING C:\Users\test\AppData\Local\Temp\ccdvqI39.s 			page 47


 1516              		.loc 1 706 5 is_stmt 1
 706:arch/riscv/mach-gd32vf10x/bsp/gd32vf103_dma.c **** }
 1517              		.loc 1 706 37 is_stmt 0
 1518 000c 93972500 		slli	a5,a1,2
 1519 0010 AE97     		add	a5,a5,a1
 1520 0012 8A07     		slli	a5,a5,2
 1521 0014 AA97     		add	a5,a5,a0
 1522 0016 9447     		lw	a3,8(a5)
 706:arch/riscv/mach-gd32vf10x/bsp/gd32vf103_dma.c **** }
 1523              		.loc 1 706 40
 1524 0018 1347F6FF 		not	a4,a2
 706:arch/riscv/mach-gd32vf10x/bsp/gd32vf103_dma.c **** }
 1525              		.loc 1 706 37
 1526 001c 758F     		and	a4,a4,a3
 1527 001e 98C7     		sw	a4,8(a5)
 707:arch/riscv/mach-gd32vf10x/bsp/gd32vf103_dma.c **** 
 1528              		.loc 1 707 1
 1529 0020 8280     		ret
 1530              	.L114:
 1531              	.LBB133:
 1532              	.LBB132:
 1533              		.loc 1 725 9 is_stmt 1
 1534              		.loc 1 725 11 is_stmt 0
 1535 0022 9147     		li	a5,4
 1536 0024 E3F4B7FE 		bleu	a1,a5,.L112
 1537              	.L113:
 1538              	.LBE132:
 1539              	.LBE133:
 703:arch/riscv/mach-gd32vf10x/bsp/gd32vf103_dma.c ****     }
 1540              		.loc 1 703 9 is_stmt 1 discriminator 1
 703:arch/riscv/mach-gd32vf10x/bsp/gd32vf103_dma.c ****     }
 1541              		.loc 1 703 9 discriminator 1
 703:arch/riscv/mach-gd32vf10x/bsp/gd32vf103_dma.c ****     }
 1542              		.loc 1 703 9 discriminator 1
 703:arch/riscv/mach-gd32vf10x/bsp/gd32vf103_dma.c ****     }
 1543              		.loc 1 703 9 discriminator 1
 1544 0028 01A0     		j	.L113
 1545              		.cfi_endproc
 1546              	.LFE28:
 1548              		.text
 1549              	.Letext0:
 1550              		.file 2 "d:\\risc_v_gcc\\riscv-none-embed\\include\\machine\\_default_types.h"
 1551              		.file 3 "d:\\risc_v_gcc\\riscv-none-embed\\include\\sys\\_stdint.h"
 1552              		.file 4 "arch/riscv/mach-gd32vf10x/system/gd32vf103.h"
 1553              		.file 5 "arch/riscv/mach-gd32vf10x/bsp/gd32vf103_dma.h"
 1554              		.file 6 "arch/riscv/mach-gd32vf10x/system/system_gd32vf103.h"
GAS LISTING C:\Users\test\AppData\Local\Temp\ccdvqI39.s 			page 48


DEFINED SYMBOLS
                            *ABS*:0000000000000000 gd32vf103_dma.c
C:\Users\test\AppData\Local\Temp\ccdvqI39.s:10     .text.dma_deinit:0000000000000000 dma_deinit
C:\Users\test\AppData\Local\Temp\ccdvqI39.s:14     .text.dma_deinit:0000000000000000 .L0 
C:\Users\test\AppData\Local\Temp\ccdvqI39.s:16     .text.dma_deinit:0000000000000000 .L0 
C:\Users\test\AppData\Local\Temp\ccdvqI39.s:19     .text.dma_deinit:0000000000000000 .L0 
C:\Users\test\AppData\Local\Temp\ccdvqI39.s:20     .text.dma_deinit:0000000000000000 .L0 
C:\Users\test\AppData\Local\Temp\ccdvqI39.s:24     .text.dma_deinit:0000000000000008 .L0 
C:\Users\test\AppData\Local\Temp\ccdvqI39.s:25     .text.dma_deinit:0000000000000008 .L0 
C:\Users\test\AppData\Local\Temp\ccdvqI39.s:26     .text.dma_deinit:0000000000000008 .L0 
C:\Users\test\AppData\Local\Temp\ccdvqI39.s:31     .text.dma_deinit:000000000000000c .L0 
C:\Users\test\AppData\Local\Temp\ccdvqI39.s:32     .text.dma_deinit:000000000000000c .L0 
C:\Users\test\AppData\Local\Temp\ccdvqI39.s:38     .text.dma_deinit:000000000000001a .L0 
C:\Users\test\AppData\Local\Temp\ccdvqI39.s:41     .text.dma_deinit:0000000000000020 .L0 
C:\Users\test\AppData\Local\Temp\ccdvqI39.s:44     .text.dma_deinit:0000000000000024 .L0 
C:\Users\test\AppData\Local\Temp\ccdvqI39.s:45     .text.dma_deinit:0000000000000024 .L0 
C:\Users\test\AppData\Local\Temp\ccdvqI39.s:47     .text.dma_deinit:0000000000000028 .L0 
C:\Users\test\AppData\Local\Temp\ccdvqI39.s:48     .text.dma_deinit:0000000000000028 .L0 
C:\Users\test\AppData\Local\Temp\ccdvqI39.s:50     .text.dma_deinit:000000000000002c .L0 
C:\Users\test\AppData\Local\Temp\ccdvqI39.s:51     .text.dma_deinit:000000000000002c .L0 
C:\Users\test\AppData\Local\Temp\ccdvqI39.s:53     .text.dma_deinit:0000000000000030 .L0 
C:\Users\test\AppData\Local\Temp\ccdvqI39.s:54     .text.dma_deinit:0000000000000030 .L0 
C:\Users\test\AppData\Local\Temp\ccdvqI39.s:56     .text.dma_deinit:0000000000000034 .L0 
C:\Users\test\AppData\Local\Temp\ccdvqI39.s:57     .text.dma_deinit:0000000000000034 .L0 
C:\Users\test\AppData\Local\Temp\ccdvqI39.s:61     .text.dma_deinit:000000000000003a .L0 
C:\Users\test\AppData\Local\Temp\ccdvqI39.s:66     .text.dma_deinit:000000000000003c .L0 
C:\Users\test\AppData\Local\Temp\ccdvqI39.s:67     .text.dma_deinit:000000000000003c .L0 
C:\Users\test\AppData\Local\Temp\ccdvqI39.s:73     .text.dma_deinit:0000000000000042 .L0 
C:\Users\test\AppData\Local\Temp\ccdvqI39.s:74     .text.dma_deinit:0000000000000042 .L0 
C:\Users\test\AppData\Local\Temp\ccdvqI39.s:75     .text.dma_deinit:0000000000000042 .L0 
C:\Users\test\AppData\Local\Temp\ccdvqI39.s:76     .text.dma_deinit:0000000000000042 .L0 
C:\Users\test\AppData\Local\Temp\ccdvqI39.s:77     .text.dma_deinit:0000000000000044 .L0 
C:\Users\test\AppData\Local\Temp\ccdvqI39.s:84     .text.dma_struct_para_init:0000000000000000 dma_struct_para_init
C:\Users\test\AppData\Local\Temp\ccdvqI39.s:87     .text.dma_struct_para_init:0000000000000000 .L0 
C:\Users\test\AppData\Local\Temp\ccdvqI39.s:89     .text.dma_struct_para_init:0000000000000000 .L0 
C:\Users\test\AppData\Local\Temp\ccdvqI39.s:90     .text.dma_struct_para_init:0000000000000000 .L0 
C:\Users\test\AppData\Local\Temp\ccdvqI39.s:91     .text.dma_struct_para_init:0000000000000000 .L0 
C:\Users\test\AppData\Local\Temp\ccdvqI39.s:92     .text.dma_struct_para_init:0000000000000000 .L0 
C:\Users\test\AppData\Local\Temp\ccdvqI39.s:93     .text.dma_struct_para_init:0000000000000000 .L0 
C:\Users\test\AppData\Local\Temp\ccdvqI39.s:94     .text.dma_struct_para_init:0000000000000000 .L0 
C:\Users\test\AppData\Local\Temp\ccdvqI39.s:95     .text.dma_struct_para_init:0000000000000000 .L0 
C:\Users\test\AppData\Local\Temp\ccdvqI39.s:96     .text.dma_struct_para_init:0000000000000000 .L0 
C:\Users\test\AppData\Local\Temp\ccdvqI39.s:97     .text.dma_struct_para_init:0000000000000000 .L0 
C:\Users\test\AppData\Local\Temp\ccdvqI39.s:98     .text.dma_struct_para_init:0000000000000000 .L0 
C:\Users\test\AppData\Local\Temp\ccdvqI39.s:99     .text.dma_struct_para_init:0000000000000000 .L0 
C:\Users\test\AppData\Local\Temp\ccdvqI39.s:101    .text.dma_struct_para_init:0000000000000004 .L0 
C:\Users\test\AppData\Local\Temp\ccdvqI39.s:103    .text.dma_struct_para_init:0000000000000008 .L0 
C:\Users\test\AppData\Local\Temp\ccdvqI39.s:105    .text.dma_struct_para_init:000000000000000c .L0 
C:\Users\test\AppData\Local\Temp\ccdvqI39.s:107    .text.dma_struct_para_init:0000000000000010 .L0 
C:\Users\test\AppData\Local\Temp\ccdvqI39.s:109    .text.dma_struct_para_init:0000000000000014 .L0 
C:\Users\test\AppData\Local\Temp\ccdvqI39.s:111    .text.dma_struct_para_init:0000000000000018 .L0 
C:\Users\test\AppData\Local\Temp\ccdvqI39.s:113    .text.dma_struct_para_init:000000000000001c .L0 
C:\Users\test\AppData\Local\Temp\ccdvqI39.s:115    .text.dma_struct_para_init:0000000000000020 .L0 
C:\Users\test\AppData\Local\Temp\ccdvqI39.s:116    .text.dma_struct_para_init:0000000000000022 .L0 
C:\Users\test\AppData\Local\Temp\ccdvqI39.s:123    .text.dma_init:0000000000000000 dma_init
C:\Users\test\AppData\Local\Temp\ccdvqI39.s:126    .text.dma_init:0000000000000000 .L0 
C:\Users\test\AppData\Local\Temp\ccdvqI39.s:128    .text.dma_init:0000000000000000 .L0 
GAS LISTING C:\Users\test\AppData\Local\Temp\ccdvqI39.s 			page 49


C:\Users\test\AppData\Local\Temp\ccdvqI39.s:129    .text.dma_init:0000000000000000 .L0 
C:\Users\test\AppData\Local\Temp\ccdvqI39.s:132    .text.dma_init:0000000000000000 .L0 
C:\Users\test\AppData\Local\Temp\ccdvqI39.s:133    .text.dma_init:0000000000000000 .L0 
C:\Users\test\AppData\Local\Temp\ccdvqI39.s:137    .text.dma_init:0000000000000008 .L0 
C:\Users\test\AppData\Local\Temp\ccdvqI39.s:138    .text.dma_init:0000000000000008 .L0 
C:\Users\test\AppData\Local\Temp\ccdvqI39.s:139    .text.dma_init:0000000000000008 .L0 
C:\Users\test\AppData\Local\Temp\ccdvqI39.s:144    .text.dma_init:000000000000000c .L0 
C:\Users\test\AppData\Local\Temp\ccdvqI39.s:146    .text.dma_init:0000000000000010 .L0 
C:\Users\test\AppData\Local\Temp\ccdvqI39.s:148    .text.dma_init:0000000000000012 .L0 
C:\Users\test\AppData\Local\Temp\ccdvqI39.s:152    .text.dma_init:0000000000000018 .L0 
C:\Users\test\AppData\Local\Temp\ccdvqI39.s:154    .text.dma_init:000000000000001a .L0 
C:\Users\test\AppData\Local\Temp\ccdvqI39.s:155    .text.dma_init:000000000000001a .L0 
C:\Users\test\AppData\Local\Temp\ccdvqI39.s:157    .text.dma_init:000000000000001c .L0 
C:\Users\test\AppData\Local\Temp\ccdvqI39.s:160    .text.dma_init:000000000000001e .L0 
C:\Users\test\AppData\Local\Temp\ccdvqI39.s:162    .text.dma_init:0000000000000020 .L0 
C:\Users\test\AppData\Local\Temp\ccdvqI39.s:163    .text.dma_init:0000000000000020 .L0 
C:\Users\test\AppData\Local\Temp\ccdvqI39.s:165    .text.dma_init:0000000000000024 .L0 
C:\Users\test\AppData\Local\Temp\ccdvqI39.s:167    .text.dma_init:0000000000000026 .L0 
C:\Users\test\AppData\Local\Temp\ccdvqI39.s:168    .text.dma_init:0000000000000026 .L0 
C:\Users\test\AppData\Local\Temp\ccdvqI39.s:172    .text.dma_init:000000000000002a .L0 
C:\Users\test\AppData\Local\Temp\ccdvqI39.s:175    .text.dma_init:000000000000002c .L0 
C:\Users\test\AppData\Local\Temp\ccdvqI39.s:176    .text.dma_init:000000000000002c .L0 
C:\Users\test\AppData\Local\Temp\ccdvqI39.s:178    .text.dma_init:0000000000000030 .L0 
C:\Users\test\AppData\Local\Temp\ccdvqI39.s:180    .text.dma_init:0000000000000032 .L0 
C:\Users\test\AppData\Local\Temp\ccdvqI39.s:185    .text.dma_init:000000000000003a .L0 
C:\Users\test\AppData\Local\Temp\ccdvqI39.s:186    .text.dma_init:000000000000003a .L0 
C:\Users\test\AppData\Local\Temp\ccdvqI39.s:188    .text.dma_init:000000000000003e .L0 
C:\Users\test\AppData\Local\Temp\ccdvqI39.s:191    .text.dma_init:0000000000000040 .L0 
C:\Users\test\AppData\Local\Temp\ccdvqI39.s:192    .text.dma_init:0000000000000040 .L0 
C:\Users\test\AppData\Local\Temp\ccdvqI39.s:194    .text.dma_init:0000000000000042 .L0 
C:\Users\test\AppData\Local\Temp\ccdvqI39.s:195    .text.dma_init:0000000000000042 .L0 
C:\Users\test\AppData\Local\Temp\ccdvqI39.s:199    .text.dma_init:000000000000004a .L0 
C:\Users\test\AppData\Local\Temp\ccdvqI39.s:200    .text.dma_init:000000000000004a .L0 
C:\Users\test\AppData\Local\Temp\ccdvqI39.s:206    .text.dma_init:0000000000000052 .L0 
C:\Users\test\AppData\Local\Temp\ccdvqI39.s:207    .text.dma_init:0000000000000052 .L0 
C:\Users\test\AppData\Local\Temp\ccdvqI39.s:211    .text.dma_init:000000000000005c .L0 
C:\Users\test\AppData\Local\Temp\ccdvqI39.s:212    .text.dma_init:000000000000005c .L0 
C:\Users\test\AppData\Local\Temp\ccdvqI39.s:217    .text.dma_init:0000000000000064 .L0 
C:\Users\test\AppData\Local\Temp\ccdvqI39.s:218    .text.dma_init:0000000000000064 .L0 
C:\Users\test\AppData\Local\Temp\ccdvqI39.s:221    .text.dma_init:000000000000006a .L0 
C:\Users\test\AppData\Local\Temp\ccdvqI39.s:222    .text.dma_init:000000000000006a .L0 
C:\Users\test\AppData\Local\Temp\ccdvqI39.s:228    .text.dma_init:0000000000000072 .L0 
C:\Users\test\AppData\Local\Temp\ccdvqI39.s:229    .text.dma_init:0000000000000072 .L0 
C:\Users\test\AppData\Local\Temp\ccdvqI39.s:233    .text.dma_init:000000000000007a .L0 
C:\Users\test\AppData\Local\Temp\ccdvqI39.s:236    .text.dma_init:000000000000007c .L0 
C:\Users\test\AppData\Local\Temp\ccdvqI39.s:237    .text.dma_init:000000000000007c .L0 
C:\Users\test\AppData\Local\Temp\ccdvqI39.s:244    .text.dma_init:0000000000000086 .L0 
C:\Users\test\AppData\Local\Temp\ccdvqI39.s:245    .text.dma_init:0000000000000086 .L0 
C:\Users\test\AppData\Local\Temp\ccdvqI39.s:255    .text.dma_init:0000000000000090 .L0 
C:\Users\test\AppData\Local\Temp\ccdvqI39.s:256    .text.dma_init:0000000000000090 .L0 
C:\Users\test\AppData\Local\Temp\ccdvqI39.s:262    .text.dma_init:0000000000000096 .L0 
C:\Users\test\AppData\Local\Temp\ccdvqI39.s:263    .text.dma_init:0000000000000096 .L0 
C:\Users\test\AppData\Local\Temp\ccdvqI39.s:264    .text.dma_init:0000000000000096 .L0 
C:\Users\test\AppData\Local\Temp\ccdvqI39.s:265    .text.dma_init:0000000000000096 .L0 
C:\Users\test\AppData\Local\Temp\ccdvqI39.s:266    .text.dma_init:0000000000000098 .L0 
C:\Users\test\AppData\Local\Temp\ccdvqI39.s:273    .text.dma_circulation_enable:0000000000000000 dma_circulation_enable
C:\Users\test\AppData\Local\Temp\ccdvqI39.s:276    .text.dma_circulation_enable:0000000000000000 .L0 
GAS LISTING C:\Users\test\AppData\Local\Temp\ccdvqI39.s 			page 50


C:\Users\test\AppData\Local\Temp\ccdvqI39.s:278    .text.dma_circulation_enable:0000000000000000 .L0 
C:\Users\test\AppData\Local\Temp\ccdvqI39.s:281    .text.dma_circulation_enable:0000000000000000 .L0 
C:\Users\test\AppData\Local\Temp\ccdvqI39.s:282    .text.dma_circulation_enable:0000000000000000 .L0 
C:\Users\test\AppData\Local\Temp\ccdvqI39.s:286    .text.dma_circulation_enable:0000000000000008 .L0 
C:\Users\test\AppData\Local\Temp\ccdvqI39.s:287    .text.dma_circulation_enable:0000000000000008 .L0 
C:\Users\test\AppData\Local\Temp\ccdvqI39.s:288    .text.dma_circulation_enable:0000000000000008 .L0 
C:\Users\test\AppData\Local\Temp\ccdvqI39.s:293    .text.dma_circulation_enable:000000000000000c .L0 
C:\Users\test\AppData\Local\Temp\ccdvqI39.s:294    .text.dma_circulation_enable:000000000000000c .L0 
C:\Users\test\AppData\Local\Temp\ccdvqI39.s:302    .text.dma_circulation_enable:000000000000001e .L0 
C:\Users\test\AppData\Local\Temp\ccdvqI39.s:307    .text.dma_circulation_enable:0000000000000020 .L0 
C:\Users\test\AppData\Local\Temp\ccdvqI39.s:308    .text.dma_circulation_enable:0000000000000020 .L0 
C:\Users\test\AppData\Local\Temp\ccdvqI39.s:314    .text.dma_circulation_enable:0000000000000026 .L0 
C:\Users\test\AppData\Local\Temp\ccdvqI39.s:315    .text.dma_circulation_enable:0000000000000026 .L0 
C:\Users\test\AppData\Local\Temp\ccdvqI39.s:316    .text.dma_circulation_enable:0000000000000026 .L0 
C:\Users\test\AppData\Local\Temp\ccdvqI39.s:317    .text.dma_circulation_enable:0000000000000026 .L0 
C:\Users\test\AppData\Local\Temp\ccdvqI39.s:318    .text.dma_circulation_enable:0000000000000028 .L0 
C:\Users\test\AppData\Local\Temp\ccdvqI39.s:325    .text.dma_circulation_disable:0000000000000000 dma_circulation_disable
C:\Users\test\AppData\Local\Temp\ccdvqI39.s:328    .text.dma_circulation_disable:0000000000000000 .L0 
C:\Users\test\AppData\Local\Temp\ccdvqI39.s:330    .text.dma_circulation_disable:0000000000000000 .L0 
C:\Users\test\AppData\Local\Temp\ccdvqI39.s:333    .text.dma_circulation_disable:0000000000000000 .L0 
C:\Users\test\AppData\Local\Temp\ccdvqI39.s:334    .text.dma_circulation_disable:0000000000000000 .L0 
C:\Users\test\AppData\Local\Temp\ccdvqI39.s:338    .text.dma_circulation_disable:0000000000000008 .L0 
C:\Users\test\AppData\Local\Temp\ccdvqI39.s:339    .text.dma_circulation_disable:0000000000000008 .L0 
C:\Users\test\AppData\Local\Temp\ccdvqI39.s:340    .text.dma_circulation_disable:0000000000000008 .L0 
C:\Users\test\AppData\Local\Temp\ccdvqI39.s:345    .text.dma_circulation_disable:000000000000000c .L0 
C:\Users\test\AppData\Local\Temp\ccdvqI39.s:346    .text.dma_circulation_disable:000000000000000c .L0 
C:\Users\test\AppData\Local\Temp\ccdvqI39.s:354    .text.dma_circulation_disable:000000000000001e .L0 
C:\Users\test\AppData\Local\Temp\ccdvqI39.s:359    .text.dma_circulation_disable:0000000000000020 .L0 
C:\Users\test\AppData\Local\Temp\ccdvqI39.s:360    .text.dma_circulation_disable:0000000000000020 .L0 
C:\Users\test\AppData\Local\Temp\ccdvqI39.s:366    .text.dma_circulation_disable:0000000000000026 .L0 
C:\Users\test\AppData\Local\Temp\ccdvqI39.s:367    .text.dma_circulation_disable:0000000000000026 .L0 
C:\Users\test\AppData\Local\Temp\ccdvqI39.s:368    .text.dma_circulation_disable:0000000000000026 .L0 
C:\Users\test\AppData\Local\Temp\ccdvqI39.s:369    .text.dma_circulation_disable:0000000000000026 .L0 
C:\Users\test\AppData\Local\Temp\ccdvqI39.s:370    .text.dma_circulation_disable:0000000000000028 .L0 
C:\Users\test\AppData\Local\Temp\ccdvqI39.s:377    .text.dma_memory_to_memory_enable:0000000000000000 dma_memory_to_memory_enable
C:\Users\test\AppData\Local\Temp\ccdvqI39.s:380    .text.dma_memory_to_memory_enable:0000000000000000 .L0 
C:\Users\test\AppData\Local\Temp\ccdvqI39.s:382    .text.dma_memory_to_memory_enable:0000000000000000 .L0 
C:\Users\test\AppData\Local\Temp\ccdvqI39.s:385    .text.dma_memory_to_memory_enable:0000000000000000 .L0 
C:\Users\test\AppData\Local\Temp\ccdvqI39.s:386    .text.dma_memory_to_memory_enable:0000000000000000 .L0 
C:\Users\test\AppData\Local\Temp\ccdvqI39.s:390    .text.dma_memory_to_memory_enable:0000000000000008 .L0 
C:\Users\test\AppData\Local\Temp\ccdvqI39.s:391    .text.dma_memory_to_memory_enable:0000000000000008 .L0 
C:\Users\test\AppData\Local\Temp\ccdvqI39.s:392    .text.dma_memory_to_memory_enable:0000000000000008 .L0 
C:\Users\test\AppData\Local\Temp\ccdvqI39.s:397    .text.dma_memory_to_memory_enable:000000000000000c .L0 
C:\Users\test\AppData\Local\Temp\ccdvqI39.s:398    .text.dma_memory_to_memory_enable:000000000000000c .L0 
C:\Users\test\AppData\Local\Temp\ccdvqI39.s:407    .text.dma_memory_to_memory_enable:000000000000001e .L0 
C:\Users\test\AppData\Local\Temp\ccdvqI39.s:412    .text.dma_memory_to_memory_enable:0000000000000020 .L0 
C:\Users\test\AppData\Local\Temp\ccdvqI39.s:413    .text.dma_memory_to_memory_enable:0000000000000020 .L0 
C:\Users\test\AppData\Local\Temp\ccdvqI39.s:419    .text.dma_memory_to_memory_enable:0000000000000026 .L0 
C:\Users\test\AppData\Local\Temp\ccdvqI39.s:420    .text.dma_memory_to_memory_enable:0000000000000026 .L0 
C:\Users\test\AppData\Local\Temp\ccdvqI39.s:421    .text.dma_memory_to_memory_enable:0000000000000026 .L0 
C:\Users\test\AppData\Local\Temp\ccdvqI39.s:422    .text.dma_memory_to_memory_enable:0000000000000026 .L0 
C:\Users\test\AppData\Local\Temp\ccdvqI39.s:423    .text.dma_memory_to_memory_enable:0000000000000028 .L0 
C:\Users\test\AppData\Local\Temp\ccdvqI39.s:430    .text.dma_memory_to_memory_disable:0000000000000000 dma_memory_to_memory_disable
C:\Users\test\AppData\Local\Temp\ccdvqI39.s:433    .text.dma_memory_to_memory_disable:0000000000000000 .L0 
C:\Users\test\AppData\Local\Temp\ccdvqI39.s:435    .text.dma_memory_to_memory_disable:0000000000000000 .L0 
C:\Users\test\AppData\Local\Temp\ccdvqI39.s:438    .text.dma_memory_to_memory_disable:0000000000000000 .L0 
C:\Users\test\AppData\Local\Temp\ccdvqI39.s:439    .text.dma_memory_to_memory_disable:0000000000000000 .L0 
GAS LISTING C:\Users\test\AppData\Local\Temp\ccdvqI39.s 			page 51


C:\Users\test\AppData\Local\Temp\ccdvqI39.s:443    .text.dma_memory_to_memory_disable:0000000000000008 .L0 
C:\Users\test\AppData\Local\Temp\ccdvqI39.s:444    .text.dma_memory_to_memory_disable:0000000000000008 .L0 
C:\Users\test\AppData\Local\Temp\ccdvqI39.s:445    .text.dma_memory_to_memory_disable:0000000000000008 .L0 
C:\Users\test\AppData\Local\Temp\ccdvqI39.s:450    .text.dma_memory_to_memory_disable:000000000000000c .L0 
C:\Users\test\AppData\Local\Temp\ccdvqI39.s:451    .text.dma_memory_to_memory_disable:000000000000000c .L0 
C:\Users\test\AppData\Local\Temp\ccdvqI39.s:461    .text.dma_memory_to_memory_disable:0000000000000020 .L0 
C:\Users\test\AppData\Local\Temp\ccdvqI39.s:466    .text.dma_memory_to_memory_disable:0000000000000022 .L0 
C:\Users\test\AppData\Local\Temp\ccdvqI39.s:467    .text.dma_memory_to_memory_disable:0000000000000022 .L0 
C:\Users\test\AppData\Local\Temp\ccdvqI39.s:473    .text.dma_memory_to_memory_disable:0000000000000028 .L0 
C:\Users\test\AppData\Local\Temp\ccdvqI39.s:474    .text.dma_memory_to_memory_disable:0000000000000028 .L0 
C:\Users\test\AppData\Local\Temp\ccdvqI39.s:475    .text.dma_memory_to_memory_disable:0000000000000028 .L0 
C:\Users\test\AppData\Local\Temp\ccdvqI39.s:476    .text.dma_memory_to_memory_disable:0000000000000028 .L0 
C:\Users\test\AppData\Local\Temp\ccdvqI39.s:477    .text.dma_memory_to_memory_disable:000000000000002a .L0 
C:\Users\test\AppData\Local\Temp\ccdvqI39.s:484    .text.dma_channel_enable:0000000000000000 dma_channel_enable
C:\Users\test\AppData\Local\Temp\ccdvqI39.s:487    .text.dma_channel_enable:0000000000000000 .L0 
C:\Users\test\AppData\Local\Temp\ccdvqI39.s:489    .text.dma_channel_enable:0000000000000000 .L0 
C:\Users\test\AppData\Local\Temp\ccdvqI39.s:492    .text.dma_channel_enable:0000000000000000 .L0 
C:\Users\test\AppData\Local\Temp\ccdvqI39.s:493    .text.dma_channel_enable:0000000000000000 .L0 
C:\Users\test\AppData\Local\Temp\ccdvqI39.s:497    .text.dma_channel_enable:0000000000000008 .L0 
C:\Users\test\AppData\Local\Temp\ccdvqI39.s:498    .text.dma_channel_enable:0000000000000008 .L0 
C:\Users\test\AppData\Local\Temp\ccdvqI39.s:499    .text.dma_channel_enable:0000000000000008 .L0 
C:\Users\test\AppData\Local\Temp\ccdvqI39.s:504    .text.dma_channel_enable:000000000000000c .L0 
C:\Users\test\AppData\Local\Temp\ccdvqI39.s:505    .text.dma_channel_enable:000000000000000c .L0 
C:\Users\test\AppData\Local\Temp\ccdvqI39.s:513    .text.dma_channel_enable:000000000000001e .L0 
C:\Users\test\AppData\Local\Temp\ccdvqI39.s:518    .text.dma_channel_enable:0000000000000020 .L0 
C:\Users\test\AppData\Local\Temp\ccdvqI39.s:519    .text.dma_channel_enable:0000000000000020 .L0 
C:\Users\test\AppData\Local\Temp\ccdvqI39.s:525    .text.dma_channel_enable:0000000000000026 .L0 
C:\Users\test\AppData\Local\Temp\ccdvqI39.s:526    .text.dma_channel_enable:0000000000000026 .L0 
C:\Users\test\AppData\Local\Temp\ccdvqI39.s:527    .text.dma_channel_enable:0000000000000026 .L0 
C:\Users\test\AppData\Local\Temp\ccdvqI39.s:528    .text.dma_channel_enable:0000000000000026 .L0 
C:\Users\test\AppData\Local\Temp\ccdvqI39.s:529    .text.dma_channel_enable:0000000000000028 .L0 
C:\Users\test\AppData\Local\Temp\ccdvqI39.s:536    .text.dma_channel_disable:0000000000000000 dma_channel_disable
C:\Users\test\AppData\Local\Temp\ccdvqI39.s:539    .text.dma_channel_disable:0000000000000000 .L0 
C:\Users\test\AppData\Local\Temp\ccdvqI39.s:541    .text.dma_channel_disable:0000000000000000 .L0 
C:\Users\test\AppData\Local\Temp\ccdvqI39.s:544    .text.dma_channel_disable:0000000000000000 .L0 
C:\Users\test\AppData\Local\Temp\ccdvqI39.s:545    .text.dma_channel_disable:0000000000000000 .L0 
C:\Users\test\AppData\Local\Temp\ccdvqI39.s:549    .text.dma_channel_disable:0000000000000008 .L0 
C:\Users\test\AppData\Local\Temp\ccdvqI39.s:550    .text.dma_channel_disable:0000000000000008 .L0 
C:\Users\test\AppData\Local\Temp\ccdvqI39.s:551    .text.dma_channel_disable:0000000000000008 .L0 
C:\Users\test\AppData\Local\Temp\ccdvqI39.s:556    .text.dma_channel_disable:000000000000000c .L0 
C:\Users\test\AppData\Local\Temp\ccdvqI39.s:557    .text.dma_channel_disable:000000000000000c .L0 
C:\Users\test\AppData\Local\Temp\ccdvqI39.s:565    .text.dma_channel_disable:000000000000001c .L0 
C:\Users\test\AppData\Local\Temp\ccdvqI39.s:570    .text.dma_channel_disable:000000000000001e .L0 
C:\Users\test\AppData\Local\Temp\ccdvqI39.s:571    .text.dma_channel_disable:000000000000001e .L0 
C:\Users\test\AppData\Local\Temp\ccdvqI39.s:577    .text.dma_channel_disable:0000000000000024 .L0 
C:\Users\test\AppData\Local\Temp\ccdvqI39.s:578    .text.dma_channel_disable:0000000000000024 .L0 
C:\Users\test\AppData\Local\Temp\ccdvqI39.s:579    .text.dma_channel_disable:0000000000000024 .L0 
C:\Users\test\AppData\Local\Temp\ccdvqI39.s:580    .text.dma_channel_disable:0000000000000024 .L0 
C:\Users\test\AppData\Local\Temp\ccdvqI39.s:581    .text.dma_channel_disable:0000000000000026 .L0 
C:\Users\test\AppData\Local\Temp\ccdvqI39.s:588    .text.dma_periph_address_config:0000000000000000 dma_periph_address_config
C:\Users\test\AppData\Local\Temp\ccdvqI39.s:591    .text.dma_periph_address_config:0000000000000000 .L0 
C:\Users\test\AppData\Local\Temp\ccdvqI39.s:593    .text.dma_periph_address_config:0000000000000000 .L0 
C:\Users\test\AppData\Local\Temp\ccdvqI39.s:596    .text.dma_periph_address_config:0000000000000000 .L0 
C:\Users\test\AppData\Local\Temp\ccdvqI39.s:597    .text.dma_periph_address_config:0000000000000000 .L0 
C:\Users\test\AppData\Local\Temp\ccdvqI39.s:601    .text.dma_periph_address_config:0000000000000008 .L0 
C:\Users\test\AppData\Local\Temp\ccdvqI39.s:602    .text.dma_periph_address_config:0000000000000008 .L0 
C:\Users\test\AppData\Local\Temp\ccdvqI39.s:603    .text.dma_periph_address_config:0000000000000008 .L0 
GAS LISTING C:\Users\test\AppData\Local\Temp\ccdvqI39.s 			page 52


C:\Users\test\AppData\Local\Temp\ccdvqI39.s:608    .text.dma_periph_address_config:000000000000000c .L0 
C:\Users\test\AppData\Local\Temp\ccdvqI39.s:613    .text.dma_periph_address_config:0000000000000016 .L0 
C:\Users\test\AppData\Local\Temp\ccdvqI39.s:615    .text.dma_periph_address_config:0000000000000018 .L0 
C:\Users\test\AppData\Local\Temp\ccdvqI39.s:620    .text.dma_periph_address_config:000000000000001a .L0 
C:\Users\test\AppData\Local\Temp\ccdvqI39.s:621    .text.dma_periph_address_config:000000000000001a .L0 
C:\Users\test\AppData\Local\Temp\ccdvqI39.s:627    .text.dma_periph_address_config:0000000000000020 .L0 
C:\Users\test\AppData\Local\Temp\ccdvqI39.s:628    .text.dma_periph_address_config:0000000000000020 .L0 
C:\Users\test\AppData\Local\Temp\ccdvqI39.s:629    .text.dma_periph_address_config:0000000000000020 .L0 
C:\Users\test\AppData\Local\Temp\ccdvqI39.s:630    .text.dma_periph_address_config:0000000000000020 .L0 
C:\Users\test\AppData\Local\Temp\ccdvqI39.s:631    .text.dma_periph_address_config:0000000000000022 .L0 
C:\Users\test\AppData\Local\Temp\ccdvqI39.s:638    .text.dma_memory_address_config:0000000000000000 dma_memory_address_config
C:\Users\test\AppData\Local\Temp\ccdvqI39.s:641    .text.dma_memory_address_config:0000000000000000 .L0 
C:\Users\test\AppData\Local\Temp\ccdvqI39.s:643    .text.dma_memory_address_config:0000000000000000 .L0 
C:\Users\test\AppData\Local\Temp\ccdvqI39.s:646    .text.dma_memory_address_config:0000000000000000 .L0 
C:\Users\test\AppData\Local\Temp\ccdvqI39.s:647    .text.dma_memory_address_config:0000000000000000 .L0 
C:\Users\test\AppData\Local\Temp\ccdvqI39.s:651    .text.dma_memory_address_config:0000000000000008 .L0 
C:\Users\test\AppData\Local\Temp\ccdvqI39.s:652    .text.dma_memory_address_config:0000000000000008 .L0 
C:\Users\test\AppData\Local\Temp\ccdvqI39.s:653    .text.dma_memory_address_config:0000000000000008 .L0 
C:\Users\test\AppData\Local\Temp\ccdvqI39.s:658    .text.dma_memory_address_config:000000000000000c .L0 
C:\Users\test\AppData\Local\Temp\ccdvqI39.s:663    .text.dma_memory_address_config:0000000000000016 .L0 
C:\Users\test\AppData\Local\Temp\ccdvqI39.s:665    .text.dma_memory_address_config:0000000000000018 .L0 
C:\Users\test\AppData\Local\Temp\ccdvqI39.s:670    .text.dma_memory_address_config:000000000000001a .L0 
C:\Users\test\AppData\Local\Temp\ccdvqI39.s:671    .text.dma_memory_address_config:000000000000001a .L0 
C:\Users\test\AppData\Local\Temp\ccdvqI39.s:677    .text.dma_memory_address_config:0000000000000020 .L0 
C:\Users\test\AppData\Local\Temp\ccdvqI39.s:678    .text.dma_memory_address_config:0000000000000020 .L0 
C:\Users\test\AppData\Local\Temp\ccdvqI39.s:679    .text.dma_memory_address_config:0000000000000020 .L0 
C:\Users\test\AppData\Local\Temp\ccdvqI39.s:680    .text.dma_memory_address_config:0000000000000020 .L0 
C:\Users\test\AppData\Local\Temp\ccdvqI39.s:681    .text.dma_memory_address_config:0000000000000022 .L0 
C:\Users\test\AppData\Local\Temp\ccdvqI39.s:688    .text.dma_transfer_number_config:0000000000000000 dma_transfer_number_config
C:\Users\test\AppData\Local\Temp\ccdvqI39.s:691    .text.dma_transfer_number_config:0000000000000000 .L0 
C:\Users\test\AppData\Local\Temp\ccdvqI39.s:693    .text.dma_transfer_number_config:0000000000000000 .L0 
C:\Users\test\AppData\Local\Temp\ccdvqI39.s:696    .text.dma_transfer_number_config:0000000000000000 .L0 
C:\Users\test\AppData\Local\Temp\ccdvqI39.s:697    .text.dma_transfer_number_config:0000000000000000 .L0 
C:\Users\test\AppData\Local\Temp\ccdvqI39.s:701    .text.dma_transfer_number_config:0000000000000008 .L0 
C:\Users\test\AppData\Local\Temp\ccdvqI39.s:702    .text.dma_transfer_number_config:0000000000000008 .L0 
C:\Users\test\AppData\Local\Temp\ccdvqI39.s:703    .text.dma_transfer_number_config:0000000000000008 .L0 
C:\Users\test\AppData\Local\Temp\ccdvqI39.s:708    .text.dma_transfer_number_config:000000000000000c .L0 
C:\Users\test\AppData\Local\Temp\ccdvqI39.s:712    .text.dma_transfer_number_config:0000000000000014 .L0 
C:\Users\test\AppData\Local\Temp\ccdvqI39.s:715    .text.dma_transfer_number_config:0000000000000016 .L0 
C:\Users\test\AppData\Local\Temp\ccdvqI39.s:717    .text.dma_transfer_number_config:0000000000000018 .L0 
C:\Users\test\AppData\Local\Temp\ccdvqI39.s:719    .text.dma_transfer_number_config:000000000000001a .L0 
C:\Users\test\AppData\Local\Temp\ccdvqI39.s:721    .text.dma_transfer_number_config:000000000000001c .L0 
C:\Users\test\AppData\Local\Temp\ccdvqI39.s:727    .text.dma_transfer_number_config:000000000000001e .L0 
C:\Users\test\AppData\Local\Temp\ccdvqI39.s:728    .text.dma_transfer_number_config:000000000000001e .L0 
C:\Users\test\AppData\Local\Temp\ccdvqI39.s:734    .text.dma_transfer_number_config:0000000000000024 .L0 
C:\Users\test\AppData\Local\Temp\ccdvqI39.s:735    .text.dma_transfer_number_config:0000000000000024 .L0 
C:\Users\test\AppData\Local\Temp\ccdvqI39.s:736    .text.dma_transfer_number_config:0000000000000024 .L0 
C:\Users\test\AppData\Local\Temp\ccdvqI39.s:737    .text.dma_transfer_number_config:0000000000000024 .L0 
C:\Users\test\AppData\Local\Temp\ccdvqI39.s:738    .text.dma_transfer_number_config:0000000000000026 .L0 
C:\Users\test\AppData\Local\Temp\ccdvqI39.s:745    .text.dma_transfer_number_get:0000000000000000 dma_transfer_number_get
C:\Users\test\AppData\Local\Temp\ccdvqI39.s:748    .text.dma_transfer_number_get:0000000000000000 .L0 
C:\Users\test\AppData\Local\Temp\ccdvqI39.s:750    .text.dma_transfer_number_get:0000000000000000 .L0 
C:\Users\test\AppData\Local\Temp\ccdvqI39.s:753    .text.dma_transfer_number_get:0000000000000000 .L0 
C:\Users\test\AppData\Local\Temp\ccdvqI39.s:754    .text.dma_transfer_number_get:0000000000000000 .L0 
C:\Users\test\AppData\Local\Temp\ccdvqI39.s:758    .text.dma_transfer_number_get:0000000000000008 .L0 
C:\Users\test\AppData\Local\Temp\ccdvqI39.s:759    .text.dma_transfer_number_get:0000000000000008 .L0 
C:\Users\test\AppData\Local\Temp\ccdvqI39.s:760    .text.dma_transfer_number_get:0000000000000008 .L0 
GAS LISTING C:\Users\test\AppData\Local\Temp\ccdvqI39.s 			page 53


C:\Users\test\AppData\Local\Temp\ccdvqI39.s:765    .text.dma_transfer_number_get:000000000000000c .L0 
C:\Users\test\AppData\Local\Temp\ccdvqI39.s:766    .text.dma_transfer_number_get:000000000000000c .L0 
C:\Users\test\AppData\Local\Temp\ccdvqI39.s:771    .text.dma_transfer_number_get:0000000000000016 .L0 
C:\Users\test\AppData\Local\Temp\ccdvqI39.s:774    .text.dma_transfer_number_get:0000000000000018 .L0 
C:\Users\test\AppData\Local\Temp\ccdvqI39.s:780    .text.dma_transfer_number_get:000000000000001a .L0 
C:\Users\test\AppData\Local\Temp\ccdvqI39.s:781    .text.dma_transfer_number_get:000000000000001a .L0 
C:\Users\test\AppData\Local\Temp\ccdvqI39.s:787    .text.dma_transfer_number_get:0000000000000020 .L0 
C:\Users\test\AppData\Local\Temp\ccdvqI39.s:788    .text.dma_transfer_number_get:0000000000000020 .L0 
C:\Users\test\AppData\Local\Temp\ccdvqI39.s:789    .text.dma_transfer_number_get:0000000000000020 .L0 
C:\Users\test\AppData\Local\Temp\ccdvqI39.s:790    .text.dma_transfer_number_get:0000000000000020 .L0 
C:\Users\test\AppData\Local\Temp\ccdvqI39.s:791    .text.dma_transfer_number_get:0000000000000022 .L0 
C:\Users\test\AppData\Local\Temp\ccdvqI39.s:798    .text.dma_priority_config:0000000000000000 dma_priority_config
C:\Users\test\AppData\Local\Temp\ccdvqI39.s:801    .text.dma_priority_config:0000000000000000 .L0 
C:\Users\test\AppData\Local\Temp\ccdvqI39.s:803    .text.dma_priority_config:0000000000000000 .L0 
C:\Users\test\AppData\Local\Temp\ccdvqI39.s:804    .text.dma_priority_config:0000000000000000 .L0 
C:\Users\test\AppData\Local\Temp\ccdvqI39.s:807    .text.dma_priority_config:0000000000000000 .L0 
C:\Users\test\AppData\Local\Temp\ccdvqI39.s:808    .text.dma_priority_config:0000000000000000 .L0 
C:\Users\test\AppData\Local\Temp\ccdvqI39.s:812    .text.dma_priority_config:0000000000000008 .L0 
C:\Users\test\AppData\Local\Temp\ccdvqI39.s:813    .text.dma_priority_config:0000000000000008 .L0 
C:\Users\test\AppData\Local\Temp\ccdvqI39.s:814    .text.dma_priority_config:0000000000000008 .L0 
C:\Users\test\AppData\Local\Temp\ccdvqI39.s:819    .text.dma_priority_config:000000000000000c .L0 
C:\Users\test\AppData\Local\Temp\ccdvqI39.s:820    .text.dma_priority_config:000000000000000c .L0 
C:\Users\test\AppData\Local\Temp\ccdvqI39.s:825    .text.dma_priority_config:0000000000000016 .L0 
C:\Users\test\AppData\Local\Temp\ccdvqI39.s:828    .text.dma_priority_config:0000000000000018 .L0 
C:\Users\test\AppData\Local\Temp\ccdvqI39.s:829    .text.dma_priority_config:0000000000000018 .L0 
C:\Users\test\AppData\Local\Temp\ccdvqI39.s:834    .text.dma_priority_config:000000000000001e .L0 
C:\Users\test\AppData\Local\Temp\ccdvqI39.s:835    .text.dma_priority_config:000000000000001e .L0 
C:\Users\test\AppData\Local\Temp\ccdvqI39.s:838    .text.dma_priority_config:0000000000000020 .L0 
C:\Users\test\AppData\Local\Temp\ccdvqI39.s:839    .text.dma_priority_config:0000000000000020 .L0 
C:\Users\test\AppData\Local\Temp\ccdvqI39.s:841    .text.dma_priority_config:0000000000000022 .L0 
C:\Users\test\AppData\Local\Temp\ccdvqI39.s:847    .text.dma_priority_config:0000000000000024 .L0 
C:\Users\test\AppData\Local\Temp\ccdvqI39.s:848    .text.dma_priority_config:0000000000000024 .L0 
C:\Users\test\AppData\Local\Temp\ccdvqI39.s:854    .text.dma_priority_config:000000000000002a .L0 
C:\Users\test\AppData\Local\Temp\ccdvqI39.s:855    .text.dma_priority_config:000000000000002a .L0 
C:\Users\test\AppData\Local\Temp\ccdvqI39.s:856    .text.dma_priority_config:000000000000002a .L0 
C:\Users\test\AppData\Local\Temp\ccdvqI39.s:857    .text.dma_priority_config:000000000000002a .L0 
C:\Users\test\AppData\Local\Temp\ccdvqI39.s:858    .text.dma_priority_config:000000000000002c .L0 
C:\Users\test\AppData\Local\Temp\ccdvqI39.s:865    .text.dma_memory_width_config:0000000000000000 dma_memory_width_config
C:\Users\test\AppData\Local\Temp\ccdvqI39.s:868    .text.dma_memory_width_config:0000000000000000 .L0 
C:\Users\test\AppData\Local\Temp\ccdvqI39.s:870    .text.dma_memory_width_config:0000000000000000 .L0 
C:\Users\test\AppData\Local\Temp\ccdvqI39.s:871    .text.dma_memory_width_config:0000000000000000 .L0 
C:\Users\test\AppData\Local\Temp\ccdvqI39.s:874    .text.dma_memory_width_config:0000000000000000 .L0 
C:\Users\test\AppData\Local\Temp\ccdvqI39.s:875    .text.dma_memory_width_config:0000000000000000 .L0 
C:\Users\test\AppData\Local\Temp\ccdvqI39.s:879    .text.dma_memory_width_config:0000000000000008 .L0 
C:\Users\test\AppData\Local\Temp\ccdvqI39.s:880    .text.dma_memory_width_config:0000000000000008 .L0 
C:\Users\test\AppData\Local\Temp\ccdvqI39.s:881    .text.dma_memory_width_config:0000000000000008 .L0 
C:\Users\test\AppData\Local\Temp\ccdvqI39.s:886    .text.dma_memory_width_config:000000000000000c .L0 
C:\Users\test\AppData\Local\Temp\ccdvqI39.s:887    .text.dma_memory_width_config:000000000000000c .L0 
C:\Users\test\AppData\Local\Temp\ccdvqI39.s:892    .text.dma_memory_width_config:0000000000000016 .L0 
C:\Users\test\AppData\Local\Temp\ccdvqI39.s:895    .text.dma_memory_width_config:0000000000000018 .L0 
C:\Users\test\AppData\Local\Temp\ccdvqI39.s:896    .text.dma_memory_width_config:0000000000000018 .L0 
C:\Users\test\AppData\Local\Temp\ccdvqI39.s:901    .text.dma_memory_width_config:0000000000000020 .L0 
C:\Users\test\AppData\Local\Temp\ccdvqI39.s:902    .text.dma_memory_width_config:0000000000000020 .L0 
C:\Users\test\AppData\Local\Temp\ccdvqI39.s:905    .text.dma_memory_width_config:0000000000000022 .L0 
C:\Users\test\AppData\Local\Temp\ccdvqI39.s:906    .text.dma_memory_width_config:0000000000000022 .L0 
C:\Users\test\AppData\Local\Temp\ccdvqI39.s:908    .text.dma_memory_width_config:0000000000000024 .L0 
C:\Users\test\AppData\Local\Temp\ccdvqI39.s:914    .text.dma_memory_width_config:0000000000000026 .L0 
GAS LISTING C:\Users\test\AppData\Local\Temp\ccdvqI39.s 			page 54


C:\Users\test\AppData\Local\Temp\ccdvqI39.s:915    .text.dma_memory_width_config:0000000000000026 .L0 
C:\Users\test\AppData\Local\Temp\ccdvqI39.s:921    .text.dma_memory_width_config:000000000000002c .L0 
C:\Users\test\AppData\Local\Temp\ccdvqI39.s:922    .text.dma_memory_width_config:000000000000002c .L0 
C:\Users\test\AppData\Local\Temp\ccdvqI39.s:923    .text.dma_memory_width_config:000000000000002c .L0 
C:\Users\test\AppData\Local\Temp\ccdvqI39.s:924    .text.dma_memory_width_config:000000000000002c .L0 
C:\Users\test\AppData\Local\Temp\ccdvqI39.s:925    .text.dma_memory_width_config:000000000000002e .L0 
C:\Users\test\AppData\Local\Temp\ccdvqI39.s:932    .text.dma_periph_width_config:0000000000000000 dma_periph_width_config
C:\Users\test\AppData\Local\Temp\ccdvqI39.s:935    .text.dma_periph_width_config:0000000000000000 .L0 
C:\Users\test\AppData\Local\Temp\ccdvqI39.s:937    .text.dma_periph_width_config:0000000000000000 .L0 
C:\Users\test\AppData\Local\Temp\ccdvqI39.s:938    .text.dma_periph_width_config:0000000000000000 .L0 
C:\Users\test\AppData\Local\Temp\ccdvqI39.s:941    .text.dma_periph_width_config:0000000000000000 .L0 
C:\Users\test\AppData\Local\Temp\ccdvqI39.s:942    .text.dma_periph_width_config:0000000000000000 .L0 
C:\Users\test\AppData\Local\Temp\ccdvqI39.s:946    .text.dma_periph_width_config:0000000000000008 .L0 
C:\Users\test\AppData\Local\Temp\ccdvqI39.s:947    .text.dma_periph_width_config:0000000000000008 .L0 
C:\Users\test\AppData\Local\Temp\ccdvqI39.s:948    .text.dma_periph_width_config:0000000000000008 .L0 
C:\Users\test\AppData\Local\Temp\ccdvqI39.s:953    .text.dma_periph_width_config:000000000000000c .L0 
C:\Users\test\AppData\Local\Temp\ccdvqI39.s:954    .text.dma_periph_width_config:000000000000000c .L0 
C:\Users\test\AppData\Local\Temp\ccdvqI39.s:959    .text.dma_periph_width_config:0000000000000016 .L0 
C:\Users\test\AppData\Local\Temp\ccdvqI39.s:962    .text.dma_periph_width_config:0000000000000018 .L0 
C:\Users\test\AppData\Local\Temp\ccdvqI39.s:963    .text.dma_periph_width_config:0000000000000018 .L0 
C:\Users\test\AppData\Local\Temp\ccdvqI39.s:966    .text.dma_periph_width_config:000000000000001c .L0 
C:\Users\test\AppData\Local\Temp\ccdvqI39.s:967    .text.dma_periph_width_config:000000000000001c .L0 
C:\Users\test\AppData\Local\Temp\ccdvqI39.s:970    .text.dma_periph_width_config:000000000000001e .L0 
C:\Users\test\AppData\Local\Temp\ccdvqI39.s:971    .text.dma_periph_width_config:000000000000001e .L0 
C:\Users\test\AppData\Local\Temp\ccdvqI39.s:973    .text.dma_periph_width_config:0000000000000020 .L0 
C:\Users\test\AppData\Local\Temp\ccdvqI39.s:979    .text.dma_periph_width_config:0000000000000022 .L0 
C:\Users\test\AppData\Local\Temp\ccdvqI39.s:980    .text.dma_periph_width_config:0000000000000022 .L0 
C:\Users\test\AppData\Local\Temp\ccdvqI39.s:986    .text.dma_periph_width_config:0000000000000028 .L0 
C:\Users\test\AppData\Local\Temp\ccdvqI39.s:987    .text.dma_periph_width_config:0000000000000028 .L0 
C:\Users\test\AppData\Local\Temp\ccdvqI39.s:988    .text.dma_periph_width_config:0000000000000028 .L0 
C:\Users\test\AppData\Local\Temp\ccdvqI39.s:989    .text.dma_periph_width_config:0000000000000028 .L0 
C:\Users\test\AppData\Local\Temp\ccdvqI39.s:990    .text.dma_periph_width_config:000000000000002a .L0 
C:\Users\test\AppData\Local\Temp\ccdvqI39.s:997    .text.dma_memory_increase_enable:0000000000000000 dma_memory_increase_enable
C:\Users\test\AppData\Local\Temp\ccdvqI39.s:1000   .text.dma_memory_increase_enable:0000000000000000 .L0 
C:\Users\test\AppData\Local\Temp\ccdvqI39.s:1002   .text.dma_memory_increase_enable:0000000000000000 .L0 
C:\Users\test\AppData\Local\Temp\ccdvqI39.s:1005   .text.dma_memory_increase_enable:0000000000000000 .L0 
C:\Users\test\AppData\Local\Temp\ccdvqI39.s:1006   .text.dma_memory_increase_enable:0000000000000000 .L0 
C:\Users\test\AppData\Local\Temp\ccdvqI39.s:1010   .text.dma_memory_increase_enable:0000000000000008 .L0 
C:\Users\test\AppData\Local\Temp\ccdvqI39.s:1011   .text.dma_memory_increase_enable:0000000000000008 .L0 
C:\Users\test\AppData\Local\Temp\ccdvqI39.s:1012   .text.dma_memory_increase_enable:0000000000000008 .L0 
C:\Users\test\AppData\Local\Temp\ccdvqI39.s:1017   .text.dma_memory_increase_enable:000000000000000c .L0 
C:\Users\test\AppData\Local\Temp\ccdvqI39.s:1018   .text.dma_memory_increase_enable:000000000000000c .L0 
C:\Users\test\AppData\Local\Temp\ccdvqI39.s:1026   .text.dma_memory_increase_enable:000000000000001e .L0 
C:\Users\test\AppData\Local\Temp\ccdvqI39.s:1031   .text.dma_memory_increase_enable:0000000000000020 .L0 
C:\Users\test\AppData\Local\Temp\ccdvqI39.s:1032   .text.dma_memory_increase_enable:0000000000000020 .L0 
C:\Users\test\AppData\Local\Temp\ccdvqI39.s:1038   .text.dma_memory_increase_enable:0000000000000026 .L0 
C:\Users\test\AppData\Local\Temp\ccdvqI39.s:1039   .text.dma_memory_increase_enable:0000000000000026 .L0 
C:\Users\test\AppData\Local\Temp\ccdvqI39.s:1040   .text.dma_memory_increase_enable:0000000000000026 .L0 
C:\Users\test\AppData\Local\Temp\ccdvqI39.s:1041   .text.dma_memory_increase_enable:0000000000000026 .L0 
C:\Users\test\AppData\Local\Temp\ccdvqI39.s:1042   .text.dma_memory_increase_enable:0000000000000028 .L0 
C:\Users\test\AppData\Local\Temp\ccdvqI39.s:1049   .text.dma_memory_increase_disable:0000000000000000 dma_memory_increase_disable
C:\Users\test\AppData\Local\Temp\ccdvqI39.s:1052   .text.dma_memory_increase_disable:0000000000000000 .L0 
C:\Users\test\AppData\Local\Temp\ccdvqI39.s:1054   .text.dma_memory_increase_disable:0000000000000000 .L0 
C:\Users\test\AppData\Local\Temp\ccdvqI39.s:1057   .text.dma_memory_increase_disable:0000000000000000 .L0 
C:\Users\test\AppData\Local\Temp\ccdvqI39.s:1058   .text.dma_memory_increase_disable:0000000000000000 .L0 
C:\Users\test\AppData\Local\Temp\ccdvqI39.s:1062   .text.dma_memory_increase_disable:0000000000000008 .L0 
C:\Users\test\AppData\Local\Temp\ccdvqI39.s:1063   .text.dma_memory_increase_disable:0000000000000008 .L0 
GAS LISTING C:\Users\test\AppData\Local\Temp\ccdvqI39.s 			page 55


C:\Users\test\AppData\Local\Temp\ccdvqI39.s:1064   .text.dma_memory_increase_disable:0000000000000008 .L0 
C:\Users\test\AppData\Local\Temp\ccdvqI39.s:1069   .text.dma_memory_increase_disable:000000000000000c .L0 
C:\Users\test\AppData\Local\Temp\ccdvqI39.s:1070   .text.dma_memory_increase_disable:000000000000000c .L0 
C:\Users\test\AppData\Local\Temp\ccdvqI39.s:1078   .text.dma_memory_increase_disable:000000000000001e .L0 
C:\Users\test\AppData\Local\Temp\ccdvqI39.s:1083   .text.dma_memory_increase_disable:0000000000000020 .L0 
C:\Users\test\AppData\Local\Temp\ccdvqI39.s:1084   .text.dma_memory_increase_disable:0000000000000020 .L0 
C:\Users\test\AppData\Local\Temp\ccdvqI39.s:1090   .text.dma_memory_increase_disable:0000000000000026 .L0 
C:\Users\test\AppData\Local\Temp\ccdvqI39.s:1091   .text.dma_memory_increase_disable:0000000000000026 .L0 
C:\Users\test\AppData\Local\Temp\ccdvqI39.s:1092   .text.dma_memory_increase_disable:0000000000000026 .L0 
C:\Users\test\AppData\Local\Temp\ccdvqI39.s:1093   .text.dma_memory_increase_disable:0000000000000026 .L0 
C:\Users\test\AppData\Local\Temp\ccdvqI39.s:1094   .text.dma_memory_increase_disable:0000000000000028 .L0 
C:\Users\test\AppData\Local\Temp\ccdvqI39.s:1101   .text.dma_periph_increase_enable:0000000000000000 dma_periph_increase_enable
C:\Users\test\AppData\Local\Temp\ccdvqI39.s:1104   .text.dma_periph_increase_enable:0000000000000000 .L0 
C:\Users\test\AppData\Local\Temp\ccdvqI39.s:1106   .text.dma_periph_increase_enable:0000000000000000 .L0 
C:\Users\test\AppData\Local\Temp\ccdvqI39.s:1109   .text.dma_periph_increase_enable:0000000000000000 .L0 
C:\Users\test\AppData\Local\Temp\ccdvqI39.s:1110   .text.dma_periph_increase_enable:0000000000000000 .L0 
C:\Users\test\AppData\Local\Temp\ccdvqI39.s:1114   .text.dma_periph_increase_enable:0000000000000008 .L0 
C:\Users\test\AppData\Local\Temp\ccdvqI39.s:1115   .text.dma_periph_increase_enable:0000000000000008 .L0 
C:\Users\test\AppData\Local\Temp\ccdvqI39.s:1116   .text.dma_periph_increase_enable:0000000000000008 .L0 
C:\Users\test\AppData\Local\Temp\ccdvqI39.s:1121   .text.dma_periph_increase_enable:000000000000000c .L0 
C:\Users\test\AppData\Local\Temp\ccdvqI39.s:1122   .text.dma_periph_increase_enable:000000000000000c .L0 
C:\Users\test\AppData\Local\Temp\ccdvqI39.s:1130   .text.dma_periph_increase_enable:000000000000001e .L0 
C:\Users\test\AppData\Local\Temp\ccdvqI39.s:1135   .text.dma_periph_increase_enable:0000000000000020 .L0 
C:\Users\test\AppData\Local\Temp\ccdvqI39.s:1136   .text.dma_periph_increase_enable:0000000000000020 .L0 
C:\Users\test\AppData\Local\Temp\ccdvqI39.s:1142   .text.dma_periph_increase_enable:0000000000000026 .L0 
C:\Users\test\AppData\Local\Temp\ccdvqI39.s:1143   .text.dma_periph_increase_enable:0000000000000026 .L0 
C:\Users\test\AppData\Local\Temp\ccdvqI39.s:1144   .text.dma_periph_increase_enable:0000000000000026 .L0 
C:\Users\test\AppData\Local\Temp\ccdvqI39.s:1145   .text.dma_periph_increase_enable:0000000000000026 .L0 
C:\Users\test\AppData\Local\Temp\ccdvqI39.s:1146   .text.dma_periph_increase_enable:0000000000000028 .L0 
C:\Users\test\AppData\Local\Temp\ccdvqI39.s:1153   .text.dma_periph_increase_disable:0000000000000000 dma_periph_increase_disable
C:\Users\test\AppData\Local\Temp\ccdvqI39.s:1156   .text.dma_periph_increase_disable:0000000000000000 .L0 
C:\Users\test\AppData\Local\Temp\ccdvqI39.s:1158   .text.dma_periph_increase_disable:0000000000000000 .L0 
C:\Users\test\AppData\Local\Temp\ccdvqI39.s:1161   .text.dma_periph_increase_disable:0000000000000000 .L0 
C:\Users\test\AppData\Local\Temp\ccdvqI39.s:1162   .text.dma_periph_increase_disable:0000000000000000 .L0 
C:\Users\test\AppData\Local\Temp\ccdvqI39.s:1166   .text.dma_periph_increase_disable:0000000000000008 .L0 
C:\Users\test\AppData\Local\Temp\ccdvqI39.s:1167   .text.dma_periph_increase_disable:0000000000000008 .L0 
C:\Users\test\AppData\Local\Temp\ccdvqI39.s:1168   .text.dma_periph_increase_disable:0000000000000008 .L0 
C:\Users\test\AppData\Local\Temp\ccdvqI39.s:1173   .text.dma_periph_increase_disable:000000000000000c .L0 
C:\Users\test\AppData\Local\Temp\ccdvqI39.s:1174   .text.dma_periph_increase_disable:000000000000000c .L0 
C:\Users\test\AppData\Local\Temp\ccdvqI39.s:1182   .text.dma_periph_increase_disable:000000000000001e .L0 
C:\Users\test\AppData\Local\Temp\ccdvqI39.s:1187   .text.dma_periph_increase_disable:0000000000000020 .L0 
C:\Users\test\AppData\Local\Temp\ccdvqI39.s:1188   .text.dma_periph_increase_disable:0000000000000020 .L0 
C:\Users\test\AppData\Local\Temp\ccdvqI39.s:1194   .text.dma_periph_increase_disable:0000000000000026 .L0 
C:\Users\test\AppData\Local\Temp\ccdvqI39.s:1195   .text.dma_periph_increase_disable:0000000000000026 .L0 
C:\Users\test\AppData\Local\Temp\ccdvqI39.s:1196   .text.dma_periph_increase_disable:0000000000000026 .L0 
C:\Users\test\AppData\Local\Temp\ccdvqI39.s:1197   .text.dma_periph_increase_disable:0000000000000026 .L0 
C:\Users\test\AppData\Local\Temp\ccdvqI39.s:1198   .text.dma_periph_increase_disable:0000000000000028 .L0 
C:\Users\test\AppData\Local\Temp\ccdvqI39.s:1205   .text.dma_transfer_direction_config:0000000000000000 dma_transfer_direction_config
C:\Users\test\AppData\Local\Temp\ccdvqI39.s:1208   .text.dma_transfer_direction_config:0000000000000000 .L0 
C:\Users\test\AppData\Local\Temp\ccdvqI39.s:1210   .text.dma_transfer_direction_config:0000000000000000 .L0 
C:\Users\test\AppData\Local\Temp\ccdvqI39.s:1213   .text.dma_transfer_direction_config:0000000000000000 .L0 
C:\Users\test\AppData\Local\Temp\ccdvqI39.s:1214   .text.dma_transfer_direction_config:0000000000000000 .L0 
C:\Users\test\AppData\Local\Temp\ccdvqI39.s:1218   .text.dma_transfer_direction_config:0000000000000008 .L0 
C:\Users\test\AppData\Local\Temp\ccdvqI39.s:1219   .text.dma_transfer_direction_config:0000000000000008 .L0 
C:\Users\test\AppData\Local\Temp\ccdvqI39.s:1220   .text.dma_transfer_direction_config:0000000000000008 .L0 
C:\Users\test\AppData\Local\Temp\ccdvqI39.s:1225   .text.dma_transfer_direction_config:000000000000000c .L0 
C:\Users\test\AppData\Local\Temp\ccdvqI39.s:1230   .text.dma_transfer_direction_config:0000000000000016 .L0 
GAS LISTING C:\Users\test\AppData\Local\Temp\ccdvqI39.s 			page 56


C:\Users\test\AppData\Local\Temp\ccdvqI39.s:1232   .text.dma_transfer_direction_config:0000000000000018 .L0 
C:\Users\test\AppData\Local\Temp\ccdvqI39.s:1234   .text.dma_transfer_direction_config:000000000000001a .L0 
C:\Users\test\AppData\Local\Temp\ccdvqI39.s:1235   .text.dma_transfer_direction_config:000000000000001a .L0 
C:\Users\test\AppData\Local\Temp\ccdvqI39.s:1240   .text.dma_transfer_direction_config:0000000000000020 .L0 
C:\Users\test\AppData\Local\Temp\ccdvqI39.s:1241   .text.dma_transfer_direction_config:0000000000000020 .L0 
C:\Users\test\AppData\Local\Temp\ccdvqI39.s:1244   .text.dma_transfer_direction_config:0000000000000026 .L0 
C:\Users\test\AppData\Local\Temp\ccdvqI39.s:1249   .text.dma_transfer_direction_config:0000000000000028 .L0 
C:\Users\test\AppData\Local\Temp\ccdvqI39.s:1250   .text.dma_transfer_direction_config:0000000000000028 .L0 
C:\Users\test\AppData\Local\Temp\ccdvqI39.s:1256   .text.dma_transfer_direction_config:000000000000002e .L0 
C:\Users\test\AppData\Local\Temp\ccdvqI39.s:1257   .text.dma_transfer_direction_config:000000000000002e .L0 
C:\Users\test\AppData\Local\Temp\ccdvqI39.s:1258   .text.dma_transfer_direction_config:000000000000002e .L0 
C:\Users\test\AppData\Local\Temp\ccdvqI39.s:1259   .text.dma_transfer_direction_config:000000000000002e .L0 
C:\Users\test\AppData\Local\Temp\ccdvqI39.s:1260   .text.dma_transfer_direction_config:0000000000000030 .L0 
C:\Users\test\AppData\Local\Temp\ccdvqI39.s:1267   .text.dma_flag_get:0000000000000000 dma_flag_get
C:\Users\test\AppData\Local\Temp\ccdvqI39.s:1270   .text.dma_flag_get:0000000000000000 .L0 
C:\Users\test\AppData\Local\Temp\ccdvqI39.s:1272   .text.dma_flag_get:0000000000000000 .L0 
C:\Users\test\AppData\Local\Temp\ccdvqI39.s:1273   .text.dma_flag_get:0000000000000000 .L0 
C:\Users\test\AppData\Local\Temp\ccdvqI39.s:1274   .text.dma_flag_get:0000000000000000 .L0 
C:\Users\test\AppData\Local\Temp\ccdvqI39.s:1275   .text.dma_flag_get:0000000000000000 .L0 
C:\Users\test\AppData\Local\Temp\ccdvqI39.s:1278   .text.dma_flag_get:0000000000000002 .L0 
C:\Users\test\AppData\Local\Temp\ccdvqI39.s:1279   .text.dma_flag_get:0000000000000002 .L0 
C:\Users\test\AppData\Local\Temp\ccdvqI39.s:1284   .text.dma_flag_get:0000000000000008 .L0 
C:\Users\test\AppData\Local\Temp\ccdvqI39.s:1287   .text.dma_flag_get:000000000000000a .L0 
C:\Users\test\AppData\Local\Temp\ccdvqI39.s:1289   .text.dma_flag_get:0000000000000010 .L0 
C:\Users\test\AppData\Local\Temp\ccdvqI39.s:1296   .text.dma_flag_clear:0000000000000000 dma_flag_clear
C:\Users\test\AppData\Local\Temp\ccdvqI39.s:1299   .text.dma_flag_clear:0000000000000000 .L0 
C:\Users\test\AppData\Local\Temp\ccdvqI39.s:1301   .text.dma_flag_clear:0000000000000000 .L0 
C:\Users\test\AppData\Local\Temp\ccdvqI39.s:1302   .text.dma_flag_clear:0000000000000000 .L0 
C:\Users\test\AppData\Local\Temp\ccdvqI39.s:1303   .text.dma_flag_clear:0000000000000000 .L0 
C:\Users\test\AppData\Local\Temp\ccdvqI39.s:1305   .text.dma_flag_clear:0000000000000002 .L0 
C:\Users\test\AppData\Local\Temp\ccdvqI39.s:1310   .text.dma_flag_clear:0000000000000008 .L0 
C:\Users\test\AppData\Local\Temp\ccdvqI39.s:1313   .text.dma_flag_clear:000000000000000c .L0 
C:\Users\test\AppData\Local\Temp\ccdvqI39.s:1314   .text.dma_flag_clear:000000000000000e .L0 
C:\Users\test\AppData\Local\Temp\ccdvqI39.s:1321   .text.dma_interrupt_flag_get:0000000000000000 dma_interrupt_flag_get
C:\Users\test\AppData\Local\Temp\ccdvqI39.s:1324   .text.dma_interrupt_flag_get:0000000000000000 .L0 
C:\Users\test\AppData\Local\Temp\ccdvqI39.s:1326   .text.dma_interrupt_flag_get:0000000000000000 .L0 
C:\Users\test\AppData\Local\Temp\ccdvqI39.s:1327   .text.dma_interrupt_flag_get:0000000000000000 .L0 
C:\Users\test\AppData\Local\Temp\ccdvqI39.s:1328   .text.dma_interrupt_flag_get:0000000000000000 .L0 
C:\Users\test\AppData\Local\Temp\ccdvqI39.s:1336   .text.dma_interrupt_flag_get:0000000000000012 .L0 
C:\Users\test\AppData\Local\Temp\ccdvqI39.s:1337   .text.dma_interrupt_flag_get:0000000000000012 .L0 
C:\Users\test\AppData\Local\Temp\ccdvqI39.s:1338   .text.dma_interrupt_flag_get:0000000000000012 .L0 
C:\Users\test\AppData\Local\Temp\ccdvqI39.s:1339   .text.dma_interrupt_flag_get:0000000000000012 .L0 
C:\Users\test\AppData\Local\Temp\ccdvqI39.s:1342   .text.dma_interrupt_flag_get:0000000000000014 .L0 
C:\Users\test\AppData\Local\Temp\ccdvqI39.s:1343   .text.dma_interrupt_flag_get:0000000000000014 .L0 
C:\Users\test\AppData\Local\Temp\ccdvqI39.s:1345   .text.dma_interrupt_flag_get:0000000000000018 .L0 
C:\Users\test\AppData\Local\Temp\ccdvqI39.s:1350   .text.dma_interrupt_flag_get:0000000000000022 .L0 
C:\Users\test\AppData\Local\Temp\ccdvqI39.s:1353   .text.dma_interrupt_flag_get:0000000000000024 .L0 
C:\Users\test\AppData\Local\Temp\ccdvqI39.s:1355   .text.dma_interrupt_flag_get:0000000000000026 .L0 
C:\Users\test\AppData\Local\Temp\ccdvqI39.s:1357   .text.dma_interrupt_flag_get:000000000000002a .L0 
C:\Users\test\AppData\Local\Temp\ccdvqI39.s:1360   .text.dma_interrupt_flag_get:000000000000002c .L0 
C:\Users\test\AppData\Local\Temp\ccdvqI39.s:1361   .text.dma_interrupt_flag_get:000000000000002c .L0 
C:\Users\test\AppData\Local\Temp\ccdvqI39.s:1365   .text.dma_interrupt_flag_get:000000000000002e .L0 
C:\Users\test\AppData\Local\Temp\ccdvqI39.s:1366   .text.dma_interrupt_flag_get:000000000000002e .L0 
C:\Users\test\AppData\Local\Temp\ccdvqI39.s:1367   .text.dma_interrupt_flag_get:000000000000002e .L0 
C:\Users\test\AppData\Local\Temp\ccdvqI39.s:1369   .text.dma_interrupt_flag_get:0000000000000030 .L0 
C:\Users\test\AppData\Local\Temp\ccdvqI39.s:1373   .text.dma_interrupt_flag_get:0000000000000034 .L0 
C:\Users\test\AppData\Local\Temp\ccdvqI39.s:1377   .text.dma_interrupt_flag_get:0000000000000036 .L0 
GAS LISTING C:\Users\test\AppData\Local\Temp\ccdvqI39.s 			page 57


C:\Users\test\AppData\Local\Temp\ccdvqI39.s:1378   .text.dma_interrupt_flag_get:0000000000000036 .L0 
C:\Users\test\AppData\Local\Temp\ccdvqI39.s:1380   .text.dma_interrupt_flag_get:000000000000003a .L0 
C:\Users\test\AppData\Local\Temp\ccdvqI39.s:1385   .text.dma_interrupt_flag_get:0000000000000044 .L0 
C:\Users\test\AppData\Local\Temp\ccdvqI39.s:1388   .text.dma_interrupt_flag_get:0000000000000046 .L0 
C:\Users\test\AppData\Local\Temp\ccdvqI39.s:1390   .text.dma_interrupt_flag_get:0000000000000048 .L0 
C:\Users\test\AppData\Local\Temp\ccdvqI39.s:1393   .text.dma_interrupt_flag_get:000000000000004c .L0 
C:\Users\test\AppData\Local\Temp\ccdvqI39.s:1396   .text.dma_interrupt_flag_get:000000000000004e .L0 
C:\Users\test\AppData\Local\Temp\ccdvqI39.s:1397   .text.dma_interrupt_flag_get:000000000000004e .L0 
C:\Users\test\AppData\Local\Temp\ccdvqI39.s:1400   .text.dma_interrupt_flag_get:0000000000000050 .L0 
C:\Users\test\AppData\Local\Temp\ccdvqI39.s:1404   .text.dma_interrupt_flag_get:0000000000000052 .L0 
C:\Users\test\AppData\Local\Temp\ccdvqI39.s:1405   .text.dma_interrupt_flag_get:0000000000000052 .L0 
C:\Users\test\AppData\Local\Temp\ccdvqI39.s:1407   .text.dma_interrupt_flag_get:0000000000000056 .L0 
C:\Users\test\AppData\Local\Temp\ccdvqI39.s:1412   .text.dma_interrupt_flag_get:0000000000000060 .L0 
C:\Users\test\AppData\Local\Temp\ccdvqI39.s:1415   .text.dma_interrupt_flag_get:0000000000000062 .L0 
C:\Users\test\AppData\Local\Temp\ccdvqI39.s:1417   .text.dma_interrupt_flag_get:0000000000000064 .L0 
C:\Users\test\AppData\Local\Temp\ccdvqI39.s:1419   .text.dma_interrupt_flag_get:0000000000000068 .L0 
C:\Users\test\AppData\Local\Temp\ccdvqI39.s:1422   .text.dma_interrupt_flag_get:000000000000006a .L0 
C:\Users\test\AppData\Local\Temp\ccdvqI39.s:1423   .text.dma_interrupt_flag_get:000000000000006a .L0 
C:\Users\test\AppData\Local\Temp\ccdvqI39.s:1426   .text.dma_interrupt_flag_get:000000000000006c .L0 
C:\Users\test\AppData\Local\Temp\ccdvqI39.s:1427   .text.dma_interrupt_flag_get:000000000000006e .L0 
C:\Users\test\AppData\Local\Temp\ccdvqI39.s:1434   .text.dma_interrupt_flag_clear:0000000000000000 dma_interrupt_flag_clear
C:\Users\test\AppData\Local\Temp\ccdvqI39.s:1436   .text.dma_interrupt_flag_clear:0000000000000000 .L0 
C:\Users\test\AppData\Local\Temp\ccdvqI39.s:1438   .text.dma_interrupt_flag_clear:0000000000000008 .L0 
C:\Users\test\AppData\Local\Temp\ccdvqI39.s:1445   .text.dma_interrupt_enable:0000000000000000 dma_interrupt_enable
C:\Users\test\AppData\Local\Temp\ccdvqI39.s:1448   .text.dma_interrupt_enable:0000000000000000 .L0 
C:\Users\test\AppData\Local\Temp\ccdvqI39.s:1450   .text.dma_interrupt_enable:0000000000000000 .L0 
C:\Users\test\AppData\Local\Temp\ccdvqI39.s:1453   .text.dma_interrupt_enable:0000000000000000 .L0 
C:\Users\test\AppData\Local\Temp\ccdvqI39.s:1454   .text.dma_interrupt_enable:0000000000000000 .L0 
C:\Users\test\AppData\Local\Temp\ccdvqI39.s:1458   .text.dma_interrupt_enable:0000000000000008 .L0 
C:\Users\test\AppData\Local\Temp\ccdvqI39.s:1459   .text.dma_interrupt_enable:0000000000000008 .L0 
C:\Users\test\AppData\Local\Temp\ccdvqI39.s:1460   .text.dma_interrupt_enable:0000000000000008 .L0 
C:\Users\test\AppData\Local\Temp\ccdvqI39.s:1465   .text.dma_interrupt_enable:000000000000000c .L0 
C:\Users\test\AppData\Local\Temp\ccdvqI39.s:1466   .text.dma_interrupt_enable:000000000000000c .L0 
C:\Users\test\AppData\Local\Temp\ccdvqI39.s:1474   .text.dma_interrupt_enable:000000000000001c .L0 
C:\Users\test\AppData\Local\Temp\ccdvqI39.s:1479   .text.dma_interrupt_enable:000000000000001e .L0 
C:\Users\test\AppData\Local\Temp\ccdvqI39.s:1480   .text.dma_interrupt_enable:000000000000001e .L0 
C:\Users\test\AppData\Local\Temp\ccdvqI39.s:1486   .text.dma_interrupt_enable:0000000000000024 .L0 
C:\Users\test\AppData\Local\Temp\ccdvqI39.s:1487   .text.dma_interrupt_enable:0000000000000024 .L0 
C:\Users\test\AppData\Local\Temp\ccdvqI39.s:1488   .text.dma_interrupt_enable:0000000000000024 .L0 
C:\Users\test\AppData\Local\Temp\ccdvqI39.s:1489   .text.dma_interrupt_enable:0000000000000024 .L0 
C:\Users\test\AppData\Local\Temp\ccdvqI39.s:1490   .text.dma_interrupt_enable:0000000000000026 .L0 
C:\Users\test\AppData\Local\Temp\ccdvqI39.s:1497   .text.dma_interrupt_disable:0000000000000000 dma_interrupt_disable
C:\Users\test\AppData\Local\Temp\ccdvqI39.s:1500   .text.dma_interrupt_disable:0000000000000000 .L0 
C:\Users\test\AppData\Local\Temp\ccdvqI39.s:1502   .text.dma_interrupt_disable:0000000000000000 .L0 
C:\Users\test\AppData\Local\Temp\ccdvqI39.s:1505   .text.dma_interrupt_disable:0000000000000000 .L0 
C:\Users\test\AppData\Local\Temp\ccdvqI39.s:1506   .text.dma_interrupt_disable:0000000000000000 .L0 
C:\Users\test\AppData\Local\Temp\ccdvqI39.s:1510   .text.dma_interrupt_disable:0000000000000008 .L0 
C:\Users\test\AppData\Local\Temp\ccdvqI39.s:1511   .text.dma_interrupt_disable:0000000000000008 .L0 
C:\Users\test\AppData\Local\Temp\ccdvqI39.s:1512   .text.dma_interrupt_disable:0000000000000008 .L0 
C:\Users\test\AppData\Local\Temp\ccdvqI39.s:1517   .text.dma_interrupt_disable:000000000000000c .L0 
C:\Users\test\AppData\Local\Temp\ccdvqI39.s:1518   .text.dma_interrupt_disable:000000000000000c .L0 
C:\Users\test\AppData\Local\Temp\ccdvqI39.s:1524   .text.dma_interrupt_disable:0000000000000018 .L0 
C:\Users\test\AppData\Local\Temp\ccdvqI39.s:1526   .text.dma_interrupt_disable:000000000000001c .L0 
C:\Users\test\AppData\Local\Temp\ccdvqI39.s:1529   .text.dma_interrupt_disable:0000000000000020 .L0 
C:\Users\test\AppData\Local\Temp\ccdvqI39.s:1534   .text.dma_interrupt_disable:0000000000000022 .L0 
C:\Users\test\AppData\Local\Temp\ccdvqI39.s:1535   .text.dma_interrupt_disable:0000000000000022 .L0 
C:\Users\test\AppData\Local\Temp\ccdvqI39.s:1541   .text.dma_interrupt_disable:0000000000000028 .L0 
GAS LISTING C:\Users\test\AppData\Local\Temp\ccdvqI39.s 			page 58


C:\Users\test\AppData\Local\Temp\ccdvqI39.s:1542   .text.dma_interrupt_disable:0000000000000028 .L0 
C:\Users\test\AppData\Local\Temp\ccdvqI39.s:1543   .text.dma_interrupt_disable:0000000000000028 .L0 
C:\Users\test\AppData\Local\Temp\ccdvqI39.s:1544   .text.dma_interrupt_disable:0000000000000028 .L0 
C:\Users\test\AppData\Local\Temp\ccdvqI39.s:1545   .text.dma_interrupt_disable:000000000000002a .L0 
C:\Users\test\AppData\Local\Temp\ccdvqI39.s:80     .text.dma_deinit:0000000000000044 .L0 
C:\Users\test\AppData\Local\Temp\ccdvqI39.s:119    .text.dma_struct_para_init:0000000000000022 .L0 
C:\Users\test\AppData\Local\Temp\ccdvqI39.s:269    .text.dma_init:0000000000000098 .L0 
C:\Users\test\AppData\Local\Temp\ccdvqI39.s:321    .text.dma_circulation_enable:0000000000000028 .L0 
C:\Users\test\AppData\Local\Temp\ccdvqI39.s:373    .text.dma_circulation_disable:0000000000000028 .L0 
C:\Users\test\AppData\Local\Temp\ccdvqI39.s:426    .text.dma_memory_to_memory_enable:0000000000000028 .L0 
C:\Users\test\AppData\Local\Temp\ccdvqI39.s:480    .text.dma_memory_to_memory_disable:000000000000002a .L0 
C:\Users\test\AppData\Local\Temp\ccdvqI39.s:532    .text.dma_channel_enable:0000000000000028 .L0 
C:\Users\test\AppData\Local\Temp\ccdvqI39.s:584    .text.dma_channel_disable:0000000000000026 .L0 
C:\Users\test\AppData\Local\Temp\ccdvqI39.s:634    .text.dma_periph_address_config:0000000000000022 .L0 
C:\Users\test\AppData\Local\Temp\ccdvqI39.s:684    .text.dma_memory_address_config:0000000000000022 .L0 
C:\Users\test\AppData\Local\Temp\ccdvqI39.s:741    .text.dma_transfer_number_config:0000000000000026 .L0 
C:\Users\test\AppData\Local\Temp\ccdvqI39.s:794    .text.dma_transfer_number_get:0000000000000022 .L0 
C:\Users\test\AppData\Local\Temp\ccdvqI39.s:861    .text.dma_priority_config:000000000000002c .L0 
C:\Users\test\AppData\Local\Temp\ccdvqI39.s:928    .text.dma_memory_width_config:000000000000002e .L0 
C:\Users\test\AppData\Local\Temp\ccdvqI39.s:993    .text.dma_periph_width_config:000000000000002a .L0 
C:\Users\test\AppData\Local\Temp\ccdvqI39.s:1045   .text.dma_memory_increase_enable:0000000000000028 .L0 
C:\Users\test\AppData\Local\Temp\ccdvqI39.s:1097   .text.dma_memory_increase_disable:0000000000000028 .L0 
C:\Users\test\AppData\Local\Temp\ccdvqI39.s:1149   .text.dma_periph_increase_enable:0000000000000028 .L0 
C:\Users\test\AppData\Local\Temp\ccdvqI39.s:1201   .text.dma_periph_increase_disable:0000000000000028 .L0 
C:\Users\test\AppData\Local\Temp\ccdvqI39.s:1263   .text.dma_transfer_direction_config:0000000000000030 .L0 
C:\Users\test\AppData\Local\Temp\ccdvqI39.s:1292   .text.dma_flag_get:0000000000000010 .L0 
C:\Users\test\AppData\Local\Temp\ccdvqI39.s:1317   .text.dma_flag_clear:000000000000000e .L0 
C:\Users\test\AppData\Local\Temp\ccdvqI39.s:1430   .text.dma_interrupt_flag_get:000000000000006e .L0 
C:\Users\test\AppData\Local\Temp\ccdvqI39.s:1493   .text.dma_interrupt_enable:0000000000000026 .L0 
C:\Users\test\AppData\Local\Temp\ccdvqI39.s:1548   .text.dma_interrupt_disable:000000000000002a .L0 
                     .debug_frame:0000000000000000 .L0 
C:\Users\test\AppData\Local\Temp\ccdvqI39.s:62     .text.dma_deinit:000000000000003c .L5
C:\Users\test\AppData\Local\Temp\ccdvqI39.s:27     .text.dma_deinit:000000000000000c .L2
C:\Users\test\AppData\Local\Temp\ccdvqI39.s:69     .text.dma_deinit:0000000000000042 .L3
C:\Users\test\AppData\Local\Temp\ccdvqI39.s:251    .text.dma_init:0000000000000090 .L16
C:\Users\test\AppData\Local\Temp\ccdvqI39.s:242    .text.dma_init:0000000000000086 .L17
C:\Users\test\AppData\Local\Temp\ccdvqI39.s:234    .text.dma_init:000000000000007c .L18
C:\Users\test\AppData\Local\Temp\ccdvqI39.s:226    .text.dma_init:0000000000000072 .L14
C:\Users\test\AppData\Local\Temp\ccdvqI39.s:215    .text.dma_init:0000000000000064 .L13
C:\Users\test\AppData\Local\Temp\ccdvqI39.s:204    .text.dma_init:0000000000000052 .L11
C:\Users\test\AppData\Local\Temp\ccdvqI39.s:140    .text.dma_init:000000000000000c .L8
C:\Users\test\AppData\Local\Temp\ccdvqI39.s:258    .text.dma_init:0000000000000096 .L9
C:\Users\test\AppData\Local\Temp\ccdvqI39.s:303    .text.dma_circulation_enable:0000000000000020 .L22
C:\Users\test\AppData\Local\Temp\ccdvqI39.s:289    .text.dma_circulation_enable:000000000000000c .L20
C:\Users\test\AppData\Local\Temp\ccdvqI39.s:310    .text.dma_circulation_enable:0000000000000026 .L21
C:\Users\test\AppData\Local\Temp\ccdvqI39.s:355    .text.dma_circulation_disable:0000000000000020 .L26
C:\Users\test\AppData\Local\Temp\ccdvqI39.s:341    .text.dma_circulation_disable:000000000000000c .L24
C:\Users\test\AppData\Local\Temp\ccdvqI39.s:362    .text.dma_circulation_disable:0000000000000026 .L25
C:\Users\test\AppData\Local\Temp\ccdvqI39.s:408    .text.dma_memory_to_memory_enable:0000000000000020 .L30
C:\Users\test\AppData\Local\Temp\ccdvqI39.s:393    .text.dma_memory_to_memory_enable:000000000000000c .L28
C:\Users\test\AppData\Local\Temp\ccdvqI39.s:415    .text.dma_memory_to_memory_enable:0000000000000026 .L29
C:\Users\test\AppData\Local\Temp\ccdvqI39.s:462    .text.dma_memory_to_memory_disable:0000000000000022 .L34
C:\Users\test\AppData\Local\Temp\ccdvqI39.s:446    .text.dma_memory_to_memory_disable:000000000000000c .L32
C:\Users\test\AppData\Local\Temp\ccdvqI39.s:469    .text.dma_memory_to_memory_disable:0000000000000028 .L33
C:\Users\test\AppData\Local\Temp\ccdvqI39.s:514    .text.dma_channel_enable:0000000000000020 .L38
C:\Users\test\AppData\Local\Temp\ccdvqI39.s:500    .text.dma_channel_enable:000000000000000c .L36
C:\Users\test\AppData\Local\Temp\ccdvqI39.s:521    .text.dma_channel_enable:0000000000000026 .L37
GAS LISTING C:\Users\test\AppData\Local\Temp\ccdvqI39.s 			page 59


C:\Users\test\AppData\Local\Temp\ccdvqI39.s:566    .text.dma_channel_disable:000000000000001e .L42
C:\Users\test\AppData\Local\Temp\ccdvqI39.s:552    .text.dma_channel_disable:000000000000000c .L40
C:\Users\test\AppData\Local\Temp\ccdvqI39.s:573    .text.dma_channel_disable:0000000000000024 .L41
C:\Users\test\AppData\Local\Temp\ccdvqI39.s:616    .text.dma_periph_address_config:000000000000001a .L46
C:\Users\test\AppData\Local\Temp\ccdvqI39.s:604    .text.dma_periph_address_config:000000000000000c .L44
C:\Users\test\AppData\Local\Temp\ccdvqI39.s:623    .text.dma_periph_address_config:0000000000000020 .L45
C:\Users\test\AppData\Local\Temp\ccdvqI39.s:666    .text.dma_memory_address_config:000000000000001a .L50
C:\Users\test\AppData\Local\Temp\ccdvqI39.s:654    .text.dma_memory_address_config:000000000000000c .L48
C:\Users\test\AppData\Local\Temp\ccdvqI39.s:673    .text.dma_memory_address_config:0000000000000020 .L49
C:\Users\test\AppData\Local\Temp\ccdvqI39.s:723    .text.dma_transfer_number_config:000000000000001e .L54
C:\Users\test\AppData\Local\Temp\ccdvqI39.s:704    .text.dma_transfer_number_config:000000000000000c .L52
C:\Users\test\AppData\Local\Temp\ccdvqI39.s:730    .text.dma_transfer_number_config:0000000000000024 .L53
C:\Users\test\AppData\Local\Temp\ccdvqI39.s:776    .text.dma_transfer_number_get:000000000000001a .L58
C:\Users\test\AppData\Local\Temp\ccdvqI39.s:761    .text.dma_transfer_number_get:000000000000000c .L56
C:\Users\test\AppData\Local\Temp\ccdvqI39.s:783    .text.dma_transfer_number_get:0000000000000020 .L57
C:\Users\test\AppData\Local\Temp\ccdvqI39.s:843    .text.dma_priority_config:0000000000000024 .L62
C:\Users\test\AppData\Local\Temp\ccdvqI39.s:815    .text.dma_priority_config:000000000000000c .L60
C:\Users\test\AppData\Local\Temp\ccdvqI39.s:850    .text.dma_priority_config:000000000000002a .L61
C:\Users\test\AppData\Local\Temp\ccdvqI39.s:910    .text.dma_memory_width_config:0000000000000026 .L66
C:\Users\test\AppData\Local\Temp\ccdvqI39.s:882    .text.dma_memory_width_config:000000000000000c .L64
C:\Users\test\AppData\Local\Temp\ccdvqI39.s:917    .text.dma_memory_width_config:000000000000002c .L65
C:\Users\test\AppData\Local\Temp\ccdvqI39.s:975    .text.dma_periph_width_config:0000000000000022 .L70
C:\Users\test\AppData\Local\Temp\ccdvqI39.s:949    .text.dma_periph_width_config:000000000000000c .L68
C:\Users\test\AppData\Local\Temp\ccdvqI39.s:982    .text.dma_periph_width_config:0000000000000028 .L69
C:\Users\test\AppData\Local\Temp\ccdvqI39.s:1027   .text.dma_memory_increase_enable:0000000000000020 .L74
C:\Users\test\AppData\Local\Temp\ccdvqI39.s:1013   .text.dma_memory_increase_enable:000000000000000c .L72
C:\Users\test\AppData\Local\Temp\ccdvqI39.s:1034   .text.dma_memory_increase_enable:0000000000000026 .L73
C:\Users\test\AppData\Local\Temp\ccdvqI39.s:1079   .text.dma_memory_increase_disable:0000000000000020 .L78
C:\Users\test\AppData\Local\Temp\ccdvqI39.s:1065   .text.dma_memory_increase_disable:000000000000000c .L76
C:\Users\test\AppData\Local\Temp\ccdvqI39.s:1086   .text.dma_memory_increase_disable:0000000000000026 .L77
C:\Users\test\AppData\Local\Temp\ccdvqI39.s:1131   .text.dma_periph_increase_enable:0000000000000020 .L82
C:\Users\test\AppData\Local\Temp\ccdvqI39.s:1117   .text.dma_periph_increase_enable:000000000000000c .L80
C:\Users\test\AppData\Local\Temp\ccdvqI39.s:1138   .text.dma_periph_increase_enable:0000000000000026 .L81
C:\Users\test\AppData\Local\Temp\ccdvqI39.s:1183   .text.dma_periph_increase_disable:0000000000000020 .L86
C:\Users\test\AppData\Local\Temp\ccdvqI39.s:1169   .text.dma_periph_increase_disable:000000000000000c .L84
C:\Users\test\AppData\Local\Temp\ccdvqI39.s:1190   .text.dma_periph_increase_disable:0000000000000026 .L85
C:\Users\test\AppData\Local\Temp\ccdvqI39.s:1245   .text.dma_transfer_direction_config:0000000000000028 .L92
C:\Users\test\AppData\Local\Temp\ccdvqI39.s:1238   .text.dma_transfer_direction_config:0000000000000020 .L90
C:\Users\test\AppData\Local\Temp\ccdvqI39.s:1221   .text.dma_transfer_direction_config:000000000000000c .L88
C:\Users\test\AppData\Local\Temp\ccdvqI39.s:1252   .text.dma_transfer_direction_config:000000000000002e .L89
C:\Users\test\AppData\Local\Temp\ccdvqI39.s:1402   .text.dma_interrupt_flag_get:0000000000000052 .L96
C:\Users\test\AppData\Local\Temp\ccdvqI39.s:1375   .text.dma_interrupt_flag_get:0000000000000036 .L97
C:\Users\test\AppData\Local\Temp\ccdvqI39.s:1340   .text.dma_interrupt_flag_get:0000000000000014 .L105
C:\Users\test\AppData\Local\Temp\ccdvqI39.s:1334   .text.dma_interrupt_flag_get:0000000000000012 .L98
C:\Users\test\AppData\Local\Temp\ccdvqI39.s:1371   .text.dma_interrupt_flag_get:0000000000000034 .L95
C:\Users\test\AppData\Local\Temp\ccdvqI39.s:1364   .text.dma_interrupt_flag_get:000000000000002e .L99
C:\Users\test\AppData\Local\Temp\ccdvqI39.s:1475   .text.dma_interrupt_enable:000000000000001e .L110
C:\Users\test\AppData\Local\Temp\ccdvqI39.s:1461   .text.dma_interrupt_enable:000000000000000c .L108
C:\Users\test\AppData\Local\Temp\ccdvqI39.s:1482   .text.dma_interrupt_enable:0000000000000024 .L109
C:\Users\test\AppData\Local\Temp\ccdvqI39.s:1530   .text.dma_interrupt_disable:0000000000000022 .L114
C:\Users\test\AppData\Local\Temp\ccdvqI39.s:1513   .text.dma_interrupt_disable:000000000000000c .L112
C:\Users\test\AppData\Local\Temp\ccdvqI39.s:1537   .text.dma_interrupt_disable:0000000000000028 .L113
C:\Users\test\AppData\Local\Temp\ccdvqI39.s:3301   .debug_abbrev:0000000000000000 .Ldebug_abbrev0
C:\Users\test\AppData\Local\Temp\ccdvqI39.s:4577   .debug_str:000000000000028a .LASF72
C:\Users\test\AppData\Local\Temp\ccdvqI39.s:4501   .debug_str:0000000000000030 .LASF73
C:\Users\test\AppData\Local\Temp\ccdvqI39.s:4595   .debug_str:0000000000000393 .LASF74
C:\Users\test\AppData\Local\Temp\ccdvqI39.s:4305   .debug_ranges:0000000000000000 .Ldebug_ranges0
GAS LISTING C:\Users\test\AppData\Local\Temp\ccdvqI39.s 			page 60


C:\Users\test\AppData\Local\Temp\ccdvqI39.s:4493   .debug_line:0000000000000000 .Ldebug_line0
C:\Users\test\AppData\Local\Temp\ccdvqI39.s:4581   .debug_str:000000000000030d .LASF0
C:\Users\test\AppData\Local\Temp\ccdvqI39.s:4573   .debug_str:0000000000000267 .LASF1
C:\Users\test\AppData\Local\Temp\ccdvqI39.s:4651   .debug_str:0000000000000558 .LASF6
C:\Users\test\AppData\Local\Temp\ccdvqI39.s:4567   .debug_str:0000000000000227 .LASF2
C:\Users\test\AppData\Local\Temp\ccdvqI39.s:4517   .debug_str:00000000000000d0 .LASF3
C:\Users\test\AppData\Local\Temp\ccdvqI39.s:4585   .debug_str:0000000000000336 .LASF4
C:\Users\test\AppData\Local\Temp\ccdvqI39.s:4543   .debug_str:0000000000000191 .LASF5
C:\Users\test\AppData\Local\Temp\ccdvqI39.s:4603   .debug_str:0000000000000404 .LASF7
C:\Users\test\AppData\Local\Temp\ccdvqI39.s:4599   .debug_str:00000000000003db .LASF8
C:\Users\test\AppData\Local\Temp\ccdvqI39.s:4511   .debug_str:0000000000000096 .LASF9
C:\Users\test\AppData\Local\Temp\ccdvqI39.s:4575   .debug_str:0000000000000273 .LASF10
C:\Users\test\AppData\Local\Temp\ccdvqI39.s:4523   .debug_str:00000000000000fb .LASF11
C:\Users\test\AppData\Local\Temp\ccdvqI39.s:4579   .debug_str:0000000000000304 .LASF12
C:\Users\test\AppData\Local\Temp\ccdvqI39.s:4593   .debug_str:0000000000000383 .LASF75
C:\Users\test\AppData\Local\Temp\ccdvqI39.s:4613   .debug_str:0000000000000444 .LASF13
C:\Users\test\AppData\Local\Temp\ccdvqI39.s:4641   .debug_str:0000000000000511 .LASF14
C:\Users\test\AppData\Local\Temp\ccdvqI39.s:4557   .debug_str:00000000000001e7 .LASF15
C:\Users\test\AppData\Local\Temp\ccdvqI39.s:4541   .debug_str:0000000000000189 .LASF16
C:\Users\test\AppData\Local\Temp\ccdvqI39.s:4507   .debug_str:0000000000000082 .LASF17
C:\Users\test\AppData\Local\Temp\ccdvqI39.s:4633   .debug_str:00000000000004f1 .LASF18
C:\Users\test\AppData\Local\Temp\ccdvqI39.s:4635   .debug_str:00000000000004f9 .LASF19
C:\Users\test\AppData\Local\Temp\ccdvqI39.s:4637   .debug_str:0000000000000501 .LASF20
C:\Users\test\AppData\Local\Temp\ccdvqI39.s:4639   .debug_str:0000000000000509 .LASF21
C:\Users\test\AppData\Local\Temp\ccdvqI39.s:4529   .debug_str:0000000000000134 .LASF22
C:\Users\test\AppData\Local\Temp\ccdvqI39.s:4643   .debug_str:000000000000051c .LASF23
C:\Users\test\AppData\Local\Temp\ccdvqI39.s:4645   .debug_str:0000000000000524 .LASF24
C:\Users\test\AppData\Local\Temp\ccdvqI39.s:4515   .debug_str:00000000000000bf .LASF25
C:\Users\test\AppData\Local\Temp\ccdvqI39.s:4505   .debug_str:0000000000000076 .LASF26
C:\Users\test\AppData\Local\Temp\ccdvqI39.s:4561   .debug_str:00000000000001f8 .LASF27
C:\Users\test\AppData\Local\Temp\ccdvqI39.s:4605   .debug_str:000000000000040f .LASF28
C:\Users\test\AppData\Local\Temp\ccdvqI39.s:4563   .debug_str:0000000000000205 .LASF29
C:\Users\test\AppData\Local\Temp\ccdvqI39.s:4625   .debug_str:00000000000004b7 .LASF30
C:\Users\test\AppData\Local\Temp\ccdvqI39.s:4499   .debug_str:0000000000000027 .LASF31
C:\Users\test\AppData\Local\Temp\ccdvqI39.s:4559   .debug_str:00000000000001ed .LASF32
C:\Users\test\AppData\Local\Temp\ccdvqI39.s:4519   .debug_str:00000000000000da .LASF33
C:\Users\test\AppData\Local\Temp\ccdvqI39.s:4509   .debug_str:000000000000008c .LASF34
C:\Users\test\AppData\Local\Temp\ccdvqI39.s:4565   .debug_str:0000000000000212 .LASF35
C:\Users\test\AppData\Local\Temp\ccdvqI39.s:4527   .debug_str:0000000000000117 .LASF76
C:\Users\test\AppData\Local\Temp\ccdvqI39.s:4627   .debug_str:00000000000004be .LASF36
C:\Users\test\AppData\Local\Temp\ccdvqI39.s:4589   .debug_str:0000000000000362 .LASF37
C:\Users\test\AppData\Local\Temp\ccdvqI39.s:4521   .debug_str:00000000000000e5 .LASF39
C:\Users\test\AppData\Local\Temp\ccdvqI39.s:1498   .text.dma_interrupt_disable:0000000000000000 .LFB28
C:\Users\test\AppData\Local\Temp\ccdvqI39.s:1546   .text.dma_interrupt_disable:000000000000002a .LFE28
C:\Users\test\AppData\Local\Temp\ccdvqI39.s:4555   .debug_str:00000000000001e0 .LASF38
C:\Users\test\AppData\Local\Temp\ccdvqI39.s:1503   .text.dma_interrupt_disable:0000000000000000 .LBB130
C:\Users\test\AppData\Local\Temp\ccdvqI39.s:4629   .debug_str:00000000000004c9 .LASF40
C:\Users\test\AppData\Local\Temp\ccdvqI39.s:1446   .text.dma_interrupt_enable:0000000000000000 .LFB27
C:\Users\test\AppData\Local\Temp\ccdvqI39.s:1491   .text.dma_interrupt_enable:0000000000000026 .LFE27
C:\Users\test\AppData\Local\Temp\ccdvqI39.s:1451   .text.dma_interrupt_enable:0000000000000000 .LBB126
C:\Users\test\AppData\Local\Temp\ccdvqI39.s:4587   .debug_str:0000000000000349 .LASF77
C:\Users\test\AppData\Local\Temp\ccdvqI39.s:4623   .debug_str:00000000000004b2 .LASF41
C:\Users\test\AppData\Local\Temp\ccdvqI39.s:4537   .debug_str:000000000000016b .LASF45
C:\Users\test\AppData\Local\Temp\ccdvqI39.s:1322   .text.dma_interrupt_flag_get:0000000000000000 .LFB25
C:\Users\test\AppData\Local\Temp\ccdvqI39.s:1428   .text.dma_interrupt_flag_get:000000000000006e .LFE25
C:\Users\test\AppData\Local\Temp\ccdvqI39.s:3834   .debug_loc:0000000000000000 .LLST16
C:\Users\test\AppData\Local\Temp\ccdvqI39.s:3870   .debug_loc:0000000000000053 .LLST17
GAS LISTING C:\Users\test\AppData\Local\Temp\ccdvqI39.s 			page 61


C:\Users\test\AppData\Local\Temp\ccdvqI39.s:4549   .debug_str:00000000000001a8 .LASF42
C:\Users\test\AppData\Local\Temp\ccdvqI39.s:3899   .debug_loc:0000000000000098 .LLST18
C:\Users\test\AppData\Local\Temp\ccdvqI39.s:4647   .debug_str:000000000000052c .LASF43
C:\Users\test\AppData\Local\Temp\ccdvqI39.s:3929   .debug_loc:00000000000000e5 .LLST19
C:\Users\test\AppData\Local\Temp\ccdvqI39.s:4495   .debug_str:0000000000000000 .LASF44
C:\Users\test\AppData\Local\Temp\ccdvqI39.s:1297   .text.dma_flag_clear:0000000000000000 .LFB24
C:\Users\test\AppData\Local\Temp\ccdvqI39.s:1315   .text.dma_flag_clear:000000000000000e .LFE24
C:\Users\test\AppData\Local\Temp\ccdvqI39.s:3959   .debug_loc:0000000000000132 .LLST14
C:\Users\test\AppData\Local\Temp\ccdvqI39.s:3973   .debug_loc:0000000000000153 .LLST15
C:\Users\test\AppData\Local\Temp\ccdvqI39.s:4533   .debug_str:0000000000000157 .LASF46
C:\Users\test\AppData\Local\Temp\ccdvqI39.s:1268   .text.dma_flag_get:0000000000000000 .LFB23
C:\Users\test\AppData\Local\Temp\ccdvqI39.s:1290   .text.dma_flag_get:0000000000000010 .LFE23
C:\Users\test\AppData\Local\Temp\ccdvqI39.s:3987   .debug_loc:0000000000000174 .LLST11
C:\Users\test\AppData\Local\Temp\ccdvqI39.s:4001   .debug_loc:0000000000000195 .LLST12
C:\Users\test\AppData\Local\Temp\ccdvqI39.s:4545   .debug_str:000000000000019a .LASF47
C:\Users\test\AppData\Local\Temp\ccdvqI39.s:4015   .debug_loc:00000000000001b6 .LLST13
C:\Users\test\AppData\Local\Temp\ccdvqI39.s:4619   .debug_str:000000000000047a .LASF48
C:\Users\test\AppData\Local\Temp\ccdvqI39.s:1206   .text.dma_transfer_direction_config:0000000000000000 .LFB22
C:\Users\test\AppData\Local\Temp\ccdvqI39.s:1261   .text.dma_transfer_direction_config:0000000000000030 .LFE22
C:\Users\test\AppData\Local\Temp\ccdvqI39.s:1211   .text.dma_transfer_direction_config:0000000000000000 .LBB122
C:\Users\test\AppData\Local\Temp\ccdvqI39.s:4597   .debug_str:00000000000003bf .LASF49
C:\Users\test\AppData\Local\Temp\ccdvqI39.s:1154   .text.dma_periph_increase_disable:0000000000000000 .LFB21
C:\Users\test\AppData\Local\Temp\ccdvqI39.s:1199   .text.dma_periph_increase_disable:0000000000000028 .LFE21
C:\Users\test\AppData\Local\Temp\ccdvqI39.s:1159   .text.dma_periph_increase_disable:0000000000000000 .LBB118
C:\Users\test\AppData\Local\Temp\ccdvqI39.s:4531   .debug_str:000000000000013c .LASF50
C:\Users\test\AppData\Local\Temp\ccdvqI39.s:1102   .text.dma_periph_increase_enable:0000000000000000 .LFB20
C:\Users\test\AppData\Local\Temp\ccdvqI39.s:1147   .text.dma_periph_increase_enable:0000000000000028 .LFE20
C:\Users\test\AppData\Local\Temp\ccdvqI39.s:1107   .text.dma_periph_increase_enable:0000000000000000 .LBB114
C:\Users\test\AppData\Local\Temp\ccdvqI39.s:4553   .debug_str:00000000000001c4 .LASF51
C:\Users\test\AppData\Local\Temp\ccdvqI39.s:1050   .text.dma_memory_increase_disable:0000000000000000 .LFB19
C:\Users\test\AppData\Local\Temp\ccdvqI39.s:1095   .text.dma_memory_increase_disable:0000000000000028 .LFE19
C:\Users\test\AppData\Local\Temp\ccdvqI39.s:1055   .text.dma_memory_increase_disable:0000000000000000 .LBB110
C:\Users\test\AppData\Local\Temp\ccdvqI39.s:4513   .debug_str:00000000000000a4 .LASF52
C:\Users\test\AppData\Local\Temp\ccdvqI39.s:998    .text.dma_memory_increase_enable:0000000000000000 .LFB18
C:\Users\test\AppData\Local\Temp\ccdvqI39.s:1043   .text.dma_memory_increase_enable:0000000000000028 .LFE18
C:\Users\test\AppData\Local\Temp\ccdvqI39.s:1003   .text.dma_memory_increase_enable:0000000000000000 .LBB106
C:\Users\test\AppData\Local\Temp\ccdvqI39.s:4571   .debug_str:000000000000024f .LASF53
C:\Users\test\AppData\Local\Temp\ccdvqI39.s:933    .text.dma_periph_width_config:0000000000000000 .LFB17
C:\Users\test\AppData\Local\Temp\ccdvqI39.s:991    .text.dma_periph_width_config:000000000000002a .LFE17
C:\Users\test\AppData\Local\Temp\ccdvqI39.s:4535   .debug_str:0000000000000164 .LASF54
C:\Users\test\AppData\Local\Temp\ccdvqI39.s:4074   .debug_loc:000000000000020b .LLST10
C:\Users\test\AppData\Local\Temp\ccdvqI39.s:939    .text.dma_periph_width_config:0000000000000000 .LBB102
C:\Users\test\AppData\Local\Temp\ccdvqI39.s:4497   .debug_str:000000000000000f .LASF55
C:\Users\test\AppData\Local\Temp\ccdvqI39.s:866    .text.dma_memory_width_config:0000000000000000 .LFB16
C:\Users\test\AppData\Local\Temp\ccdvqI39.s:926    .text.dma_memory_width_config:000000000000002e .LFE16
C:\Users\test\AppData\Local\Temp\ccdvqI39.s:4539   .debug_str:0000000000000182 .LASF56
C:\Users\test\AppData\Local\Temp\ccdvqI39.s:4081   .debug_loc:000000000000021e .LLST9
C:\Users\test\AppData\Local\Temp\ccdvqI39.s:872    .text.dma_memory_width_config:0000000000000000 .LBB98
C:\Users\test\AppData\Local\Temp\ccdvqI39.s:4525   .debug_str:0000000000000103 .LASF57
C:\Users\test\AppData\Local\Temp\ccdvqI39.s:799    .text.dma_priority_config:0000000000000000 .LFB15
C:\Users\test\AppData\Local\Temp\ccdvqI39.s:859    .text.dma_priority_config:000000000000002c .LFE15
C:\Users\test\AppData\Local\Temp\ccdvqI39.s:4088   .debug_loc:0000000000000231 .LLST8
C:\Users\test\AppData\Local\Temp\ccdvqI39.s:805    .text.dma_priority_config:0000000000000000 .LBB94
C:\Users\test\AppData\Local\Temp\ccdvqI39.s:4591   .debug_str:000000000000036b .LASF58
C:\Users\test\AppData\Local\Temp\ccdvqI39.s:746    .text.dma_transfer_number_get:0000000000000000 .LFB14
C:\Users\test\AppData\Local\Temp\ccdvqI39.s:792    .text.dma_transfer_number_get:0000000000000022 .LFE14
C:\Users\test\AppData\Local\Temp\ccdvqI39.s:4095   .debug_loc:0000000000000244 .LLST6
GAS LISTING C:\Users\test\AppData\Local\Temp\ccdvqI39.s 			page 62


C:\Users\test\AppData\Local\Temp\ccdvqI39.s:751    .text.dma_transfer_number_get:0000000000000000 .LBB90
C:\Users\test\AppData\Local\Temp\ccdvqI39.s:4113   .debug_loc:0000000000000270 .LLST7
C:\Users\test\AppData\Local\Temp\ccdvqI39.s:4615   .debug_str:000000000000044a .LASF59
C:\Users\test\AppData\Local\Temp\ccdvqI39.s:689    .text.dma_transfer_number_config:0000000000000000 .LFB13
C:\Users\test\AppData\Local\Temp\ccdvqI39.s:739    .text.dma_transfer_number_config:0000000000000026 .LFE13
C:\Users\test\AppData\Local\Temp\ccdvqI39.s:4131   .debug_loc:000000000000029c .LLST5
C:\Users\test\AppData\Local\Temp\ccdvqI39.s:694    .text.dma_transfer_number_config:0000000000000000 .LBB86
C:\Users\test\AppData\Local\Temp\ccdvqI39.s:4621   .debug_str:0000000000000498 .LASF60
C:\Users\test\AppData\Local\Temp\ccdvqI39.s:639    .text.dma_memory_address_config:0000000000000000 .LFB12
C:\Users\test\AppData\Local\Temp\ccdvqI39.s:682    .text.dma_memory_address_config:0000000000000022 .LFE12
C:\Users\test\AppData\Local\Temp\ccdvqI39.s:4547   .debug_str:00000000000001a0 .LASF61
C:\Users\test\AppData\Local\Temp\ccdvqI39.s:644    .text.dma_memory_address_config:0000000000000000 .LBB82
C:\Users\test\AppData\Local\Temp\ccdvqI39.s:4569   .debug_str:0000000000000235 .LASF62
C:\Users\test\AppData\Local\Temp\ccdvqI39.s:589    .text.dma_periph_address_config:0000000000000000 .LFB11
C:\Users\test\AppData\Local\Temp\ccdvqI39.s:632    .text.dma_periph_address_config:0000000000000022 .LFE11
C:\Users\test\AppData\Local\Temp\ccdvqI39.s:594    .text.dma_periph_address_config:0000000000000000 .LBB78
C:\Users\test\AppData\Local\Temp\ccdvqI39.s:4609   .debug_str:0000000000000424 .LASF63
C:\Users\test\AppData\Local\Temp\ccdvqI39.s:537    .text.dma_channel_disable:0000000000000000 .LFB10
C:\Users\test\AppData\Local\Temp\ccdvqI39.s:582    .text.dma_channel_disable:0000000000000026 .LFE10
C:\Users\test\AppData\Local\Temp\ccdvqI39.s:542    .text.dma_channel_disable:0000000000000000 .LBB74
C:\Users\test\AppData\Local\Temp\ccdvqI39.s:4631   .debug_str:00000000000004de .LASF64
C:\Users\test\AppData\Local\Temp\ccdvqI39.s:485    .text.dma_channel_enable:0000000000000000 .LFB9
C:\Users\test\AppData\Local\Temp\ccdvqI39.s:530    .text.dma_channel_enable:0000000000000028 .LFE9
C:\Users\test\AppData\Local\Temp\ccdvqI39.s:490    .text.dma_channel_enable:0000000000000000 .LBB70
C:\Users\test\AppData\Local\Temp\ccdvqI39.s:4649   .debug_str:000000000000053b .LASF65
C:\Users\test\AppData\Local\Temp\ccdvqI39.s:431    .text.dma_memory_to_memory_disable:0000000000000000 .LFB8
C:\Users\test\AppData\Local\Temp\ccdvqI39.s:478    .text.dma_memory_to_memory_disable:000000000000002a .LFE8
C:\Users\test\AppData\Local\Temp\ccdvqI39.s:436    .text.dma_memory_to_memory_disable:0000000000000000 .LBB66
C:\Users\test\AppData\Local\Temp\ccdvqI39.s:4583   .debug_str:000000000000031a .LASF66
C:\Users\test\AppData\Local\Temp\ccdvqI39.s:378    .text.dma_memory_to_memory_enable:0000000000000000 .LFB7
C:\Users\test\AppData\Local\Temp\ccdvqI39.s:424    .text.dma_memory_to_memory_enable:0000000000000028 .LFE7
C:\Users\test\AppData\Local\Temp\ccdvqI39.s:383    .text.dma_memory_to_memory_enable:0000000000000000 .LBB62
C:\Users\test\AppData\Local\Temp\ccdvqI39.s:4503   .debug_str:000000000000005e .LASF67
C:\Users\test\AppData\Local\Temp\ccdvqI39.s:326    .text.dma_circulation_disable:0000000000000000 .LFB6
C:\Users\test\AppData\Local\Temp\ccdvqI39.s:371    .text.dma_circulation_disable:0000000000000028 .LFE6
C:\Users\test\AppData\Local\Temp\ccdvqI39.s:331    .text.dma_circulation_disable:0000000000000000 .LBB58
C:\Users\test\AppData\Local\Temp\ccdvqI39.s:4601   .debug_str:00000000000003ed .LASF68
C:\Users\test\AppData\Local\Temp\ccdvqI39.s:274    .text.dma_circulation_enable:0000000000000000 .LFB5
C:\Users\test\AppData\Local\Temp\ccdvqI39.s:319    .text.dma_circulation_enable:0000000000000028 .LFE5
C:\Users\test\AppData\Local\Temp\ccdvqI39.s:279    .text.dma_circulation_enable:0000000000000000 .LBB54
C:\Users\test\AppData\Local\Temp\ccdvqI39.s:4607   .debug_str:000000000000041b .LASF69
C:\Users\test\AppData\Local\Temp\ccdvqI39.s:124    .text.dma_init:0000000000000000 .LFB4
C:\Users\test\AppData\Local\Temp\ccdvqI39.s:267    .text.dma_init:0000000000000098 .LFE4
C:\Users\test\AppData\Local\Temp\ccdvqI39.s:4149   .debug_loc:00000000000002c8 .LLST0
C:\Users\test\AppData\Local\Temp\ccdvqI39.s:4167   .debug_loc:00000000000002f4 .LLST1
C:\Users\test\AppData\Local\Temp\ccdvqI39.s:4611   .debug_str:0000000000000438 .LASF70
C:\Users\test\AppData\Local\Temp\ccdvqI39.s:4185   .debug_loc:0000000000000320 .LLST2
C:\Users\test\AppData\Local\Temp\ccdvqI39.s:130    .text.dma_init:0000000000000000 .LBB50
C:\Users\test\AppData\Local\Temp\ccdvqI39.s:4206   .debug_loc:0000000000000356 .LLST3
C:\Users\test\AppData\Local\Temp\ccdvqI39.s:4224   .debug_loc:0000000000000382 .LLST4
C:\Users\test\AppData\Local\Temp\ccdvqI39.s:4617   .debug_str:0000000000000465 .LASF71
C:\Users\test\AppData\Local\Temp\ccdvqI39.s:85     .text.dma_struct_para_init:0000000000000000 .LFB3
C:\Users\test\AppData\Local\Temp\ccdvqI39.s:117    .text.dma_struct_para_init:0000000000000022 .LFE3
C:\Users\test\AppData\Local\Temp\ccdvqI39.s:4551   .debug_str:00000000000001b9 .LASF78
C:\Users\test\AppData\Local\Temp\ccdvqI39.s:11     .text.dma_deinit:0000000000000000 .LFB2
C:\Users\test\AppData\Local\Temp\ccdvqI39.s:78     .text.dma_deinit:0000000000000044 .LFE2
C:\Users\test\AppData\Local\Temp\ccdvqI39.s:17     .text.dma_deinit:0000000000000000 .LBB46
GAS LISTING C:\Users\test\AppData\Local\Temp\ccdvqI39.s 			page 63


C:\Users\test\AppData\Local\Temp\ccdvqI39.s:1325   .text.dma_interrupt_flag_get:0000000000000000 .LVL75
C:\Users\test\AppData\Local\Temp\ccdvqI39.s:1351   .text.dma_interrupt_flag_get:0000000000000024 .LVL76
C:\Users\test\AppData\Local\Temp\ccdvqI39.s:1374   .text.dma_interrupt_flag_get:0000000000000036 .LVL80
C:\Users\test\AppData\Local\Temp\ccdvqI39.s:1386   .text.dma_interrupt_flag_get:0000000000000046 .LVL81
C:\Users\test\AppData\Local\Temp\ccdvqI39.s:1401   .text.dma_interrupt_flag_get:0000000000000052 .LVL85
C:\Users\test\AppData\Local\Temp\ccdvqI39.s:1413   .text.dma_interrupt_flag_get:0000000000000062 .LVL86
C:\Users\test\AppData\Local\Temp\ccdvqI39.s:1362   .text.dma_interrupt_flag_get:000000000000002e .LVL78
C:\Users\test\AppData\Local\Temp\ccdvqI39.s:1391   .text.dma_interrupt_flag_get:000000000000004c .LVL82
C:\Users\test\AppData\Local\Temp\ccdvqI39.s:1398   .text.dma_interrupt_flag_get:0000000000000050 .LVL84
C:\Users\test\AppData\Local\Temp\ccdvqI39.s:1424   .text.dma_interrupt_flag_get:000000000000006c .LVL88
C:\Users\test\AppData\Local\Temp\ccdvqI39.s:1358   .text.dma_interrupt_flag_get:000000000000002c .LVL77
C:\Users\test\AppData\Local\Temp\ccdvqI39.s:1370   .text.dma_interrupt_flag_get:0000000000000034 .LVL79
C:\Users\test\AppData\Local\Temp\ccdvqI39.s:1394   .text.dma_interrupt_flag_get:000000000000004e .LVL83
C:\Users\test\AppData\Local\Temp\ccdvqI39.s:1420   .text.dma_interrupt_flag_get:000000000000006a .LVL87
C:\Users\test\AppData\Local\Temp\ccdvqI39.s:1300   .text.dma_flag_clear:0000000000000000 .LVL72
C:\Users\test\AppData\Local\Temp\ccdvqI39.s:1306   .text.dma_flag_clear:0000000000000004 .LVL73
C:\Users\test\AppData\Local\Temp\ccdvqI39.s:1308   .text.dma_flag_clear:0000000000000008 .LVL74
C:\Users\test\AppData\Local\Temp\ccdvqI39.s:1271   .text.dma_flag_get:0000000000000000 .LVL67
C:\Users\test\AppData\Local\Temp\ccdvqI39.s:1276   .text.dma_flag_get:0000000000000002 .LVL68
C:\Users\test\AppData\Local\Temp\ccdvqI39.s:1280   .text.dma_flag_get:0000000000000004 .LVL69
C:\Users\test\AppData\Local\Temp\ccdvqI39.s:1282   .text.dma_flag_get:0000000000000008 .LVL70
C:\Users\test\AppData\Local\Temp\ccdvqI39.s:1285   .text.dma_flag_get:000000000000000a .LVL71
C:\Users\test\AppData\Local\Temp\ccdvqI39.s:960    .text.dma_periph_width_config:0000000000000018 .LVL53
C:\Users\test\AppData\Local\Temp\ccdvqI39.s:974    .text.dma_periph_width_config:0000000000000022 .LVL56
C:\Users\test\AppData\Local\Temp\ccdvqI39.s:893    .text.dma_memory_width_config:0000000000000018 .LVL47
C:\Users\test\AppData\Local\Temp\ccdvqI39.s:909    .text.dma_memory_width_config:0000000000000026 .LVL50
C:\Users\test\AppData\Local\Temp\ccdvqI39.s:826    .text.dma_priority_config:0000000000000018 .LVL41
C:\Users\test\AppData\Local\Temp\ccdvqI39.s:842    .text.dma_priority_config:0000000000000024 .LVL44
C:\Users\test\AppData\Local\Temp\ccdvqI39.s:749    .text.dma_transfer_number_get:0000000000000000 .LVL35
C:\Users\test\AppData\Local\Temp\ccdvqI39.s:772    .text.dma_transfer_number_get:0000000000000018 .LVL37
C:\Users\test\AppData\Local\Temp\ccdvqI39.s:775    .text.dma_transfer_number_get:000000000000001a .LVL38
C:\Users\test\AppData\Local\Temp\ccdvqI39.s:692    .text.dma_transfer_number_config:0000000000000000 .LVL31
C:\Users\test\AppData\Local\Temp\ccdvqI39.s:713    .text.dma_transfer_number_config:0000000000000016 .LVL33
C:\Users\test\AppData\Local\Temp\ccdvqI39.s:722    .text.dma_transfer_number_config:000000000000001e .LVL34
C:\Users\test\AppData\Local\Temp\ccdvqI39.s:127    .text.dma_init:0000000000000000 .LVL3
C:\Users\test\AppData\Local\Temp\ccdvqI39.s:158    .text.dma_init:000000000000001e .LVL5
C:\Users\test\AppData\Local\Temp\ccdvqI39.s:250    .text.dma_init:0000000000000090 .LVL14
C:\Users\test\AppData\Local\Temp\ccdvqI39.s:169    .text.dma_init:0000000000000028 .LVL6
C:\Users\test\AppData\Local\Temp\ccdvqI39.s:173    .text.dma_init:000000000000002c .LVL7
C:\Users\test\AppData\Local\Temp\ccdvqI39.s:189    .text.dma_init:0000000000000040 .LVL9
C:\Users\test\AppData\Local\Temp\ccdvqI39.s:196    .text.dma_init:0000000000000046 .LVL10
C:\Users\test\AppData\Local\Temp\ccdvqI39.s:203    .text.dma_init:0000000000000052 .LVL11
C:\Users\test\AppData\Local\Temp\ccdvqI39.s:241    .text.dma_init:0000000000000086 .LVL12
C:\Users\test\AppData\Local\Temp\ccdvqI39.s:248    .text.dma_init:000000000000008e .LVL13
C:\Users\test\AppData\Local\Temp\ccdvqI39.s:135    .text.dma_init:0000000000000008 .LVL4
C:\Users\test\AppData\Local\Temp\ccdvqI39.s:1556   .debug_info:0000000000000000 .Ldebug_info0
C:\Users\test\AppData\Local\Temp\ccdvqI39.s:29     .text.dma_deinit:000000000000000c .LBE46
C:\Users\test\AppData\Local\Temp\ccdvqI39.s:63     .text.dma_deinit:000000000000003c .LBB49
C:\Users\test\AppData\Local\Temp\ccdvqI39.s:71     .text.dma_deinit:0000000000000042 .LBE49
C:\Users\test\AppData\Local\Temp\ccdvqI39.s:142    .text.dma_init:000000000000000c .LBE50
C:\Users\test\AppData\Local\Temp\ccdvqI39.s:252    .text.dma_init:0000000000000090 .LBB53
C:\Users\test\AppData\Local\Temp\ccdvqI39.s:260    .text.dma_init:0000000000000096 .LBE53
C:\Users\test\AppData\Local\Temp\ccdvqI39.s:291    .text.dma_circulation_enable:000000000000000c .LBE54
C:\Users\test\AppData\Local\Temp\ccdvqI39.s:304    .text.dma_circulation_enable:0000000000000020 .LBB57
C:\Users\test\AppData\Local\Temp\ccdvqI39.s:312    .text.dma_circulation_enable:0000000000000026 .LBE57
C:\Users\test\AppData\Local\Temp\ccdvqI39.s:343    .text.dma_circulation_disable:000000000000000c .LBE58
C:\Users\test\AppData\Local\Temp\ccdvqI39.s:356    .text.dma_circulation_disable:0000000000000020 .LBB61
GAS LISTING C:\Users\test\AppData\Local\Temp\ccdvqI39.s 			page 64


C:\Users\test\AppData\Local\Temp\ccdvqI39.s:364    .text.dma_circulation_disable:0000000000000026 .LBE61
C:\Users\test\AppData\Local\Temp\ccdvqI39.s:395    .text.dma_memory_to_memory_enable:000000000000000c .LBE62
C:\Users\test\AppData\Local\Temp\ccdvqI39.s:409    .text.dma_memory_to_memory_enable:0000000000000020 .LBB65
C:\Users\test\AppData\Local\Temp\ccdvqI39.s:417    .text.dma_memory_to_memory_enable:0000000000000026 .LBE65
C:\Users\test\AppData\Local\Temp\ccdvqI39.s:448    .text.dma_memory_to_memory_disable:000000000000000c .LBE66
C:\Users\test\AppData\Local\Temp\ccdvqI39.s:463    .text.dma_memory_to_memory_disable:0000000000000022 .LBB69
C:\Users\test\AppData\Local\Temp\ccdvqI39.s:471    .text.dma_memory_to_memory_disable:0000000000000028 .LBE69
C:\Users\test\AppData\Local\Temp\ccdvqI39.s:502    .text.dma_channel_enable:000000000000000c .LBE70
C:\Users\test\AppData\Local\Temp\ccdvqI39.s:515    .text.dma_channel_enable:0000000000000020 .LBB73
C:\Users\test\AppData\Local\Temp\ccdvqI39.s:523    .text.dma_channel_enable:0000000000000026 .LBE73
C:\Users\test\AppData\Local\Temp\ccdvqI39.s:554    .text.dma_channel_disable:000000000000000c .LBE74
C:\Users\test\AppData\Local\Temp\ccdvqI39.s:567    .text.dma_channel_disable:000000000000001e .LBB77
C:\Users\test\AppData\Local\Temp\ccdvqI39.s:575    .text.dma_channel_disable:0000000000000024 .LBE77
C:\Users\test\AppData\Local\Temp\ccdvqI39.s:606    .text.dma_periph_address_config:000000000000000c .LBE78
C:\Users\test\AppData\Local\Temp\ccdvqI39.s:617    .text.dma_periph_address_config:000000000000001a .LBB81
C:\Users\test\AppData\Local\Temp\ccdvqI39.s:625    .text.dma_periph_address_config:0000000000000020 .LBE81
C:\Users\test\AppData\Local\Temp\ccdvqI39.s:656    .text.dma_memory_address_config:000000000000000c .LBE82
C:\Users\test\AppData\Local\Temp\ccdvqI39.s:667    .text.dma_memory_address_config:000000000000001a .LBB85
C:\Users\test\AppData\Local\Temp\ccdvqI39.s:675    .text.dma_memory_address_config:0000000000000020 .LBE85
C:\Users\test\AppData\Local\Temp\ccdvqI39.s:706    .text.dma_transfer_number_config:000000000000000c .LBE86
C:\Users\test\AppData\Local\Temp\ccdvqI39.s:724    .text.dma_transfer_number_config:000000000000001e .LBB89
C:\Users\test\AppData\Local\Temp\ccdvqI39.s:732    .text.dma_transfer_number_config:0000000000000024 .LBE89
C:\Users\test\AppData\Local\Temp\ccdvqI39.s:763    .text.dma_transfer_number_get:000000000000000c .LBE90
C:\Users\test\AppData\Local\Temp\ccdvqI39.s:777    .text.dma_transfer_number_get:000000000000001a .LBB93
C:\Users\test\AppData\Local\Temp\ccdvqI39.s:785    .text.dma_transfer_number_get:0000000000000020 .LBE93
C:\Users\test\AppData\Local\Temp\ccdvqI39.s:817    .text.dma_priority_config:000000000000000c .LBE94
C:\Users\test\AppData\Local\Temp\ccdvqI39.s:844    .text.dma_priority_config:0000000000000024 .LBB97
C:\Users\test\AppData\Local\Temp\ccdvqI39.s:852    .text.dma_priority_config:000000000000002a .LBE97
C:\Users\test\AppData\Local\Temp\ccdvqI39.s:884    .text.dma_memory_width_config:000000000000000c .LBE98
C:\Users\test\AppData\Local\Temp\ccdvqI39.s:911    .text.dma_memory_width_config:0000000000000026 .LBB101
C:\Users\test\AppData\Local\Temp\ccdvqI39.s:919    .text.dma_memory_width_config:000000000000002c .LBE101
C:\Users\test\AppData\Local\Temp\ccdvqI39.s:951    .text.dma_periph_width_config:000000000000000c .LBE102
C:\Users\test\AppData\Local\Temp\ccdvqI39.s:976    .text.dma_periph_width_config:0000000000000022 .LBB105
C:\Users\test\AppData\Local\Temp\ccdvqI39.s:984    .text.dma_periph_width_config:0000000000000028 .LBE105
C:\Users\test\AppData\Local\Temp\ccdvqI39.s:1015   .text.dma_memory_increase_enable:000000000000000c .LBE106
C:\Users\test\AppData\Local\Temp\ccdvqI39.s:1028   .text.dma_memory_increase_enable:0000000000000020 .LBB109
C:\Users\test\AppData\Local\Temp\ccdvqI39.s:1036   .text.dma_memory_increase_enable:0000000000000026 .LBE109
C:\Users\test\AppData\Local\Temp\ccdvqI39.s:1067   .text.dma_memory_increase_disable:000000000000000c .LBE110
C:\Users\test\AppData\Local\Temp\ccdvqI39.s:1080   .text.dma_memory_increase_disable:0000000000000020 .LBB113
C:\Users\test\AppData\Local\Temp\ccdvqI39.s:1088   .text.dma_memory_increase_disable:0000000000000026 .LBE113
C:\Users\test\AppData\Local\Temp\ccdvqI39.s:1119   .text.dma_periph_increase_enable:000000000000000c .LBE114
C:\Users\test\AppData\Local\Temp\ccdvqI39.s:1132   .text.dma_periph_increase_enable:0000000000000020 .LBB117
C:\Users\test\AppData\Local\Temp\ccdvqI39.s:1140   .text.dma_periph_increase_enable:0000000000000026 .LBE117
C:\Users\test\AppData\Local\Temp\ccdvqI39.s:1171   .text.dma_periph_increase_disable:000000000000000c .LBE118
C:\Users\test\AppData\Local\Temp\ccdvqI39.s:1184   .text.dma_periph_increase_disable:0000000000000020 .LBB121
C:\Users\test\AppData\Local\Temp\ccdvqI39.s:1192   .text.dma_periph_increase_disable:0000000000000026 .LBE121
C:\Users\test\AppData\Local\Temp\ccdvqI39.s:1223   .text.dma_transfer_direction_config:000000000000000c .LBE122
C:\Users\test\AppData\Local\Temp\ccdvqI39.s:1246   .text.dma_transfer_direction_config:0000000000000028 .LBB125
C:\Users\test\AppData\Local\Temp\ccdvqI39.s:1254   .text.dma_transfer_direction_config:000000000000002e .LBE125
C:\Users\test\AppData\Local\Temp\ccdvqI39.s:1463   .text.dma_interrupt_enable:000000000000000c .LBE126
C:\Users\test\AppData\Local\Temp\ccdvqI39.s:1476   .text.dma_interrupt_enable:000000000000001e .LBB129
C:\Users\test\AppData\Local\Temp\ccdvqI39.s:1484   .text.dma_interrupt_enable:0000000000000024 .LBE129
C:\Users\test\AppData\Local\Temp\ccdvqI39.s:1515   .text.dma_interrupt_disable:000000000000000c .LBE130
C:\Users\test\AppData\Local\Temp\ccdvqI39.s:1531   .text.dma_interrupt_disable:0000000000000022 .LBB133
C:\Users\test\AppData\Local\Temp\ccdvqI39.s:1539   .text.dma_interrupt_disable:0000000000000028 .LBE133

NO UNDEFINED SYMBOLS
GAS LISTING C:\Users\test\AppData\Local\Temp\ccdvqI39.s 			page 65


