GAS LISTING C:\Users\test\AppData\Local\Temp\ccjHsQYj.s 			page 1


   1              		.file	"gd32vf103_usart.c"
   2              		.option nopic
   3              		.text
   4              	.Ltext0:
   5              		.cfi_sections	.debug_frame
   6              		.section	.text.usart_deinit,"ax",@progbits
   7              		.align	1
   8              		.globl	usart_deinit
  10              	usart_deinit:
  11              	.LFB2:
  12              		.file 1 "arch/riscv/mach-gd32vf10x/bsp/gd32vf103_usart.c"
   1:arch/riscv/mach-gd32vf10x/bsp/gd32vf103_usart.c **** /*!
   2:arch/riscv/mach-gd32vf10x/bsp/gd32vf103_usart.c ****     \file    gd32vf103_usart.c
   3:arch/riscv/mach-gd32vf10x/bsp/gd32vf103_usart.c ****     \brief   USART driver
   4:arch/riscv/mach-gd32vf10x/bsp/gd32vf103_usart.c **** 
   5:arch/riscv/mach-gd32vf10x/bsp/gd32vf103_usart.c ****     \version 2019-6-5, V1.0.0, firmware for GD32VF103
   6:arch/riscv/mach-gd32vf10x/bsp/gd32vf103_usart.c **** */
   7:arch/riscv/mach-gd32vf10x/bsp/gd32vf103_usart.c **** 
   8:arch/riscv/mach-gd32vf10x/bsp/gd32vf103_usart.c **** /*
   9:arch/riscv/mach-gd32vf10x/bsp/gd32vf103_usart.c ****     Copyright (c) 2019, GigaDevice Semiconductor Inc.
  10:arch/riscv/mach-gd32vf10x/bsp/gd32vf103_usart.c **** 
  11:arch/riscv/mach-gd32vf10x/bsp/gd32vf103_usart.c ****     Redistribution and use in source and binary forms, with or without modification,
  12:arch/riscv/mach-gd32vf10x/bsp/gd32vf103_usart.c **** are permitted provided that the following conditions are met:
  13:arch/riscv/mach-gd32vf10x/bsp/gd32vf103_usart.c **** 
  14:arch/riscv/mach-gd32vf10x/bsp/gd32vf103_usart.c ****     1. Redistributions of source code must retain the above copyright notice, this
  15:arch/riscv/mach-gd32vf10x/bsp/gd32vf103_usart.c ****        list of conditions and the following disclaimer.
  16:arch/riscv/mach-gd32vf10x/bsp/gd32vf103_usart.c ****     2. Redistributions in binary form must reproduce the above copyright notice,
  17:arch/riscv/mach-gd32vf10x/bsp/gd32vf103_usart.c ****        this list of conditions and the following disclaimer in the documentation
  18:arch/riscv/mach-gd32vf10x/bsp/gd32vf103_usart.c ****        and/or other materials provided with the distribution.
  19:arch/riscv/mach-gd32vf10x/bsp/gd32vf103_usart.c ****     3. Neither the name of the copyright holder nor the names of its contributors
  20:arch/riscv/mach-gd32vf10x/bsp/gd32vf103_usart.c ****        may be used to endorse or promote products derived from this software without
  21:arch/riscv/mach-gd32vf10x/bsp/gd32vf103_usart.c ****        specific prior written permission.
  22:arch/riscv/mach-gd32vf10x/bsp/gd32vf103_usart.c **** 
  23:arch/riscv/mach-gd32vf10x/bsp/gd32vf103_usart.c ****     THIS SOFTWARE IS PROVIDED BY THE COPYRIGHT HOLDERS AND CONTRIBUTORS "AS IS"
  24:arch/riscv/mach-gd32vf10x/bsp/gd32vf103_usart.c **** AND ANY EXPRESS OR IMPLIED WARRANTIES, INCLUDING, BUT NOT LIMITED TO, THE IMPLIED
  25:arch/riscv/mach-gd32vf10x/bsp/gd32vf103_usart.c **** WARRANTIES OF MERCHANTABILITY AND FITNESS FOR A PARTICULAR PURPOSE ARE DISCLAIMED.
  26:arch/riscv/mach-gd32vf10x/bsp/gd32vf103_usart.c **** IN NO EVENT SHALL THE COPYRIGHT HOLDER OR CONTRIBUTORS BE LIABLE FOR ANY DIRECT,
  27:arch/riscv/mach-gd32vf10x/bsp/gd32vf103_usart.c **** INDIRECT, INCIDENTAL, SPECIAL, EXEMPLARY, OR CONSEQUENTIAL DAMAGES (INCLUDING, BUT
  28:arch/riscv/mach-gd32vf10x/bsp/gd32vf103_usart.c **** NOT LIMITED TO, PROCUREMENT OF SUBSTITUTE GOODS OR SERVICES; LOSS OF USE, DATA, OR
  29:arch/riscv/mach-gd32vf10x/bsp/gd32vf103_usart.c **** PROFITS; OR BUSINESS INTERRUPTION) HOWEVER CAUSED AND ON ANY THEORY OF LIABILITY,
  30:arch/riscv/mach-gd32vf10x/bsp/gd32vf103_usart.c **** WHETHER IN CONTRACT, STRICT LIABILITY, OR TORT (INCLUDING NEGLIGENCE OR OTHERWISE)
  31:arch/riscv/mach-gd32vf10x/bsp/gd32vf103_usart.c **** ARISING IN ANY WAY OUT OF THE USE OF THIS SOFTWARE, EVEN IF ADVISED OF THE POSSIBILITY
  32:arch/riscv/mach-gd32vf10x/bsp/gd32vf103_usart.c **** OF SUCH DAMAGE.
  33:arch/riscv/mach-gd32vf10x/bsp/gd32vf103_usart.c **** */
  34:arch/riscv/mach-gd32vf10x/bsp/gd32vf103_usart.c **** 
  35:arch/riscv/mach-gd32vf10x/bsp/gd32vf103_usart.c **** #include "gd32vf103_usart.h"
  36:arch/riscv/mach-gd32vf10x/bsp/gd32vf103_usart.c **** 
  37:arch/riscv/mach-gd32vf10x/bsp/gd32vf103_usart.c **** /*!
  38:arch/riscv/mach-gd32vf10x/bsp/gd32vf103_usart.c ****     \brief      reset USART/UART 
  39:arch/riscv/mach-gd32vf10x/bsp/gd32vf103_usart.c ****     \param[in]  usart_periph: USARTx(x=0,1,2)/UARTx(x=3,4)
  40:arch/riscv/mach-gd32vf10x/bsp/gd32vf103_usart.c ****     \param[out] none
  41:arch/riscv/mach-gd32vf10x/bsp/gd32vf103_usart.c ****     \retval     none
  42:arch/riscv/mach-gd32vf10x/bsp/gd32vf103_usart.c **** */
  43:arch/riscv/mach-gd32vf10x/bsp/gd32vf103_usart.c **** void usart_deinit(uint32_t usart_periph)
  44:arch/riscv/mach-gd32vf10x/bsp/gd32vf103_usart.c **** {
  13              		.loc 1 44 1
  14              		.cfi_startproc
GAS LISTING C:\Users\test\AppData\Local\Temp\ccjHsQYj.s 			page 2


  15              	.LVL0:
  45:arch/riscv/mach-gd32vf10x/bsp/gd32vf103_usart.c ****     switch(usart_periph){
  16              		.loc 1 45 5
  44:arch/riscv/mach-gd32vf10x/bsp/gd32vf103_usart.c ****     switch(usart_periph){
  17              		.loc 1 44 1 is_stmt 0
  18 0000 4111     		addi	sp,sp,-16
  19              	.LCFI0:
  20              		.cfi_def_cfa_offset 16
  21              		.loc 1 45 5
  22 0002 B7570040 		li	a5,1073762304
  44:arch/riscv/mach-gd32vf10x/bsp/gd32vf103_usart.c ****     switch(usart_periph){
  23              		.loc 1 44 1
  24 0006 06C6     		sw	ra,12(sp)
  25              		.cfi_offset 1, -4
  26              		.loc 1 45 5
  27 0008 138707C0 		addi	a4,a5,-1024
  28 000c 6302E506 		beq	a0,a4,.L2
  29 0010 6378A702 		bleu	a0,a4,.L10
  30 0014 630CF506 		beq	a0,a5,.L7
  31 0018 B7470140 		li	a5,1073823744
  32 001c 93870780 		addi	a5,a5,-2048
  33 0020 6314F508 		bne	a0,a5,.L1
  46:arch/riscv/mach-gd32vf10x/bsp/gd32vf103_usart.c ****     case USART0:
  47:arch/riscv/mach-gd32vf10x/bsp/gd32vf103_usart.c ****         /* reset USART0 */
  48:arch/riscv/mach-gd32vf10x/bsp/gd32vf103_usart.c ****         rcu_periph_reset_enable(RCU_USART0RST);
  34              		.loc 1 48 9 is_stmt 1
  35 0024 1305E030 		li	a0,782
  36              	.LVL1:
  37 0028 97000000 		call	rcu_periph_reset_enable
  37      E7800000 
  38              	.LVL2:
  49:arch/riscv/mach-gd32vf10x/bsp/gd32vf103_usart.c ****         rcu_periph_reset_disable(RCU_USART0RST);
  39              		.loc 1 49 9
  50:arch/riscv/mach-gd32vf10x/bsp/gd32vf103_usart.c ****         break;
  51:arch/riscv/mach-gd32vf10x/bsp/gd32vf103_usart.c ****     case USART1:
  52:arch/riscv/mach-gd32vf10x/bsp/gd32vf103_usart.c ****         /* reset USART1 */
  53:arch/riscv/mach-gd32vf10x/bsp/gd32vf103_usart.c ****         rcu_periph_reset_enable(RCU_USART1RST);
  54:arch/riscv/mach-gd32vf10x/bsp/gd32vf103_usart.c ****         rcu_periph_reset_disable(RCU_USART1RST);
  55:arch/riscv/mach-gd32vf10x/bsp/gd32vf103_usart.c ****         break;
  56:arch/riscv/mach-gd32vf10x/bsp/gd32vf103_usart.c ****     case USART2:
  57:arch/riscv/mach-gd32vf10x/bsp/gd32vf103_usart.c ****         /* reset USART2 */
  58:arch/riscv/mach-gd32vf10x/bsp/gd32vf103_usart.c ****         rcu_periph_reset_enable(RCU_USART2RST);
  59:arch/riscv/mach-gd32vf10x/bsp/gd32vf103_usart.c ****         rcu_periph_reset_disable(RCU_USART2RST);
  60:arch/riscv/mach-gd32vf10x/bsp/gd32vf103_usart.c ****         break;
  61:arch/riscv/mach-gd32vf10x/bsp/gd32vf103_usart.c ****     case UART3:
  62:arch/riscv/mach-gd32vf10x/bsp/gd32vf103_usart.c ****         /* reset UART3 */
  63:arch/riscv/mach-gd32vf10x/bsp/gd32vf103_usart.c ****         rcu_periph_reset_enable(RCU_UART3RST);
  64:arch/riscv/mach-gd32vf10x/bsp/gd32vf103_usart.c ****         rcu_periph_reset_disable(RCU_UART3RST);
  65:arch/riscv/mach-gd32vf10x/bsp/gd32vf103_usart.c ****         break;
  66:arch/riscv/mach-gd32vf10x/bsp/gd32vf103_usart.c ****     case UART4:
  67:arch/riscv/mach-gd32vf10x/bsp/gd32vf103_usart.c ****         /* reset UART4 */
  68:arch/riscv/mach-gd32vf10x/bsp/gd32vf103_usart.c ****         rcu_periph_reset_enable(RCU_UART4RST);
  69:arch/riscv/mach-gd32vf10x/bsp/gd32vf103_usart.c ****         rcu_periph_reset_disable(RCU_UART4RST);
  70:arch/riscv/mach-gd32vf10x/bsp/gd32vf103_usart.c ****         break;
  71:arch/riscv/mach-gd32vf10x/bsp/gd32vf103_usart.c ****     default:
  72:arch/riscv/mach-gd32vf10x/bsp/gd32vf103_usart.c ****         break;
  73:arch/riscv/mach-gd32vf10x/bsp/gd32vf103_usart.c ****     }
GAS LISTING C:\Users\test\AppData\Local\Temp\ccjHsQYj.s 			page 3


  74:arch/riscv/mach-gd32vf10x/bsp/gd32vf103_usart.c **** }
  40              		.loc 1 74 1 is_stmt 0
  41 0030 B240     		lw	ra,12(sp)
  42              		.cfi_remember_state
  43              		.cfi_restore 1
  49:arch/riscv/mach-gd32vf10x/bsp/gd32vf103_usart.c ****         rcu_periph_reset_disable(RCU_USART0RST);
  44              		.loc 1 49 9
  45 0032 1305E030 		li	a0,782
  46              		.loc 1 74 1
  47 0036 4101     		addi	sp,sp,16
  48              	.LCFI1:
  49              		.cfi_def_cfa_offset 0
  49:arch/riscv/mach-gd32vf10x/bsp/gd32vf103_usart.c ****         rcu_periph_reset_disable(RCU_USART0RST);
  50              		.loc 1 49 9
  51 0038 17030000 		tail	rcu_periph_reset_disable
  51      67000300 
  52              	.LVL3:
  53              	.L10:
  54              	.LCFI2:
  55              		.cfi_restore_state
  45:arch/riscv/mach-gd32vf10x/bsp/gd32vf103_usart.c ****     case USART0:
  56              		.loc 1 45 5
  57 0040 37470040 		li	a4,1073758208
  58 0044 13070740 		addi	a4,a4,1024
  59 0048 6303E506 		beq	a0,a4,.L4
  60 004c 93870780 		addi	a5,a5,-2048
  61 0050 631CF504 		bne	a0,a5,.L1
  58:arch/riscv/mach-gd32vf10x/bsp/gd32vf103_usart.c ****         rcu_periph_reset_disable(RCU_USART2RST);
  62              		.loc 1 58 9 is_stmt 1
  63 0054 13052041 		li	a0,1042
  64              	.LVL4:
  65 0058 97000000 		call	rcu_periph_reset_enable
  65      E7800000 
  66              	.LVL5:
  59:arch/riscv/mach-gd32vf10x/bsp/gd32vf103_usart.c ****         break;
  67              		.loc 1 59 9
  68              		.loc 1 74 1 is_stmt 0
  69 0060 B240     		lw	ra,12(sp)
  70              		.cfi_remember_state
  71              		.cfi_restore 1
  59:arch/riscv/mach-gd32vf10x/bsp/gd32vf103_usart.c ****         break;
  72              		.loc 1 59 9
  73 0062 13052041 		li	a0,1042
  74              		.loc 1 74 1
  75 0066 4101     		addi	sp,sp,16
  76              	.LCFI3:
  77              		.cfi_def_cfa_offset 0
  59:arch/riscv/mach-gd32vf10x/bsp/gd32vf103_usart.c ****         break;
  78              		.loc 1 59 9
  79 0068 17030000 		tail	rcu_periph_reset_disable
  79      67000300 
  80              	.LVL6:
  81              	.L2:
  82              	.LCFI4:
  83              		.cfi_restore_state
  63:arch/riscv/mach-gd32vf10x/bsp/gd32vf103_usart.c ****         rcu_periph_reset_disable(RCU_UART3RST);
  84              		.loc 1 63 9 is_stmt 1
GAS LISTING C:\Users\test\AppData\Local\Temp\ccjHsQYj.s 			page 4


  85 0070 13053041 		li	a0,1043
  86              	.LVL7:
  87 0074 97000000 		call	rcu_periph_reset_enable
  87      E7800000 
  88              	.LVL8:
  64:arch/riscv/mach-gd32vf10x/bsp/gd32vf103_usart.c ****         break;
  89              		.loc 1 64 9
  90              		.loc 1 74 1 is_stmt 0
  91 007c B240     		lw	ra,12(sp)
  92              		.cfi_remember_state
  93              		.cfi_restore 1
  64:arch/riscv/mach-gd32vf10x/bsp/gd32vf103_usart.c ****         break;
  94              		.loc 1 64 9
  95 007e 13053041 		li	a0,1043
  96              		.loc 1 74 1
  97 0082 4101     		addi	sp,sp,16
  98              	.LCFI5:
  99              		.cfi_def_cfa_offset 0
  64:arch/riscv/mach-gd32vf10x/bsp/gd32vf103_usart.c ****         break;
 100              		.loc 1 64 9
 101 0084 17030000 		tail	rcu_periph_reset_disable
 101      67000300 
 102              	.LVL9:
 103              	.L7:
 104              	.LCFI6:
 105              		.cfi_restore_state
  68:arch/riscv/mach-gd32vf10x/bsp/gd32vf103_usart.c ****         rcu_periph_reset_disable(RCU_UART4RST);
 106              		.loc 1 68 9 is_stmt 1
 107 008c 13054041 		li	a0,1044
 108              	.LVL10:
 109 0090 97000000 		call	rcu_periph_reset_enable
 109      E7800000 
 110              	.LVL11:
  69:arch/riscv/mach-gd32vf10x/bsp/gd32vf103_usart.c ****         break;
 111              		.loc 1 69 9
 112              		.loc 1 74 1 is_stmt 0
 113 0098 B240     		lw	ra,12(sp)
 114              		.cfi_remember_state
 115              		.cfi_restore 1
  69:arch/riscv/mach-gd32vf10x/bsp/gd32vf103_usart.c ****         break;
 116              		.loc 1 69 9
 117 009a 13054041 		li	a0,1044
 118              		.loc 1 74 1
 119 009e 4101     		addi	sp,sp,16
 120              	.LCFI7:
 121              		.cfi_def_cfa_offset 0
  69:arch/riscv/mach-gd32vf10x/bsp/gd32vf103_usart.c ****         break;
 122              		.loc 1 69 9
 123 00a0 17030000 		tail	rcu_periph_reset_disable
 123      67000300 
 124              	.LVL12:
 125              	.L1:
 126              	.LCFI8:
 127              		.cfi_restore_state
 128              		.loc 1 74 1
 129 00a8 B240     		lw	ra,12(sp)
 130              		.cfi_remember_state
GAS LISTING C:\Users\test\AppData\Local\Temp\ccjHsQYj.s 			page 5


 131              		.cfi_restore 1
 132 00aa 4101     		addi	sp,sp,16
 133              	.LCFI9:
 134              		.cfi_def_cfa_offset 0
 135 00ac 8280     		jr	ra
 136              	.L4:
 137              	.LCFI10:
 138              		.cfi_restore_state
  53:arch/riscv/mach-gd32vf10x/bsp/gd32vf103_usart.c ****         rcu_periph_reset_disable(RCU_USART1RST);
 139              		.loc 1 53 9 is_stmt 1
 140 00ae 13051041 		li	a0,1041
 141              	.LVL13:
 142 00b2 97000000 		call	rcu_periph_reset_enable
 142      E7800000 
 143              	.LVL14:
  54:arch/riscv/mach-gd32vf10x/bsp/gd32vf103_usart.c ****         break;
 144              		.loc 1 54 9
 145              		.loc 1 74 1 is_stmt 0
 146 00ba B240     		lw	ra,12(sp)
 147              		.cfi_restore 1
  54:arch/riscv/mach-gd32vf10x/bsp/gd32vf103_usart.c ****         break;
 148              		.loc 1 54 9
 149 00bc 13051041 		li	a0,1041
 150              		.loc 1 74 1
 151 00c0 4101     		addi	sp,sp,16
 152              	.LCFI11:
 153              		.cfi_def_cfa_offset 0
  54:arch/riscv/mach-gd32vf10x/bsp/gd32vf103_usart.c ****         break;
 154              		.loc 1 54 9
 155 00c2 17030000 		tail	rcu_periph_reset_disable
 155      67000300 
 156              	.LVL15:
 157              		.cfi_endproc
 158              	.LFE2:
 160              		.section	.text.usart_baudrate_set,"ax",@progbits
 161              		.align	1
 162              		.globl	usart_baudrate_set
 164              	usart_baudrate_set:
 165              	.LFB3:
  75:arch/riscv/mach-gd32vf10x/bsp/gd32vf103_usart.c **** 
  76:arch/riscv/mach-gd32vf10x/bsp/gd32vf103_usart.c **** /*!
  77:arch/riscv/mach-gd32vf10x/bsp/gd32vf103_usart.c ****     \brief      configure USART baud rate value
  78:arch/riscv/mach-gd32vf10x/bsp/gd32vf103_usart.c ****     \param[in]  usart_periph: USARTx(x=0,1,2)/UARTx(x=3,4)
  79:arch/riscv/mach-gd32vf10x/bsp/gd32vf103_usart.c ****     \param[in]  baudval: baud rate value
  80:arch/riscv/mach-gd32vf10x/bsp/gd32vf103_usart.c ****     \param[out] none
  81:arch/riscv/mach-gd32vf10x/bsp/gd32vf103_usart.c ****     \retval     none
  82:arch/riscv/mach-gd32vf10x/bsp/gd32vf103_usart.c **** */ 
  83:arch/riscv/mach-gd32vf10x/bsp/gd32vf103_usart.c **** void usart_baudrate_set(uint32_t usart_periph, uint32_t baudval)
  84:arch/riscv/mach-gd32vf10x/bsp/gd32vf103_usart.c **** {
 166              		.loc 1 84 1 is_stmt 1
 167              		.cfi_startproc
 168              	.LVL16:
  85:arch/riscv/mach-gd32vf10x/bsp/gd32vf103_usart.c ****     uint32_t uclk=0U, intdiv=0U, fradiv=0U, udiv=0U;
 169              		.loc 1 85 5
  86:arch/riscv/mach-gd32vf10x/bsp/gd32vf103_usart.c ****     switch(usart_periph){
 170              		.loc 1 86 5
  84:arch/riscv/mach-gd32vf10x/bsp/gd32vf103_usart.c ****     uint32_t uclk=0U, intdiv=0U, fradiv=0U, udiv=0U;
GAS LISTING C:\Users\test\AppData\Local\Temp\ccjHsQYj.s 			page 6


 171              		.loc 1 84 1 is_stmt 0
 172 0000 4111     		addi	sp,sp,-16
 173              	.LCFI12:
 174              		.cfi_def_cfa_offset 16
 175              		.loc 1 86 5
 176 0002 37570040 		li	a4,1073762304
  84:arch/riscv/mach-gd32vf10x/bsp/gd32vf103_usart.c ****     uint32_t uclk=0U, intdiv=0U, fradiv=0U, udiv=0U;
 177              		.loc 1 84 1
 178 0006 22C4     		sw	s0,8(sp)
 179 0008 26C2     		sw	s1,4(sp)
 180 000a 06C6     		sw	ra,12(sp)
 181              		.cfi_offset 8, -8
 182              		.cfi_offset 9, -12
 183              		.cfi_offset 1, -4
 184              		.loc 1 86 5
 185 000c 930707C0 		addi	a5,a4,-1024
  84:arch/riscv/mach-gd32vf10x/bsp/gd32vf103_usart.c ****     uint32_t uclk=0U, intdiv=0U, fradiv=0U, udiv=0U;
 186              		.loc 1 84 1
 187 0010 2A84     		mv	s0,a0
 188 0012 AE84     		mv	s1,a1
 189              		.loc 1 86 5
 190 0014 630AF504 		beq	a0,a5,.L12
 191 0018 63FDA702 		bleu	a0,a5,.L17
 192 001c 6306E504 		beq	a0,a4,.L12
 193 0020 37470140 		li	a4,1073823744
 194 0024 13070780 		addi	a4,a4,-2048
  85:arch/riscv/mach-gd32vf10x/bsp/gd32vf103_usart.c ****     uint32_t uclk=0U, intdiv=0U, fradiv=0U, udiv=0U;
 195              		.loc 1 85 14
 196 0028 0145     		li	a0,0
 197              	.LVL17:
 198              		.loc 1 86 5
 199 002a 6317E400 		bne	s0,a4,.L14
  87:arch/riscv/mach-gd32vf10x/bsp/gd32vf103_usart.c ****          /* get clock frequency */
  88:arch/riscv/mach-gd32vf10x/bsp/gd32vf103_usart.c ****     case USART0:
  89:arch/riscv/mach-gd32vf10x/bsp/gd32vf103_usart.c ****          /* get USART0 clock */
  90:arch/riscv/mach-gd32vf10x/bsp/gd32vf103_usart.c ****          uclk=rcu_clock_freq_get(CK_APB2);
 200              		.loc 1 90 10 is_stmt 1
 201              		.loc 1 90 15 is_stmt 0
 202 002e 0D45     		li	a0,3
 203 0030 97000000 		call	rcu_clock_freq_get
 203      E7800000 
 204              	.LVL18:
  91:arch/riscv/mach-gd32vf10x/bsp/gd32vf103_usart.c ****          break;
 205              		.loc 1 91 10 is_stmt 1
 206              	.L14:
  92:arch/riscv/mach-gd32vf10x/bsp/gd32vf103_usart.c ****     case USART1:
  93:arch/riscv/mach-gd32vf10x/bsp/gd32vf103_usart.c ****          /* get USART1 clock */
  94:arch/riscv/mach-gd32vf10x/bsp/gd32vf103_usart.c ****          uclk=rcu_clock_freq_get(CK_APB1);
  95:arch/riscv/mach-gd32vf10x/bsp/gd32vf103_usart.c ****          break;
  96:arch/riscv/mach-gd32vf10x/bsp/gd32vf103_usart.c ****     case USART2:
  97:arch/riscv/mach-gd32vf10x/bsp/gd32vf103_usart.c ****          /* get USART2 clock */
  98:arch/riscv/mach-gd32vf10x/bsp/gd32vf103_usart.c ****          uclk=rcu_clock_freq_get(CK_APB1);
  99:arch/riscv/mach-gd32vf10x/bsp/gd32vf103_usart.c ****          break;
 100:arch/riscv/mach-gd32vf10x/bsp/gd32vf103_usart.c ****     case UART3:
 101:arch/riscv/mach-gd32vf10x/bsp/gd32vf103_usart.c ****          /* get UART3 clock */
 102:arch/riscv/mach-gd32vf10x/bsp/gd32vf103_usart.c ****          uclk=rcu_clock_freq_get(CK_APB1);
 103:arch/riscv/mach-gd32vf10x/bsp/gd32vf103_usart.c ****          break;
GAS LISTING C:\Users\test\AppData\Local\Temp\ccjHsQYj.s 			page 7


 104:arch/riscv/mach-gd32vf10x/bsp/gd32vf103_usart.c ****     case UART4:
 105:arch/riscv/mach-gd32vf10x/bsp/gd32vf103_usart.c ****          /* get UART4 clock */
 106:arch/riscv/mach-gd32vf10x/bsp/gd32vf103_usart.c ****          uclk=rcu_clock_freq_get(CK_APB1);
 107:arch/riscv/mach-gd32vf10x/bsp/gd32vf103_usart.c ****          break;  
 108:arch/riscv/mach-gd32vf10x/bsp/gd32vf103_usart.c ****     default:
 109:arch/riscv/mach-gd32vf10x/bsp/gd32vf103_usart.c ****          break;
 110:arch/riscv/mach-gd32vf10x/bsp/gd32vf103_usart.c ****     }
 111:arch/riscv/mach-gd32vf10x/bsp/gd32vf103_usart.c ****     /* oversampling by 16, configure the value of USART_BAUD */
 112:arch/riscv/mach-gd32vf10x/bsp/gd32vf103_usart.c ****     udiv = (uclk+baudval/2U)/baudval;
 207              		.loc 1 112 5
 113:arch/riscv/mach-gd32vf10x/bsp/gd32vf103_usart.c ****     intdiv = udiv & (0x0000fff0U);
 208              		.loc 1 113 5
 114:arch/riscv/mach-gd32vf10x/bsp/gd32vf103_usart.c ****     fradiv = udiv & (0x0000000fU);
 209              		.loc 1 114 5
 115:arch/riscv/mach-gd32vf10x/bsp/gd32vf103_usart.c ****     USART_BAUD(usart_periph) = ((USART_BAUD_FRADIV | USART_BAUD_INTDIV) & (intdiv | fradiv));
 210              		.loc 1 115 5
 112:arch/riscv/mach-gd32vf10x/bsp/gd32vf103_usart.c ****     intdiv = udiv & (0x0000fff0U);
 211              		.loc 1 112 25 is_stmt 0
 212 0038 93D71400 		srli	a5,s1,1
 112:arch/riscv/mach-gd32vf10x/bsp/gd32vf103_usart.c ****     intdiv = udiv & (0x0000fff0U);
 213              		.loc 1 112 17
 214 003c AA97     		add	a5,a5,a0
 112:arch/riscv/mach-gd32vf10x/bsp/gd32vf103_usart.c ****     intdiv = udiv & (0x0000fff0U);
 215              		.loc 1 112 10
 216 003e B3D79702 		divu	a5,a5,s1
 217              	.LVL19:
 116:arch/riscv/mach-gd32vf10x/bsp/gd32vf103_usart.c **** }
 218              		.loc 1 116 1
 219 0042 B240     		lw	ra,12(sp)
 220              		.cfi_remember_state
 221              		.cfi_restore 1
 222 0044 9244     		lw	s1,4(sp)
 223              		.cfi_restore 9
 224              	.LVL20:
 115:arch/riscv/mach-gd32vf10x/bsp/gd32vf103_usart.c ****     USART_BAUD(usart_periph) = ((USART_BAUD_FRADIV | USART_BAUD_INTDIV) & (intdiv | fradiv));
 225              		.loc 1 115 83
 226 0046 C207     		slli	a5,a5,16
 227              	.LVL21:
 228 0048 C183     		srli	a5,a5,16
 115:arch/riscv/mach-gd32vf10x/bsp/gd32vf103_usart.c ****     USART_BAUD(usart_periph) = ((USART_BAUD_FRADIV | USART_BAUD_INTDIV) & (intdiv | fradiv));
 229              		.loc 1 115 30
 230 004a 1CC4     		sw	a5,8(s0)
 231              		.loc 1 116 1
 232 004c 2244     		lw	s0,8(sp)
 233              		.cfi_restore 8
 234              	.LVL22:
 235 004e 4101     		addi	sp,sp,16
 236              	.LCFI13:
 237              		.cfi_def_cfa_offset 0
 238 0050 8280     		jr	ra
 239              	.LVL23:
 240              	.L17:
 241              	.LCFI14:
 242              		.cfi_restore_state
  86:arch/riscv/mach-gd32vf10x/bsp/gd32vf103_usart.c ****          /* get clock frequency */
 243              		.loc 1 86 5
 244 0052 B7460040 		li	a3,1073758208
GAS LISTING C:\Users\test\AppData\Local\Temp\ccjHsQYj.s 			page 8


 245 0056 93860640 		addi	a3,a3,1024
 246 005a 6307D500 		beq	a0,a3,.L12
 247 005e 13070780 		addi	a4,a4,-2048
  85:arch/riscv/mach-gd32vf10x/bsp/gd32vf103_usart.c ****     switch(usart_periph){
 248              		.loc 1 85 14
 249 0062 0145     		li	a0,0
  86:arch/riscv/mach-gd32vf10x/bsp/gd32vf103_usart.c ****          /* get clock frequency */
 250              		.loc 1 86 5
 251 0064 E31AE4FC 		bne	s0,a4,.L14
 252              	.L12:
  94:arch/riscv/mach-gd32vf10x/bsp/gd32vf103_usart.c ****          break;
 253              		.loc 1 94 10 is_stmt 1
  94:arch/riscv/mach-gd32vf10x/bsp/gd32vf103_usart.c ****          break;
 254              		.loc 1 94 15 is_stmt 0
 255 0068 0945     		li	a0,2
 256 006a 97000000 		call	rcu_clock_freq_get
 256      E7800000 
 257              	.LVL24:
  95:arch/riscv/mach-gd32vf10x/bsp/gd32vf103_usart.c ****     case USART2:
 258              		.loc 1 95 10 is_stmt 1
 259 0072 D9B7     		j	.L14
 260              		.cfi_endproc
 261              	.LFE3:
 263              		.section	.text.usart_parity_config,"ax",@progbits
 264              		.align	1
 265              		.globl	usart_parity_config
 267              	usart_parity_config:
 268              	.LFB4:
 117:arch/riscv/mach-gd32vf10x/bsp/gd32vf103_usart.c **** 
 118:arch/riscv/mach-gd32vf10x/bsp/gd32vf103_usart.c **** /*!
 119:arch/riscv/mach-gd32vf10x/bsp/gd32vf103_usart.c ****     \brief     configure USART parity
 120:arch/riscv/mach-gd32vf10x/bsp/gd32vf103_usart.c ****     \param[in] usart_periph: USARTx(x=0,1,2)/UARTx(x=3,4)
 121:arch/riscv/mach-gd32vf10x/bsp/gd32vf103_usart.c ****     \param[in] paritycfg: configure USART parity
 122:arch/riscv/mach-gd32vf10x/bsp/gd32vf103_usart.c ****                only one parameter can be selected which is shown as below:
 123:arch/riscv/mach-gd32vf10x/bsp/gd32vf103_usart.c ****       \arg       USART_PM_NONE: no parity
 124:arch/riscv/mach-gd32vf10x/bsp/gd32vf103_usart.c ****       \arg       USART_PM_ODD:  odd parity
 125:arch/riscv/mach-gd32vf10x/bsp/gd32vf103_usart.c ****       \arg       USART_PM_EVEN: even parity 
 126:arch/riscv/mach-gd32vf10x/bsp/gd32vf103_usart.c ****     \param[out] none
 127:arch/riscv/mach-gd32vf10x/bsp/gd32vf103_usart.c ****     \retval     none
 128:arch/riscv/mach-gd32vf10x/bsp/gd32vf103_usart.c **** */
 129:arch/riscv/mach-gd32vf10x/bsp/gd32vf103_usart.c **** void usart_parity_config(uint32_t usart_periph, uint32_t paritycfg)
 130:arch/riscv/mach-gd32vf10x/bsp/gd32vf103_usart.c **** {
 269              		.loc 1 130 1
 270              		.cfi_startproc
 271              	.LVL25:
 131:arch/riscv/mach-gd32vf10x/bsp/gd32vf103_usart.c ****     /* clear USART_CTL0 PM,PCEN bits */
 132:arch/riscv/mach-gd32vf10x/bsp/gd32vf103_usart.c ****     USART_CTL0(usart_periph) &= ~(USART_CTL0_PM | USART_CTL0_PCEN);
 272              		.loc 1 132 5
 273              		.loc 1 132 30 is_stmt 0
 274 0000 5C45     		lw	a5,12(a0)
 275 0002 93F7F79F 		andi	a5,a5,-1537
 276 0006 5CC5     		sw	a5,12(a0)
 133:arch/riscv/mach-gd32vf10x/bsp/gd32vf103_usart.c ****     /* configure USART parity mode */
 134:arch/riscv/mach-gd32vf10x/bsp/gd32vf103_usart.c ****     USART_CTL0(usart_periph) |= paritycfg ;
 277              		.loc 1 134 5 is_stmt 1
 278              		.loc 1 134 30 is_stmt 0
 279 0008 5C45     		lw	a5,12(a0)
GAS LISTING C:\Users\test\AppData\Local\Temp\ccjHsQYj.s 			page 9


 280 000a DD8D     		or	a1,a5,a1
 281              	.LVL26:
 282 000c 4CC5     		sw	a1,12(a0)
 135:arch/riscv/mach-gd32vf10x/bsp/gd32vf103_usart.c **** }
 283              		.loc 1 135 1
 284 000e 8280     		ret
 285              		.cfi_endproc
 286              	.LFE4:
 288              		.section	.text.usart_word_length_set,"ax",@progbits
 289              		.align	1
 290              		.globl	usart_word_length_set
 292              	usart_word_length_set:
 293              	.LFB5:
 136:arch/riscv/mach-gd32vf10x/bsp/gd32vf103_usart.c **** 
 137:arch/riscv/mach-gd32vf10x/bsp/gd32vf103_usart.c **** /*!
 138:arch/riscv/mach-gd32vf10x/bsp/gd32vf103_usart.c ****     \brief     configure USART word length
 139:arch/riscv/mach-gd32vf10x/bsp/gd32vf103_usart.c ****     \param[in] usart_periph: USARTx(x=0,1,2)/UARTx(x=3,4)
 140:arch/riscv/mach-gd32vf10x/bsp/gd32vf103_usart.c ****     \param[in] wlen: USART word length configure
 141:arch/riscv/mach-gd32vf10x/bsp/gd32vf103_usart.c ****                only one parameter can be selected which is shown as below:
 142:arch/riscv/mach-gd32vf10x/bsp/gd32vf103_usart.c ****       \arg       USART_WL_8BIT: 8 bits
 143:arch/riscv/mach-gd32vf10x/bsp/gd32vf103_usart.c ****       \arg       USART_WL_9BIT: 9 bits
 144:arch/riscv/mach-gd32vf10x/bsp/gd32vf103_usart.c ****     \param[out] none
 145:arch/riscv/mach-gd32vf10x/bsp/gd32vf103_usart.c ****     \retval     none
 146:arch/riscv/mach-gd32vf10x/bsp/gd32vf103_usart.c **** */
 147:arch/riscv/mach-gd32vf10x/bsp/gd32vf103_usart.c **** void usart_word_length_set(uint32_t usart_periph, uint32_t wlen)
 148:arch/riscv/mach-gd32vf10x/bsp/gd32vf103_usart.c **** {
 294              		.loc 1 148 1 is_stmt 1
 295              		.cfi_startproc
 296              	.LVL27:
 149:arch/riscv/mach-gd32vf10x/bsp/gd32vf103_usart.c ****     /* clear USART_CTL0 WL bit */
 150:arch/riscv/mach-gd32vf10x/bsp/gd32vf103_usart.c ****     USART_CTL0(usart_periph) &= ~USART_CTL0_WL;
 297              		.loc 1 150 5
 298              		.loc 1 150 30 is_stmt 0
 299 0000 5C45     		lw	a5,12(a0)
 300 0002 7D77     		li	a4,-4096
 301 0004 7D17     		addi	a4,a4,-1
 302 0006 F98F     		and	a5,a5,a4
 303 0008 5CC5     		sw	a5,12(a0)
 151:arch/riscv/mach-gd32vf10x/bsp/gd32vf103_usart.c ****     /* configure USART word length */
 152:arch/riscv/mach-gd32vf10x/bsp/gd32vf103_usart.c ****     USART_CTL0(usart_periph) |= wlen;
 304              		.loc 1 152 5 is_stmt 1
 305              		.loc 1 152 30 is_stmt 0
 306 000a 5C45     		lw	a5,12(a0)
 307 000c DD8D     		or	a1,a5,a1
 308              	.LVL28:
 309 000e 4CC5     		sw	a1,12(a0)
 153:arch/riscv/mach-gd32vf10x/bsp/gd32vf103_usart.c **** }
 310              		.loc 1 153 1
 311 0010 8280     		ret
 312              		.cfi_endproc
 313              	.LFE5:
 315              		.section	.text.usart_stop_bit_set,"ax",@progbits
 316              		.align	1
 317              		.globl	usart_stop_bit_set
 319              	usart_stop_bit_set:
 320              	.LFB6:
 154:arch/riscv/mach-gd32vf10x/bsp/gd32vf103_usart.c **** 
GAS LISTING C:\Users\test\AppData\Local\Temp\ccjHsQYj.s 			page 10


 155:arch/riscv/mach-gd32vf10x/bsp/gd32vf103_usart.c **** /*!
 156:arch/riscv/mach-gd32vf10x/bsp/gd32vf103_usart.c ****     \brief     configure USART stop bit length
 157:arch/riscv/mach-gd32vf10x/bsp/gd32vf103_usart.c ****     \param[in] usart_periph: USARTx(x=0,1,2)/UARTx(x=3,4)
 158:arch/riscv/mach-gd32vf10x/bsp/gd32vf103_usart.c ****     \param[in] stblen: USART stop bit configure
 159:arch/riscv/mach-gd32vf10x/bsp/gd32vf103_usart.c ****                only one parameter can be selected which is shown as below:
 160:arch/riscv/mach-gd32vf10x/bsp/gd32vf103_usart.c ****       \arg       USART_STB_1BIT:   1 bit
 161:arch/riscv/mach-gd32vf10x/bsp/gd32vf103_usart.c ****       \arg       USART_STB_0_5BIT: 0.5 bit, not available for UARTx(x=3,4)
 162:arch/riscv/mach-gd32vf10x/bsp/gd32vf103_usart.c ****       \arg       USART_STB_2BIT:   2 bits
 163:arch/riscv/mach-gd32vf10x/bsp/gd32vf103_usart.c ****       \arg       USART_STB_1_5BIT: 1.5 bits, not available for UARTx(x=3,4)
 164:arch/riscv/mach-gd32vf10x/bsp/gd32vf103_usart.c ****     \param[out] none
 165:arch/riscv/mach-gd32vf10x/bsp/gd32vf103_usart.c ****     \retval     none
 166:arch/riscv/mach-gd32vf10x/bsp/gd32vf103_usart.c **** */
 167:arch/riscv/mach-gd32vf10x/bsp/gd32vf103_usart.c **** void usart_stop_bit_set(uint32_t usart_periph, uint32_t stblen)
 168:arch/riscv/mach-gd32vf10x/bsp/gd32vf103_usart.c **** {
 321              		.loc 1 168 1 is_stmt 1
 322              		.cfi_startproc
 323              	.LVL29:
 169:arch/riscv/mach-gd32vf10x/bsp/gd32vf103_usart.c ****     /* clear USART_CTL1 STB bits */
 170:arch/riscv/mach-gd32vf10x/bsp/gd32vf103_usart.c ****     USART_CTL1(usart_periph) &= ~USART_CTL1_STB; 
 324              		.loc 1 170 5
 325              		.loc 1 170 30 is_stmt 0
 326 0000 1C49     		lw	a5,16(a0)
 327 0002 7577     		li	a4,-12288
 328 0004 7D17     		addi	a4,a4,-1
 329 0006 F98F     		and	a5,a5,a4
 330 0008 1CC9     		sw	a5,16(a0)
 171:arch/riscv/mach-gd32vf10x/bsp/gd32vf103_usart.c ****     /* configure USART stop bits */
 172:arch/riscv/mach-gd32vf10x/bsp/gd32vf103_usart.c ****     USART_CTL1(usart_periph) |= stblen;
 331              		.loc 1 172 5 is_stmt 1
 332              		.loc 1 172 30 is_stmt 0
 333 000a 1C49     		lw	a5,16(a0)
 334 000c DD8D     		or	a1,a5,a1
 335              	.LVL30:
 336 000e 0CC9     		sw	a1,16(a0)
 173:arch/riscv/mach-gd32vf10x/bsp/gd32vf103_usart.c **** }
 337              		.loc 1 173 1
 338 0010 8280     		ret
 339              		.cfi_endproc
 340              	.LFE6:
 342              		.section	.text.usart_enable,"ax",@progbits
 343              		.align	1
 344              		.globl	usart_enable
 346              	usart_enable:
 347              	.LFB7:
 174:arch/riscv/mach-gd32vf10x/bsp/gd32vf103_usart.c **** 
 175:arch/riscv/mach-gd32vf10x/bsp/gd32vf103_usart.c **** /*!
 176:arch/riscv/mach-gd32vf10x/bsp/gd32vf103_usart.c ****     \brief      enable USART
 177:arch/riscv/mach-gd32vf10x/bsp/gd32vf103_usart.c ****     \param[in]  usart_periph: USARTx(x=0,1,2)/UARTx(x=3,4)
 178:arch/riscv/mach-gd32vf10x/bsp/gd32vf103_usart.c ****     \param[out] none
 179:arch/riscv/mach-gd32vf10x/bsp/gd32vf103_usart.c ****     \retval     none
 180:arch/riscv/mach-gd32vf10x/bsp/gd32vf103_usart.c **** */
 181:arch/riscv/mach-gd32vf10x/bsp/gd32vf103_usart.c **** void usart_enable(uint32_t usart_periph)
 182:arch/riscv/mach-gd32vf10x/bsp/gd32vf103_usart.c **** {
 348              		.loc 1 182 1 is_stmt 1
 349              		.cfi_startproc
 350              	.LVL31:
 183:arch/riscv/mach-gd32vf10x/bsp/gd32vf103_usart.c ****     USART_CTL0(usart_periph) |= USART_CTL0_UEN;
GAS LISTING C:\Users\test\AppData\Local\Temp\ccjHsQYj.s 			page 11


 351              		.loc 1 183 5
 352              		.loc 1 183 30 is_stmt 0
 353 0000 5C45     		lw	a5,12(a0)
 354 0002 0967     		li	a4,8192
 355 0004 D98F     		or	a5,a5,a4
 356 0006 5CC5     		sw	a5,12(a0)
 184:arch/riscv/mach-gd32vf10x/bsp/gd32vf103_usart.c **** }
 357              		.loc 1 184 1
 358 0008 8280     		ret
 359              		.cfi_endproc
 360              	.LFE7:
 362              		.section	.text.usart_disable,"ax",@progbits
 363              		.align	1
 364              		.globl	usart_disable
 366              	usart_disable:
 367              	.LFB8:
 185:arch/riscv/mach-gd32vf10x/bsp/gd32vf103_usart.c **** 
 186:arch/riscv/mach-gd32vf10x/bsp/gd32vf103_usart.c **** /*!
 187:arch/riscv/mach-gd32vf10x/bsp/gd32vf103_usart.c ****     \brief     disable USART
 188:arch/riscv/mach-gd32vf10x/bsp/gd32vf103_usart.c ****     \param[in] usart_periph: USARTx(x=0,1,2)/UARTx(x=3,4)
 189:arch/riscv/mach-gd32vf10x/bsp/gd32vf103_usart.c ****     \param[out] none
 190:arch/riscv/mach-gd32vf10x/bsp/gd32vf103_usart.c ****     \retval     none
 191:arch/riscv/mach-gd32vf10x/bsp/gd32vf103_usart.c **** */
 192:arch/riscv/mach-gd32vf10x/bsp/gd32vf103_usart.c **** void usart_disable(uint32_t usart_periph)
 193:arch/riscv/mach-gd32vf10x/bsp/gd32vf103_usart.c **** {
 368              		.loc 1 193 1 is_stmt 1
 369              		.cfi_startproc
 370              	.LVL32:
 194:arch/riscv/mach-gd32vf10x/bsp/gd32vf103_usart.c ****     USART_CTL0(usart_periph) &= ~(USART_CTL0_UEN);
 371              		.loc 1 194 5
 372              		.loc 1 194 30 is_stmt 0
 373 0000 5C45     		lw	a5,12(a0)
 374 0002 7977     		li	a4,-8192
 375 0004 7D17     		addi	a4,a4,-1
 376 0006 F98F     		and	a5,a5,a4
 377 0008 5CC5     		sw	a5,12(a0)
 195:arch/riscv/mach-gd32vf10x/bsp/gd32vf103_usart.c **** }
 378              		.loc 1 195 1
 379 000a 8280     		ret
 380              		.cfi_endproc
 381              	.LFE8:
 383              		.section	.text.usart_transmit_config,"ax",@progbits
 384              		.align	1
 385              		.globl	usart_transmit_config
 387              	usart_transmit_config:
 388              	.LFB9:
 196:arch/riscv/mach-gd32vf10x/bsp/gd32vf103_usart.c **** 
 197:arch/riscv/mach-gd32vf10x/bsp/gd32vf103_usart.c **** /*!
 198:arch/riscv/mach-gd32vf10x/bsp/gd32vf103_usart.c ****     \brief      configure USART transmitter
 199:arch/riscv/mach-gd32vf10x/bsp/gd32vf103_usart.c ****     \param[in]  usart_periph: USARTx(x=0,1,2)/UARTx(x=3,4)
 200:arch/riscv/mach-gd32vf10x/bsp/gd32vf103_usart.c ****     \param[in]  txconfig: enable or disable USART transmitter
 201:arch/riscv/mach-gd32vf10x/bsp/gd32vf103_usart.c ****                 only one parameter can be selected which is shown as below:
 202:arch/riscv/mach-gd32vf10x/bsp/gd32vf103_usart.c ****       \arg        USART_TRANSMIT_ENABLE: enable USART transmission
 203:arch/riscv/mach-gd32vf10x/bsp/gd32vf103_usart.c ****       \arg        USART_TRANSMIT_DISABLE: disable USART transmission
 204:arch/riscv/mach-gd32vf10x/bsp/gd32vf103_usart.c ****     \param[out] none
 205:arch/riscv/mach-gd32vf10x/bsp/gd32vf103_usart.c ****     \retval     none
 206:arch/riscv/mach-gd32vf10x/bsp/gd32vf103_usart.c **** */
GAS LISTING C:\Users\test\AppData\Local\Temp\ccjHsQYj.s 			page 12


 207:arch/riscv/mach-gd32vf10x/bsp/gd32vf103_usart.c **** void usart_transmit_config(uint32_t usart_periph, uint32_t txconfig)
 208:arch/riscv/mach-gd32vf10x/bsp/gd32vf103_usart.c **** {
 389              		.loc 1 208 1 is_stmt 1
 390              		.cfi_startproc
 391              	.LVL33:
 209:arch/riscv/mach-gd32vf10x/bsp/gd32vf103_usart.c ****     uint32_t ctl = 0U;
 392              		.loc 1 209 5
 210:arch/riscv/mach-gd32vf10x/bsp/gd32vf103_usart.c ****     
 211:arch/riscv/mach-gd32vf10x/bsp/gd32vf103_usart.c ****     ctl = USART_CTL0(usart_periph);
 393              		.loc 1 211 5
 394              		.loc 1 211 9 is_stmt 0
 395 0000 5C45     		lw	a5,12(a0)
 396              	.LVL34:
 212:arch/riscv/mach-gd32vf10x/bsp/gd32vf103_usart.c ****     ctl &= ~USART_CTL0_TEN;
 397              		.loc 1 212 5 is_stmt 1
 398              		.loc 1 212 9 is_stmt 0
 399 0002 DD9B     		andi	a5,a5,-9
 400              	.LVL35:
 213:arch/riscv/mach-gd32vf10x/bsp/gd32vf103_usart.c ****     ctl |= txconfig;
 401              		.loc 1 213 5 is_stmt 1
 402              		.loc 1 213 9 is_stmt 0
 403 0004 DD8D     		or	a1,a5,a1
 404              	.LVL36:
 214:arch/riscv/mach-gd32vf10x/bsp/gd32vf103_usart.c ****     /* configure transfer mode */
 215:arch/riscv/mach-gd32vf10x/bsp/gd32vf103_usart.c ****     USART_CTL0(usart_periph) = ctl;
 405              		.loc 1 215 5 is_stmt 1
 406              		.loc 1 215 30 is_stmt 0
 407 0006 4CC5     		sw	a1,12(a0)
 216:arch/riscv/mach-gd32vf10x/bsp/gd32vf103_usart.c **** }
 408              		.loc 1 216 1
 409 0008 8280     		ret
 410              		.cfi_endproc
 411              	.LFE9:
 413              		.section	.text.usart_receive_config,"ax",@progbits
 414              		.align	1
 415              		.globl	usart_receive_config
 417              	usart_receive_config:
 418              	.LFB10:
 217:arch/riscv/mach-gd32vf10x/bsp/gd32vf103_usart.c **** 
 218:arch/riscv/mach-gd32vf10x/bsp/gd32vf103_usart.c **** /*!
 219:arch/riscv/mach-gd32vf10x/bsp/gd32vf103_usart.c ****     \brief      configure USART receiver
 220:arch/riscv/mach-gd32vf10x/bsp/gd32vf103_usart.c ****     \param[in]  usart_periph: USARTx(x=0,1,2)/UARTx(x=3,4)
 221:arch/riscv/mach-gd32vf10x/bsp/gd32vf103_usart.c ****     \param[in]  rxconfig: enable or disable USART receiver
 222:arch/riscv/mach-gd32vf10x/bsp/gd32vf103_usart.c ****                 only one parameter can be selected which is shown as below:
 223:arch/riscv/mach-gd32vf10x/bsp/gd32vf103_usart.c ****       \arg        USART_RECEIVE_ENABLE: enable USART reception
 224:arch/riscv/mach-gd32vf10x/bsp/gd32vf103_usart.c ****       \arg        USART_RECEIVE_DISABLE: disable USART reception
 225:arch/riscv/mach-gd32vf10x/bsp/gd32vf103_usart.c ****     \param[out] none
 226:arch/riscv/mach-gd32vf10x/bsp/gd32vf103_usart.c ****     \retval     none
 227:arch/riscv/mach-gd32vf10x/bsp/gd32vf103_usart.c **** */
 228:arch/riscv/mach-gd32vf10x/bsp/gd32vf103_usart.c **** void usart_receive_config(uint32_t usart_periph, uint32_t rxconfig)
 229:arch/riscv/mach-gd32vf10x/bsp/gd32vf103_usart.c **** {
 419              		.loc 1 229 1 is_stmt 1
 420              		.cfi_startproc
 421              	.LVL37:
 230:arch/riscv/mach-gd32vf10x/bsp/gd32vf103_usart.c ****     uint32_t ctl = 0U;
 422              		.loc 1 230 5
 231:arch/riscv/mach-gd32vf10x/bsp/gd32vf103_usart.c ****     
GAS LISTING C:\Users\test\AppData\Local\Temp\ccjHsQYj.s 			page 13


 232:arch/riscv/mach-gd32vf10x/bsp/gd32vf103_usart.c ****     ctl = USART_CTL0(usart_periph);
 423              		.loc 1 232 5
 424              		.loc 1 232 9 is_stmt 0
 425 0000 5C45     		lw	a5,12(a0)
 426              	.LVL38:
 233:arch/riscv/mach-gd32vf10x/bsp/gd32vf103_usart.c ****     ctl &= ~USART_CTL0_REN;
 427              		.loc 1 233 5 is_stmt 1
 428              		.loc 1 233 9 is_stmt 0
 429 0002 ED9B     		andi	a5,a5,-5
 430              	.LVL39:
 234:arch/riscv/mach-gd32vf10x/bsp/gd32vf103_usart.c ****     ctl |= rxconfig;
 431              		.loc 1 234 5 is_stmt 1
 432              		.loc 1 234 9 is_stmt 0
 433 0004 DD8D     		or	a1,a5,a1
 434              	.LVL40:
 235:arch/riscv/mach-gd32vf10x/bsp/gd32vf103_usart.c ****     /* configure receiver mode */
 236:arch/riscv/mach-gd32vf10x/bsp/gd32vf103_usart.c ****     USART_CTL0(usart_periph) = ctl;
 435              		.loc 1 236 5 is_stmt 1
 436              		.loc 1 236 30 is_stmt 0
 437 0006 4CC5     		sw	a1,12(a0)
 237:arch/riscv/mach-gd32vf10x/bsp/gd32vf103_usart.c **** }
 438              		.loc 1 237 1
 439 0008 8280     		ret
 440              		.cfi_endproc
 441              	.LFE10:
 443              		.section	.text.usart_data_transmit,"ax",@progbits
 444              		.align	1
 445              		.globl	usart_data_transmit
 447              	usart_data_transmit:
 448              	.LFB11:
 238:arch/riscv/mach-gd32vf10x/bsp/gd32vf103_usart.c **** 
 239:arch/riscv/mach-gd32vf10x/bsp/gd32vf103_usart.c **** /*!
 240:arch/riscv/mach-gd32vf10x/bsp/gd32vf103_usart.c ****     \brief      USART transmit data function
 241:arch/riscv/mach-gd32vf10x/bsp/gd32vf103_usart.c ****     \param[in]  usart_periph: USARTx(x=0,1,2)/UARTx(x=3,4)
 242:arch/riscv/mach-gd32vf10x/bsp/gd32vf103_usart.c ****     \param[in]  data: data of transmission 
 243:arch/riscv/mach-gd32vf10x/bsp/gd32vf103_usart.c ****     \param[out] none
 244:arch/riscv/mach-gd32vf10x/bsp/gd32vf103_usart.c ****     \retval     none
 245:arch/riscv/mach-gd32vf10x/bsp/gd32vf103_usart.c **** */
 246:arch/riscv/mach-gd32vf10x/bsp/gd32vf103_usart.c **** void usart_data_transmit(uint32_t usart_periph, uint32_t data)
 247:arch/riscv/mach-gd32vf10x/bsp/gd32vf103_usart.c **** {
 449              		.loc 1 247 1 is_stmt 1
 450              		.cfi_startproc
 451              	.LVL41:
 248:arch/riscv/mach-gd32vf10x/bsp/gd32vf103_usart.c ****     USART_DATA(usart_periph) = USART_DATA_DATA & data;
 452              		.loc 1 248 5
 453              		.loc 1 248 48 is_stmt 0
 454 0000 93F5F51F 		andi	a1,a1,511
 455              	.LVL42:
 456              		.loc 1 248 30
 457 0004 4CC1     		sw	a1,4(a0)
 249:arch/riscv/mach-gd32vf10x/bsp/gd32vf103_usart.c **** }
 458              		.loc 1 249 1
 459 0006 8280     		ret
 460              		.cfi_endproc
 461              	.LFE11:
 463              		.section	.text.usart_data_receive,"ax",@progbits
 464              		.align	1
GAS LISTING C:\Users\test\AppData\Local\Temp\ccjHsQYj.s 			page 14


 465              		.globl	usart_data_receive
 467              	usart_data_receive:
 468              	.LFB12:
 250:arch/riscv/mach-gd32vf10x/bsp/gd32vf103_usart.c **** 
 251:arch/riscv/mach-gd32vf10x/bsp/gd32vf103_usart.c **** /*!
 252:arch/riscv/mach-gd32vf10x/bsp/gd32vf103_usart.c ****     \brief      USART receive data function
 253:arch/riscv/mach-gd32vf10x/bsp/gd32vf103_usart.c ****     \param[in]  usart_periph: USARTx(x=0,1,2)/UARTx(x=3,4)
 254:arch/riscv/mach-gd32vf10x/bsp/gd32vf103_usart.c ****     \param[out] none
 255:arch/riscv/mach-gd32vf10x/bsp/gd32vf103_usart.c ****     \retval     data of received
 256:arch/riscv/mach-gd32vf10x/bsp/gd32vf103_usart.c **** */
 257:arch/riscv/mach-gd32vf10x/bsp/gd32vf103_usart.c **** uint16_t usart_data_receive(uint32_t usart_periph)
 258:arch/riscv/mach-gd32vf10x/bsp/gd32vf103_usart.c **** {
 469              		.loc 1 258 1 is_stmt 1
 470              		.cfi_startproc
 471              	.LVL43:
 259:arch/riscv/mach-gd32vf10x/bsp/gd32vf103_usart.c ****     return (uint16_t)(GET_BITS(USART_DATA(usart_periph), 0U, 8U));
 472              		.loc 1 259 5
 473              		.loc 1 259 23 is_stmt 0
 474 0000 4841     		lw	a0,4(a0)
 475              	.LVL44:
 260:arch/riscv/mach-gd32vf10x/bsp/gd32vf103_usart.c **** }
 476              		.loc 1 260 1
 477 0002 1375F51F 		andi	a0,a0,511
 478 0006 8280     		ret
 479              		.cfi_endproc
 480              	.LFE12:
 482              		.section	.text.usart_address_config,"ax",@progbits
 483              		.align	1
 484              		.globl	usart_address_config
 486              	usart_address_config:
 487              	.LFB13:
 261:arch/riscv/mach-gd32vf10x/bsp/gd32vf103_usart.c **** 
 262:arch/riscv/mach-gd32vf10x/bsp/gd32vf103_usart.c **** /*!
 263:arch/riscv/mach-gd32vf10x/bsp/gd32vf103_usart.c ****     \brief      configure the address of the USART in wake up by address match mode
 264:arch/riscv/mach-gd32vf10x/bsp/gd32vf103_usart.c ****     \param[in]  usart_periph: USARTx(x=0,1,2)/UARTx(x=3,4)
 265:arch/riscv/mach-gd32vf10x/bsp/gd32vf103_usart.c ****     \param[in]  addr: address of USART/UART
 266:arch/riscv/mach-gd32vf10x/bsp/gd32vf103_usart.c ****     \param[out] none
 267:arch/riscv/mach-gd32vf10x/bsp/gd32vf103_usart.c ****     \retval     none
 268:arch/riscv/mach-gd32vf10x/bsp/gd32vf103_usart.c **** */
 269:arch/riscv/mach-gd32vf10x/bsp/gd32vf103_usart.c **** void usart_address_config(uint32_t usart_periph, uint8_t addr)
 270:arch/riscv/mach-gd32vf10x/bsp/gd32vf103_usart.c **** {
 488              		.loc 1 270 1 is_stmt 1
 489              		.cfi_startproc
 490              	.LVL45:
 271:arch/riscv/mach-gd32vf10x/bsp/gd32vf103_usart.c ****     USART_CTL1(usart_periph) &= ~(USART_CTL1_ADDR);
 491              		.loc 1 271 5
 492              		.loc 1 271 30 is_stmt 0
 493 0000 1C49     		lw	a5,16(a0)
 272:arch/riscv/mach-gd32vf10x/bsp/gd32vf103_usart.c ****     USART_CTL1(usart_periph) |= (USART_CTL1_ADDR & addr);
 494              		.loc 1 272 50
 495 0002 BD89     		andi	a1,a1,15
 496              	.LVL46:
 271:arch/riscv/mach-gd32vf10x/bsp/gd32vf103_usart.c ****     USART_CTL1(usart_periph) &= ~(USART_CTL1_ADDR);
 497              		.loc 1 271 30
 498 0004 C19B     		andi	a5,a5,-16
 499 0006 1CC9     		sw	a5,16(a0)
 500              		.loc 1 272 5 is_stmt 1
GAS LISTING C:\Users\test\AppData\Local\Temp\ccjHsQYj.s 			page 15


 501              		.loc 1 272 30 is_stmt 0
 502 0008 1C49     		lw	a5,16(a0)
 503 000a DD8D     		or	a1,a1,a5
 504 000c 0CC9     		sw	a1,16(a0)
 273:arch/riscv/mach-gd32vf10x/bsp/gd32vf103_usart.c **** }
 505              		.loc 1 273 1
 506 000e 8280     		ret
 507              		.cfi_endproc
 508              	.LFE13:
 510              		.section	.text.usart_mute_mode_enable,"ax",@progbits
 511              		.align	1
 512              		.globl	usart_mute_mode_enable
 514              	usart_mute_mode_enable:
 515              	.LFB14:
 274:arch/riscv/mach-gd32vf10x/bsp/gd32vf103_usart.c **** 
 275:arch/riscv/mach-gd32vf10x/bsp/gd32vf103_usart.c **** /*!
 276:arch/riscv/mach-gd32vf10x/bsp/gd32vf103_usart.c ****     \brief      receiver in mute mode
 277:arch/riscv/mach-gd32vf10x/bsp/gd32vf103_usart.c ****     \param[in]  usart_periph: USARTx(x=0,1,2)/UARTx(x=3,4)
 278:arch/riscv/mach-gd32vf10x/bsp/gd32vf103_usart.c ****     \param[out] none
 279:arch/riscv/mach-gd32vf10x/bsp/gd32vf103_usart.c ****     \retval     none
 280:arch/riscv/mach-gd32vf10x/bsp/gd32vf103_usart.c **** */
 281:arch/riscv/mach-gd32vf10x/bsp/gd32vf103_usart.c **** void usart_mute_mode_enable(uint32_t usart_periph)
 282:arch/riscv/mach-gd32vf10x/bsp/gd32vf103_usart.c **** {
 516              		.loc 1 282 1 is_stmt 1
 517              		.cfi_startproc
 518              	.LVL47:
 283:arch/riscv/mach-gd32vf10x/bsp/gd32vf103_usart.c ****     USART_CTL0(usart_periph) |= USART_CTL0_RWU;
 519              		.loc 1 283 5
 520              		.loc 1 283 30 is_stmt 0
 521 0000 5C45     		lw	a5,12(a0)
 522 0002 93E72700 		ori	a5,a5,2
 523 0006 5CC5     		sw	a5,12(a0)
 284:arch/riscv/mach-gd32vf10x/bsp/gd32vf103_usart.c **** }
 524              		.loc 1 284 1
 525 0008 8280     		ret
 526              		.cfi_endproc
 527              	.LFE14:
 529              		.section	.text.usart_mute_mode_disable,"ax",@progbits
 530              		.align	1
 531              		.globl	usart_mute_mode_disable
 533              	usart_mute_mode_disable:
 534              	.LFB15:
 285:arch/riscv/mach-gd32vf10x/bsp/gd32vf103_usart.c **** 
 286:arch/riscv/mach-gd32vf10x/bsp/gd32vf103_usart.c **** /*!
 287:arch/riscv/mach-gd32vf10x/bsp/gd32vf103_usart.c ****     \brief      receiver in active mode
 288:arch/riscv/mach-gd32vf10x/bsp/gd32vf103_usart.c ****     \param[in]  usart_periph: USARTx(x=0,1,2)/UARTx(x=3,4)
 289:arch/riscv/mach-gd32vf10x/bsp/gd32vf103_usart.c ****     \param[out] none
 290:arch/riscv/mach-gd32vf10x/bsp/gd32vf103_usart.c ****     \retval     none
 291:arch/riscv/mach-gd32vf10x/bsp/gd32vf103_usart.c **** */
 292:arch/riscv/mach-gd32vf10x/bsp/gd32vf103_usart.c **** void usart_mute_mode_disable(uint32_t usart_periph)
 293:arch/riscv/mach-gd32vf10x/bsp/gd32vf103_usart.c **** {
 535              		.loc 1 293 1 is_stmt 1
 536              		.cfi_startproc
 537              	.LVL48:
 294:arch/riscv/mach-gd32vf10x/bsp/gd32vf103_usart.c ****     USART_CTL0(usart_periph) &= ~(USART_CTL0_RWU);
 538              		.loc 1 294 5
 539              		.loc 1 294 30 is_stmt 0
GAS LISTING C:\Users\test\AppData\Local\Temp\ccjHsQYj.s 			page 16


 540 0000 5C45     		lw	a5,12(a0)
 541 0002 F59B     		andi	a5,a5,-3
 542 0004 5CC5     		sw	a5,12(a0)
 295:arch/riscv/mach-gd32vf10x/bsp/gd32vf103_usart.c **** }
 543              		.loc 1 295 1
 544 0006 8280     		ret
 545              		.cfi_endproc
 546              	.LFE15:
 548              		.section	.text.usart_mute_mode_wakeup_config,"ax",@progbits
 549              		.align	1
 550              		.globl	usart_mute_mode_wakeup_config
 552              	usart_mute_mode_wakeup_config:
 553              	.LFB16:
 296:arch/riscv/mach-gd32vf10x/bsp/gd32vf103_usart.c **** 
 297:arch/riscv/mach-gd32vf10x/bsp/gd32vf103_usart.c **** /*!
 298:arch/riscv/mach-gd32vf10x/bsp/gd32vf103_usart.c ****     \brief      configure wakeup method in mute mode
 299:arch/riscv/mach-gd32vf10x/bsp/gd32vf103_usart.c ****     \param[in]  usart_periph: USARTx(x=0,1,2)/UARTx(x=3,4)
 300:arch/riscv/mach-gd32vf10x/bsp/gd32vf103_usart.c ****     \param[in]  wmethod: two methods be used to enter or exit the mute mode
 301:arch/riscv/mach-gd32vf10x/bsp/gd32vf103_usart.c ****                 only one parameter can be selected which is shown as below:
 302:arch/riscv/mach-gd32vf10x/bsp/gd32vf103_usart.c ****       \arg        USART_WM_IDLE: idle line
 303:arch/riscv/mach-gd32vf10x/bsp/gd32vf103_usart.c ****       \arg        USART_WM_ADDR: address mask
 304:arch/riscv/mach-gd32vf10x/bsp/gd32vf103_usart.c ****     \param[out] none
 305:arch/riscv/mach-gd32vf10x/bsp/gd32vf103_usart.c ****     \retval     none
 306:arch/riscv/mach-gd32vf10x/bsp/gd32vf103_usart.c **** */
 307:arch/riscv/mach-gd32vf10x/bsp/gd32vf103_usart.c **** void usart_mute_mode_wakeup_config(uint32_t usart_periph, uint32_t wmethod)
 308:arch/riscv/mach-gd32vf10x/bsp/gd32vf103_usart.c **** {
 554              		.loc 1 308 1 is_stmt 1
 555              		.cfi_startproc
 556              	.LVL49:
 309:arch/riscv/mach-gd32vf10x/bsp/gd32vf103_usart.c ****     USART_CTL0(usart_periph) &= ~(USART_CTL0_WM);
 557              		.loc 1 309 5
 558              		.loc 1 309 30 is_stmt 0
 559 0000 5C45     		lw	a5,12(a0)
 560 0002 7D77     		li	a4,-4096
 561 0004 1307F77F 		addi	a4,a4,2047
 562 0008 F98F     		and	a5,a5,a4
 563 000a 5CC5     		sw	a5,12(a0)
 310:arch/riscv/mach-gd32vf10x/bsp/gd32vf103_usart.c ****     USART_CTL0(usart_periph) |= wmethod;
 564              		.loc 1 310 5 is_stmt 1
 565              		.loc 1 310 30 is_stmt 0
 566 000c 5C45     		lw	a5,12(a0)
 567 000e DD8D     		or	a1,a5,a1
 568              	.LVL50:
 569 0010 4CC5     		sw	a1,12(a0)
 311:arch/riscv/mach-gd32vf10x/bsp/gd32vf103_usart.c **** }
 570              		.loc 1 311 1
 571 0012 8280     		ret
 572              		.cfi_endproc
 573              	.LFE16:
 575              		.section	.text.usart_lin_mode_enable,"ax",@progbits
 576              		.align	1
 577              		.globl	usart_lin_mode_enable
 579              	usart_lin_mode_enable:
 580              	.LFB17:
 312:arch/riscv/mach-gd32vf10x/bsp/gd32vf103_usart.c **** 
 313:arch/riscv/mach-gd32vf10x/bsp/gd32vf103_usart.c **** /*!
 314:arch/riscv/mach-gd32vf10x/bsp/gd32vf103_usart.c ****     \brief      enable LIN mode
GAS LISTING C:\Users\test\AppData\Local\Temp\ccjHsQYj.s 			page 17


 315:arch/riscv/mach-gd32vf10x/bsp/gd32vf103_usart.c ****     \param[in]  usart_periph: USARTx(x=0,1,2)/UARTx(x=3,4)
 316:arch/riscv/mach-gd32vf10x/bsp/gd32vf103_usart.c ****     \param[out] none
 317:arch/riscv/mach-gd32vf10x/bsp/gd32vf103_usart.c ****     \retval     none
 318:arch/riscv/mach-gd32vf10x/bsp/gd32vf103_usart.c **** */
 319:arch/riscv/mach-gd32vf10x/bsp/gd32vf103_usart.c **** void usart_lin_mode_enable(uint32_t usart_periph)
 320:arch/riscv/mach-gd32vf10x/bsp/gd32vf103_usart.c **** {   
 581              		.loc 1 320 1 is_stmt 1
 582              		.cfi_startproc
 583              	.LVL51:
 321:arch/riscv/mach-gd32vf10x/bsp/gd32vf103_usart.c ****     USART_CTL1(usart_periph) |= USART_CTL1_LMEN;
 584              		.loc 1 321 5
 585              		.loc 1 321 30 is_stmt 0
 586 0000 1C49     		lw	a5,16(a0)
 587 0002 1167     		li	a4,16384
 588 0004 D98F     		or	a5,a5,a4
 589 0006 1CC9     		sw	a5,16(a0)
 322:arch/riscv/mach-gd32vf10x/bsp/gd32vf103_usart.c **** }
 590              		.loc 1 322 1
 591 0008 8280     		ret
 592              		.cfi_endproc
 593              	.LFE17:
 595              		.section	.text.usart_lin_mode_disable,"ax",@progbits
 596              		.align	1
 597              		.globl	usart_lin_mode_disable
 599              	usart_lin_mode_disable:
 600              	.LFB18:
 323:arch/riscv/mach-gd32vf10x/bsp/gd32vf103_usart.c **** 
 324:arch/riscv/mach-gd32vf10x/bsp/gd32vf103_usart.c **** /*!
 325:arch/riscv/mach-gd32vf10x/bsp/gd32vf103_usart.c ****     \brief      disable LIN mode
 326:arch/riscv/mach-gd32vf10x/bsp/gd32vf103_usart.c ****     \param[in]  usart_periph: USARTx(x=0,1,2)/UARTx(x=3,4)
 327:arch/riscv/mach-gd32vf10x/bsp/gd32vf103_usart.c ****     \param[out] none
 328:arch/riscv/mach-gd32vf10x/bsp/gd32vf103_usart.c ****     \retval     none
 329:arch/riscv/mach-gd32vf10x/bsp/gd32vf103_usart.c **** */
 330:arch/riscv/mach-gd32vf10x/bsp/gd32vf103_usart.c **** void usart_lin_mode_disable(uint32_t usart_periph)
 331:arch/riscv/mach-gd32vf10x/bsp/gd32vf103_usart.c **** {   
 601              		.loc 1 331 1 is_stmt 1
 602              		.cfi_startproc
 603              	.LVL52:
 332:arch/riscv/mach-gd32vf10x/bsp/gd32vf103_usart.c ****     USART_CTL1(usart_periph) &= ~(USART_CTL1_LMEN);
 604              		.loc 1 332 5
 605              		.loc 1 332 30 is_stmt 0
 606 0000 1C49     		lw	a5,16(a0)
 607 0002 7177     		li	a4,-16384
 608 0004 7D17     		addi	a4,a4,-1
 609 0006 F98F     		and	a5,a5,a4
 610 0008 1CC9     		sw	a5,16(a0)
 333:arch/riscv/mach-gd32vf10x/bsp/gd32vf103_usart.c **** }
 611              		.loc 1 333 1
 612 000a 8280     		ret
 613              		.cfi_endproc
 614              	.LFE18:
 616              		.section	.text.usart_lin_break_detection_length_config,"ax",@progbits
 617              		.align	1
 618              		.globl	usart_lin_break_detection_length_config
 620              	usart_lin_break_detection_length_config:
 621              	.LFB19:
 334:arch/riscv/mach-gd32vf10x/bsp/gd32vf103_usart.c **** 
GAS LISTING C:\Users\test\AppData\Local\Temp\ccjHsQYj.s 			page 18


 335:arch/riscv/mach-gd32vf10x/bsp/gd32vf103_usart.c **** /*!
 336:arch/riscv/mach-gd32vf10x/bsp/gd32vf103_usart.c ****     \brief      configure lin break frame length
 337:arch/riscv/mach-gd32vf10x/bsp/gd32vf103_usart.c ****     \param[in]  usart_periph: USARTx(x=0,1,2)/UARTx(x=3,4)
 338:arch/riscv/mach-gd32vf10x/bsp/gd32vf103_usart.c ****     \param[in]  lblen: lin break frame length
 339:arch/riscv/mach-gd32vf10x/bsp/gd32vf103_usart.c ****                 only one parameter can be selected which is shown as below:
 340:arch/riscv/mach-gd32vf10x/bsp/gd32vf103_usart.c ****       \arg        USART_LBLEN_10B: 10 bits
 341:arch/riscv/mach-gd32vf10x/bsp/gd32vf103_usart.c ****       \arg        USART_LBLEN_11B: 11 bits
 342:arch/riscv/mach-gd32vf10x/bsp/gd32vf103_usart.c ****     \param[out] none
 343:arch/riscv/mach-gd32vf10x/bsp/gd32vf103_usart.c ****     \retval     none
 344:arch/riscv/mach-gd32vf10x/bsp/gd32vf103_usart.c **** */
 345:arch/riscv/mach-gd32vf10x/bsp/gd32vf103_usart.c **** void usart_lin_break_detection_length_config(uint32_t usart_periph, uint32_t lblen)
 346:arch/riscv/mach-gd32vf10x/bsp/gd32vf103_usart.c **** {
 622              		.loc 1 346 1 is_stmt 1
 623              		.cfi_startproc
 624              	.LVL53:
 347:arch/riscv/mach-gd32vf10x/bsp/gd32vf103_usart.c ****     USART_CTL1(usart_periph) &= ~(USART_CTL1_LBLEN);
 625              		.loc 1 347 5
 626              		.loc 1 347 30 is_stmt 0
 627 0000 1C49     		lw	a5,16(a0)
 348:arch/riscv/mach-gd32vf10x/bsp/gd32vf103_usart.c ****     USART_CTL1(usart_periph) |= (USART_CTL1_LBLEN & lblen);
 628              		.loc 1 348 51
 629 0002 93F50502 		andi	a1,a1,32
 630              	.LVL54:
 347:arch/riscv/mach-gd32vf10x/bsp/gd32vf103_usart.c ****     USART_CTL1(usart_periph) &= ~(USART_CTL1_LBLEN);
 631              		.loc 1 347 30
 632 0006 93F7F7FD 		andi	a5,a5,-33
 633 000a 1CC9     		sw	a5,16(a0)
 634              		.loc 1 348 5 is_stmt 1
 635              		.loc 1 348 30 is_stmt 0
 636 000c 1C49     		lw	a5,16(a0)
 637 000e DD8D     		or	a1,a1,a5
 638 0010 0CC9     		sw	a1,16(a0)
 349:arch/riscv/mach-gd32vf10x/bsp/gd32vf103_usart.c **** }
 639              		.loc 1 349 1
 640 0012 8280     		ret
 641              		.cfi_endproc
 642              	.LFE19:
 644              		.section	.text.usart_send_break,"ax",@progbits
 645              		.align	1
 646              		.globl	usart_send_break
 648              	usart_send_break:
 649              	.LFB20:
 350:arch/riscv/mach-gd32vf10x/bsp/gd32vf103_usart.c **** 
 351:arch/riscv/mach-gd32vf10x/bsp/gd32vf103_usart.c **** /*!
 352:arch/riscv/mach-gd32vf10x/bsp/gd32vf103_usart.c ****     \brief      send break frame
 353:arch/riscv/mach-gd32vf10x/bsp/gd32vf103_usart.c ****     \param[in]  usart_periph: USARTx(x=0,1,2)/UARTx(x=3,4)
 354:arch/riscv/mach-gd32vf10x/bsp/gd32vf103_usart.c ****     \param[out] none
 355:arch/riscv/mach-gd32vf10x/bsp/gd32vf103_usart.c ****     \retval     none
 356:arch/riscv/mach-gd32vf10x/bsp/gd32vf103_usart.c **** */
 357:arch/riscv/mach-gd32vf10x/bsp/gd32vf103_usart.c **** void usart_send_break(uint32_t usart_periph)
 358:arch/riscv/mach-gd32vf10x/bsp/gd32vf103_usart.c **** {
 650              		.loc 1 358 1 is_stmt 1
 651              		.cfi_startproc
 652              	.LVL55:
 359:arch/riscv/mach-gd32vf10x/bsp/gd32vf103_usart.c ****     USART_CTL0(usart_periph) |= USART_CTL0_SBKCMD;
 653              		.loc 1 359 5
 654              		.loc 1 359 30 is_stmt 0
GAS LISTING C:\Users\test\AppData\Local\Temp\ccjHsQYj.s 			page 19


 655 0000 5C45     		lw	a5,12(a0)
 656 0002 93E71700 		ori	a5,a5,1
 657 0006 5CC5     		sw	a5,12(a0)
 360:arch/riscv/mach-gd32vf10x/bsp/gd32vf103_usart.c **** }
 658              		.loc 1 360 1
 659 0008 8280     		ret
 660              		.cfi_endproc
 661              	.LFE20:
 663              		.section	.text.usart_halfduplex_enable,"ax",@progbits
 664              		.align	1
 665              		.globl	usart_halfduplex_enable
 667              	usart_halfduplex_enable:
 668              	.LFB21:
 361:arch/riscv/mach-gd32vf10x/bsp/gd32vf103_usart.c **** 
 362:arch/riscv/mach-gd32vf10x/bsp/gd32vf103_usart.c **** /*!
 363:arch/riscv/mach-gd32vf10x/bsp/gd32vf103_usart.c ****     \brief      enable half duplex mode
 364:arch/riscv/mach-gd32vf10x/bsp/gd32vf103_usart.c ****     \param[in]  usart_periph: USARTx(x=0,1,2)/UARTx(x=3,4)
 365:arch/riscv/mach-gd32vf10x/bsp/gd32vf103_usart.c ****     \param[out] none
 366:arch/riscv/mach-gd32vf10x/bsp/gd32vf103_usart.c ****     \retval     none
 367:arch/riscv/mach-gd32vf10x/bsp/gd32vf103_usart.c **** */
 368:arch/riscv/mach-gd32vf10x/bsp/gd32vf103_usart.c **** void usart_halfduplex_enable(uint32_t usart_periph)
 369:arch/riscv/mach-gd32vf10x/bsp/gd32vf103_usart.c **** {   
 669              		.loc 1 369 1 is_stmt 1
 670              		.cfi_startproc
 671              	.LVL56:
 370:arch/riscv/mach-gd32vf10x/bsp/gd32vf103_usart.c ****     USART_CTL2(usart_periph) |= USART_CTL2_HDEN;
 672              		.loc 1 370 5
 673              		.loc 1 370 30 is_stmt 0
 674 0000 5C49     		lw	a5,20(a0)
 675 0002 93E78700 		ori	a5,a5,8
 676 0006 5CC9     		sw	a5,20(a0)
 371:arch/riscv/mach-gd32vf10x/bsp/gd32vf103_usart.c **** }
 677              		.loc 1 371 1
 678 0008 8280     		ret
 679              		.cfi_endproc
 680              	.LFE21:
 682              		.section	.text.usart_halfduplex_disable,"ax",@progbits
 683              		.align	1
 684              		.globl	usart_halfduplex_disable
 686              	usart_halfduplex_disable:
 687              	.LFB22:
 372:arch/riscv/mach-gd32vf10x/bsp/gd32vf103_usart.c **** 
 373:arch/riscv/mach-gd32vf10x/bsp/gd32vf103_usart.c **** /*!
 374:arch/riscv/mach-gd32vf10x/bsp/gd32vf103_usart.c ****     \brief      disable half duplex mode
 375:arch/riscv/mach-gd32vf10x/bsp/gd32vf103_usart.c ****     \param[in]  usart_periph: USARTx(x=0,1,2)/UARTx(x=3,4)
 376:arch/riscv/mach-gd32vf10x/bsp/gd32vf103_usart.c ****     \param[out] none
 377:arch/riscv/mach-gd32vf10x/bsp/gd32vf103_usart.c ****     \retval     none
 378:arch/riscv/mach-gd32vf10x/bsp/gd32vf103_usart.c **** */
 379:arch/riscv/mach-gd32vf10x/bsp/gd32vf103_usart.c **** void usart_halfduplex_disable(uint32_t usart_periph)
 380:arch/riscv/mach-gd32vf10x/bsp/gd32vf103_usart.c **** {  
 688              		.loc 1 380 1 is_stmt 1
 689              		.cfi_startproc
 690              	.LVL57:
 381:arch/riscv/mach-gd32vf10x/bsp/gd32vf103_usart.c ****     USART_CTL2(usart_periph) &= ~(USART_CTL2_HDEN);
 691              		.loc 1 381 5
 692              		.loc 1 381 30 is_stmt 0
 693 0000 5C49     		lw	a5,20(a0)
GAS LISTING C:\Users\test\AppData\Local\Temp\ccjHsQYj.s 			page 20


 694 0002 DD9B     		andi	a5,a5,-9
 695 0004 5CC9     		sw	a5,20(a0)
 382:arch/riscv/mach-gd32vf10x/bsp/gd32vf103_usart.c **** }
 696              		.loc 1 382 1
 697 0006 8280     		ret
 698              		.cfi_endproc
 699              	.LFE22:
 701              		.section	.text.usart_synchronous_clock_enable,"ax",@progbits
 702              		.align	1
 703              		.globl	usart_synchronous_clock_enable
 705              	usart_synchronous_clock_enable:
 706              	.LFB23:
 383:arch/riscv/mach-gd32vf10x/bsp/gd32vf103_usart.c **** 
 384:arch/riscv/mach-gd32vf10x/bsp/gd32vf103_usart.c **** /*!
 385:arch/riscv/mach-gd32vf10x/bsp/gd32vf103_usart.c ****     \brief      enable CK pin in synchronous mode
 386:arch/riscv/mach-gd32vf10x/bsp/gd32vf103_usart.c ****     \param[in]  usart_periph: USARTx(x=0,1,2)
 387:arch/riscv/mach-gd32vf10x/bsp/gd32vf103_usart.c ****     \param[out] none
 388:arch/riscv/mach-gd32vf10x/bsp/gd32vf103_usart.c ****     \retval     none
 389:arch/riscv/mach-gd32vf10x/bsp/gd32vf103_usart.c **** */
 390:arch/riscv/mach-gd32vf10x/bsp/gd32vf103_usart.c **** void usart_synchronous_clock_enable(uint32_t usart_periph)
 391:arch/riscv/mach-gd32vf10x/bsp/gd32vf103_usart.c **** {
 707              		.loc 1 391 1 is_stmt 1
 708              		.cfi_startproc
 709              	.LVL58:
 392:arch/riscv/mach-gd32vf10x/bsp/gd32vf103_usart.c ****     USART_CTL1(usart_periph) |= USART_CTL1_CKEN;
 710              		.loc 1 392 5
 711              		.loc 1 392 30 is_stmt 0
 712 0000 1C49     		lw	a5,16(a0)
 713 0002 0567     		li	a4,4096
 714 0004 13070780 		addi	a4,a4,-2048
 715 0008 D98F     		or	a5,a5,a4
 716 000a 1CC9     		sw	a5,16(a0)
 393:arch/riscv/mach-gd32vf10x/bsp/gd32vf103_usart.c **** }
 717              		.loc 1 393 1
 718 000c 8280     		ret
 719              		.cfi_endproc
 720              	.LFE23:
 722              		.section	.text.usart_synchronous_clock_disable,"ax",@progbits
 723              		.align	1
 724              		.globl	usart_synchronous_clock_disable
 726              	usart_synchronous_clock_disable:
 727              	.LFB24:
 394:arch/riscv/mach-gd32vf10x/bsp/gd32vf103_usart.c **** 
 395:arch/riscv/mach-gd32vf10x/bsp/gd32vf103_usart.c **** /*!
 396:arch/riscv/mach-gd32vf10x/bsp/gd32vf103_usart.c ****     \brief      disable CK pin in synchronous mode
 397:arch/riscv/mach-gd32vf10x/bsp/gd32vf103_usart.c ****     \param[in]  usart_periph: USARTx(x=0,1,2)
 398:arch/riscv/mach-gd32vf10x/bsp/gd32vf103_usart.c ****     \param[out] none
 399:arch/riscv/mach-gd32vf10x/bsp/gd32vf103_usart.c ****     \retval     none
 400:arch/riscv/mach-gd32vf10x/bsp/gd32vf103_usart.c **** */
 401:arch/riscv/mach-gd32vf10x/bsp/gd32vf103_usart.c **** void usart_synchronous_clock_disable(uint32_t usart_periph)
 402:arch/riscv/mach-gd32vf10x/bsp/gd32vf103_usart.c **** {
 728              		.loc 1 402 1 is_stmt 1
 729              		.cfi_startproc
 730              	.LVL59:
 403:arch/riscv/mach-gd32vf10x/bsp/gd32vf103_usart.c ****     USART_CTL1(usart_periph) &= ~(USART_CTL1_CKEN);
 731              		.loc 1 403 5
 732              		.loc 1 403 30 is_stmt 0
GAS LISTING C:\Users\test\AppData\Local\Temp\ccjHsQYj.s 			page 21


 733 0000 1C49     		lw	a5,16(a0)
 734 0002 7D77     		li	a4,-4096
 735 0004 1307F77F 		addi	a4,a4,2047
 736 0008 F98F     		and	a5,a5,a4
 737 000a 1CC9     		sw	a5,16(a0)
 404:arch/riscv/mach-gd32vf10x/bsp/gd32vf103_usart.c **** }
 738              		.loc 1 404 1
 739 000c 8280     		ret
 740              		.cfi_endproc
 741              	.LFE24:
 743              		.section	.text.usart_synchronous_clock_config,"ax",@progbits
 744              		.align	1
 745              		.globl	usart_synchronous_clock_config
 747              	usart_synchronous_clock_config:
 748              	.LFB25:
 405:arch/riscv/mach-gd32vf10x/bsp/gd32vf103_usart.c **** 
 406:arch/riscv/mach-gd32vf10x/bsp/gd32vf103_usart.c **** /*!
 407:arch/riscv/mach-gd32vf10x/bsp/gd32vf103_usart.c ****     \brief      configure USART synchronous mode parameters
 408:arch/riscv/mach-gd32vf10x/bsp/gd32vf103_usart.c ****     \param[in]  usart_periph: USARTx(x=0,1,2)
 409:arch/riscv/mach-gd32vf10x/bsp/gd32vf103_usart.c ****     \param[in]  clen: CK length
 410:arch/riscv/mach-gd32vf10x/bsp/gd32vf103_usart.c ****                 only one parameter can be selected which is shown as below:
 411:arch/riscv/mach-gd32vf10x/bsp/gd32vf103_usart.c ****       \arg        USART_CLEN_NONE: there are 7 CK pulses for an 8 bit frame and 8 CK pulses for a 9
 412:arch/riscv/mach-gd32vf10x/bsp/gd32vf103_usart.c ****       \arg        USART_CLEN_EN:   there are 8 CK pulses for an 8 bit frame and 9 CK pulses for a 9
 413:arch/riscv/mach-gd32vf10x/bsp/gd32vf103_usart.c ****     \param[in]  cph: clock phase
 414:arch/riscv/mach-gd32vf10x/bsp/gd32vf103_usart.c ****                 only one parameter can be selected which is shown as below:
 415:arch/riscv/mach-gd32vf10x/bsp/gd32vf103_usart.c ****       \arg        USART_CPH_1CK: first clock transition is the first data capture edge 
 416:arch/riscv/mach-gd32vf10x/bsp/gd32vf103_usart.c ****       \arg        USART_CPH_2CK: second clock transition is the first data capture edge
 417:arch/riscv/mach-gd32vf10x/bsp/gd32vf103_usart.c ****     \param[in]  cpl: clock polarity
 418:arch/riscv/mach-gd32vf10x/bsp/gd32vf103_usart.c ****                 only one parameter can be selected which is shown as below:
 419:arch/riscv/mach-gd32vf10x/bsp/gd32vf103_usart.c ****       \arg        USART_CPL_LOW:  steady low value on CK pin 
 420:arch/riscv/mach-gd32vf10x/bsp/gd32vf103_usart.c ****       \arg        USART_CPL_HIGH: steady high value on CK pin
 421:arch/riscv/mach-gd32vf10x/bsp/gd32vf103_usart.c ****     \param[out] none
 422:arch/riscv/mach-gd32vf10x/bsp/gd32vf103_usart.c ****     \retval     none
 423:arch/riscv/mach-gd32vf10x/bsp/gd32vf103_usart.c **** */
 424:arch/riscv/mach-gd32vf10x/bsp/gd32vf103_usart.c **** void usart_synchronous_clock_config(uint32_t usart_periph, uint32_t clen, uint32_t cph, uint32_t cp
 425:arch/riscv/mach-gd32vf10x/bsp/gd32vf103_usart.c **** {
 749              		.loc 1 425 1 is_stmt 1
 750              		.cfi_startproc
 751              	.LVL60:
 426:arch/riscv/mach-gd32vf10x/bsp/gd32vf103_usart.c ****     uint32_t ctl = 0U;
 752              		.loc 1 426 5
 427:arch/riscv/mach-gd32vf10x/bsp/gd32vf103_usart.c ****     
 428:arch/riscv/mach-gd32vf10x/bsp/gd32vf103_usart.c ****     /* read USART_CTL1 register */
 429:arch/riscv/mach-gd32vf10x/bsp/gd32vf103_usart.c ****     ctl = USART_CTL1(usart_periph);
 753              		.loc 1 429 5
 754              		.loc 1 429 9 is_stmt 0
 755 0000 1C49     		lw	a5,16(a0)
 756              	.LVL61:
 430:arch/riscv/mach-gd32vf10x/bsp/gd32vf103_usart.c ****     ctl &= ~(USART_CTL1_CLEN | USART_CTL1_CPH | USART_CTL1_CPL);
 757              		.loc 1 430 5 is_stmt 1
 431:arch/riscv/mach-gd32vf10x/bsp/gd32vf103_usart.c ****     /* set CK length, CK phase, CK polarity */
 432:arch/riscv/mach-gd32vf10x/bsp/gd32vf103_usart.c ****     ctl |= (USART_CTL1_CLEN & clen) | (USART_CTL1_CPH & cph) | (USART_CTL1_CPL & cpl);
 758              		.loc 1 432 55 is_stmt 0
 759 0002 13760620 		andi	a2,a2,512
 760              	.LVL62:
 761              		.loc 1 432 80
 762 0006 93F60640 		andi	a3,a3,1024
GAS LISTING C:\Users\test\AppData\Local\Temp\ccjHsQYj.s 			page 22


 763              	.LVL63:
 764              		.loc 1 432 62
 765 000a 558E     		or	a2,a2,a3
 766              		.loc 1 432 29
 767 000c 93F50510 		andi	a1,a1,256
 768              	.LVL64:
 430:arch/riscv/mach-gd32vf10x/bsp/gd32vf103_usart.c ****     ctl &= ~(USART_CTL1_CLEN | USART_CTL1_CPH | USART_CTL1_CPL);
 769              		.loc 1 430 9
 770 0010 93F7F78F 		andi	a5,a5,-1793
 771              	.LVL65:
 772              		.loc 1 432 5 is_stmt 1
 773              		.loc 1 432 62 is_stmt 0
 774 0014 4D8E     		or	a2,a2,a1
 775              		.loc 1 432 9
 776 0016 5D8E     		or	a2,a2,a5
 777              	.LVL66:
 433:arch/riscv/mach-gd32vf10x/bsp/gd32vf103_usart.c **** 
 434:arch/riscv/mach-gd32vf10x/bsp/gd32vf103_usart.c ****     USART_CTL1(usart_periph) = ctl;
 778              		.loc 1 434 5 is_stmt 1
 779              		.loc 1 434 30 is_stmt 0
 780 0018 10C9     		sw	a2,16(a0)
 435:arch/riscv/mach-gd32vf10x/bsp/gd32vf103_usart.c **** }
 781              		.loc 1 435 1
 782 001a 8280     		ret
 783              		.cfi_endproc
 784              	.LFE25:
 786              		.section	.text.usart_guard_time_config,"ax",@progbits
 787              		.align	1
 788              		.globl	usart_guard_time_config
 790              	usart_guard_time_config:
 791              	.LFB26:
 436:arch/riscv/mach-gd32vf10x/bsp/gd32vf103_usart.c **** 
 437:arch/riscv/mach-gd32vf10x/bsp/gd32vf103_usart.c **** /*!
 438:arch/riscv/mach-gd32vf10x/bsp/gd32vf103_usart.c ****     \brief      configure guard time value in smartcard mode
 439:arch/riscv/mach-gd32vf10x/bsp/gd32vf103_usart.c ****     \param[in]  usart_periph: USARTx(x=0,1,2)
 440:arch/riscv/mach-gd32vf10x/bsp/gd32vf103_usart.c ****     \param[in]  gaut: guard time value
 441:arch/riscv/mach-gd32vf10x/bsp/gd32vf103_usart.c ****     \param[out] none
 442:arch/riscv/mach-gd32vf10x/bsp/gd32vf103_usart.c ****     \retval     none
 443:arch/riscv/mach-gd32vf10x/bsp/gd32vf103_usart.c **** */
 444:arch/riscv/mach-gd32vf10x/bsp/gd32vf103_usart.c **** void usart_guard_time_config(uint32_t usart_periph,uint32_t gaut)
 445:arch/riscv/mach-gd32vf10x/bsp/gd32vf103_usart.c **** {
 792              		.loc 1 445 1 is_stmt 1
 793              		.cfi_startproc
 794              	.LVL67:
 446:arch/riscv/mach-gd32vf10x/bsp/gd32vf103_usart.c ****     USART_GP(usart_periph) &= ~(USART_GP_GUAT);
 795              		.loc 1 446 5
 796              		.loc 1 446 28 is_stmt 0
 797 0000 1C4D     		lw	a5,24(a0)
 798 0002 4177     		li	a4,-65536
 799 0004 1307F70F 		addi	a4,a4,255
 800 0008 F98F     		and	a5,a5,a4
 801 000a 1CCD     		sw	a5,24(a0)
 447:arch/riscv/mach-gd32vf10x/bsp/gd32vf103_usart.c ****     USART_GP(usart_periph) |= (USART_GP_GUAT & ((gaut)<<8));
 802              		.loc 1 447 5 is_stmt 1
 803              		.loc 1 447 28 is_stmt 0
 804 000c 184D     		lw	a4,24(a0)
 805              		.loc 1 447 46
GAS LISTING C:\Users\test\AppData\Local\Temp\ccjHsQYj.s 			page 23


 806 000e C167     		li	a5,65536
 807              		.loc 1 447 55
 808 0010 A205     		slli	a1,a1,8
 809              	.LVL68:
 810              		.loc 1 447 46
 811 0012 FD17     		addi	a5,a5,-1
 812 0014 FD8D     		and	a1,a1,a5
 813              		.loc 1 447 28
 814 0016 D98D     		or	a1,a1,a4
 815 0018 0CCD     		sw	a1,24(a0)
 448:arch/riscv/mach-gd32vf10x/bsp/gd32vf103_usart.c **** }
 816              		.loc 1 448 1
 817 001a 8280     		ret
 818              		.cfi_endproc
 819              	.LFE26:
 821              		.section	.text.usart_smartcard_mode_enable,"ax",@progbits
 822              		.align	1
 823              		.globl	usart_smartcard_mode_enable
 825              	usart_smartcard_mode_enable:
 826              	.LFB27:
 449:arch/riscv/mach-gd32vf10x/bsp/gd32vf103_usart.c **** 
 450:arch/riscv/mach-gd32vf10x/bsp/gd32vf103_usart.c **** /*!
 451:arch/riscv/mach-gd32vf10x/bsp/gd32vf103_usart.c ****     \brief      enable smartcard mode
 452:arch/riscv/mach-gd32vf10x/bsp/gd32vf103_usart.c ****     \param[in]  usart_periph: USARTx(x=0,1,2)
 453:arch/riscv/mach-gd32vf10x/bsp/gd32vf103_usart.c ****     \param[out] none
 454:arch/riscv/mach-gd32vf10x/bsp/gd32vf103_usart.c ****     \retval     none
 455:arch/riscv/mach-gd32vf10x/bsp/gd32vf103_usart.c **** */
 456:arch/riscv/mach-gd32vf10x/bsp/gd32vf103_usart.c **** void usart_smartcard_mode_enable(uint32_t usart_periph)
 457:arch/riscv/mach-gd32vf10x/bsp/gd32vf103_usart.c **** {
 827              		.loc 1 457 1 is_stmt 1
 828              		.cfi_startproc
 829              	.LVL69:
 458:arch/riscv/mach-gd32vf10x/bsp/gd32vf103_usart.c ****     USART_CTL2(usart_periph) |= USART_CTL2_SCEN;
 830              		.loc 1 458 5
 831              		.loc 1 458 30 is_stmt 0
 832 0000 5C49     		lw	a5,20(a0)
 833 0002 93E70702 		ori	a5,a5,32
 834 0006 5CC9     		sw	a5,20(a0)
 459:arch/riscv/mach-gd32vf10x/bsp/gd32vf103_usart.c **** }
 835              		.loc 1 459 1
 836 0008 8280     		ret
 837              		.cfi_endproc
 838              	.LFE27:
 840              		.section	.text.usart_smartcard_mode_disable,"ax",@progbits
 841              		.align	1
 842              		.globl	usart_smartcard_mode_disable
 844              	usart_smartcard_mode_disable:
 845              	.LFB28:
 460:arch/riscv/mach-gd32vf10x/bsp/gd32vf103_usart.c **** 
 461:arch/riscv/mach-gd32vf10x/bsp/gd32vf103_usart.c **** /*!
 462:arch/riscv/mach-gd32vf10x/bsp/gd32vf103_usart.c ****     \brief      disable smartcard mode
 463:arch/riscv/mach-gd32vf10x/bsp/gd32vf103_usart.c ****     \param[in]  usart_periph: USARTx(x=0,1,2)
 464:arch/riscv/mach-gd32vf10x/bsp/gd32vf103_usart.c ****     \param[out] none
 465:arch/riscv/mach-gd32vf10x/bsp/gd32vf103_usart.c ****     \retval     none
 466:arch/riscv/mach-gd32vf10x/bsp/gd32vf103_usart.c **** */
 467:arch/riscv/mach-gd32vf10x/bsp/gd32vf103_usart.c **** void usart_smartcard_mode_disable(uint32_t usart_periph)
 468:arch/riscv/mach-gd32vf10x/bsp/gd32vf103_usart.c **** {
GAS LISTING C:\Users\test\AppData\Local\Temp\ccjHsQYj.s 			page 24


 846              		.loc 1 468 1 is_stmt 1
 847              		.cfi_startproc
 848              	.LVL70:
 469:arch/riscv/mach-gd32vf10x/bsp/gd32vf103_usart.c ****     USART_CTL2(usart_periph) &= ~(USART_CTL2_SCEN);
 849              		.loc 1 469 5
 850              		.loc 1 469 30 is_stmt 0
 851 0000 5C49     		lw	a5,20(a0)
 852 0002 93F7F7FD 		andi	a5,a5,-33
 853 0006 5CC9     		sw	a5,20(a0)
 470:arch/riscv/mach-gd32vf10x/bsp/gd32vf103_usart.c **** }
 854              		.loc 1 470 1
 855 0008 8280     		ret
 856              		.cfi_endproc
 857              	.LFE28:
 859              		.section	.text.usart_smartcard_mode_nack_enable,"ax",@progbits
 860              		.align	1
 861              		.globl	usart_smartcard_mode_nack_enable
 863              	usart_smartcard_mode_nack_enable:
 864              	.LFB29:
 471:arch/riscv/mach-gd32vf10x/bsp/gd32vf103_usart.c **** 
 472:arch/riscv/mach-gd32vf10x/bsp/gd32vf103_usart.c **** /*!
 473:arch/riscv/mach-gd32vf10x/bsp/gd32vf103_usart.c ****     \brief      enable NACK in smartcard mode
 474:arch/riscv/mach-gd32vf10x/bsp/gd32vf103_usart.c ****     \param[in]  usart_periph: USARTx(x=0,1,2)
 475:arch/riscv/mach-gd32vf10x/bsp/gd32vf103_usart.c ****     \param[out] none
 476:arch/riscv/mach-gd32vf10x/bsp/gd32vf103_usart.c ****     \retval     none
 477:arch/riscv/mach-gd32vf10x/bsp/gd32vf103_usart.c **** */
 478:arch/riscv/mach-gd32vf10x/bsp/gd32vf103_usart.c **** void usart_smartcard_mode_nack_enable(uint32_t usart_periph)
 479:arch/riscv/mach-gd32vf10x/bsp/gd32vf103_usart.c **** {
 865              		.loc 1 479 1 is_stmt 1
 866              		.cfi_startproc
 867              	.LVL71:
 480:arch/riscv/mach-gd32vf10x/bsp/gd32vf103_usart.c ****     USART_CTL2(usart_periph) |= USART_CTL2_NKEN;
 868              		.loc 1 480 5
 869              		.loc 1 480 30 is_stmt 0
 870 0000 5C49     		lw	a5,20(a0)
 871 0002 93E70701 		ori	a5,a5,16
 872 0006 5CC9     		sw	a5,20(a0)
 481:arch/riscv/mach-gd32vf10x/bsp/gd32vf103_usart.c **** }
 873              		.loc 1 481 1
 874 0008 8280     		ret
 875              		.cfi_endproc
 876              	.LFE29:
 878              		.section	.text.usart_smartcard_mode_nack_disable,"ax",@progbits
 879              		.align	1
 880              		.globl	usart_smartcard_mode_nack_disable
 882              	usart_smartcard_mode_nack_disable:
 883              	.LFB30:
 482:arch/riscv/mach-gd32vf10x/bsp/gd32vf103_usart.c **** 
 483:arch/riscv/mach-gd32vf10x/bsp/gd32vf103_usart.c **** /*!
 484:arch/riscv/mach-gd32vf10x/bsp/gd32vf103_usart.c ****     \brief      disable NACK in smartcard mode
 485:arch/riscv/mach-gd32vf10x/bsp/gd32vf103_usart.c ****     \param[in]  usart_periph: USARTx(x=0,1,2)
 486:arch/riscv/mach-gd32vf10x/bsp/gd32vf103_usart.c ****     \param[out] none
 487:arch/riscv/mach-gd32vf10x/bsp/gd32vf103_usart.c ****     \retval     none
 488:arch/riscv/mach-gd32vf10x/bsp/gd32vf103_usart.c **** */
 489:arch/riscv/mach-gd32vf10x/bsp/gd32vf103_usart.c **** void usart_smartcard_mode_nack_disable(uint32_t usart_periph)
 490:arch/riscv/mach-gd32vf10x/bsp/gd32vf103_usart.c **** {
 884              		.loc 1 490 1 is_stmt 1
GAS LISTING C:\Users\test\AppData\Local\Temp\ccjHsQYj.s 			page 25


 885              		.cfi_startproc
 886              	.LVL72:
 491:arch/riscv/mach-gd32vf10x/bsp/gd32vf103_usart.c ****     USART_CTL2(usart_periph) &= ~(USART_CTL2_NKEN);
 887              		.loc 1 491 5
 888              		.loc 1 491 30 is_stmt 0
 889 0000 5C49     		lw	a5,20(a0)
 890 0002 BD9B     		andi	a5,a5,-17
 891 0004 5CC9     		sw	a5,20(a0)
 492:arch/riscv/mach-gd32vf10x/bsp/gd32vf103_usart.c **** }
 892              		.loc 1 492 1
 893 0006 8280     		ret
 894              		.cfi_endproc
 895              	.LFE30:
 897              		.section	.text.usart_irda_mode_enable,"ax",@progbits
 898              		.align	1
 899              		.globl	usart_irda_mode_enable
 901              	usart_irda_mode_enable:
 902              	.LFB31:
 493:arch/riscv/mach-gd32vf10x/bsp/gd32vf103_usart.c **** 
 494:arch/riscv/mach-gd32vf10x/bsp/gd32vf103_usart.c **** /*!
 495:arch/riscv/mach-gd32vf10x/bsp/gd32vf103_usart.c ****     \brief      enable IrDA mode
 496:arch/riscv/mach-gd32vf10x/bsp/gd32vf103_usart.c ****     \param[in]  usart_periph: USARTx(x=0,1,2)/UARTx(x=3,4)
 497:arch/riscv/mach-gd32vf10x/bsp/gd32vf103_usart.c ****     \param[out] none
 498:arch/riscv/mach-gd32vf10x/bsp/gd32vf103_usart.c ****     \retval     none
 499:arch/riscv/mach-gd32vf10x/bsp/gd32vf103_usart.c **** */
 500:arch/riscv/mach-gd32vf10x/bsp/gd32vf103_usart.c **** void usart_irda_mode_enable(uint32_t usart_periph)
 501:arch/riscv/mach-gd32vf10x/bsp/gd32vf103_usart.c **** {
 903              		.loc 1 501 1 is_stmt 1
 904              		.cfi_startproc
 905              	.LVL73:
 502:arch/riscv/mach-gd32vf10x/bsp/gd32vf103_usart.c ****     USART_CTL2(usart_periph) |= USART_CTL2_IREN;
 906              		.loc 1 502 5
 907              		.loc 1 502 30 is_stmt 0
 908 0000 5C49     		lw	a5,20(a0)
 909 0002 93E72700 		ori	a5,a5,2
 910 0006 5CC9     		sw	a5,20(a0)
 503:arch/riscv/mach-gd32vf10x/bsp/gd32vf103_usart.c **** }
 911              		.loc 1 503 1
 912 0008 8280     		ret
 913              		.cfi_endproc
 914              	.LFE31:
 916              		.section	.text.usart_irda_mode_disable,"ax",@progbits
 917              		.align	1
 918              		.globl	usart_irda_mode_disable
 920              	usart_irda_mode_disable:
 921              	.LFB32:
 504:arch/riscv/mach-gd32vf10x/bsp/gd32vf103_usart.c **** 
 505:arch/riscv/mach-gd32vf10x/bsp/gd32vf103_usart.c **** /*!
 506:arch/riscv/mach-gd32vf10x/bsp/gd32vf103_usart.c ****     \brief      disable IrDA mode
 507:arch/riscv/mach-gd32vf10x/bsp/gd32vf103_usart.c ****     \param[in]  usart_periph: USARTx(x=0,1,2)/UARTx(x=3,4)
 508:arch/riscv/mach-gd32vf10x/bsp/gd32vf103_usart.c ****     \param[out] none
 509:arch/riscv/mach-gd32vf10x/bsp/gd32vf103_usart.c ****     \retval     none
 510:arch/riscv/mach-gd32vf10x/bsp/gd32vf103_usart.c **** */
 511:arch/riscv/mach-gd32vf10x/bsp/gd32vf103_usart.c **** void usart_irda_mode_disable(uint32_t usart_periph)
 512:arch/riscv/mach-gd32vf10x/bsp/gd32vf103_usart.c **** {
 922              		.loc 1 512 1 is_stmt 1
 923              		.cfi_startproc
GAS LISTING C:\Users\test\AppData\Local\Temp\ccjHsQYj.s 			page 26


 924              	.LVL74:
 513:arch/riscv/mach-gd32vf10x/bsp/gd32vf103_usart.c ****     USART_CTL2(usart_periph) &= ~(USART_CTL2_IREN);
 925              		.loc 1 513 5
 926              		.loc 1 513 30 is_stmt 0
 927 0000 5C49     		lw	a5,20(a0)
 928 0002 F59B     		andi	a5,a5,-3
 929 0004 5CC9     		sw	a5,20(a0)
 514:arch/riscv/mach-gd32vf10x/bsp/gd32vf103_usart.c **** }
 930              		.loc 1 514 1
 931 0006 8280     		ret
 932              		.cfi_endproc
 933              	.LFE32:
 935              		.section	.text.usart_prescaler_config,"ax",@progbits
 936              		.align	1
 937              		.globl	usart_prescaler_config
 939              	usart_prescaler_config:
 940              	.LFB33:
 515:arch/riscv/mach-gd32vf10x/bsp/gd32vf103_usart.c **** 
 516:arch/riscv/mach-gd32vf10x/bsp/gd32vf103_usart.c **** /*!
 517:arch/riscv/mach-gd32vf10x/bsp/gd32vf103_usart.c ****     \brief      configure the peripheral clock prescaler in USART IrDA low-power mode
 518:arch/riscv/mach-gd32vf10x/bsp/gd32vf103_usart.c ****     \param[in]  usart_periph: USARTx(x=0,1,2)/UARTx(x=3,4)
 519:arch/riscv/mach-gd32vf10x/bsp/gd32vf103_usart.c ****     \param[in]  psc: 0x00-0xFF
 520:arch/riscv/mach-gd32vf10x/bsp/gd32vf103_usart.c ****     \param[out] none
 521:arch/riscv/mach-gd32vf10x/bsp/gd32vf103_usart.c ****     \retval     none
 522:arch/riscv/mach-gd32vf10x/bsp/gd32vf103_usart.c **** */
 523:arch/riscv/mach-gd32vf10x/bsp/gd32vf103_usart.c **** void usart_prescaler_config(uint32_t usart_periph, uint8_t psc)
 524:arch/riscv/mach-gd32vf10x/bsp/gd32vf103_usart.c **** {
 941              		.loc 1 524 1 is_stmt 1
 942              		.cfi_startproc
 943              	.LVL75:
 525:arch/riscv/mach-gd32vf10x/bsp/gd32vf103_usart.c ****     USART_GP(usart_periph) &= ~(USART_GP_PSC);
 944              		.loc 1 525 5
 945              		.loc 1 525 28 is_stmt 0
 946 0000 1C4D     		lw	a5,24(a0)
 947 0002 93F707F0 		andi	a5,a5,-256
 948 0006 1CCD     		sw	a5,24(a0)
 526:arch/riscv/mach-gd32vf10x/bsp/gd32vf103_usart.c ****     USART_GP(usart_periph) |= psc;
 949              		.loc 1 526 5 is_stmt 1
 950              		.loc 1 526 28 is_stmt 0
 951 0008 1C4D     		lw	a5,24(a0)
 952 000a DD8D     		or	a1,a1,a5
 953              	.LVL76:
 954 000c 0CCD     		sw	a1,24(a0)
 527:arch/riscv/mach-gd32vf10x/bsp/gd32vf103_usart.c **** }
 955              		.loc 1 527 1
 956 000e 8280     		ret
 957              		.cfi_endproc
 958              	.LFE33:
 960              		.section	.text.usart_irda_lowpower_config,"ax",@progbits
 961              		.align	1
 962              		.globl	usart_irda_lowpower_config
 964              	usart_irda_lowpower_config:
 965              	.LFB34:
 528:arch/riscv/mach-gd32vf10x/bsp/gd32vf103_usart.c **** 
 529:arch/riscv/mach-gd32vf10x/bsp/gd32vf103_usart.c **** /*!
 530:arch/riscv/mach-gd32vf10x/bsp/gd32vf103_usart.c ****     \brief      configure IrDA low-power
 531:arch/riscv/mach-gd32vf10x/bsp/gd32vf103_usart.c ****     \param[in]  usart_periph: USARTx(x=0,1,2)/UARTx(x=3,4)
GAS LISTING C:\Users\test\AppData\Local\Temp\ccjHsQYj.s 			page 27


 532:arch/riscv/mach-gd32vf10x/bsp/gd32vf103_usart.c ****     \param[in]  irlp: IrDA low-power or normal
 533:arch/riscv/mach-gd32vf10x/bsp/gd32vf103_usart.c ****                 only one parameter can be selected which is shown as below:
 534:arch/riscv/mach-gd32vf10x/bsp/gd32vf103_usart.c ****       \arg        USART_IRLP_LOW: low-power
 535:arch/riscv/mach-gd32vf10x/bsp/gd32vf103_usart.c ****       \arg        USART_IRLP_NORMAL: normal
 536:arch/riscv/mach-gd32vf10x/bsp/gd32vf103_usart.c ****     \param[out] none
 537:arch/riscv/mach-gd32vf10x/bsp/gd32vf103_usart.c ****     \retval     none
 538:arch/riscv/mach-gd32vf10x/bsp/gd32vf103_usart.c **** */
 539:arch/riscv/mach-gd32vf10x/bsp/gd32vf103_usart.c **** void usart_irda_lowpower_config(uint32_t usart_periph, uint32_t irlp)
 540:arch/riscv/mach-gd32vf10x/bsp/gd32vf103_usart.c **** {
 966              		.loc 1 540 1 is_stmt 1
 967              		.cfi_startproc
 968              	.LVL77:
 541:arch/riscv/mach-gd32vf10x/bsp/gd32vf103_usart.c ****     USART_CTL2(usart_periph) &= ~(USART_CTL2_IRLP);
 969              		.loc 1 541 5
 970              		.loc 1 541 30 is_stmt 0
 971 0000 5C49     		lw	a5,20(a0)
 542:arch/riscv/mach-gd32vf10x/bsp/gd32vf103_usart.c ****     USART_CTL2(usart_periph) |= (USART_CTL2_IRLP & irlp);
 972              		.loc 1 542 50
 973 0002 9189     		andi	a1,a1,4
 974              	.LVL78:
 541:arch/riscv/mach-gd32vf10x/bsp/gd32vf103_usart.c ****     USART_CTL2(usart_periph) &= ~(USART_CTL2_IRLP);
 975              		.loc 1 541 30
 976 0004 ED9B     		andi	a5,a5,-5
 977 0006 5CC9     		sw	a5,20(a0)
 978              		.loc 1 542 5 is_stmt 1
 979              		.loc 1 542 30 is_stmt 0
 980 0008 5C49     		lw	a5,20(a0)
 981 000a DD8D     		or	a1,a1,a5
 982 000c 4CC9     		sw	a1,20(a0)
 543:arch/riscv/mach-gd32vf10x/bsp/gd32vf103_usart.c **** }
 983              		.loc 1 543 1
 984 000e 8280     		ret
 985              		.cfi_endproc
 986              	.LFE34:
 988              		.section	.text.usart_hardware_flow_rts_config,"ax",@progbits
 989              		.align	1
 990              		.globl	usart_hardware_flow_rts_config
 992              	usart_hardware_flow_rts_config:
 993              	.LFB35:
 544:arch/riscv/mach-gd32vf10x/bsp/gd32vf103_usart.c **** 
 545:arch/riscv/mach-gd32vf10x/bsp/gd32vf103_usart.c **** /*!
 546:arch/riscv/mach-gd32vf10x/bsp/gd32vf103_usart.c ****     \brief      configure hardware flow control RTS
 547:arch/riscv/mach-gd32vf10x/bsp/gd32vf103_usart.c ****     \param[in]  usart_periph: USARTx(x=0,1,2)
 548:arch/riscv/mach-gd32vf10x/bsp/gd32vf103_usart.c ****     \param[in]  rtsconfig: enable or disable RTS
 549:arch/riscv/mach-gd32vf10x/bsp/gd32vf103_usart.c ****                 only one parameter can be selected which is shown as below:
 550:arch/riscv/mach-gd32vf10x/bsp/gd32vf103_usart.c ****       \arg        USART_RTS_ENABLE:  enable RTS
 551:arch/riscv/mach-gd32vf10x/bsp/gd32vf103_usart.c ****       \arg        USART_RTS_DISABLE: disable RTS
 552:arch/riscv/mach-gd32vf10x/bsp/gd32vf103_usart.c ****     \param[out] none
 553:arch/riscv/mach-gd32vf10x/bsp/gd32vf103_usart.c ****     \retval     none
 554:arch/riscv/mach-gd32vf10x/bsp/gd32vf103_usart.c **** */
 555:arch/riscv/mach-gd32vf10x/bsp/gd32vf103_usart.c **** void usart_hardware_flow_rts_config(uint32_t usart_periph, uint32_t rtsconfig)
 556:arch/riscv/mach-gd32vf10x/bsp/gd32vf103_usart.c **** {
 994              		.loc 1 556 1 is_stmt 1
 995              		.cfi_startproc
 996              	.LVL79:
 557:arch/riscv/mach-gd32vf10x/bsp/gd32vf103_usart.c ****     uint32_t ctl = 0U;
 997              		.loc 1 557 5
GAS LISTING C:\Users\test\AppData\Local\Temp\ccjHsQYj.s 			page 28


 558:arch/riscv/mach-gd32vf10x/bsp/gd32vf103_usart.c ****     
 559:arch/riscv/mach-gd32vf10x/bsp/gd32vf103_usart.c ****     ctl = USART_CTL2(usart_periph);
 998              		.loc 1 559 5
 999              		.loc 1 559 9 is_stmt 0
 1000 0000 5C49     		lw	a5,20(a0)
 1001              	.LVL80:
 560:arch/riscv/mach-gd32vf10x/bsp/gd32vf103_usart.c ****     ctl &= ~USART_CTL2_RTSEN;
 1002              		.loc 1 560 5 is_stmt 1
 1003              		.loc 1 560 9 is_stmt 0
 1004 0002 93F7F7EF 		andi	a5,a5,-257
 1005              	.LVL81:
 561:arch/riscv/mach-gd32vf10x/bsp/gd32vf103_usart.c ****     ctl |= rtsconfig;
 1006              		.loc 1 561 5 is_stmt 1
 1007              		.loc 1 561 9 is_stmt 0
 1008 0006 DD8D     		or	a1,a5,a1
 1009              	.LVL82:
 562:arch/riscv/mach-gd32vf10x/bsp/gd32vf103_usart.c ****     /* configure RTS */
 563:arch/riscv/mach-gd32vf10x/bsp/gd32vf103_usart.c ****     USART_CTL2(usart_periph) = ctl;
 1010              		.loc 1 563 5 is_stmt 1
 1011              		.loc 1 563 30 is_stmt 0
 1012 0008 4CC9     		sw	a1,20(a0)
 564:arch/riscv/mach-gd32vf10x/bsp/gd32vf103_usart.c **** }
 1013              		.loc 1 564 1
 1014 000a 8280     		ret
 1015              		.cfi_endproc
 1016              	.LFE35:
 1018              		.section	.text.usart_hardware_flow_cts_config,"ax",@progbits
 1019              		.align	1
 1020              		.globl	usart_hardware_flow_cts_config
 1022              	usart_hardware_flow_cts_config:
 1023              	.LFB36:
 565:arch/riscv/mach-gd32vf10x/bsp/gd32vf103_usart.c **** 
 566:arch/riscv/mach-gd32vf10x/bsp/gd32vf103_usart.c **** /*!
 567:arch/riscv/mach-gd32vf10x/bsp/gd32vf103_usart.c ****     \brief      configure hardware flow control CTS
 568:arch/riscv/mach-gd32vf10x/bsp/gd32vf103_usart.c ****     \param[in]  usart_periph: USARTx(x=0,1,2)
 569:arch/riscv/mach-gd32vf10x/bsp/gd32vf103_usart.c ****     \param[in]  ctsconfig: enable or disable CTS
 570:arch/riscv/mach-gd32vf10x/bsp/gd32vf103_usart.c ****                 only one parameter can be selected which is shown as below:
 571:arch/riscv/mach-gd32vf10x/bsp/gd32vf103_usart.c ****       \arg        USART_CTS_ENABLE:  enable CTS
 572:arch/riscv/mach-gd32vf10x/bsp/gd32vf103_usart.c ****       \arg        USART_CTS_DISABLE: disable CTS
 573:arch/riscv/mach-gd32vf10x/bsp/gd32vf103_usart.c ****     \param[out] none
 574:arch/riscv/mach-gd32vf10x/bsp/gd32vf103_usart.c ****     \retval     none
 575:arch/riscv/mach-gd32vf10x/bsp/gd32vf103_usart.c **** */
 576:arch/riscv/mach-gd32vf10x/bsp/gd32vf103_usart.c **** void usart_hardware_flow_cts_config(uint32_t usart_periph, uint32_t ctsconfig)
 577:arch/riscv/mach-gd32vf10x/bsp/gd32vf103_usart.c **** {
 1024              		.loc 1 577 1 is_stmt 1
 1025              		.cfi_startproc
 1026              	.LVL83:
 578:arch/riscv/mach-gd32vf10x/bsp/gd32vf103_usart.c ****     uint32_t ctl = 0U;
 1027              		.loc 1 578 5
 579:arch/riscv/mach-gd32vf10x/bsp/gd32vf103_usart.c ****     
 580:arch/riscv/mach-gd32vf10x/bsp/gd32vf103_usart.c ****     ctl = USART_CTL2(usart_periph);
 1028              		.loc 1 580 5
 1029              		.loc 1 580 9 is_stmt 0
 1030 0000 5C49     		lw	a5,20(a0)
 1031              	.LVL84:
 581:arch/riscv/mach-gd32vf10x/bsp/gd32vf103_usart.c ****     ctl &= ~USART_CTL2_CTSEN;
 1032              		.loc 1 581 5 is_stmt 1
GAS LISTING C:\Users\test\AppData\Local\Temp\ccjHsQYj.s 			page 29


 1033              		.loc 1 581 9 is_stmt 0
 1034 0002 93F7F7DF 		andi	a5,a5,-513
 1035              	.LVL85:
 582:arch/riscv/mach-gd32vf10x/bsp/gd32vf103_usart.c ****     ctl |= ctsconfig;
 1036              		.loc 1 582 5 is_stmt 1
 1037              		.loc 1 582 9 is_stmt 0
 1038 0006 DD8D     		or	a1,a5,a1
 1039              	.LVL86:
 583:arch/riscv/mach-gd32vf10x/bsp/gd32vf103_usart.c ****     /* configure CTS */
 584:arch/riscv/mach-gd32vf10x/bsp/gd32vf103_usart.c ****     USART_CTL2(usart_periph) = ctl;
 1040              		.loc 1 584 5 is_stmt 1
 1041              		.loc 1 584 30 is_stmt 0
 1042 0008 4CC9     		sw	a1,20(a0)
 585:arch/riscv/mach-gd32vf10x/bsp/gd32vf103_usart.c **** }
 1043              		.loc 1 585 1
 1044 000a 8280     		ret
 1045              		.cfi_endproc
 1046              	.LFE36:
 1048              		.section	.text.usart_dma_receive_config,"ax",@progbits
 1049              		.align	1
 1050              		.globl	usart_dma_receive_config
 1052              	usart_dma_receive_config:
 1053              	.LFB37:
 586:arch/riscv/mach-gd32vf10x/bsp/gd32vf103_usart.c **** 
 587:arch/riscv/mach-gd32vf10x/bsp/gd32vf103_usart.c **** /*!
 588:arch/riscv/mach-gd32vf10x/bsp/gd32vf103_usart.c ****     \brief      configure USART DMA reception
 589:arch/riscv/mach-gd32vf10x/bsp/gd32vf103_usart.c ****     \param[in]  usart_periph: USARTx(x=0,1,2)/UARTx(x=3)
 590:arch/riscv/mach-gd32vf10x/bsp/gd32vf103_usart.c ****     \param[in]  dmacmd: enable or disable DMA for reception
 591:arch/riscv/mach-gd32vf10x/bsp/gd32vf103_usart.c ****                 only one parameter can be selected which is shown as below:
 592:arch/riscv/mach-gd32vf10x/bsp/gd32vf103_usart.c ****       \arg        USART_DENR_ENABLE:  DMA enable for reception
 593:arch/riscv/mach-gd32vf10x/bsp/gd32vf103_usart.c ****       \arg        USART_DENR_DISABLE: DMA disable for reception
 594:arch/riscv/mach-gd32vf10x/bsp/gd32vf103_usart.c ****     \param[out] none
 595:arch/riscv/mach-gd32vf10x/bsp/gd32vf103_usart.c ****     \retval     none
 596:arch/riscv/mach-gd32vf10x/bsp/gd32vf103_usart.c **** */
 597:arch/riscv/mach-gd32vf10x/bsp/gd32vf103_usart.c **** void usart_dma_receive_config(uint32_t usart_periph, uint32_t dmacmd)
 598:arch/riscv/mach-gd32vf10x/bsp/gd32vf103_usart.c **** {
 1054              		.loc 1 598 1 is_stmt 1
 1055              		.cfi_startproc
 1056              	.LVL87:
 599:arch/riscv/mach-gd32vf10x/bsp/gd32vf103_usart.c ****     uint32_t ctl = 0U;
 1057              		.loc 1 599 5
 600:arch/riscv/mach-gd32vf10x/bsp/gd32vf103_usart.c ****     
 601:arch/riscv/mach-gd32vf10x/bsp/gd32vf103_usart.c ****     ctl = USART_CTL2(usart_periph);
 1058              		.loc 1 601 5
 1059              		.loc 1 601 9 is_stmt 0
 1060 0000 5C49     		lw	a5,20(a0)
 1061              	.LVL88:
 602:arch/riscv/mach-gd32vf10x/bsp/gd32vf103_usart.c ****     ctl &= ~USART_CTL2_DENR;
 1062              		.loc 1 602 5 is_stmt 1
 1063              		.loc 1 602 9 is_stmt 0
 1064 0002 93F7F7FB 		andi	a5,a5,-65
 1065              	.LVL89:
 603:arch/riscv/mach-gd32vf10x/bsp/gd32vf103_usart.c ****     ctl |= dmacmd;
 1066              		.loc 1 603 5 is_stmt 1
 1067              		.loc 1 603 9 is_stmt 0
 1068 0006 DD8D     		or	a1,a5,a1
 1069              	.LVL90:
GAS LISTING C:\Users\test\AppData\Local\Temp\ccjHsQYj.s 			page 30


 604:arch/riscv/mach-gd32vf10x/bsp/gd32vf103_usart.c ****     /* configure DMA reception */
 605:arch/riscv/mach-gd32vf10x/bsp/gd32vf103_usart.c ****     USART_CTL2(usart_periph) = ctl;
 1070              		.loc 1 605 5 is_stmt 1
 1071              		.loc 1 605 30 is_stmt 0
 1072 0008 4CC9     		sw	a1,20(a0)
 606:arch/riscv/mach-gd32vf10x/bsp/gd32vf103_usart.c **** }
 1073              		.loc 1 606 1
 1074 000a 8280     		ret
 1075              		.cfi_endproc
 1076              	.LFE37:
 1078              		.section	.text.usart_dma_transmit_config,"ax",@progbits
 1079              		.align	1
 1080              		.globl	usart_dma_transmit_config
 1082              	usart_dma_transmit_config:
 1083              	.LFB38:
 607:arch/riscv/mach-gd32vf10x/bsp/gd32vf103_usart.c **** 
 608:arch/riscv/mach-gd32vf10x/bsp/gd32vf103_usart.c **** /*!
 609:arch/riscv/mach-gd32vf10x/bsp/gd32vf103_usart.c ****     \brief      configure USART DMA transmission
 610:arch/riscv/mach-gd32vf10x/bsp/gd32vf103_usart.c ****     \param[in]  usart_periph: USARTx(x=0,1,2)/UARTx(x=3)
 611:arch/riscv/mach-gd32vf10x/bsp/gd32vf103_usart.c ****     \param[in]  dmacmd: enable or disable DMA for transmission
 612:arch/riscv/mach-gd32vf10x/bsp/gd32vf103_usart.c ****                 only one parameter can be selected which is shown as below:
 613:arch/riscv/mach-gd32vf10x/bsp/gd32vf103_usart.c ****       \arg        USART_DENT_ENABLE:  DMA enable for transmission
 614:arch/riscv/mach-gd32vf10x/bsp/gd32vf103_usart.c ****       \arg        USART_DENT_DISABLE: DMA disable for transmission
 615:arch/riscv/mach-gd32vf10x/bsp/gd32vf103_usart.c ****     \param[out] none
 616:arch/riscv/mach-gd32vf10x/bsp/gd32vf103_usart.c ****     \retval     none
 617:arch/riscv/mach-gd32vf10x/bsp/gd32vf103_usart.c **** */
 618:arch/riscv/mach-gd32vf10x/bsp/gd32vf103_usart.c **** void usart_dma_transmit_config(uint32_t usart_periph, uint32_t dmacmd)
 619:arch/riscv/mach-gd32vf10x/bsp/gd32vf103_usart.c **** {
 1084              		.loc 1 619 1 is_stmt 1
 1085              		.cfi_startproc
 1086              	.LVL91:
 620:arch/riscv/mach-gd32vf10x/bsp/gd32vf103_usart.c ****     uint32_t ctl = 0U;
 1087              		.loc 1 620 5
 621:arch/riscv/mach-gd32vf10x/bsp/gd32vf103_usart.c ****     
 622:arch/riscv/mach-gd32vf10x/bsp/gd32vf103_usart.c ****     ctl = USART_CTL2(usart_periph);
 1088              		.loc 1 622 5
 1089              		.loc 1 622 9 is_stmt 0
 1090 0000 5C49     		lw	a5,20(a0)
 1091              	.LVL92:
 623:arch/riscv/mach-gd32vf10x/bsp/gd32vf103_usart.c ****     ctl &= ~USART_CTL2_DENT;
 1092              		.loc 1 623 5 is_stmt 1
 1093              		.loc 1 623 9 is_stmt 0
 1094 0002 93F7F7F7 		andi	a5,a5,-129
 1095              	.LVL93:
 624:arch/riscv/mach-gd32vf10x/bsp/gd32vf103_usart.c ****     ctl |= dmacmd;
 1096              		.loc 1 624 5 is_stmt 1
 1097              		.loc 1 624 9 is_stmt 0
 1098 0006 DD8D     		or	a1,a5,a1
 1099              	.LVL94:
 625:arch/riscv/mach-gd32vf10x/bsp/gd32vf103_usart.c ****     /* configure DMA transmission */
 626:arch/riscv/mach-gd32vf10x/bsp/gd32vf103_usart.c ****     USART_CTL2(usart_periph) = ctl;
 1100              		.loc 1 626 5 is_stmt 1
 1101              		.loc 1 626 30 is_stmt 0
 1102 0008 4CC9     		sw	a1,20(a0)
 627:arch/riscv/mach-gd32vf10x/bsp/gd32vf103_usart.c **** }
 1103              		.loc 1 627 1
 1104 000a 8280     		ret
GAS LISTING C:\Users\test\AppData\Local\Temp\ccjHsQYj.s 			page 31


 1105              		.cfi_endproc
 1106              	.LFE38:
 1108              		.section	.text.usart_flag_get,"ax",@progbits
 1109              		.align	1
 1110              		.globl	usart_flag_get
 1112              	usart_flag_get:
 1113              	.LFB39:
 628:arch/riscv/mach-gd32vf10x/bsp/gd32vf103_usart.c **** 
 629:arch/riscv/mach-gd32vf10x/bsp/gd32vf103_usart.c **** /*!
 630:arch/riscv/mach-gd32vf10x/bsp/gd32vf103_usart.c ****     \brief      get flag in STAT register
 631:arch/riscv/mach-gd32vf10x/bsp/gd32vf103_usart.c ****     \param[in]  usart_periph: USARTx(x=0,1,2)/UARTx(x=3,4)
 632:arch/riscv/mach-gd32vf10x/bsp/gd32vf103_usart.c ****     \param[in]  flag: USART flags, refer to usart_flag_enum
 633:arch/riscv/mach-gd32vf10x/bsp/gd32vf103_usart.c ****                 only one parameter can be selected which is shown as below:
 634:arch/riscv/mach-gd32vf10x/bsp/gd32vf103_usart.c ****       \arg        USART_FLAG_CTSF: CTS change flag
 635:arch/riscv/mach-gd32vf10x/bsp/gd32vf103_usart.c ****       \arg        USART_FLAG_LBDF: LIN break detected flag 
 636:arch/riscv/mach-gd32vf10x/bsp/gd32vf103_usart.c ****       \arg        USART_FLAG_TBE: transmit data buffer empty 
 637:arch/riscv/mach-gd32vf10x/bsp/gd32vf103_usart.c ****       \arg        USART_FLAG_TC: transmission complete 
 638:arch/riscv/mach-gd32vf10x/bsp/gd32vf103_usart.c ****       \arg        USART_FLAG_RBNE: read data buffer not empty 
 639:arch/riscv/mach-gd32vf10x/bsp/gd32vf103_usart.c ****       \arg        USART_FLAG_IDLEF: IDLE frame detected flag 
 640:arch/riscv/mach-gd32vf10x/bsp/gd32vf103_usart.c ****       \arg        USART_FLAG_ORERR: overrun error 
 641:arch/riscv/mach-gd32vf10x/bsp/gd32vf103_usart.c ****       \arg        USART_FLAG_NERR: noise error flag 
 642:arch/riscv/mach-gd32vf10x/bsp/gd32vf103_usart.c ****       \arg        USART_FLAG_FERR: frame error flag 
 643:arch/riscv/mach-gd32vf10x/bsp/gd32vf103_usart.c ****       \arg        USART_FLAG_PERR: parity error flag 
 644:arch/riscv/mach-gd32vf10x/bsp/gd32vf103_usart.c ****     \param[out] none
 645:arch/riscv/mach-gd32vf10x/bsp/gd32vf103_usart.c ****     \retval     FlagStatus: SET or RESET
 646:arch/riscv/mach-gd32vf10x/bsp/gd32vf103_usart.c **** */
 647:arch/riscv/mach-gd32vf10x/bsp/gd32vf103_usart.c **** FlagStatus usart_flag_get(uint32_t usart_periph, usart_flag_enum flag)
 648:arch/riscv/mach-gd32vf10x/bsp/gd32vf103_usart.c **** {
 1114              		.loc 1 648 1 is_stmt 1
 1115              		.cfi_startproc
 1116              	.LVL95:
 649:arch/riscv/mach-gd32vf10x/bsp/gd32vf103_usart.c ****     if(RESET != (USART_REG_VAL(usart_periph, flag) & BIT(USART_BIT_POS(flag)))){
 1117              		.loc 1 649 5
 1118              		.loc 1 649 18 is_stmt 0
 1119 0000 93D76500 		srli	a5,a1,6
 1120 0004 93F7F73F 		andi	a5,a5,1023
 1121 0008 3E95     		add	a0,a5,a0
 1122              	.LVL96:
 1123 000a 0841     		lw	a0,0(a0)
 1124              		.loc 1 649 14
 1125 000c 3355B500 		srl	a0,a0,a1
 650:arch/riscv/mach-gd32vf10x/bsp/gd32vf103_usart.c ****         return SET;
 651:arch/riscv/mach-gd32vf10x/bsp/gd32vf103_usart.c ****     }else{
 652:arch/riscv/mach-gd32vf10x/bsp/gd32vf103_usart.c ****         return RESET;
 653:arch/riscv/mach-gd32vf10x/bsp/gd32vf103_usart.c ****     }
 654:arch/riscv/mach-gd32vf10x/bsp/gd32vf103_usart.c **** }
 1126              		.loc 1 654 1
 1127 0010 0589     		andi	a0,a0,1
 1128 0012 8280     		ret
 1129              		.cfi_endproc
 1130              	.LFE39:
 1132              		.section	.text.usart_flag_clear,"ax",@progbits
 1133              		.align	1
 1134              		.globl	usart_flag_clear
 1136              	usart_flag_clear:
 1137              	.LFB40:
 655:arch/riscv/mach-gd32vf10x/bsp/gd32vf103_usart.c **** 
GAS LISTING C:\Users\test\AppData\Local\Temp\ccjHsQYj.s 			page 32


 656:arch/riscv/mach-gd32vf10x/bsp/gd32vf103_usart.c **** /*!
 657:arch/riscv/mach-gd32vf10x/bsp/gd32vf103_usart.c ****     \brief      clear flag in STAT register
 658:arch/riscv/mach-gd32vf10x/bsp/gd32vf103_usart.c ****     \param[in]  usart_periph: USARTx(x=0,1,2)/UARTx(x=3,4)
 659:arch/riscv/mach-gd32vf10x/bsp/gd32vf103_usart.c ****     \param[in]  flag: USART flags, refer to usart_flag_enum
 660:arch/riscv/mach-gd32vf10x/bsp/gd32vf103_usart.c ****                 only one parameter can be selected which is shown as below:
 661:arch/riscv/mach-gd32vf10x/bsp/gd32vf103_usart.c ****       \arg        USART_FLAG_CTSF: CTS change flag
 662:arch/riscv/mach-gd32vf10x/bsp/gd32vf103_usart.c ****       \arg        USART_FLAG_LBDF: LIN break detected flag
 663:arch/riscv/mach-gd32vf10x/bsp/gd32vf103_usart.c ****       \arg        USART_FLAG_TC: transmission complete
 664:arch/riscv/mach-gd32vf10x/bsp/gd32vf103_usart.c ****       \arg        USART_FLAG_RBNE: read data buffer not empty
 665:arch/riscv/mach-gd32vf10x/bsp/gd32vf103_usart.c ****     \param[out] none
 666:arch/riscv/mach-gd32vf10x/bsp/gd32vf103_usart.c ****     \retval     none
 667:arch/riscv/mach-gd32vf10x/bsp/gd32vf103_usart.c **** */
 668:arch/riscv/mach-gd32vf10x/bsp/gd32vf103_usart.c **** void usart_flag_clear(uint32_t usart_periph, usart_flag_enum flag)
 669:arch/riscv/mach-gd32vf10x/bsp/gd32vf103_usart.c **** {
 1138              		.loc 1 669 1 is_stmt 1
 1139              		.cfi_startproc
 1140              	.LVL97:
 670:arch/riscv/mach-gd32vf10x/bsp/gd32vf103_usart.c ****     USART_REG_VAL(usart_periph, flag) &= ~BIT(USART_BIT_POS(flag));
 1141              		.loc 1 670 5
 1142              		.loc 1 670 39 is_stmt 0
 1143 0000 13D76500 		srli	a4,a1,6
 1144 0004 1377F73F 		andi	a4,a4,1023
 1145 0008 3A95     		add	a0,a4,a0
 1146              	.LVL98:
 1147 000a 1841     		lw	a4,0(a0)
 1148              		.loc 1 670 43
 1149 000c 8547     		li	a5,1
 1150 000e B397B700 		sll	a5,a5,a1
 1151              		.loc 1 670 42
 1152 0012 93C7F7FF 		not	a5,a5
 1153              		.loc 1 670 39
 1154 0016 F98F     		and	a5,a5,a4
 1155 0018 1CC1     		sw	a5,0(a0)
 671:arch/riscv/mach-gd32vf10x/bsp/gd32vf103_usart.c **** }
 1156              		.loc 1 671 1
 1157 001a 8280     		ret
 1158              		.cfi_endproc
 1159              	.LFE40:
 1161              		.section	.text.usart_interrupt_enable,"ax",@progbits
 1162              		.align	1
 1163              		.globl	usart_interrupt_enable
 1165              	usart_interrupt_enable:
 1166              	.LFB41:
 672:arch/riscv/mach-gd32vf10x/bsp/gd32vf103_usart.c **** 
 673:arch/riscv/mach-gd32vf10x/bsp/gd32vf103_usart.c **** /*!
 674:arch/riscv/mach-gd32vf10x/bsp/gd32vf103_usart.c ****     \brief      enable USART interrupt
 675:arch/riscv/mach-gd32vf10x/bsp/gd32vf103_usart.c ****      \param[in]  usart_periph: USARTx(x=0,1,2)/UARTx(x=3,4)
 676:arch/riscv/mach-gd32vf10x/bsp/gd32vf103_usart.c ****     \param[in]  int_flag
 677:arch/riscv/mach-gd32vf10x/bsp/gd32vf103_usart.c ****                 only one parameter can be selected which is shown as below:
 678:arch/riscv/mach-gd32vf10x/bsp/gd32vf103_usart.c ****       \arg        USART_INT_PERR: parity error interrupt
 679:arch/riscv/mach-gd32vf10x/bsp/gd32vf103_usart.c ****       \arg        USART_INT_TBE: transmitter buffer empty interrupt
 680:arch/riscv/mach-gd32vf10x/bsp/gd32vf103_usart.c ****       \arg        USART_INT_TC: transmission complete interrupt
 681:arch/riscv/mach-gd32vf10x/bsp/gd32vf103_usart.c ****       \arg        USART_INT_RBNE: read data buffer not empty interrupt and overrun error interrupt
 682:arch/riscv/mach-gd32vf10x/bsp/gd32vf103_usart.c ****       \arg        USART_INT_IDLE: IDLE line detected interrupt
 683:arch/riscv/mach-gd32vf10x/bsp/gd32vf103_usart.c ****       \arg        USART_INT_LBD: LIN break detected interrupt
 684:arch/riscv/mach-gd32vf10x/bsp/gd32vf103_usart.c ****       \arg        USART_INT_ERR: error interrupt
 685:arch/riscv/mach-gd32vf10x/bsp/gd32vf103_usart.c ****       \arg        USART_INT_CTS: CTS interrupt
GAS LISTING C:\Users\test\AppData\Local\Temp\ccjHsQYj.s 			page 33


 686:arch/riscv/mach-gd32vf10x/bsp/gd32vf103_usart.c ****     \param[out] none
 687:arch/riscv/mach-gd32vf10x/bsp/gd32vf103_usart.c ****     \retval     none
 688:arch/riscv/mach-gd32vf10x/bsp/gd32vf103_usart.c **** */
 689:arch/riscv/mach-gd32vf10x/bsp/gd32vf103_usart.c **** void usart_interrupt_enable(uint32_t usart_periph, uint32_t int_flag)
 690:arch/riscv/mach-gd32vf10x/bsp/gd32vf103_usart.c **** {
 1167              		.loc 1 690 1 is_stmt 1
 1168              		.cfi_startproc
 1169              	.LVL99:
 691:arch/riscv/mach-gd32vf10x/bsp/gd32vf103_usart.c ****     USART_REG_VAL(usart_periph, int_flag) |= BIT(USART_BIT_POS(int_flag));
 1170              		.loc 1 691 5
 1171              		.loc 1 691 43 is_stmt 0
 1172 0000 93D76500 		srli	a5,a1,6
 1173 0004 93F7F73F 		andi	a5,a5,1023
 1174 0008 3E95     		add	a0,a5,a0
 1175              	.LVL100:
 1176 000a 1841     		lw	a4,0(a0)
 1177              		.loc 1 691 46
 1178 000c 8547     		li	a5,1
 1179 000e B397B700 		sll	a5,a5,a1
 1180              		.loc 1 691 43
 1181 0012 D98F     		or	a5,a5,a4
 1182 0014 1CC1     		sw	a5,0(a0)
 692:arch/riscv/mach-gd32vf10x/bsp/gd32vf103_usart.c **** }
 1183              		.loc 1 692 1
 1184 0016 8280     		ret
 1185              		.cfi_endproc
 1186              	.LFE41:
 1188              		.section	.text.usart_interrupt_disable,"ax",@progbits
 1189              		.align	1
 1190              		.globl	usart_interrupt_disable
 1192              	usart_interrupt_disable:
 1193              	.LFB42:
 693:arch/riscv/mach-gd32vf10x/bsp/gd32vf103_usart.c **** 
 694:arch/riscv/mach-gd32vf10x/bsp/gd32vf103_usart.c **** /*!
 695:arch/riscv/mach-gd32vf10x/bsp/gd32vf103_usart.c ****     \brief      disable USART interrupt
 696:arch/riscv/mach-gd32vf10x/bsp/gd32vf103_usart.c ****      \param[in]  usart_periph: USARTx(x=0,1,2)/UARTx(x=3,4)
 697:arch/riscv/mach-gd32vf10x/bsp/gd32vf103_usart.c ****     \param[in]  int_flag
 698:arch/riscv/mach-gd32vf10x/bsp/gd32vf103_usart.c ****                 only one parameter can be selected which is shown as below:
 699:arch/riscv/mach-gd32vf10x/bsp/gd32vf103_usart.c ****       \arg        USART_INT_PERR: parity error interrupt
 700:arch/riscv/mach-gd32vf10x/bsp/gd32vf103_usart.c ****       \arg        USART_INT_TBE: transmitter buffer empty interrupt
 701:arch/riscv/mach-gd32vf10x/bsp/gd32vf103_usart.c ****       \arg        USART_INT_TC: transmission complete interrupt
 702:arch/riscv/mach-gd32vf10x/bsp/gd32vf103_usart.c ****       \arg        USART_INT_RBNE: read data buffer not empty interrupt and overrun error interrupt
 703:arch/riscv/mach-gd32vf10x/bsp/gd32vf103_usart.c ****       \arg        USART_INT_IDLE: IDLE line detected interrupt
 704:arch/riscv/mach-gd32vf10x/bsp/gd32vf103_usart.c ****       \arg        USART_INT_LBD: LIN break detected interrupt
 705:arch/riscv/mach-gd32vf10x/bsp/gd32vf103_usart.c ****       \arg        USART_INT_ERR: error interrupt
 706:arch/riscv/mach-gd32vf10x/bsp/gd32vf103_usart.c ****       \arg        USART_INT_CTS: CTS interrupt
 707:arch/riscv/mach-gd32vf10x/bsp/gd32vf103_usart.c ****     \param[out] none
 708:arch/riscv/mach-gd32vf10x/bsp/gd32vf103_usart.c ****     \retval     none
 709:arch/riscv/mach-gd32vf10x/bsp/gd32vf103_usart.c **** */
 710:arch/riscv/mach-gd32vf10x/bsp/gd32vf103_usart.c **** void usart_interrupt_disable(uint32_t usart_periph, uint32_t int_flag)
 711:arch/riscv/mach-gd32vf10x/bsp/gd32vf103_usart.c **** {
 1194              		.loc 1 711 1 is_stmt 1
 1195              		.cfi_startproc
 1196              	.LVL101:
 712:arch/riscv/mach-gd32vf10x/bsp/gd32vf103_usart.c ****     USART_REG_VAL(usart_periph, int_flag) &= ~BIT(USART_BIT_POS(int_flag));
 1197              		.loc 1 712 5
 1198              		.loc 1 712 43 is_stmt 0
GAS LISTING C:\Users\test\AppData\Local\Temp\ccjHsQYj.s 			page 34


 1199 0000 13D76500 		srli	a4,a1,6
 1200 0004 1377F73F 		andi	a4,a4,1023
 1201 0008 3A95     		add	a0,a4,a0
 1202              	.LVL102:
 1203 000a 1841     		lw	a4,0(a0)
 1204              		.loc 1 712 47
 1205 000c 8547     		li	a5,1
 1206 000e B397B700 		sll	a5,a5,a1
 1207              		.loc 1 712 46
 1208 0012 93C7F7FF 		not	a5,a5
 1209              		.loc 1 712 43
 1210 0016 F98F     		and	a5,a5,a4
 1211 0018 1CC1     		sw	a5,0(a0)
 713:arch/riscv/mach-gd32vf10x/bsp/gd32vf103_usart.c **** }
 1212              		.loc 1 713 1
 1213 001a 8280     		ret
 1214              		.cfi_endproc
 1215              	.LFE42:
 1217              		.section	.text.usart_interrupt_flag_get,"ax",@progbits
 1218              		.align	1
 1219              		.globl	usart_interrupt_flag_get
 1221              	usart_interrupt_flag_get:
 1222              	.LFB43:
 714:arch/riscv/mach-gd32vf10x/bsp/gd32vf103_usart.c **** 
 715:arch/riscv/mach-gd32vf10x/bsp/gd32vf103_usart.c **** /*!
 716:arch/riscv/mach-gd32vf10x/bsp/gd32vf103_usart.c ****     \brief      get USART interrupt and flag status
 717:arch/riscv/mach-gd32vf10x/bsp/gd32vf103_usart.c ****      \param[in]  usart_periph: USARTx(x=0,1,2)/UARTx(x=3,4)
 718:arch/riscv/mach-gd32vf10x/bsp/gd32vf103_usart.c ****     \param[in]  int_flag
 719:arch/riscv/mach-gd32vf10x/bsp/gd32vf103_usart.c ****                 only one parameter can be selected which is shown as below:
 720:arch/riscv/mach-gd32vf10x/bsp/gd32vf103_usart.c ****       \arg        USART_INT_FLAG_PERR: parity error interrupt and flag
 721:arch/riscv/mach-gd32vf10x/bsp/gd32vf103_usart.c ****       \arg        USART_INT_FLAG_TBE: transmitter buffer empty interrupt and flag
 722:arch/riscv/mach-gd32vf10x/bsp/gd32vf103_usart.c ****       \arg        USART_INT_FLAG_TC: transmission complete interrupt and flag
 723:arch/riscv/mach-gd32vf10x/bsp/gd32vf103_usart.c ****       \arg        USART_INT_FLAG_RBNE: read data buffer not empty interrupt and flag
 724:arch/riscv/mach-gd32vf10x/bsp/gd32vf103_usart.c ****       \arg        USART_INT_FLAG_RBNE_ORERR: read data buffer not empty interrupt and overrun error
 725:arch/riscv/mach-gd32vf10x/bsp/gd32vf103_usart.c ****       \arg        USART_INT_FLAG_IDLE: IDLE line detected interrupt and flag
 726:arch/riscv/mach-gd32vf10x/bsp/gd32vf103_usart.c ****       \arg        USART_INT_FLAG_LBD: LIN break detected interrupt and flag
 727:arch/riscv/mach-gd32vf10x/bsp/gd32vf103_usart.c ****       \arg        USART_INT_FLAG_CTS: CTS interrupt and flag
 728:arch/riscv/mach-gd32vf10x/bsp/gd32vf103_usart.c ****       \arg        USART_INT_FLAG_ERR_ORERR: error interrupt and overrun error
 729:arch/riscv/mach-gd32vf10x/bsp/gd32vf103_usart.c ****       \arg        USART_INT_FLAG_ERR_NERR: error interrupt and noise error flag
 730:arch/riscv/mach-gd32vf10x/bsp/gd32vf103_usart.c ****       \arg        USART_INT_FLAG_ERR_FERR: error interrupt and frame error flag
 731:arch/riscv/mach-gd32vf10x/bsp/gd32vf103_usart.c ****     \param[out] none
 732:arch/riscv/mach-gd32vf10x/bsp/gd32vf103_usart.c ****     \retval     FlagStatus: SET or RESET
 733:arch/riscv/mach-gd32vf10x/bsp/gd32vf103_usart.c **** */
 734:arch/riscv/mach-gd32vf10x/bsp/gd32vf103_usart.c **** FlagStatus usart_interrupt_flag_get(uint32_t usart_periph, uint32_t int_flag)
 735:arch/riscv/mach-gd32vf10x/bsp/gd32vf103_usart.c **** {
 1223              		.loc 1 735 1 is_stmt 1
 1224              		.cfi_startproc
 1225              	.LVL103:
 736:arch/riscv/mach-gd32vf10x/bsp/gd32vf103_usart.c ****     uint32_t intenable = 0U, flagstatus = 0U;
 1226              		.loc 1 736 5
 737:arch/riscv/mach-gd32vf10x/bsp/gd32vf103_usart.c ****     /* get the interrupt enable bit status */
 738:arch/riscv/mach-gd32vf10x/bsp/gd32vf103_usart.c ****     intenable = (USART_REG_VAL(usart_periph, int_flag) & BIT(USART_BIT_POS(int_flag)));
 1227              		.loc 1 738 5
 1228              		.loc 1 738 18 is_stmt 0
 1229 0000 93D76500 		srli	a5,a1,6
 1230 0004 93F7F73F 		andi	a5,a5,1023
 739:arch/riscv/mach-gd32vf10x/bsp/gd32vf103_usart.c ****     /* get the corresponding flag bit status */
GAS LISTING C:\Users\test\AppData\Local\Temp\ccjHsQYj.s 			page 35


 740:arch/riscv/mach-gd32vf10x/bsp/gd32vf103_usart.c ****     flagstatus = (USART_REG_VAL2(usart_periph, int_flag) & BIT(USART_BIT_POS2(int_flag)));
 1231              		.loc 1 740 19
 1232 0008 13D76501 		srli	a4,a1,22
 738:arch/riscv/mach-gd32vf10x/bsp/gd32vf103_usart.c ****     /* get the corresponding flag bit status */
 1233              		.loc 1 738 18
 1234 000c AA97     		add	a5,a5,a0
 1235              		.loc 1 740 19
 1236 000e 2A97     		add	a4,a4,a0
 738:arch/riscv/mach-gd32vf10x/bsp/gd32vf103_usart.c ****     /* get the corresponding flag bit status */
 1237              		.loc 1 738 18
 1238 0010 9443     		lw	a3,0(a5)
 1239              	.LVL104:
 1240              		.loc 1 740 5 is_stmt 1
 1241              		.loc 1 740 19 is_stmt 0
 1242 0012 1843     		lw	a4,0(a4)
 1243              		.loc 1 740 60
 1244 0014 13D50501 		srli	a0,a1,16
 1245              	.LVL105:
 1246 0018 8547     		li	a5,1
 1247 001a 3395A700 		sll	a0,a5,a0
 1248              		.loc 1 740 16
 1249 001e 798D     		and	a0,a0,a4
 1250              	.LVL106:
 741:arch/riscv/mach-gd32vf10x/bsp/gd32vf103_usart.c **** 
 742:arch/riscv/mach-gd32vf10x/bsp/gd32vf103_usart.c ****     if(flagstatus && intenable){
 1251              		.loc 1 742 5 is_stmt 1
 1252              		.loc 1 742 7 is_stmt 0
 1253 0020 11C5     		beq	a0,zero,.L57
 738:arch/riscv/mach-gd32vf10x/bsp/gd32vf103_usart.c ****     /* get the corresponding flag bit status */
 1254              		.loc 1 738 58 discriminator 1
 1255 0022 3395B700 		sll	a0,a5,a1
 1256              	.LVL107:
 738:arch/riscv/mach-gd32vf10x/bsp/gd32vf103_usart.c ****     /* get the corresponding flag bit status */
 1257              		.loc 1 738 15 discriminator 1
 1258 0026 758D     		and	a0,a0,a3
 1259              		.loc 1 742 19 discriminator 1
 1260 0028 3335A000 		snez	a0,a0
 1261              	.L57:
 743:arch/riscv/mach-gd32vf10x/bsp/gd32vf103_usart.c ****         return SET;
 744:arch/riscv/mach-gd32vf10x/bsp/gd32vf103_usart.c ****     }else{
 745:arch/riscv/mach-gd32vf10x/bsp/gd32vf103_usart.c ****         return RESET; 
 746:arch/riscv/mach-gd32vf10x/bsp/gd32vf103_usart.c ****     }
 747:arch/riscv/mach-gd32vf10x/bsp/gd32vf103_usart.c **** }
 1262              		.loc 1 747 1
 1263 002c 8280     		ret
 1264              		.cfi_endproc
 1265              	.LFE43:
 1267              		.section	.text.usart_interrupt_flag_clear,"ax",@progbits
 1268              		.align	1
 1269              		.globl	usart_interrupt_flag_clear
 1271              	usart_interrupt_flag_clear:
 1272              	.LFB44:
 748:arch/riscv/mach-gd32vf10x/bsp/gd32vf103_usart.c **** 
 749:arch/riscv/mach-gd32vf10x/bsp/gd32vf103_usart.c **** /*!
 750:arch/riscv/mach-gd32vf10x/bsp/gd32vf103_usart.c ****     \brief      clear USART interrupt flag in STAT register
 751:arch/riscv/mach-gd32vf10x/bsp/gd32vf103_usart.c ****     \param[in]  usart_periph: USARTx(x=0,1,2)/UARTx(x=3,4)
 752:arch/riscv/mach-gd32vf10x/bsp/gd32vf103_usart.c ****     \param[in]  flag: USART interrupt flag
GAS LISTING C:\Users\test\AppData\Local\Temp\ccjHsQYj.s 			page 36


 753:arch/riscv/mach-gd32vf10x/bsp/gd32vf103_usart.c ****                 only one parameter can be selected which is shown as below:
 754:arch/riscv/mach-gd32vf10x/bsp/gd32vf103_usart.c ****       \arg        USART_INT_FLAG_CTS: CTS change flag
 755:arch/riscv/mach-gd32vf10x/bsp/gd32vf103_usart.c ****       \arg        USART_INT_FLAG_LBD: LIN break detected flag
 756:arch/riscv/mach-gd32vf10x/bsp/gd32vf103_usart.c ****       \arg        USART_INT_FLAG_TC: transmission complete
 757:arch/riscv/mach-gd32vf10x/bsp/gd32vf103_usart.c ****       \arg        USART_INT_FLAG_RBNE: read data buffer not empty
 758:arch/riscv/mach-gd32vf10x/bsp/gd32vf103_usart.c ****     \param[out] none
 759:arch/riscv/mach-gd32vf10x/bsp/gd32vf103_usart.c ****     \retval     none
 760:arch/riscv/mach-gd32vf10x/bsp/gd32vf103_usart.c **** */
 761:arch/riscv/mach-gd32vf10x/bsp/gd32vf103_usart.c **** void usart_interrupt_flag_clear(uint32_t usart_periph, uint32_t flag)
 762:arch/riscv/mach-gd32vf10x/bsp/gd32vf103_usart.c **** {
 1273              		.loc 1 762 1 is_stmt 1
 1274              		.cfi_startproc
 1275              	.LVL108:
 763:arch/riscv/mach-gd32vf10x/bsp/gd32vf103_usart.c ****     USART_REG_VAL2(usart_periph, flag) &= ~BIT(USART_BIT_POS2(flag));
 1276              		.loc 1 763 5
 1277              		.loc 1 763 40 is_stmt 0
 1278 0000 13D76501 		srli	a4,a1,22
 1279 0004 3A95     		add	a0,a4,a0
 1280              	.LVL109:
 1281 0006 1841     		lw	a4,0(a0)
 1282              		.loc 1 763 44
 1283 0008 C181     		srli	a1,a1,16
 1284              	.LVL110:
 1285 000a 8547     		li	a5,1
 1286 000c B397B700 		sll	a5,a5,a1
 1287              		.loc 1 763 43
 1288 0010 93C7F7FF 		not	a5,a5
 1289              		.loc 1 763 40
 1290 0014 F98F     		and	a5,a5,a4
 1291 0016 1CC1     		sw	a5,0(a0)
 764:arch/riscv/mach-gd32vf10x/bsp/gd32vf103_usart.c **** }
 1292              		.loc 1 764 1
 1293 0018 8280     		ret
 1294              		.cfi_endproc
 1295              	.LFE44:
 1297              		.text
 1298              	.Letext0:
 1299              		.file 2 "d:\\risc_v_gcc\\riscv-none-embed\\include\\machine\\_default_types.h"
 1300              		.file 3 "d:\\risc_v_gcc\\riscv-none-embed\\include\\sys\\_stdint.h"
 1301              		.file 4 "arch/riscv/mach-gd32vf10x/system/gd32vf103.h"
 1302              		.file 5 "arch/riscv/mach-gd32vf10x/bsp/gd32vf103_rcu.h"
 1303              		.file 6 "arch/riscv/mach-gd32vf10x/bsp/gd32vf103_usart.h"
 1304              		.file 7 "arch/riscv/mach-gd32vf10x/system/system_gd32vf103.h"
GAS LISTING C:\Users\test\AppData\Local\Temp\ccjHsQYj.s 			page 37


DEFINED SYMBOLS
                            *ABS*:0000000000000000 gd32vf103_usart.c
C:\Users\test\AppData\Local\Temp\ccjHsQYj.s:10     .text.usart_deinit:0000000000000000 usart_deinit
C:\Users\test\AppData\Local\Temp\ccjHsQYj.s:14     .text.usart_deinit:0000000000000000 .L0 
C:\Users\test\AppData\Local\Temp\ccjHsQYj.s:16     .text.usart_deinit:0000000000000000 .L0 
C:\Users\test\AppData\Local\Temp\ccjHsQYj.s:17     .text.usart_deinit:0000000000000000 .L0 
C:\Users\test\AppData\Local\Temp\ccjHsQYj.s:18     .text.usart_deinit:0000000000000000 .L0 
C:\Users\test\AppData\Local\Temp\ccjHsQYj.s:20     .text.usart_deinit:0000000000000002 .L0 
C:\Users\test\AppData\Local\Temp\ccjHsQYj.s:22     .text.usart_deinit:0000000000000002 .L0 
C:\Users\test\AppData\Local\Temp\ccjHsQYj.s:24     .text.usart_deinit:0000000000000006 .L0 
C:\Users\test\AppData\Local\Temp\ccjHsQYj.s:25     .text.usart_deinit:0000000000000008 .L0 
C:\Users\test\AppData\Local\Temp\ccjHsQYj.s:27     .text.usart_deinit:0000000000000008 .L0 
C:\Users\test\AppData\Local\Temp\ccjHsQYj.s:35     .text.usart_deinit:0000000000000024 .L0 
C:\Users\test\AppData\Local\Temp\ccjHsQYj.s:40     .text.usart_deinit:0000000000000030 .L0 
C:\Users\test\AppData\Local\Temp\ccjHsQYj.s:41     .text.usart_deinit:0000000000000030 .L0 
C:\Users\test\AppData\Local\Temp\ccjHsQYj.s:42     .text.usart_deinit:0000000000000032 .L0 
C:\Users\test\AppData\Local\Temp\ccjHsQYj.s:43     .text.usart_deinit:0000000000000032 .L0 
C:\Users\test\AppData\Local\Temp\ccjHsQYj.s:45     .text.usart_deinit:0000000000000032 .L0 
C:\Users\test\AppData\Local\Temp\ccjHsQYj.s:47     .text.usart_deinit:0000000000000036 .L0 
C:\Users\test\AppData\Local\Temp\ccjHsQYj.s:49     .text.usart_deinit:0000000000000038 .L0 
C:\Users\test\AppData\Local\Temp\ccjHsQYj.s:51     .text.usart_deinit:0000000000000038 .L0 
C:\Users\test\AppData\Local\Temp\ccjHsQYj.s:55     .text.usart_deinit:0000000000000040 .L0 
C:\Users\test\AppData\Local\Temp\ccjHsQYj.s:57     .text.usart_deinit:0000000000000040 .L0 
C:\Users\test\AppData\Local\Temp\ccjHsQYj.s:63     .text.usart_deinit:0000000000000054 .L0 
C:\Users\test\AppData\Local\Temp\ccjHsQYj.s:68     .text.usart_deinit:0000000000000060 .L0 
C:\Users\test\AppData\Local\Temp\ccjHsQYj.s:69     .text.usart_deinit:0000000000000060 .L0 
C:\Users\test\AppData\Local\Temp\ccjHsQYj.s:70     .text.usart_deinit:0000000000000062 .L0 
C:\Users\test\AppData\Local\Temp\ccjHsQYj.s:71     .text.usart_deinit:0000000000000062 .L0 
C:\Users\test\AppData\Local\Temp\ccjHsQYj.s:73     .text.usart_deinit:0000000000000062 .L0 
C:\Users\test\AppData\Local\Temp\ccjHsQYj.s:75     .text.usart_deinit:0000000000000066 .L0 
C:\Users\test\AppData\Local\Temp\ccjHsQYj.s:77     .text.usart_deinit:0000000000000068 .L0 
C:\Users\test\AppData\Local\Temp\ccjHsQYj.s:79     .text.usart_deinit:0000000000000068 .L0 
C:\Users\test\AppData\Local\Temp\ccjHsQYj.s:83     .text.usart_deinit:0000000000000070 .L0 
C:\Users\test\AppData\Local\Temp\ccjHsQYj.s:85     .text.usart_deinit:0000000000000070 .L0 
C:\Users\test\AppData\Local\Temp\ccjHsQYj.s:90     .text.usart_deinit:000000000000007c .L0 
C:\Users\test\AppData\Local\Temp\ccjHsQYj.s:91     .text.usart_deinit:000000000000007c .L0 
C:\Users\test\AppData\Local\Temp\ccjHsQYj.s:92     .text.usart_deinit:000000000000007e .L0 
C:\Users\test\AppData\Local\Temp\ccjHsQYj.s:93     .text.usart_deinit:000000000000007e .L0 
C:\Users\test\AppData\Local\Temp\ccjHsQYj.s:95     .text.usart_deinit:000000000000007e .L0 
C:\Users\test\AppData\Local\Temp\ccjHsQYj.s:97     .text.usart_deinit:0000000000000082 .L0 
C:\Users\test\AppData\Local\Temp\ccjHsQYj.s:99     .text.usart_deinit:0000000000000084 .L0 
C:\Users\test\AppData\Local\Temp\ccjHsQYj.s:101    .text.usart_deinit:0000000000000084 .L0 
C:\Users\test\AppData\Local\Temp\ccjHsQYj.s:105    .text.usart_deinit:000000000000008c .L0 
C:\Users\test\AppData\Local\Temp\ccjHsQYj.s:107    .text.usart_deinit:000000000000008c .L0 
C:\Users\test\AppData\Local\Temp\ccjHsQYj.s:112    .text.usart_deinit:0000000000000098 .L0 
C:\Users\test\AppData\Local\Temp\ccjHsQYj.s:113    .text.usart_deinit:0000000000000098 .L0 
C:\Users\test\AppData\Local\Temp\ccjHsQYj.s:114    .text.usart_deinit:000000000000009a .L0 
C:\Users\test\AppData\Local\Temp\ccjHsQYj.s:115    .text.usart_deinit:000000000000009a .L0 
C:\Users\test\AppData\Local\Temp\ccjHsQYj.s:117    .text.usart_deinit:000000000000009a .L0 
C:\Users\test\AppData\Local\Temp\ccjHsQYj.s:119    .text.usart_deinit:000000000000009e .L0 
C:\Users\test\AppData\Local\Temp\ccjHsQYj.s:121    .text.usart_deinit:00000000000000a0 .L0 
C:\Users\test\AppData\Local\Temp\ccjHsQYj.s:123    .text.usart_deinit:00000000000000a0 .L0 
C:\Users\test\AppData\Local\Temp\ccjHsQYj.s:127    .text.usart_deinit:00000000000000a8 .L0 
C:\Users\test\AppData\Local\Temp\ccjHsQYj.s:129    .text.usart_deinit:00000000000000a8 .L0 
C:\Users\test\AppData\Local\Temp\ccjHsQYj.s:130    .text.usart_deinit:00000000000000aa .L0 
C:\Users\test\AppData\Local\Temp\ccjHsQYj.s:131    .text.usart_deinit:00000000000000aa .L0 
C:\Users\test\AppData\Local\Temp\ccjHsQYj.s:134    .text.usart_deinit:00000000000000ac .L0 
GAS LISTING C:\Users\test\AppData\Local\Temp\ccjHsQYj.s 			page 38


C:\Users\test\AppData\Local\Temp\ccjHsQYj.s:138    .text.usart_deinit:00000000000000ae .L0 
C:\Users\test\AppData\Local\Temp\ccjHsQYj.s:140    .text.usart_deinit:00000000000000ae .L0 
C:\Users\test\AppData\Local\Temp\ccjHsQYj.s:145    .text.usart_deinit:00000000000000ba .L0 
C:\Users\test\AppData\Local\Temp\ccjHsQYj.s:146    .text.usart_deinit:00000000000000ba .L0 
C:\Users\test\AppData\Local\Temp\ccjHsQYj.s:147    .text.usart_deinit:00000000000000bc .L0 
C:\Users\test\AppData\Local\Temp\ccjHsQYj.s:149    .text.usart_deinit:00000000000000bc .L0 
C:\Users\test\AppData\Local\Temp\ccjHsQYj.s:151    .text.usart_deinit:00000000000000c0 .L0 
C:\Users\test\AppData\Local\Temp\ccjHsQYj.s:153    .text.usart_deinit:00000000000000c2 .L0 
C:\Users\test\AppData\Local\Temp\ccjHsQYj.s:155    .text.usart_deinit:00000000000000c2 .L0 
C:\Users\test\AppData\Local\Temp\ccjHsQYj.s:157    .text.usart_deinit:00000000000000ca .L0 
C:\Users\test\AppData\Local\Temp\ccjHsQYj.s:164    .text.usart_baudrate_set:0000000000000000 usart_baudrate_set
C:\Users\test\AppData\Local\Temp\ccjHsQYj.s:167    .text.usart_baudrate_set:0000000000000000 .L0 
C:\Users\test\AppData\Local\Temp\ccjHsQYj.s:169    .text.usart_baudrate_set:0000000000000000 .L0 
C:\Users\test\AppData\Local\Temp\ccjHsQYj.s:170    .text.usart_baudrate_set:0000000000000000 .L0 
C:\Users\test\AppData\Local\Temp\ccjHsQYj.s:171    .text.usart_baudrate_set:0000000000000000 .L0 
C:\Users\test\AppData\Local\Temp\ccjHsQYj.s:172    .text.usart_baudrate_set:0000000000000000 .L0 
C:\Users\test\AppData\Local\Temp\ccjHsQYj.s:174    .text.usart_baudrate_set:0000000000000002 .L0 
C:\Users\test\AppData\Local\Temp\ccjHsQYj.s:176    .text.usart_baudrate_set:0000000000000002 .L0 
C:\Users\test\AppData\Local\Temp\ccjHsQYj.s:178    .text.usart_baudrate_set:0000000000000006 .L0 
C:\Users\test\AppData\Local\Temp\ccjHsQYj.s:181    .text.usart_baudrate_set:000000000000000c .L0 
C:\Users\test\AppData\Local\Temp\ccjHsQYj.s:182    .text.usart_baudrate_set:000000000000000c .L0 
C:\Users\test\AppData\Local\Temp\ccjHsQYj.s:183    .text.usart_baudrate_set:000000000000000c .L0 
C:\Users\test\AppData\Local\Temp\ccjHsQYj.s:185    .text.usart_baudrate_set:000000000000000c .L0 
C:\Users\test\AppData\Local\Temp\ccjHsQYj.s:187    .text.usart_baudrate_set:0000000000000010 .L0 
C:\Users\test\AppData\Local\Temp\ccjHsQYj.s:190    .text.usart_baudrate_set:0000000000000014 .L0 
C:\Users\test\AppData\Local\Temp\ccjHsQYj.s:196    .text.usart_baudrate_set:0000000000000028 .L0 
C:\Users\test\AppData\Local\Temp\ccjHsQYj.s:199    .text.usart_baudrate_set:000000000000002a .L0 
C:\Users\test\AppData\Local\Temp\ccjHsQYj.s:201    .text.usart_baudrate_set:000000000000002e .L0 
C:\Users\test\AppData\Local\Temp\ccjHsQYj.s:202    .text.usart_baudrate_set:000000000000002e .L0 
C:\Users\test\AppData\Local\Temp\ccjHsQYj.s:207    .text.usart_baudrate_set:0000000000000038 .L0 
C:\Users\test\AppData\Local\Temp\ccjHsQYj.s:208    .text.usart_baudrate_set:0000000000000038 .L0 
C:\Users\test\AppData\Local\Temp\ccjHsQYj.s:209    .text.usart_baudrate_set:0000000000000038 .L0 
C:\Users\test\AppData\Local\Temp\ccjHsQYj.s:210    .text.usart_baudrate_set:0000000000000038 .L0 
C:\Users\test\AppData\Local\Temp\ccjHsQYj.s:211    .text.usart_baudrate_set:0000000000000038 .L0 
C:\Users\test\AppData\Local\Temp\ccjHsQYj.s:212    .text.usart_baudrate_set:0000000000000038 .L0 
C:\Users\test\AppData\Local\Temp\ccjHsQYj.s:214    .text.usart_baudrate_set:000000000000003c .L0 
C:\Users\test\AppData\Local\Temp\ccjHsQYj.s:216    .text.usart_baudrate_set:000000000000003e .L0 
C:\Users\test\AppData\Local\Temp\ccjHsQYj.s:219    .text.usart_baudrate_set:0000000000000042 .L0 
C:\Users\test\AppData\Local\Temp\ccjHsQYj.s:220    .text.usart_baudrate_set:0000000000000044 .L0 
C:\Users\test\AppData\Local\Temp\ccjHsQYj.s:221    .text.usart_baudrate_set:0000000000000044 .L0 
C:\Users\test\AppData\Local\Temp\ccjHsQYj.s:223    .text.usart_baudrate_set:0000000000000046 .L0 
C:\Users\test\AppData\Local\Temp\ccjHsQYj.s:226    .text.usart_baudrate_set:0000000000000046 .L0 
C:\Users\test\AppData\Local\Temp\ccjHsQYj.s:230    .text.usart_baudrate_set:000000000000004a .L0 
C:\Users\test\AppData\Local\Temp\ccjHsQYj.s:232    .text.usart_baudrate_set:000000000000004c .L0 
C:\Users\test\AppData\Local\Temp\ccjHsQYj.s:233    .text.usart_baudrate_set:000000000000004e .L0 
C:\Users\test\AppData\Local\Temp\ccjHsQYj.s:237    .text.usart_baudrate_set:0000000000000050 .L0 
C:\Users\test\AppData\Local\Temp\ccjHsQYj.s:242    .text.usart_baudrate_set:0000000000000052 .L0 
C:\Users\test\AppData\Local\Temp\ccjHsQYj.s:244    .text.usart_baudrate_set:0000000000000052 .L0 
C:\Users\test\AppData\Local\Temp\ccjHsQYj.s:249    .text.usart_baudrate_set:0000000000000062 .L0 
C:\Users\test\AppData\Local\Temp\ccjHsQYj.s:251    .text.usart_baudrate_set:0000000000000064 .L0 
C:\Users\test\AppData\Local\Temp\ccjHsQYj.s:254    .text.usart_baudrate_set:0000000000000068 .L0 
C:\Users\test\AppData\Local\Temp\ccjHsQYj.s:255    .text.usart_baudrate_set:0000000000000068 .L0 
C:\Users\test\AppData\Local\Temp\ccjHsQYj.s:259    .text.usart_baudrate_set:0000000000000072 .L0 
C:\Users\test\AppData\Local\Temp\ccjHsQYj.s:260    .text.usart_baudrate_set:0000000000000074 .L0 
C:\Users\test\AppData\Local\Temp\ccjHsQYj.s:267    .text.usart_parity_config:0000000000000000 usart_parity_config
C:\Users\test\AppData\Local\Temp\ccjHsQYj.s:270    .text.usart_parity_config:0000000000000000 .L0 
C:\Users\test\AppData\Local\Temp\ccjHsQYj.s:272    .text.usart_parity_config:0000000000000000 .L0 
GAS LISTING C:\Users\test\AppData\Local\Temp\ccjHsQYj.s 			page 39


C:\Users\test\AppData\Local\Temp\ccjHsQYj.s:273    .text.usart_parity_config:0000000000000000 .L0 
C:\Users\test\AppData\Local\Temp\ccjHsQYj.s:274    .text.usart_parity_config:0000000000000000 .L0 
C:\Users\test\AppData\Local\Temp\ccjHsQYj.s:278    .text.usart_parity_config:0000000000000008 .L0 
C:\Users\test\AppData\Local\Temp\ccjHsQYj.s:279    .text.usart_parity_config:0000000000000008 .L0 
C:\Users\test\AppData\Local\Temp\ccjHsQYj.s:284    .text.usart_parity_config:000000000000000e .L0 
C:\Users\test\AppData\Local\Temp\ccjHsQYj.s:285    .text.usart_parity_config:0000000000000010 .L0 
C:\Users\test\AppData\Local\Temp\ccjHsQYj.s:292    .text.usart_word_length_set:0000000000000000 usart_word_length_set
C:\Users\test\AppData\Local\Temp\ccjHsQYj.s:295    .text.usart_word_length_set:0000000000000000 .L0 
C:\Users\test\AppData\Local\Temp\ccjHsQYj.s:297    .text.usart_word_length_set:0000000000000000 .L0 
C:\Users\test\AppData\Local\Temp\ccjHsQYj.s:298    .text.usart_word_length_set:0000000000000000 .L0 
C:\Users\test\AppData\Local\Temp\ccjHsQYj.s:299    .text.usart_word_length_set:0000000000000000 .L0 
C:\Users\test\AppData\Local\Temp\ccjHsQYj.s:305    .text.usart_word_length_set:000000000000000a .L0 
C:\Users\test\AppData\Local\Temp\ccjHsQYj.s:306    .text.usart_word_length_set:000000000000000a .L0 
C:\Users\test\AppData\Local\Temp\ccjHsQYj.s:311    .text.usart_word_length_set:0000000000000010 .L0 
C:\Users\test\AppData\Local\Temp\ccjHsQYj.s:312    .text.usart_word_length_set:0000000000000012 .L0 
C:\Users\test\AppData\Local\Temp\ccjHsQYj.s:319    .text.usart_stop_bit_set:0000000000000000 usart_stop_bit_set
C:\Users\test\AppData\Local\Temp\ccjHsQYj.s:322    .text.usart_stop_bit_set:0000000000000000 .L0 
C:\Users\test\AppData\Local\Temp\ccjHsQYj.s:324    .text.usart_stop_bit_set:0000000000000000 .L0 
C:\Users\test\AppData\Local\Temp\ccjHsQYj.s:325    .text.usart_stop_bit_set:0000000000000000 .L0 
C:\Users\test\AppData\Local\Temp\ccjHsQYj.s:326    .text.usart_stop_bit_set:0000000000000000 .L0 
C:\Users\test\AppData\Local\Temp\ccjHsQYj.s:332    .text.usart_stop_bit_set:000000000000000a .L0 
C:\Users\test\AppData\Local\Temp\ccjHsQYj.s:333    .text.usart_stop_bit_set:000000000000000a .L0 
C:\Users\test\AppData\Local\Temp\ccjHsQYj.s:338    .text.usart_stop_bit_set:0000000000000010 .L0 
C:\Users\test\AppData\Local\Temp\ccjHsQYj.s:339    .text.usart_stop_bit_set:0000000000000012 .L0 
C:\Users\test\AppData\Local\Temp\ccjHsQYj.s:346    .text.usart_enable:0000000000000000 usart_enable
C:\Users\test\AppData\Local\Temp\ccjHsQYj.s:349    .text.usart_enable:0000000000000000 .L0 
C:\Users\test\AppData\Local\Temp\ccjHsQYj.s:351    .text.usart_enable:0000000000000000 .L0 
C:\Users\test\AppData\Local\Temp\ccjHsQYj.s:352    .text.usart_enable:0000000000000000 .L0 
C:\Users\test\AppData\Local\Temp\ccjHsQYj.s:353    .text.usart_enable:0000000000000000 .L0 
C:\Users\test\AppData\Local\Temp\ccjHsQYj.s:358    .text.usart_enable:0000000000000008 .L0 
C:\Users\test\AppData\Local\Temp\ccjHsQYj.s:359    .text.usart_enable:000000000000000a .L0 
C:\Users\test\AppData\Local\Temp\ccjHsQYj.s:366    .text.usart_disable:0000000000000000 usart_disable
C:\Users\test\AppData\Local\Temp\ccjHsQYj.s:369    .text.usart_disable:0000000000000000 .L0 
C:\Users\test\AppData\Local\Temp\ccjHsQYj.s:371    .text.usart_disable:0000000000000000 .L0 
C:\Users\test\AppData\Local\Temp\ccjHsQYj.s:372    .text.usart_disable:0000000000000000 .L0 
C:\Users\test\AppData\Local\Temp\ccjHsQYj.s:373    .text.usart_disable:0000000000000000 .L0 
C:\Users\test\AppData\Local\Temp\ccjHsQYj.s:379    .text.usart_disable:000000000000000a .L0 
C:\Users\test\AppData\Local\Temp\ccjHsQYj.s:380    .text.usart_disable:000000000000000c .L0 
C:\Users\test\AppData\Local\Temp\ccjHsQYj.s:387    .text.usart_transmit_config:0000000000000000 usart_transmit_config
C:\Users\test\AppData\Local\Temp\ccjHsQYj.s:390    .text.usart_transmit_config:0000000000000000 .L0 
C:\Users\test\AppData\Local\Temp\ccjHsQYj.s:392    .text.usart_transmit_config:0000000000000000 .L0 
C:\Users\test\AppData\Local\Temp\ccjHsQYj.s:393    .text.usart_transmit_config:0000000000000000 .L0 
C:\Users\test\AppData\Local\Temp\ccjHsQYj.s:394    .text.usart_transmit_config:0000000000000000 .L0 
C:\Users\test\AppData\Local\Temp\ccjHsQYj.s:395    .text.usart_transmit_config:0000000000000000 .L0 
C:\Users\test\AppData\Local\Temp\ccjHsQYj.s:398    .text.usart_transmit_config:0000000000000002 .L0 
C:\Users\test\AppData\Local\Temp\ccjHsQYj.s:399    .text.usart_transmit_config:0000000000000002 .L0 
C:\Users\test\AppData\Local\Temp\ccjHsQYj.s:402    .text.usart_transmit_config:0000000000000004 .L0 
C:\Users\test\AppData\Local\Temp\ccjHsQYj.s:403    .text.usart_transmit_config:0000000000000004 .L0 
C:\Users\test\AppData\Local\Temp\ccjHsQYj.s:406    .text.usart_transmit_config:0000000000000006 .L0 
C:\Users\test\AppData\Local\Temp\ccjHsQYj.s:407    .text.usart_transmit_config:0000000000000006 .L0 
C:\Users\test\AppData\Local\Temp\ccjHsQYj.s:409    .text.usart_transmit_config:0000000000000008 .L0 
C:\Users\test\AppData\Local\Temp\ccjHsQYj.s:410    .text.usart_transmit_config:000000000000000a .L0 
C:\Users\test\AppData\Local\Temp\ccjHsQYj.s:417    .text.usart_receive_config:0000000000000000 usart_receive_config
C:\Users\test\AppData\Local\Temp\ccjHsQYj.s:420    .text.usart_receive_config:0000000000000000 .L0 
C:\Users\test\AppData\Local\Temp\ccjHsQYj.s:422    .text.usart_receive_config:0000000000000000 .L0 
C:\Users\test\AppData\Local\Temp\ccjHsQYj.s:423    .text.usart_receive_config:0000000000000000 .L0 
C:\Users\test\AppData\Local\Temp\ccjHsQYj.s:424    .text.usart_receive_config:0000000000000000 .L0 
GAS LISTING C:\Users\test\AppData\Local\Temp\ccjHsQYj.s 			page 40


C:\Users\test\AppData\Local\Temp\ccjHsQYj.s:425    .text.usart_receive_config:0000000000000000 .L0 
C:\Users\test\AppData\Local\Temp\ccjHsQYj.s:428    .text.usart_receive_config:0000000000000002 .L0 
C:\Users\test\AppData\Local\Temp\ccjHsQYj.s:429    .text.usart_receive_config:0000000000000002 .L0 
C:\Users\test\AppData\Local\Temp\ccjHsQYj.s:432    .text.usart_receive_config:0000000000000004 .L0 
C:\Users\test\AppData\Local\Temp\ccjHsQYj.s:433    .text.usart_receive_config:0000000000000004 .L0 
C:\Users\test\AppData\Local\Temp\ccjHsQYj.s:436    .text.usart_receive_config:0000000000000006 .L0 
C:\Users\test\AppData\Local\Temp\ccjHsQYj.s:437    .text.usart_receive_config:0000000000000006 .L0 
C:\Users\test\AppData\Local\Temp\ccjHsQYj.s:439    .text.usart_receive_config:0000000000000008 .L0 
C:\Users\test\AppData\Local\Temp\ccjHsQYj.s:440    .text.usart_receive_config:000000000000000a .L0 
C:\Users\test\AppData\Local\Temp\ccjHsQYj.s:447    .text.usart_data_transmit:0000000000000000 usart_data_transmit
C:\Users\test\AppData\Local\Temp\ccjHsQYj.s:450    .text.usart_data_transmit:0000000000000000 .L0 
C:\Users\test\AppData\Local\Temp\ccjHsQYj.s:452    .text.usart_data_transmit:0000000000000000 .L0 
C:\Users\test\AppData\Local\Temp\ccjHsQYj.s:453    .text.usart_data_transmit:0000000000000000 .L0 
C:\Users\test\AppData\Local\Temp\ccjHsQYj.s:454    .text.usart_data_transmit:0000000000000000 .L0 
C:\Users\test\AppData\Local\Temp\ccjHsQYj.s:457    .text.usart_data_transmit:0000000000000004 .L0 
C:\Users\test\AppData\Local\Temp\ccjHsQYj.s:459    .text.usart_data_transmit:0000000000000006 .L0 
C:\Users\test\AppData\Local\Temp\ccjHsQYj.s:460    .text.usart_data_transmit:0000000000000008 .L0 
C:\Users\test\AppData\Local\Temp\ccjHsQYj.s:467    .text.usart_data_receive:0000000000000000 usart_data_receive
C:\Users\test\AppData\Local\Temp\ccjHsQYj.s:470    .text.usart_data_receive:0000000000000000 .L0 
C:\Users\test\AppData\Local\Temp\ccjHsQYj.s:472    .text.usart_data_receive:0000000000000000 .L0 
C:\Users\test\AppData\Local\Temp\ccjHsQYj.s:473    .text.usart_data_receive:0000000000000000 .L0 
C:\Users\test\AppData\Local\Temp\ccjHsQYj.s:474    .text.usart_data_receive:0000000000000000 .L0 
C:\Users\test\AppData\Local\Temp\ccjHsQYj.s:477    .text.usart_data_receive:0000000000000002 .L0 
C:\Users\test\AppData\Local\Temp\ccjHsQYj.s:479    .text.usart_data_receive:0000000000000008 .L0 
C:\Users\test\AppData\Local\Temp\ccjHsQYj.s:486    .text.usart_address_config:0000000000000000 usart_address_config
C:\Users\test\AppData\Local\Temp\ccjHsQYj.s:489    .text.usart_address_config:0000000000000000 .L0 
C:\Users\test\AppData\Local\Temp\ccjHsQYj.s:491    .text.usart_address_config:0000000000000000 .L0 
C:\Users\test\AppData\Local\Temp\ccjHsQYj.s:492    .text.usart_address_config:0000000000000000 .L0 
C:\Users\test\AppData\Local\Temp\ccjHsQYj.s:493    .text.usart_address_config:0000000000000000 .L0 
C:\Users\test\AppData\Local\Temp\ccjHsQYj.s:495    .text.usart_address_config:0000000000000002 .L0 
C:\Users\test\AppData\Local\Temp\ccjHsQYj.s:498    .text.usart_address_config:0000000000000004 .L0 
C:\Users\test\AppData\Local\Temp\ccjHsQYj.s:501    .text.usart_address_config:0000000000000008 .L0 
C:\Users\test\AppData\Local\Temp\ccjHsQYj.s:502    .text.usart_address_config:0000000000000008 .L0 
C:\Users\test\AppData\Local\Temp\ccjHsQYj.s:506    .text.usart_address_config:000000000000000e .L0 
C:\Users\test\AppData\Local\Temp\ccjHsQYj.s:507    .text.usart_address_config:0000000000000010 .L0 
C:\Users\test\AppData\Local\Temp\ccjHsQYj.s:514    .text.usart_mute_mode_enable:0000000000000000 usart_mute_mode_enable
C:\Users\test\AppData\Local\Temp\ccjHsQYj.s:517    .text.usart_mute_mode_enable:0000000000000000 .L0 
C:\Users\test\AppData\Local\Temp\ccjHsQYj.s:519    .text.usart_mute_mode_enable:0000000000000000 .L0 
C:\Users\test\AppData\Local\Temp\ccjHsQYj.s:520    .text.usart_mute_mode_enable:0000000000000000 .L0 
C:\Users\test\AppData\Local\Temp\ccjHsQYj.s:521    .text.usart_mute_mode_enable:0000000000000000 .L0 
C:\Users\test\AppData\Local\Temp\ccjHsQYj.s:525    .text.usart_mute_mode_enable:0000000000000008 .L0 
C:\Users\test\AppData\Local\Temp\ccjHsQYj.s:526    .text.usart_mute_mode_enable:000000000000000a .L0 
C:\Users\test\AppData\Local\Temp\ccjHsQYj.s:533    .text.usart_mute_mode_disable:0000000000000000 usart_mute_mode_disable
C:\Users\test\AppData\Local\Temp\ccjHsQYj.s:536    .text.usart_mute_mode_disable:0000000000000000 .L0 
C:\Users\test\AppData\Local\Temp\ccjHsQYj.s:538    .text.usart_mute_mode_disable:0000000000000000 .L0 
C:\Users\test\AppData\Local\Temp\ccjHsQYj.s:539    .text.usart_mute_mode_disable:0000000000000000 .L0 
C:\Users\test\AppData\Local\Temp\ccjHsQYj.s:540    .text.usart_mute_mode_disable:0000000000000000 .L0 
C:\Users\test\AppData\Local\Temp\ccjHsQYj.s:544    .text.usart_mute_mode_disable:0000000000000006 .L0 
C:\Users\test\AppData\Local\Temp\ccjHsQYj.s:545    .text.usart_mute_mode_disable:0000000000000008 .L0 
C:\Users\test\AppData\Local\Temp\ccjHsQYj.s:552    .text.usart_mute_mode_wakeup_config:0000000000000000 usart_mute_mode_wakeup_config
C:\Users\test\AppData\Local\Temp\ccjHsQYj.s:555    .text.usart_mute_mode_wakeup_config:0000000000000000 .L0 
C:\Users\test\AppData\Local\Temp\ccjHsQYj.s:557    .text.usart_mute_mode_wakeup_config:0000000000000000 .L0 
C:\Users\test\AppData\Local\Temp\ccjHsQYj.s:558    .text.usart_mute_mode_wakeup_config:0000000000000000 .L0 
C:\Users\test\AppData\Local\Temp\ccjHsQYj.s:559    .text.usart_mute_mode_wakeup_config:0000000000000000 .L0 
C:\Users\test\AppData\Local\Temp\ccjHsQYj.s:565    .text.usart_mute_mode_wakeup_config:000000000000000c .L0 
C:\Users\test\AppData\Local\Temp\ccjHsQYj.s:566    .text.usart_mute_mode_wakeup_config:000000000000000c .L0 
C:\Users\test\AppData\Local\Temp\ccjHsQYj.s:571    .text.usart_mute_mode_wakeup_config:0000000000000012 .L0 
GAS LISTING C:\Users\test\AppData\Local\Temp\ccjHsQYj.s 			page 41


C:\Users\test\AppData\Local\Temp\ccjHsQYj.s:572    .text.usart_mute_mode_wakeup_config:0000000000000014 .L0 
C:\Users\test\AppData\Local\Temp\ccjHsQYj.s:579    .text.usart_lin_mode_enable:0000000000000000 usart_lin_mode_enable
C:\Users\test\AppData\Local\Temp\ccjHsQYj.s:582    .text.usart_lin_mode_enable:0000000000000000 .L0 
C:\Users\test\AppData\Local\Temp\ccjHsQYj.s:584    .text.usart_lin_mode_enable:0000000000000000 .L0 
C:\Users\test\AppData\Local\Temp\ccjHsQYj.s:585    .text.usart_lin_mode_enable:0000000000000000 .L0 
C:\Users\test\AppData\Local\Temp\ccjHsQYj.s:586    .text.usart_lin_mode_enable:0000000000000000 .L0 
C:\Users\test\AppData\Local\Temp\ccjHsQYj.s:591    .text.usart_lin_mode_enable:0000000000000008 .L0 
C:\Users\test\AppData\Local\Temp\ccjHsQYj.s:592    .text.usart_lin_mode_enable:000000000000000a .L0 
C:\Users\test\AppData\Local\Temp\ccjHsQYj.s:599    .text.usart_lin_mode_disable:0000000000000000 usart_lin_mode_disable
C:\Users\test\AppData\Local\Temp\ccjHsQYj.s:602    .text.usart_lin_mode_disable:0000000000000000 .L0 
C:\Users\test\AppData\Local\Temp\ccjHsQYj.s:604    .text.usart_lin_mode_disable:0000000000000000 .L0 
C:\Users\test\AppData\Local\Temp\ccjHsQYj.s:605    .text.usart_lin_mode_disable:0000000000000000 .L0 
C:\Users\test\AppData\Local\Temp\ccjHsQYj.s:606    .text.usart_lin_mode_disable:0000000000000000 .L0 
C:\Users\test\AppData\Local\Temp\ccjHsQYj.s:612    .text.usart_lin_mode_disable:000000000000000a .L0 
C:\Users\test\AppData\Local\Temp\ccjHsQYj.s:613    .text.usart_lin_mode_disable:000000000000000c .L0 
C:\Users\test\AppData\Local\Temp\ccjHsQYj.s:620    .text.usart_lin_break_detection_length_config:0000000000000000 usart_lin_break_detection_length_config
C:\Users\test\AppData\Local\Temp\ccjHsQYj.s:623    .text.usart_lin_break_detection_length_config:0000000000000000 .L0 
C:\Users\test\AppData\Local\Temp\ccjHsQYj.s:625    .text.usart_lin_break_detection_length_config:0000000000000000 .L0 
C:\Users\test\AppData\Local\Temp\ccjHsQYj.s:626    .text.usart_lin_break_detection_length_config:0000000000000000 .L0 
C:\Users\test\AppData\Local\Temp\ccjHsQYj.s:627    .text.usart_lin_break_detection_length_config:0000000000000000 .L0 
C:\Users\test\AppData\Local\Temp\ccjHsQYj.s:629    .text.usart_lin_break_detection_length_config:0000000000000002 .L0 
C:\Users\test\AppData\Local\Temp\ccjHsQYj.s:632    .text.usart_lin_break_detection_length_config:0000000000000006 .L0 
C:\Users\test\AppData\Local\Temp\ccjHsQYj.s:635    .text.usart_lin_break_detection_length_config:000000000000000c .L0 
C:\Users\test\AppData\Local\Temp\ccjHsQYj.s:636    .text.usart_lin_break_detection_length_config:000000000000000c .L0 
C:\Users\test\AppData\Local\Temp\ccjHsQYj.s:640    .text.usart_lin_break_detection_length_config:0000000000000012 .L0 
C:\Users\test\AppData\Local\Temp\ccjHsQYj.s:641    .text.usart_lin_break_detection_length_config:0000000000000014 .L0 
C:\Users\test\AppData\Local\Temp\ccjHsQYj.s:648    .text.usart_send_break:0000000000000000 usart_send_break
C:\Users\test\AppData\Local\Temp\ccjHsQYj.s:651    .text.usart_send_break:0000000000000000 .L0 
C:\Users\test\AppData\Local\Temp\ccjHsQYj.s:653    .text.usart_send_break:0000000000000000 .L0 
C:\Users\test\AppData\Local\Temp\ccjHsQYj.s:654    .text.usart_send_break:0000000000000000 .L0 
C:\Users\test\AppData\Local\Temp\ccjHsQYj.s:655    .text.usart_send_break:0000000000000000 .L0 
C:\Users\test\AppData\Local\Temp\ccjHsQYj.s:659    .text.usart_send_break:0000000000000008 .L0 
C:\Users\test\AppData\Local\Temp\ccjHsQYj.s:660    .text.usart_send_break:000000000000000a .L0 
C:\Users\test\AppData\Local\Temp\ccjHsQYj.s:667    .text.usart_halfduplex_enable:0000000000000000 usart_halfduplex_enable
C:\Users\test\AppData\Local\Temp\ccjHsQYj.s:670    .text.usart_halfduplex_enable:0000000000000000 .L0 
C:\Users\test\AppData\Local\Temp\ccjHsQYj.s:672    .text.usart_halfduplex_enable:0000000000000000 .L0 
C:\Users\test\AppData\Local\Temp\ccjHsQYj.s:673    .text.usart_halfduplex_enable:0000000000000000 .L0 
C:\Users\test\AppData\Local\Temp\ccjHsQYj.s:674    .text.usart_halfduplex_enable:0000000000000000 .L0 
C:\Users\test\AppData\Local\Temp\ccjHsQYj.s:678    .text.usart_halfduplex_enable:0000000000000008 .L0 
C:\Users\test\AppData\Local\Temp\ccjHsQYj.s:679    .text.usart_halfduplex_enable:000000000000000a .L0 
C:\Users\test\AppData\Local\Temp\ccjHsQYj.s:686    .text.usart_halfduplex_disable:0000000000000000 usart_halfduplex_disable
C:\Users\test\AppData\Local\Temp\ccjHsQYj.s:689    .text.usart_halfduplex_disable:0000000000000000 .L0 
C:\Users\test\AppData\Local\Temp\ccjHsQYj.s:691    .text.usart_halfduplex_disable:0000000000000000 .L0 
C:\Users\test\AppData\Local\Temp\ccjHsQYj.s:692    .text.usart_halfduplex_disable:0000000000000000 .L0 
C:\Users\test\AppData\Local\Temp\ccjHsQYj.s:693    .text.usart_halfduplex_disable:0000000000000000 .L0 
C:\Users\test\AppData\Local\Temp\ccjHsQYj.s:697    .text.usart_halfduplex_disable:0000000000000006 .L0 
C:\Users\test\AppData\Local\Temp\ccjHsQYj.s:698    .text.usart_halfduplex_disable:0000000000000008 .L0 
C:\Users\test\AppData\Local\Temp\ccjHsQYj.s:705    .text.usart_synchronous_clock_enable:0000000000000000 usart_synchronous_clock_enable
C:\Users\test\AppData\Local\Temp\ccjHsQYj.s:708    .text.usart_synchronous_clock_enable:0000000000000000 .L0 
C:\Users\test\AppData\Local\Temp\ccjHsQYj.s:710    .text.usart_synchronous_clock_enable:0000000000000000 .L0 
C:\Users\test\AppData\Local\Temp\ccjHsQYj.s:711    .text.usart_synchronous_clock_enable:0000000000000000 .L0 
C:\Users\test\AppData\Local\Temp\ccjHsQYj.s:712    .text.usart_synchronous_clock_enable:0000000000000000 .L0 
C:\Users\test\AppData\Local\Temp\ccjHsQYj.s:718    .text.usart_synchronous_clock_enable:000000000000000c .L0 
C:\Users\test\AppData\Local\Temp\ccjHsQYj.s:719    .text.usart_synchronous_clock_enable:000000000000000e .L0 
C:\Users\test\AppData\Local\Temp\ccjHsQYj.s:726    .text.usart_synchronous_clock_disable:0000000000000000 usart_synchronous_clock_disable
C:\Users\test\AppData\Local\Temp\ccjHsQYj.s:729    .text.usart_synchronous_clock_disable:0000000000000000 .L0 
C:\Users\test\AppData\Local\Temp\ccjHsQYj.s:731    .text.usart_synchronous_clock_disable:0000000000000000 .L0 
GAS LISTING C:\Users\test\AppData\Local\Temp\ccjHsQYj.s 			page 42


C:\Users\test\AppData\Local\Temp\ccjHsQYj.s:732    .text.usart_synchronous_clock_disable:0000000000000000 .L0 
C:\Users\test\AppData\Local\Temp\ccjHsQYj.s:733    .text.usart_synchronous_clock_disable:0000000000000000 .L0 
C:\Users\test\AppData\Local\Temp\ccjHsQYj.s:739    .text.usart_synchronous_clock_disable:000000000000000c .L0 
C:\Users\test\AppData\Local\Temp\ccjHsQYj.s:740    .text.usart_synchronous_clock_disable:000000000000000e .L0 
C:\Users\test\AppData\Local\Temp\ccjHsQYj.s:747    .text.usart_synchronous_clock_config:0000000000000000 usart_synchronous_clock_config
C:\Users\test\AppData\Local\Temp\ccjHsQYj.s:750    .text.usart_synchronous_clock_config:0000000000000000 .L0 
C:\Users\test\AppData\Local\Temp\ccjHsQYj.s:752    .text.usart_synchronous_clock_config:0000000000000000 .L0 
C:\Users\test\AppData\Local\Temp\ccjHsQYj.s:753    .text.usart_synchronous_clock_config:0000000000000000 .L0 
C:\Users\test\AppData\Local\Temp\ccjHsQYj.s:754    .text.usart_synchronous_clock_config:0000000000000000 .L0 
C:\Users\test\AppData\Local\Temp\ccjHsQYj.s:755    .text.usart_synchronous_clock_config:0000000000000000 .L0 
C:\Users\test\AppData\Local\Temp\ccjHsQYj.s:758    .text.usart_synchronous_clock_config:0000000000000002 .L0 
C:\Users\test\AppData\Local\Temp\ccjHsQYj.s:759    .text.usart_synchronous_clock_config:0000000000000002 .L0 
C:\Users\test\AppData\Local\Temp\ccjHsQYj.s:762    .text.usart_synchronous_clock_config:0000000000000006 .L0 
C:\Users\test\AppData\Local\Temp\ccjHsQYj.s:765    .text.usart_synchronous_clock_config:000000000000000a .L0 
C:\Users\test\AppData\Local\Temp\ccjHsQYj.s:767    .text.usart_synchronous_clock_config:000000000000000c .L0 
C:\Users\test\AppData\Local\Temp\ccjHsQYj.s:770    .text.usart_synchronous_clock_config:0000000000000010 .L0 
C:\Users\test\AppData\Local\Temp\ccjHsQYj.s:773    .text.usart_synchronous_clock_config:0000000000000014 .L0 
C:\Users\test\AppData\Local\Temp\ccjHsQYj.s:774    .text.usart_synchronous_clock_config:0000000000000014 .L0 
C:\Users\test\AppData\Local\Temp\ccjHsQYj.s:776    .text.usart_synchronous_clock_config:0000000000000016 .L0 
C:\Users\test\AppData\Local\Temp\ccjHsQYj.s:779    .text.usart_synchronous_clock_config:0000000000000018 .L0 
C:\Users\test\AppData\Local\Temp\ccjHsQYj.s:780    .text.usart_synchronous_clock_config:0000000000000018 .L0 
C:\Users\test\AppData\Local\Temp\ccjHsQYj.s:782    .text.usart_synchronous_clock_config:000000000000001a .L0 
C:\Users\test\AppData\Local\Temp\ccjHsQYj.s:783    .text.usart_synchronous_clock_config:000000000000001c .L0 
C:\Users\test\AppData\Local\Temp\ccjHsQYj.s:790    .text.usart_guard_time_config:0000000000000000 usart_guard_time_config
C:\Users\test\AppData\Local\Temp\ccjHsQYj.s:793    .text.usart_guard_time_config:0000000000000000 .L0 
C:\Users\test\AppData\Local\Temp\ccjHsQYj.s:795    .text.usart_guard_time_config:0000000000000000 .L0 
C:\Users\test\AppData\Local\Temp\ccjHsQYj.s:796    .text.usart_guard_time_config:0000000000000000 .L0 
C:\Users\test\AppData\Local\Temp\ccjHsQYj.s:797    .text.usart_guard_time_config:0000000000000000 .L0 
C:\Users\test\AppData\Local\Temp\ccjHsQYj.s:803    .text.usart_guard_time_config:000000000000000c .L0 
C:\Users\test\AppData\Local\Temp\ccjHsQYj.s:804    .text.usart_guard_time_config:000000000000000c .L0 
C:\Users\test\AppData\Local\Temp\ccjHsQYj.s:806    .text.usart_guard_time_config:000000000000000e .L0 
C:\Users\test\AppData\Local\Temp\ccjHsQYj.s:808    .text.usart_guard_time_config:0000000000000010 .L0 
C:\Users\test\AppData\Local\Temp\ccjHsQYj.s:811    .text.usart_guard_time_config:0000000000000012 .L0 
C:\Users\test\AppData\Local\Temp\ccjHsQYj.s:814    .text.usart_guard_time_config:0000000000000016 .L0 
C:\Users\test\AppData\Local\Temp\ccjHsQYj.s:817    .text.usart_guard_time_config:000000000000001a .L0 
C:\Users\test\AppData\Local\Temp\ccjHsQYj.s:818    .text.usart_guard_time_config:000000000000001c .L0 
C:\Users\test\AppData\Local\Temp\ccjHsQYj.s:825    .text.usart_smartcard_mode_enable:0000000000000000 usart_smartcard_mode_enable
C:\Users\test\AppData\Local\Temp\ccjHsQYj.s:828    .text.usart_smartcard_mode_enable:0000000000000000 .L0 
C:\Users\test\AppData\Local\Temp\ccjHsQYj.s:830    .text.usart_smartcard_mode_enable:0000000000000000 .L0 
C:\Users\test\AppData\Local\Temp\ccjHsQYj.s:831    .text.usart_smartcard_mode_enable:0000000000000000 .L0 
C:\Users\test\AppData\Local\Temp\ccjHsQYj.s:832    .text.usart_smartcard_mode_enable:0000000000000000 .L0 
C:\Users\test\AppData\Local\Temp\ccjHsQYj.s:836    .text.usart_smartcard_mode_enable:0000000000000008 .L0 
C:\Users\test\AppData\Local\Temp\ccjHsQYj.s:837    .text.usart_smartcard_mode_enable:000000000000000a .L0 
C:\Users\test\AppData\Local\Temp\ccjHsQYj.s:844    .text.usart_smartcard_mode_disable:0000000000000000 usart_smartcard_mode_disable
C:\Users\test\AppData\Local\Temp\ccjHsQYj.s:847    .text.usart_smartcard_mode_disable:0000000000000000 .L0 
C:\Users\test\AppData\Local\Temp\ccjHsQYj.s:849    .text.usart_smartcard_mode_disable:0000000000000000 .L0 
C:\Users\test\AppData\Local\Temp\ccjHsQYj.s:850    .text.usart_smartcard_mode_disable:0000000000000000 .L0 
C:\Users\test\AppData\Local\Temp\ccjHsQYj.s:851    .text.usart_smartcard_mode_disable:0000000000000000 .L0 
C:\Users\test\AppData\Local\Temp\ccjHsQYj.s:855    .text.usart_smartcard_mode_disable:0000000000000008 .L0 
C:\Users\test\AppData\Local\Temp\ccjHsQYj.s:856    .text.usart_smartcard_mode_disable:000000000000000a .L0 
C:\Users\test\AppData\Local\Temp\ccjHsQYj.s:863    .text.usart_smartcard_mode_nack_enable:0000000000000000 usart_smartcard_mode_nack_enable
C:\Users\test\AppData\Local\Temp\ccjHsQYj.s:866    .text.usart_smartcard_mode_nack_enable:0000000000000000 .L0 
C:\Users\test\AppData\Local\Temp\ccjHsQYj.s:868    .text.usart_smartcard_mode_nack_enable:0000000000000000 .L0 
C:\Users\test\AppData\Local\Temp\ccjHsQYj.s:869    .text.usart_smartcard_mode_nack_enable:0000000000000000 .L0 
C:\Users\test\AppData\Local\Temp\ccjHsQYj.s:870    .text.usart_smartcard_mode_nack_enable:0000000000000000 .L0 
C:\Users\test\AppData\Local\Temp\ccjHsQYj.s:874    .text.usart_smartcard_mode_nack_enable:0000000000000008 .L0 
C:\Users\test\AppData\Local\Temp\ccjHsQYj.s:875    .text.usart_smartcard_mode_nack_enable:000000000000000a .L0 
GAS LISTING C:\Users\test\AppData\Local\Temp\ccjHsQYj.s 			page 43


C:\Users\test\AppData\Local\Temp\ccjHsQYj.s:882    .text.usart_smartcard_mode_nack_disable:0000000000000000 usart_smartcard_mode_nack_disable
C:\Users\test\AppData\Local\Temp\ccjHsQYj.s:885    .text.usart_smartcard_mode_nack_disable:0000000000000000 .L0 
C:\Users\test\AppData\Local\Temp\ccjHsQYj.s:887    .text.usart_smartcard_mode_nack_disable:0000000000000000 .L0 
C:\Users\test\AppData\Local\Temp\ccjHsQYj.s:888    .text.usart_smartcard_mode_nack_disable:0000000000000000 .L0 
C:\Users\test\AppData\Local\Temp\ccjHsQYj.s:889    .text.usart_smartcard_mode_nack_disable:0000000000000000 .L0 
C:\Users\test\AppData\Local\Temp\ccjHsQYj.s:893    .text.usart_smartcard_mode_nack_disable:0000000000000006 .L0 
C:\Users\test\AppData\Local\Temp\ccjHsQYj.s:894    .text.usart_smartcard_mode_nack_disable:0000000000000008 .L0 
C:\Users\test\AppData\Local\Temp\ccjHsQYj.s:901    .text.usart_irda_mode_enable:0000000000000000 usart_irda_mode_enable
C:\Users\test\AppData\Local\Temp\ccjHsQYj.s:904    .text.usart_irda_mode_enable:0000000000000000 .L0 
C:\Users\test\AppData\Local\Temp\ccjHsQYj.s:906    .text.usart_irda_mode_enable:0000000000000000 .L0 
C:\Users\test\AppData\Local\Temp\ccjHsQYj.s:907    .text.usart_irda_mode_enable:0000000000000000 .L0 
C:\Users\test\AppData\Local\Temp\ccjHsQYj.s:908    .text.usart_irda_mode_enable:0000000000000000 .L0 
C:\Users\test\AppData\Local\Temp\ccjHsQYj.s:912    .text.usart_irda_mode_enable:0000000000000008 .L0 
C:\Users\test\AppData\Local\Temp\ccjHsQYj.s:913    .text.usart_irda_mode_enable:000000000000000a .L0 
C:\Users\test\AppData\Local\Temp\ccjHsQYj.s:920    .text.usart_irda_mode_disable:0000000000000000 usart_irda_mode_disable
C:\Users\test\AppData\Local\Temp\ccjHsQYj.s:923    .text.usart_irda_mode_disable:0000000000000000 .L0 
C:\Users\test\AppData\Local\Temp\ccjHsQYj.s:925    .text.usart_irda_mode_disable:0000000000000000 .L0 
C:\Users\test\AppData\Local\Temp\ccjHsQYj.s:926    .text.usart_irda_mode_disable:0000000000000000 .L0 
C:\Users\test\AppData\Local\Temp\ccjHsQYj.s:927    .text.usart_irda_mode_disable:0000000000000000 .L0 
C:\Users\test\AppData\Local\Temp\ccjHsQYj.s:931    .text.usart_irda_mode_disable:0000000000000006 .L0 
C:\Users\test\AppData\Local\Temp\ccjHsQYj.s:932    .text.usart_irda_mode_disable:0000000000000008 .L0 
C:\Users\test\AppData\Local\Temp\ccjHsQYj.s:939    .text.usart_prescaler_config:0000000000000000 usart_prescaler_config
C:\Users\test\AppData\Local\Temp\ccjHsQYj.s:942    .text.usart_prescaler_config:0000000000000000 .L0 
C:\Users\test\AppData\Local\Temp\ccjHsQYj.s:944    .text.usart_prescaler_config:0000000000000000 .L0 
C:\Users\test\AppData\Local\Temp\ccjHsQYj.s:945    .text.usart_prescaler_config:0000000000000000 .L0 
C:\Users\test\AppData\Local\Temp\ccjHsQYj.s:946    .text.usart_prescaler_config:0000000000000000 .L0 
C:\Users\test\AppData\Local\Temp\ccjHsQYj.s:950    .text.usart_prescaler_config:0000000000000008 .L0 
C:\Users\test\AppData\Local\Temp\ccjHsQYj.s:951    .text.usart_prescaler_config:0000000000000008 .L0 
C:\Users\test\AppData\Local\Temp\ccjHsQYj.s:956    .text.usart_prescaler_config:000000000000000e .L0 
C:\Users\test\AppData\Local\Temp\ccjHsQYj.s:957    .text.usart_prescaler_config:0000000000000010 .L0 
C:\Users\test\AppData\Local\Temp\ccjHsQYj.s:964    .text.usart_irda_lowpower_config:0000000000000000 usart_irda_lowpower_config
C:\Users\test\AppData\Local\Temp\ccjHsQYj.s:967    .text.usart_irda_lowpower_config:0000000000000000 .L0 
C:\Users\test\AppData\Local\Temp\ccjHsQYj.s:969    .text.usart_irda_lowpower_config:0000000000000000 .L0 
C:\Users\test\AppData\Local\Temp\ccjHsQYj.s:970    .text.usart_irda_lowpower_config:0000000000000000 .L0 
C:\Users\test\AppData\Local\Temp\ccjHsQYj.s:971    .text.usart_irda_lowpower_config:0000000000000000 .L0 
C:\Users\test\AppData\Local\Temp\ccjHsQYj.s:973    .text.usart_irda_lowpower_config:0000000000000002 .L0 
C:\Users\test\AppData\Local\Temp\ccjHsQYj.s:976    .text.usart_irda_lowpower_config:0000000000000004 .L0 
C:\Users\test\AppData\Local\Temp\ccjHsQYj.s:979    .text.usart_irda_lowpower_config:0000000000000008 .L0 
C:\Users\test\AppData\Local\Temp\ccjHsQYj.s:980    .text.usart_irda_lowpower_config:0000000000000008 .L0 
C:\Users\test\AppData\Local\Temp\ccjHsQYj.s:984    .text.usart_irda_lowpower_config:000000000000000e .L0 
C:\Users\test\AppData\Local\Temp\ccjHsQYj.s:985    .text.usart_irda_lowpower_config:0000000000000010 .L0 
C:\Users\test\AppData\Local\Temp\ccjHsQYj.s:992    .text.usart_hardware_flow_rts_config:0000000000000000 usart_hardware_flow_rts_config
C:\Users\test\AppData\Local\Temp\ccjHsQYj.s:995    .text.usart_hardware_flow_rts_config:0000000000000000 .L0 
C:\Users\test\AppData\Local\Temp\ccjHsQYj.s:997    .text.usart_hardware_flow_rts_config:0000000000000000 .L0 
C:\Users\test\AppData\Local\Temp\ccjHsQYj.s:998    .text.usart_hardware_flow_rts_config:0000000000000000 .L0 
C:\Users\test\AppData\Local\Temp\ccjHsQYj.s:999    .text.usart_hardware_flow_rts_config:0000000000000000 .L0 
C:\Users\test\AppData\Local\Temp\ccjHsQYj.s:1000   .text.usart_hardware_flow_rts_config:0000000000000000 .L0 
C:\Users\test\AppData\Local\Temp\ccjHsQYj.s:1003   .text.usart_hardware_flow_rts_config:0000000000000002 .L0 
C:\Users\test\AppData\Local\Temp\ccjHsQYj.s:1004   .text.usart_hardware_flow_rts_config:0000000000000002 .L0 
C:\Users\test\AppData\Local\Temp\ccjHsQYj.s:1007   .text.usart_hardware_flow_rts_config:0000000000000006 .L0 
C:\Users\test\AppData\Local\Temp\ccjHsQYj.s:1008   .text.usart_hardware_flow_rts_config:0000000000000006 .L0 
C:\Users\test\AppData\Local\Temp\ccjHsQYj.s:1011   .text.usart_hardware_flow_rts_config:0000000000000008 .L0 
C:\Users\test\AppData\Local\Temp\ccjHsQYj.s:1012   .text.usart_hardware_flow_rts_config:0000000000000008 .L0 
C:\Users\test\AppData\Local\Temp\ccjHsQYj.s:1014   .text.usart_hardware_flow_rts_config:000000000000000a .L0 
C:\Users\test\AppData\Local\Temp\ccjHsQYj.s:1015   .text.usart_hardware_flow_rts_config:000000000000000c .L0 
C:\Users\test\AppData\Local\Temp\ccjHsQYj.s:1022   .text.usart_hardware_flow_cts_config:0000000000000000 usart_hardware_flow_cts_config
C:\Users\test\AppData\Local\Temp\ccjHsQYj.s:1025   .text.usart_hardware_flow_cts_config:0000000000000000 .L0 
GAS LISTING C:\Users\test\AppData\Local\Temp\ccjHsQYj.s 			page 44


C:\Users\test\AppData\Local\Temp\ccjHsQYj.s:1027   .text.usart_hardware_flow_cts_config:0000000000000000 .L0 
C:\Users\test\AppData\Local\Temp\ccjHsQYj.s:1028   .text.usart_hardware_flow_cts_config:0000000000000000 .L0 
C:\Users\test\AppData\Local\Temp\ccjHsQYj.s:1029   .text.usart_hardware_flow_cts_config:0000000000000000 .L0 
C:\Users\test\AppData\Local\Temp\ccjHsQYj.s:1030   .text.usart_hardware_flow_cts_config:0000000000000000 .L0 
C:\Users\test\AppData\Local\Temp\ccjHsQYj.s:1033   .text.usart_hardware_flow_cts_config:0000000000000002 .L0 
C:\Users\test\AppData\Local\Temp\ccjHsQYj.s:1034   .text.usart_hardware_flow_cts_config:0000000000000002 .L0 
C:\Users\test\AppData\Local\Temp\ccjHsQYj.s:1037   .text.usart_hardware_flow_cts_config:0000000000000006 .L0 
C:\Users\test\AppData\Local\Temp\ccjHsQYj.s:1038   .text.usart_hardware_flow_cts_config:0000000000000006 .L0 
C:\Users\test\AppData\Local\Temp\ccjHsQYj.s:1041   .text.usart_hardware_flow_cts_config:0000000000000008 .L0 
C:\Users\test\AppData\Local\Temp\ccjHsQYj.s:1042   .text.usart_hardware_flow_cts_config:0000000000000008 .L0 
C:\Users\test\AppData\Local\Temp\ccjHsQYj.s:1044   .text.usart_hardware_flow_cts_config:000000000000000a .L0 
C:\Users\test\AppData\Local\Temp\ccjHsQYj.s:1045   .text.usart_hardware_flow_cts_config:000000000000000c .L0 
C:\Users\test\AppData\Local\Temp\ccjHsQYj.s:1052   .text.usart_dma_receive_config:0000000000000000 usart_dma_receive_config
C:\Users\test\AppData\Local\Temp\ccjHsQYj.s:1055   .text.usart_dma_receive_config:0000000000000000 .L0 
C:\Users\test\AppData\Local\Temp\ccjHsQYj.s:1057   .text.usart_dma_receive_config:0000000000000000 .L0 
C:\Users\test\AppData\Local\Temp\ccjHsQYj.s:1058   .text.usart_dma_receive_config:0000000000000000 .L0 
C:\Users\test\AppData\Local\Temp\ccjHsQYj.s:1059   .text.usart_dma_receive_config:0000000000000000 .L0 
C:\Users\test\AppData\Local\Temp\ccjHsQYj.s:1060   .text.usart_dma_receive_config:0000000000000000 .L0 
C:\Users\test\AppData\Local\Temp\ccjHsQYj.s:1063   .text.usart_dma_receive_config:0000000000000002 .L0 
C:\Users\test\AppData\Local\Temp\ccjHsQYj.s:1064   .text.usart_dma_receive_config:0000000000000002 .L0 
C:\Users\test\AppData\Local\Temp\ccjHsQYj.s:1067   .text.usart_dma_receive_config:0000000000000006 .L0 
C:\Users\test\AppData\Local\Temp\ccjHsQYj.s:1068   .text.usart_dma_receive_config:0000000000000006 .L0 
C:\Users\test\AppData\Local\Temp\ccjHsQYj.s:1071   .text.usart_dma_receive_config:0000000000000008 .L0 
C:\Users\test\AppData\Local\Temp\ccjHsQYj.s:1072   .text.usart_dma_receive_config:0000000000000008 .L0 
C:\Users\test\AppData\Local\Temp\ccjHsQYj.s:1074   .text.usart_dma_receive_config:000000000000000a .L0 
C:\Users\test\AppData\Local\Temp\ccjHsQYj.s:1075   .text.usart_dma_receive_config:000000000000000c .L0 
C:\Users\test\AppData\Local\Temp\ccjHsQYj.s:1082   .text.usart_dma_transmit_config:0000000000000000 usart_dma_transmit_config
C:\Users\test\AppData\Local\Temp\ccjHsQYj.s:1085   .text.usart_dma_transmit_config:0000000000000000 .L0 
C:\Users\test\AppData\Local\Temp\ccjHsQYj.s:1087   .text.usart_dma_transmit_config:0000000000000000 .L0 
C:\Users\test\AppData\Local\Temp\ccjHsQYj.s:1088   .text.usart_dma_transmit_config:0000000000000000 .L0 
C:\Users\test\AppData\Local\Temp\ccjHsQYj.s:1089   .text.usart_dma_transmit_config:0000000000000000 .L0 
C:\Users\test\AppData\Local\Temp\ccjHsQYj.s:1090   .text.usart_dma_transmit_config:0000000000000000 .L0 
C:\Users\test\AppData\Local\Temp\ccjHsQYj.s:1093   .text.usart_dma_transmit_config:0000000000000002 .L0 
C:\Users\test\AppData\Local\Temp\ccjHsQYj.s:1094   .text.usart_dma_transmit_config:0000000000000002 .L0 
C:\Users\test\AppData\Local\Temp\ccjHsQYj.s:1097   .text.usart_dma_transmit_config:0000000000000006 .L0 
C:\Users\test\AppData\Local\Temp\ccjHsQYj.s:1098   .text.usart_dma_transmit_config:0000000000000006 .L0 
C:\Users\test\AppData\Local\Temp\ccjHsQYj.s:1101   .text.usart_dma_transmit_config:0000000000000008 .L0 
C:\Users\test\AppData\Local\Temp\ccjHsQYj.s:1102   .text.usart_dma_transmit_config:0000000000000008 .L0 
C:\Users\test\AppData\Local\Temp\ccjHsQYj.s:1104   .text.usart_dma_transmit_config:000000000000000a .L0 
C:\Users\test\AppData\Local\Temp\ccjHsQYj.s:1105   .text.usart_dma_transmit_config:000000000000000c .L0 
C:\Users\test\AppData\Local\Temp\ccjHsQYj.s:1112   .text.usart_flag_get:0000000000000000 usart_flag_get
C:\Users\test\AppData\Local\Temp\ccjHsQYj.s:1115   .text.usart_flag_get:0000000000000000 .L0 
C:\Users\test\AppData\Local\Temp\ccjHsQYj.s:1117   .text.usart_flag_get:0000000000000000 .L0 
C:\Users\test\AppData\Local\Temp\ccjHsQYj.s:1118   .text.usart_flag_get:0000000000000000 .L0 
C:\Users\test\AppData\Local\Temp\ccjHsQYj.s:1119   .text.usart_flag_get:0000000000000000 .L0 
C:\Users\test\AppData\Local\Temp\ccjHsQYj.s:1125   .text.usart_flag_get:000000000000000c .L0 
C:\Users\test\AppData\Local\Temp\ccjHsQYj.s:1127   .text.usart_flag_get:0000000000000010 .L0 
C:\Users\test\AppData\Local\Temp\ccjHsQYj.s:1129   .text.usart_flag_get:0000000000000014 .L0 
C:\Users\test\AppData\Local\Temp\ccjHsQYj.s:1136   .text.usart_flag_clear:0000000000000000 usart_flag_clear
C:\Users\test\AppData\Local\Temp\ccjHsQYj.s:1139   .text.usart_flag_clear:0000000000000000 .L0 
C:\Users\test\AppData\Local\Temp\ccjHsQYj.s:1141   .text.usart_flag_clear:0000000000000000 .L0 
C:\Users\test\AppData\Local\Temp\ccjHsQYj.s:1142   .text.usart_flag_clear:0000000000000000 .L0 
C:\Users\test\AppData\Local\Temp\ccjHsQYj.s:1143   .text.usart_flag_clear:0000000000000000 .L0 
C:\Users\test\AppData\Local\Temp\ccjHsQYj.s:1149   .text.usart_flag_clear:000000000000000c .L0 
C:\Users\test\AppData\Local\Temp\ccjHsQYj.s:1152   .text.usart_flag_clear:0000000000000012 .L0 
C:\Users\test\AppData\Local\Temp\ccjHsQYj.s:1154   .text.usart_flag_clear:0000000000000016 .L0 
C:\Users\test\AppData\Local\Temp\ccjHsQYj.s:1157   .text.usart_flag_clear:000000000000001a .L0 
GAS LISTING C:\Users\test\AppData\Local\Temp\ccjHsQYj.s 			page 45


C:\Users\test\AppData\Local\Temp\ccjHsQYj.s:1158   .text.usart_flag_clear:000000000000001c .L0 
C:\Users\test\AppData\Local\Temp\ccjHsQYj.s:1165   .text.usart_interrupt_enable:0000000000000000 usart_interrupt_enable
C:\Users\test\AppData\Local\Temp\ccjHsQYj.s:1168   .text.usart_interrupt_enable:0000000000000000 .L0 
C:\Users\test\AppData\Local\Temp\ccjHsQYj.s:1170   .text.usart_interrupt_enable:0000000000000000 .L0 
C:\Users\test\AppData\Local\Temp\ccjHsQYj.s:1171   .text.usart_interrupt_enable:0000000000000000 .L0 
C:\Users\test\AppData\Local\Temp\ccjHsQYj.s:1172   .text.usart_interrupt_enable:0000000000000000 .L0 
C:\Users\test\AppData\Local\Temp\ccjHsQYj.s:1178   .text.usart_interrupt_enable:000000000000000c .L0 
C:\Users\test\AppData\Local\Temp\ccjHsQYj.s:1181   .text.usart_interrupt_enable:0000000000000012 .L0 
C:\Users\test\AppData\Local\Temp\ccjHsQYj.s:1184   .text.usart_interrupt_enable:0000000000000016 .L0 
C:\Users\test\AppData\Local\Temp\ccjHsQYj.s:1185   .text.usart_interrupt_enable:0000000000000018 .L0 
C:\Users\test\AppData\Local\Temp\ccjHsQYj.s:1192   .text.usart_interrupt_disable:0000000000000000 usart_interrupt_disable
C:\Users\test\AppData\Local\Temp\ccjHsQYj.s:1195   .text.usart_interrupt_disable:0000000000000000 .L0 
C:\Users\test\AppData\Local\Temp\ccjHsQYj.s:1197   .text.usart_interrupt_disable:0000000000000000 .L0 
C:\Users\test\AppData\Local\Temp\ccjHsQYj.s:1198   .text.usart_interrupt_disable:0000000000000000 .L0 
C:\Users\test\AppData\Local\Temp\ccjHsQYj.s:1199   .text.usart_interrupt_disable:0000000000000000 .L0 
C:\Users\test\AppData\Local\Temp\ccjHsQYj.s:1205   .text.usart_interrupt_disable:000000000000000c .L0 
C:\Users\test\AppData\Local\Temp\ccjHsQYj.s:1208   .text.usart_interrupt_disable:0000000000000012 .L0 
C:\Users\test\AppData\Local\Temp\ccjHsQYj.s:1210   .text.usart_interrupt_disable:0000000000000016 .L0 
C:\Users\test\AppData\Local\Temp\ccjHsQYj.s:1213   .text.usart_interrupt_disable:000000000000001a .L0 
C:\Users\test\AppData\Local\Temp\ccjHsQYj.s:1214   .text.usart_interrupt_disable:000000000000001c .L0 
C:\Users\test\AppData\Local\Temp\ccjHsQYj.s:1221   .text.usart_interrupt_flag_get:0000000000000000 usart_interrupt_flag_get
C:\Users\test\AppData\Local\Temp\ccjHsQYj.s:1224   .text.usart_interrupt_flag_get:0000000000000000 .L0 
C:\Users\test\AppData\Local\Temp\ccjHsQYj.s:1226   .text.usart_interrupt_flag_get:0000000000000000 .L0 
C:\Users\test\AppData\Local\Temp\ccjHsQYj.s:1227   .text.usart_interrupt_flag_get:0000000000000000 .L0 
C:\Users\test\AppData\Local\Temp\ccjHsQYj.s:1228   .text.usart_interrupt_flag_get:0000000000000000 .L0 
C:\Users\test\AppData\Local\Temp\ccjHsQYj.s:1229   .text.usart_interrupt_flag_get:0000000000000000 .L0 
C:\Users\test\AppData\Local\Temp\ccjHsQYj.s:1232   .text.usart_interrupt_flag_get:0000000000000008 .L0 
C:\Users\test\AppData\Local\Temp\ccjHsQYj.s:1234   .text.usart_interrupt_flag_get:000000000000000c .L0 
C:\Users\test\AppData\Local\Temp\ccjHsQYj.s:1236   .text.usart_interrupt_flag_get:000000000000000e .L0 
C:\Users\test\AppData\Local\Temp\ccjHsQYj.s:1238   .text.usart_interrupt_flag_get:0000000000000010 .L0 
C:\Users\test\AppData\Local\Temp\ccjHsQYj.s:1241   .text.usart_interrupt_flag_get:0000000000000012 .L0 
C:\Users\test\AppData\Local\Temp\ccjHsQYj.s:1242   .text.usart_interrupt_flag_get:0000000000000012 .L0 
C:\Users\test\AppData\Local\Temp\ccjHsQYj.s:1244   .text.usart_interrupt_flag_get:0000000000000014 .L0 
C:\Users\test\AppData\Local\Temp\ccjHsQYj.s:1249   .text.usart_interrupt_flag_get:000000000000001e .L0 
C:\Users\test\AppData\Local\Temp\ccjHsQYj.s:1252   .text.usart_interrupt_flag_get:0000000000000020 .L0 
C:\Users\test\AppData\Local\Temp\ccjHsQYj.s:1253   .text.usart_interrupt_flag_get:0000000000000020 .L0 
C:\Users\test\AppData\Local\Temp\ccjHsQYj.s:1255   .text.usart_interrupt_flag_get:0000000000000022 .L0 
C:\Users\test\AppData\Local\Temp\ccjHsQYj.s:1258   .text.usart_interrupt_flag_get:0000000000000026 .L0 
C:\Users\test\AppData\Local\Temp\ccjHsQYj.s:1260   .text.usart_interrupt_flag_get:0000000000000028 .L0 
C:\Users\test\AppData\Local\Temp\ccjHsQYj.s:1263   .text.usart_interrupt_flag_get:000000000000002c .L0 
C:\Users\test\AppData\Local\Temp\ccjHsQYj.s:1264   .text.usart_interrupt_flag_get:000000000000002e .L0 
C:\Users\test\AppData\Local\Temp\ccjHsQYj.s:1271   .text.usart_interrupt_flag_clear:0000000000000000 usart_interrupt_flag_clear
C:\Users\test\AppData\Local\Temp\ccjHsQYj.s:1274   .text.usart_interrupt_flag_clear:0000000000000000 .L0 
C:\Users\test\AppData\Local\Temp\ccjHsQYj.s:1276   .text.usart_interrupt_flag_clear:0000000000000000 .L0 
C:\Users\test\AppData\Local\Temp\ccjHsQYj.s:1277   .text.usart_interrupt_flag_clear:0000000000000000 .L0 
C:\Users\test\AppData\Local\Temp\ccjHsQYj.s:1278   .text.usart_interrupt_flag_clear:0000000000000000 .L0 
C:\Users\test\AppData\Local\Temp\ccjHsQYj.s:1283   .text.usart_interrupt_flag_clear:0000000000000008 .L0 
C:\Users\test\AppData\Local\Temp\ccjHsQYj.s:1288   .text.usart_interrupt_flag_clear:0000000000000010 .L0 
C:\Users\test\AppData\Local\Temp\ccjHsQYj.s:1290   .text.usart_interrupt_flag_clear:0000000000000014 .L0 
C:\Users\test\AppData\Local\Temp\ccjHsQYj.s:1293   .text.usart_interrupt_flag_clear:0000000000000018 .L0 
C:\Users\test\AppData\Local\Temp\ccjHsQYj.s:1294   .text.usart_interrupt_flag_clear:000000000000001a .L0 
C:\Users\test\AppData\Local\Temp\ccjHsQYj.s:160    .text.usart_deinit:00000000000000ca .L0 
C:\Users\test\AppData\Local\Temp\ccjHsQYj.s:263    .text.usart_baudrate_set:0000000000000074 .L0 
C:\Users\test\AppData\Local\Temp\ccjHsQYj.s:288    .text.usart_parity_config:0000000000000010 .L0 
C:\Users\test\AppData\Local\Temp\ccjHsQYj.s:315    .text.usart_word_length_set:0000000000000012 .L0 
C:\Users\test\AppData\Local\Temp\ccjHsQYj.s:342    .text.usart_stop_bit_set:0000000000000012 .L0 
C:\Users\test\AppData\Local\Temp\ccjHsQYj.s:362    .text.usart_enable:000000000000000a .L0 
GAS LISTING C:\Users\test\AppData\Local\Temp\ccjHsQYj.s 			page 46


C:\Users\test\AppData\Local\Temp\ccjHsQYj.s:383    .text.usart_disable:000000000000000c .L0 
C:\Users\test\AppData\Local\Temp\ccjHsQYj.s:413    .text.usart_transmit_config:000000000000000a .L0 
C:\Users\test\AppData\Local\Temp\ccjHsQYj.s:443    .text.usart_receive_config:000000000000000a .L0 
C:\Users\test\AppData\Local\Temp\ccjHsQYj.s:463    .text.usart_data_transmit:0000000000000008 .L0 
C:\Users\test\AppData\Local\Temp\ccjHsQYj.s:482    .text.usart_data_receive:0000000000000008 .L0 
C:\Users\test\AppData\Local\Temp\ccjHsQYj.s:510    .text.usart_address_config:0000000000000010 .L0 
C:\Users\test\AppData\Local\Temp\ccjHsQYj.s:529    .text.usart_mute_mode_enable:000000000000000a .L0 
C:\Users\test\AppData\Local\Temp\ccjHsQYj.s:548    .text.usart_mute_mode_disable:0000000000000008 .L0 
C:\Users\test\AppData\Local\Temp\ccjHsQYj.s:575    .text.usart_mute_mode_wakeup_config:0000000000000014 .L0 
C:\Users\test\AppData\Local\Temp\ccjHsQYj.s:595    .text.usart_lin_mode_enable:000000000000000a .L0 
C:\Users\test\AppData\Local\Temp\ccjHsQYj.s:616    .text.usart_lin_mode_disable:000000000000000c .L0 
C:\Users\test\AppData\Local\Temp\ccjHsQYj.s:644    .text.usart_lin_break_detection_length_config:0000000000000014 .L0 
C:\Users\test\AppData\Local\Temp\ccjHsQYj.s:663    .text.usart_send_break:000000000000000a .L0 
C:\Users\test\AppData\Local\Temp\ccjHsQYj.s:682    .text.usart_halfduplex_enable:000000000000000a .L0 
C:\Users\test\AppData\Local\Temp\ccjHsQYj.s:701    .text.usart_halfduplex_disable:0000000000000008 .L0 
C:\Users\test\AppData\Local\Temp\ccjHsQYj.s:722    .text.usart_synchronous_clock_enable:000000000000000e .L0 
C:\Users\test\AppData\Local\Temp\ccjHsQYj.s:743    .text.usart_synchronous_clock_disable:000000000000000e .L0 
C:\Users\test\AppData\Local\Temp\ccjHsQYj.s:786    .text.usart_synchronous_clock_config:000000000000001c .L0 
C:\Users\test\AppData\Local\Temp\ccjHsQYj.s:821    .text.usart_guard_time_config:000000000000001c .L0 
C:\Users\test\AppData\Local\Temp\ccjHsQYj.s:840    .text.usart_smartcard_mode_enable:000000000000000a .L0 
C:\Users\test\AppData\Local\Temp\ccjHsQYj.s:859    .text.usart_smartcard_mode_disable:000000000000000a .L0 
C:\Users\test\AppData\Local\Temp\ccjHsQYj.s:878    .text.usart_smartcard_mode_nack_enable:000000000000000a .L0 
C:\Users\test\AppData\Local\Temp\ccjHsQYj.s:897    .text.usart_smartcard_mode_nack_disable:0000000000000008 .L0 
C:\Users\test\AppData\Local\Temp\ccjHsQYj.s:916    .text.usart_irda_mode_enable:000000000000000a .L0 
C:\Users\test\AppData\Local\Temp\ccjHsQYj.s:935    .text.usart_irda_mode_disable:0000000000000008 .L0 
C:\Users\test\AppData\Local\Temp\ccjHsQYj.s:960    .text.usart_prescaler_config:0000000000000010 .L0 
C:\Users\test\AppData\Local\Temp\ccjHsQYj.s:988    .text.usart_irda_lowpower_config:0000000000000010 .L0 
C:\Users\test\AppData\Local\Temp\ccjHsQYj.s:1018   .text.usart_hardware_flow_rts_config:000000000000000c .L0 
C:\Users\test\AppData\Local\Temp\ccjHsQYj.s:1048   .text.usart_hardware_flow_cts_config:000000000000000c .L0 
C:\Users\test\AppData\Local\Temp\ccjHsQYj.s:1078   .text.usart_dma_receive_config:000000000000000c .L0 
C:\Users\test\AppData\Local\Temp\ccjHsQYj.s:1108   .text.usart_dma_transmit_config:000000000000000c .L0 
C:\Users\test\AppData\Local\Temp\ccjHsQYj.s:1132   .text.usart_flag_get:0000000000000014 .L0 
C:\Users\test\AppData\Local\Temp\ccjHsQYj.s:1161   .text.usart_flag_clear:000000000000001c .L0 
C:\Users\test\AppData\Local\Temp\ccjHsQYj.s:1188   .text.usart_interrupt_enable:0000000000000018 .L0 
C:\Users\test\AppData\Local\Temp\ccjHsQYj.s:1217   .text.usart_interrupt_disable:000000000000001c .L0 
C:\Users\test\AppData\Local\Temp\ccjHsQYj.s:1267   .text.usart_interrupt_flag_get:000000000000002e .L0 
C:\Users\test\AppData\Local\Temp\ccjHsQYj.s:1297   .text.usart_interrupt_flag_clear:000000000000001a .L0 
                     .debug_frame:0000000000000000 .L0 
C:\Users\test\AppData\Local\Temp\ccjHsQYj.s:81     .text.usart_deinit:0000000000000070 .L2
C:\Users\test\AppData\Local\Temp\ccjHsQYj.s:53     .text.usart_deinit:0000000000000040 .L10
C:\Users\test\AppData\Local\Temp\ccjHsQYj.s:103    .text.usart_deinit:000000000000008c .L7
C:\Users\test\AppData\Local\Temp\ccjHsQYj.s:125    .text.usart_deinit:00000000000000a8 .L1
C:\Users\test\AppData\Local\Temp\ccjHsQYj.s:136    .text.usart_deinit:00000000000000ae .L4
C:\Users\test\AppData\Local\Temp\ccjHsQYj.s:252    .text.usart_baudrate_set:0000000000000068 .L12
C:\Users\test\AppData\Local\Temp\ccjHsQYj.s:240    .text.usart_baudrate_set:0000000000000052 .L17
C:\Users\test\AppData\Local\Temp\ccjHsQYj.s:206    .text.usart_baudrate_set:0000000000000038 .L14
C:\Users\test\AppData\Local\Temp\ccjHsQYj.s:1261   .text.usart_interrupt_flag_get:000000000000002c .L57
C:\Users\test\AppData\Local\Temp\ccjHsQYj.s:3015   .debug_abbrev:0000000000000000 .Ldebug_abbrev0
C:\Users\test\AppData\Local\Temp\ccjHsQYj.s:4767   .debug_str:0000000000000498 .LASF135
C:\Users\test\AppData\Local\Temp\ccjHsQYj.s:4757   .debug_str:0000000000000424 .LASF136
C:\Users\test\AppData\Local\Temp\ccjHsQYj.s:4835   .debug_str:00000000000006b8 .LASF137
C:\Users\test\AppData\Local\Temp\ccjHsQYj.s:4535   .debug_ranges:0000000000000000 .Ldebug_ranges0
C:\Users\test\AppData\Local\Temp\ccjHsQYj.s:4625   .debug_line:0000000000000000 .Ldebug_line0
C:\Users\test\AppData\Local\Temp\ccjHsQYj.s:4645   .debug_str:00000000000000a4 .LASF0
C:\Users\test\AppData\Local\Temp\ccjHsQYj.s:4883   .debug_str:0000000000000876 .LASF1
C:\Users\test\AppData\Local\Temp\ccjHsQYj.s:4825   .debug_str:0000000000000678 .LASF4
C:\Users\test\AppData\Local\Temp\ccjHsQYj.s:4855   .debug_str:00000000000007a1 .LASF2
GAS LISTING C:\Users\test\AppData\Local\Temp\ccjHsQYj.s 			page 47


C:\Users\test\AppData\Local\Temp\ccjHsQYj.s:4801   .debug_str:00000000000005fd .LASF3
C:\Users\test\AppData\Local\Temp\ccjHsQYj.s:4695   .debug_str:0000000000000244 .LASF5
C:\Users\test\AppData\Local\Temp\ccjHsQYj.s:4885   .debug_str:0000000000000882 .LASF6
C:\Users\test\AppData\Local\Temp\ccjHsQYj.s:4805   .debug_str:0000000000000611 .LASF7
C:\Users\test\AppData\Local\Temp\ccjHsQYj.s:4857   .debug_str:00000000000007af .LASF8
C:\Users\test\AppData\Local\Temp\ccjHsQYj.s:4841   .debug_str:000000000000070f .LASF9
C:\Users\test\AppData\Local\Temp\ccjHsQYj.s:4759   .debug_str:0000000000000454 .LASF10
C:\Users\test\AppData\Local\Temp\ccjHsQYj.s:4687   .debug_str:0000000000000204 .LASF11
C:\Users\test\AppData\Local\Temp\ccjHsQYj.s:4743   .debug_str:00000000000003bf .LASF12
C:\Users\test\AppData\Local\Temp\ccjHsQYj.s:4787   .debug_str:0000000000000577 .LASF13
C:\Users\test\AppData\Local\Temp\ccjHsQYj.s:4669   .debug_str:0000000000000166 .LASF14
C:\Users\test\AppData\Local\Temp\ccjHsQYj.s:4633   .debug_str:0000000000000054 .LASF138
C:\Users\test\AppData\Local\Temp\ccjHsQYj.s:4817   .debug_str:000000000000065d .LASF15
C:\Users\test\AppData\Local\Temp\ccjHsQYj.s:4655   .debug_str:00000000000000fb .LASF16
C:\Users\test\AppData\Local\Temp\ccjHsQYj.s:4747   .debug_str:00000000000003dc .LASF17
C:\Users\test\AppData\Local\Temp\ccjHsQYj.s:4711   .debug_str:00000000000002b5 .LASF18
C:\Users\test\AppData\Local\Temp\ccjHsQYj.s:4881   .debug_str:0000000000000868 .LASF19
C:\Users\test\AppData\Local\Temp\ccjHsQYj.s:4755   .debug_str:0000000000000416 .LASF20
C:\Users\test\AppData\Local\Temp\ccjHsQYj.s:4641   .debug_str:000000000000008b .LASF21
C:\Users\test\AppData\Local\Temp\ccjHsQYj.s:4795   .debug_str:00000000000005bb .LASF22
C:\Users\test\AppData\Local\Temp\ccjHsQYj.s:4677   .debug_str:00000000000001ab .LASF23
C:\Users\test\AppData\Local\Temp\ccjHsQYj.s:4865   .debug_str:00000000000007f3 .LASF24
C:\Users\test\AppData\Local\Temp\ccjHsQYj.s:4649   .debug_str:00000000000000cc .LASF25
C:\Users\test\AppData\Local\Temp\ccjHsQYj.s:4799   .debug_str:00000000000005f1 .LASF26
C:\Users\test\AppData\Local\Temp\ccjHsQYj.s:4837   .debug_str:00000000000006e4 .LASF27
C:\Users\test\AppData\Local\Temp\ccjHsQYj.s:4719   .debug_str:0000000000000305 .LASF28
C:\Users\test\AppData\Local\Temp\ccjHsQYj.s:4829   .debug_str:0000000000000690 .LASF29
C:\Users\test\AppData\Local\Temp\ccjHsQYj.s:4717   .debug_str:00000000000002f8 .LASF30
C:\Users\test\AppData\Local\Temp\ccjHsQYj.s:4863   .debug_str:00000000000007e7 .LASF31
C:\Users\test\AppData\Local\Temp\ccjHsQYj.s:4733   .debug_str:000000000000036e .LASF32
C:\Users\test\AppData\Local\Temp\ccjHsQYj.s:4811   .debug_str:000000000000062e .LASF33
C:\Users\test\AppData\Local\Temp\ccjHsQYj.s:4697   .debug_str:000000000000024f .LASF34
C:\Users\test\AppData\Local\Temp\ccjHsQYj.s:4887   .debug_str:0000000000000895 .LASF35
C:\Users\test\AppData\Local\Temp\ccjHsQYj.s:4761   .debug_str:0000000000000462 .LASF36
C:\Users\test\AppData\Local\Temp\ccjHsQYj.s:4643   .debug_str:0000000000000099 .LASF37
C:\Users\test\AppData\Local\Temp\ccjHsQYj.s:4803   .debug_str:0000000000000607 .LASF38
C:\Users\test\AppData\Local\Temp\ccjHsQYj.s:4751   .debug_str:00000000000003ee .LASF39
C:\Users\test\AppData\Local\Temp\ccjHsQYj.s:4637   .debug_str:000000000000006e .LASF40
C:\Users\test\AppData\Local\Temp\ccjHsQYj.s:4783   .debug_str:0000000000000561 .LASF41
C:\Users\test\AppData\Local\Temp\ccjHsQYj.s:4667   .debug_str:0000000000000159 .LASF42
C:\Users\test\AppData\Local\Temp\ccjHsQYj.s:4833   .debug_str:00000000000006ab .LASF43
C:\Users\test\AppData\Local\Temp\ccjHsQYj.s:4709   .debug_str:00000000000002a9 .LASF44
C:\Users\test\AppData\Local\Temp\ccjHsQYj.s:4877   .debug_str:0000000000000846 .LASF45
C:\Users\test\AppData\Local\Temp\ccjHsQYj.s:4827   .debug_str:0000000000000682 .LASF46
C:\Users\test\AppData\Local\Temp\ccjHsQYj.s:4763   .debug_str:000000000000046d .LASF47
C:\Users\test\AppData\Local\Temp\ccjHsQYj.s:4673   .debug_str:000000000000017f .LASF48
C:\Users\test\AppData\Local\Temp\ccjHsQYj.s:4777   .debug_str:0000000000000535 .LASF49
C:\Users\test\AppData\Local\Temp\ccjHsQYj.s:4703   .debug_str:000000000000028a .LASF50
C:\Users\test\AppData\Local\Temp\ccjHsQYj.s:4821   .debug_str:0000000000000668 .LASF51
C:\Users\test\AppData\Local\Temp\ccjHsQYj.s:4823   .debug_str:0000000000000670 .LASF52
C:\Users\test\AppData\Local\Temp\ccjHsQYj.s:4815   .debug_str:000000000000064d .LASF53
C:\Users\test\AppData\Local\Temp\ccjHsQYj.s:4871   .debug_str:000000000000080e .LASF54
C:\Users\test\AppData\Local\Temp\ccjHsQYj.s:4809   .debug_str:000000000000061f .LASF55
C:\Users\test\AppData\Local\Temp\ccjHsQYj.s:4897   .debug_str:00000000000008f8 .LASF56
C:\Users\test\AppData\Local\Temp\ccjHsQYj.s:4875   .debug_str:0000000000000836 .LASF57
C:\Users\test\AppData\Local\Temp\ccjHsQYj.s:4705   .debug_str:0000000000000291 .LASF58
C:\Users\test\AppData\Local\Temp\ccjHsQYj.s:4721   .debug_str:0000000000000313 .LASF59
GAS LISTING C:\Users\test\AppData\Local\Temp\ccjHsQYj.s 			page 48


C:\Users\test\AppData\Local\Temp\ccjHsQYj.s:4639   .debug_str:000000000000007b .LASF60
C:\Users\test\AppData\Local\Temp\ccjHsQYj.s:4731   .debug_str:000000000000035e .LASF61
C:\Users\test\AppData\Local\Temp\ccjHsQYj.s:4671   .debug_str:000000000000016f .LASF62
C:\Users\test\AppData\Local\Temp\ccjHsQYj.s:4891   .debug_str:00000000000008c3 .LASF63
C:\Users\test\AppData\Local\Temp\ccjHsQYj.s:4753   .debug_str:00000000000003fb .LASF69
C:\Users\test\AppData\Local\Temp\ccjHsQYj.s:1272   .text.usart_interrupt_flag_clear:0000000000000000 .LFB44
C:\Users\test\AppData\Local\Temp\ccjHsQYj.s:1295   .text.usart_interrupt_flag_clear:000000000000001a .LFE44
C:\Users\test\AppData\Local\Temp\ccjHsQYj.s:4769   .debug_str:0000000000000512 .LASF64
C:\Users\test\AppData\Local\Temp\ccjHsQYj.s:3505   .debug_loc:0000000000000000 .LLST43
C:\Users\test\AppData\Local\Temp\ccjHsQYj.s:4819   .debug_str:0000000000000663 .LASF65
C:\Users\test\AppData\Local\Temp\ccjHsQYj.s:3519   .debug_loc:0000000000000021 .LLST44
C:\Users\test\AppData\Local\Temp\ccjHsQYj.s:4851   .debug_str:0000000000000771 .LASF73
C:\Users\test\AppData\Local\Temp\ccjHsQYj.s:1222   .text.usart_interrupt_flag_get:0000000000000000 .LFB43
C:\Users\test\AppData\Local\Temp\ccjHsQYj.s:1265   .text.usart_interrupt_flag_get:000000000000002e .LFE43
C:\Users\test\AppData\Local\Temp\ccjHsQYj.s:3533   .debug_loc:0000000000000042 .LLST40
C:\Users\test\AppData\Local\Temp\ccjHsQYj.s:4679   .debug_str:00000000000001b9 .LASF66
C:\Users\test\AppData\Local\Temp\ccjHsQYj.s:4771   .debug_str:000000000000051f .LASF67
C:\Users\test\AppData\Local\Temp\ccjHsQYj.s:3547   .debug_loc:0000000000000063 .LLST41
C:\Users\test\AppData\Local\Temp\ccjHsQYj.s:4901   .debug_str:0000000000000910 .LASF68
C:\Users\test\AppData\Local\Temp\ccjHsQYj.s:3568   .debug_loc:000000000000008b .LLST42
C:\Users\test\AppData\Local\Temp\ccjHsQYj.s:4873   .debug_str:000000000000081e .LASF70
C:\Users\test\AppData\Local\Temp\ccjHsQYj.s:1193   .text.usart_interrupt_disable:0000000000000000 .LFB42
C:\Users\test\AppData\Local\Temp\ccjHsQYj.s:1215   .text.usart_interrupt_disable:000000000000001c .LFE42
C:\Users\test\AppData\Local\Temp\ccjHsQYj.s:3597   .debug_loc:00000000000000c2 .LLST39
C:\Users\test\AppData\Local\Temp\ccjHsQYj.s:4849   .debug_str:000000000000075a .LASF71
C:\Users\test\AppData\Local\Temp\ccjHsQYj.s:1166   .text.usart_interrupt_enable:0000000000000000 .LFB41
C:\Users\test\AppData\Local\Temp\ccjHsQYj.s:1186   .text.usart_interrupt_enable:0000000000000018 .LFE41
C:\Users\test\AppData\Local\Temp\ccjHsQYj.s:3611   .debug_loc:00000000000000e3 .LLST38
C:\Users\test\AppData\Local\Temp\ccjHsQYj.s:4681   .debug_str:00000000000001c2 .LASF72
C:\Users\test\AppData\Local\Temp\ccjHsQYj.s:1137   .text.usart_flag_clear:0000000000000000 .LFB40
C:\Users\test\AppData\Local\Temp\ccjHsQYj.s:1159   .text.usart_flag_clear:000000000000001c .LFE40
C:\Users\test\AppData\Local\Temp\ccjHsQYj.s:3625   .debug_loc:0000000000000104 .LLST37
C:\Users\test\AppData\Local\Temp\ccjHsQYj.s:4789   .debug_str:0000000000000580 .LASF74
C:\Users\test\AppData\Local\Temp\ccjHsQYj.s:1113   .text.usart_flag_get:0000000000000000 .LFB39
C:\Users\test\AppData\Local\Temp\ccjHsQYj.s:1130   .text.usart_flag_get:0000000000000014 .LFE39
C:\Users\test\AppData\Local\Temp\ccjHsQYj.s:3639   .debug_loc:0000000000000125 .LLST36
C:\Users\test\AppData\Local\Temp\ccjHsQYj.s:4741   .debug_str:00000000000003a5 .LASF75
C:\Users\test\AppData\Local\Temp\ccjHsQYj.s:1083   .text.usart_dma_transmit_config:0000000000000000 .LFB38
C:\Users\test\AppData\Local\Temp\ccjHsQYj.s:1106   .text.usart_dma_transmit_config:000000000000000c .LFE38
C:\Users\test\AppData\Local\Temp\ccjHsQYj.s:4775   .debug_str:000000000000052e .LASF76
C:\Users\test\AppData\Local\Temp\ccjHsQYj.s:3653   .debug_loc:0000000000000146 .LLST34
C:\Users\test\AppData\Local\Temp\ccjHsQYj.s:3667   .debug_loc:0000000000000167 .LLST35
C:\Users\test\AppData\Local\Temp\ccjHsQYj.s:4653   .debug_str:00000000000000e2 .LASF77
C:\Users\test\AppData\Local\Temp\ccjHsQYj.s:1053   .text.usart_dma_receive_config:0000000000000000 .LFB37
C:\Users\test\AppData\Local\Temp\ccjHsQYj.s:1076   .text.usart_dma_receive_config:000000000000000c .LFE37
C:\Users\test\AppData\Local\Temp\ccjHsQYj.s:3683   .debug_loc:0000000000000191 .LLST32
C:\Users\test\AppData\Local\Temp\ccjHsQYj.s:3697   .debug_loc:00000000000001b2 .LLST33
C:\Users\test\AppData\Local\Temp\ccjHsQYj.s:4627   .debug_str:0000000000000000 .LASF78
C:\Users\test\AppData\Local\Temp\ccjHsQYj.s:1023   .text.usart_hardware_flow_cts_config:0000000000000000 .LFB36
C:\Users\test\AppData\Local\Temp\ccjHsQYj.s:1046   .text.usart_hardware_flow_cts_config:000000000000000c .LFE36
C:\Users\test\AppData\Local\Temp\ccjHsQYj.s:4635   .debug_str:0000000000000064 .LASF79
C:\Users\test\AppData\Local\Temp\ccjHsQYj.s:3713   .debug_loc:00000000000001dc .LLST30
C:\Users\test\AppData\Local\Temp\ccjHsQYj.s:3727   .debug_loc:00000000000001fd .LLST31
C:\Users\test\AppData\Local\Temp\ccjHsQYj.s:4765   .debug_str:0000000000000479 .LASF80
C:\Users\test\AppData\Local\Temp\ccjHsQYj.s:993    .text.usart_hardware_flow_rts_config:0000000000000000 .LFB35
C:\Users\test\AppData\Local\Temp\ccjHsQYj.s:1016   .text.usart_hardware_flow_rts_config:000000000000000c .LFE35
C:\Users\test\AppData\Local\Temp\ccjHsQYj.s:4651   .debug_str:00000000000000d8 .LASF81
GAS LISTING C:\Users\test\AppData\Local\Temp\ccjHsQYj.s 			page 49


C:\Users\test\AppData\Local\Temp\ccjHsQYj.s:3743   .debug_loc:0000000000000227 .LLST28
C:\Users\test\AppData\Local\Temp\ccjHsQYj.s:3757   .debug_loc:0000000000000248 .LLST29
C:\Users\test\AppData\Local\Temp\ccjHsQYj.s:4647   .debug_str:00000000000000b1 .LASF82
C:\Users\test\AppData\Local\Temp\ccjHsQYj.s:965    .text.usart_irda_lowpower_config:0000000000000000 .LFB34
C:\Users\test\AppData\Local\Temp\ccjHsQYj.s:986    .text.usart_irda_lowpower_config:0000000000000010 .LFE34
C:\Users\test\AppData\Local\Temp\ccjHsQYj.s:4773   .debug_str:0000000000000529 .LASF83
C:\Users\test\AppData\Local\Temp\ccjHsQYj.s:3773   .debug_loc:0000000000000272 .LLST27
C:\Users\test\AppData\Local\Temp\ccjHsQYj.s:4853   .debug_str:000000000000078a .LASF84
C:\Users\test\AppData\Local\Temp\ccjHsQYj.s:940    .text.usart_prescaler_config:0000000000000000 .LFB33
C:\Users\test\AppData\Local\Temp\ccjHsQYj.s:958    .text.usart_prescaler_config:0000000000000010 .LFE33
C:\Users\test\AppData\Local\Temp\ccjHsQYj.s:3787   .debug_loc:0000000000000293 .LLST26
C:\Users\test\AppData\Local\Temp\ccjHsQYj.s:4661   .debug_str:0000000000000115 .LASF85
C:\Users\test\AppData\Local\Temp\ccjHsQYj.s:921    .text.usart_irda_mode_disable:0000000000000000 .LFB32
C:\Users\test\AppData\Local\Temp\ccjHsQYj.s:933    .text.usart_irda_mode_disable:0000000000000008 .LFE32
C:\Users\test\AppData\Local\Temp\ccjHsQYj.s:4859   .debug_str:00000000000007ba .LASF86
C:\Users\test\AppData\Local\Temp\ccjHsQYj.s:902    .text.usart_irda_mode_enable:0000000000000000 .LFB31
C:\Users\test\AppData\Local\Temp\ccjHsQYj.s:914    .text.usart_irda_mode_enable:000000000000000a .LFE31
C:\Users\test\AppData\Local\Temp\ccjHsQYj.s:4889   .debug_str:00000000000008a1 .LASF87
C:\Users\test\AppData\Local\Temp\ccjHsQYj.s:883    .text.usart_smartcard_mode_nack_disable:0000000000000000 .LFB30
C:\Users\test\AppData\Local\Temp\ccjHsQYj.s:895    .text.usart_smartcard_mode_nack_disable:0000000000000008 .LFE30
C:\Users\test\AppData\Local\Temp\ccjHsQYj.s:4629   .debug_str:000000000000001f .LASF88
C:\Users\test\AppData\Local\Temp\ccjHsQYj.s:864    .text.usart_smartcard_mode_nack_enable:0000000000000000 .LFB29
C:\Users\test\AppData\Local\Temp\ccjHsQYj.s:876    .text.usart_smartcard_mode_nack_enable:000000000000000a .LFE29
C:\Users\test\AppData\Local\Temp\ccjHsQYj.s:4839   .debug_str:00000000000006f2 .LASF89
C:\Users\test\AppData\Local\Temp\ccjHsQYj.s:845    .text.usart_smartcard_mode_disable:0000000000000000 .LFB28
C:\Users\test\AppData\Local\Temp\ccjHsQYj.s:857    .text.usart_smartcard_mode_disable:000000000000000a .LFE28
C:\Users\test\AppData\Local\Temp\ccjHsQYj.s:4843   .debug_str:0000000000000721 .LASF90
C:\Users\test\AppData\Local\Temp\ccjHsQYj.s:826    .text.usart_smartcard_mode_enable:0000000000000000 .LFB27
C:\Users\test\AppData\Local\Temp\ccjHsQYj.s:838    .text.usart_smartcard_mode_enable:000000000000000a .LFE27
C:\Users\test\AppData\Local\Temp\ccjHsQYj.s:4895   .debug_str:00000000000008e0 .LASF91
C:\Users\test\AppData\Local\Temp\ccjHsQYj.s:791    .text.usart_guard_time_config:0000000000000000 .LFB26
C:\Users\test\AppData\Local\Temp\ccjHsQYj.s:819    .text.usart_guard_time_config:000000000000001c .LFE26
C:\Users\test\AppData\Local\Temp\ccjHsQYj.s:4689   .debug_str:000000000000021b .LASF92
C:\Users\test\AppData\Local\Temp\ccjHsQYj.s:3801   .debug_loc:00000000000002b4 .LLST25
C:\Users\test\AppData\Local\Temp\ccjHsQYj.s:4791   .debug_str:000000000000058f .LASF93
C:\Users\test\AppData\Local\Temp\ccjHsQYj.s:748    .text.usart_synchronous_clock_config:0000000000000000 .LFB25
C:\Users\test\AppData\Local\Temp\ccjHsQYj.s:784    .text.usart_synchronous_clock_config:000000000000001c .LFE25
C:\Users\test\AppData\Local\Temp\ccjHsQYj.s:4691   .debug_str:0000000000000220 .LASF94
C:\Users\test\AppData\Local\Temp\ccjHsQYj.s:3815   .debug_loc:00000000000002d5 .LLST21
C:\Users\test\AppData\Local\Temp\ccjHsQYj.s:3829   .debug_loc:00000000000002f6 .LLST22
C:\Users\test\AppData\Local\Temp\ccjHsQYj.s:3843   .debug_loc:0000000000000317 .LLST23
C:\Users\test\AppData\Local\Temp\ccjHsQYj.s:3857   .debug_loc:0000000000000338 .LLST24
C:\Users\test\AppData\Local\Temp\ccjHsQYj.s:4715   .debug_str:00000000000002d8 .LASF95
C:\Users\test\AppData\Local\Temp\ccjHsQYj.s:727    .text.usart_synchronous_clock_disable:0000000000000000 .LFB24
C:\Users\test\AppData\Local\Temp\ccjHsQYj.s:741    .text.usart_synchronous_clock_disable:000000000000000e .LFE24
C:\Users\test\AppData\Local\Temp\ccjHsQYj.s:4693   .debug_str:0000000000000225 .LASF96
C:\Users\test\AppData\Local\Temp\ccjHsQYj.s:706    .text.usart_synchronous_clock_enable:0000000000000000 .LFB23
C:\Users\test\AppData\Local\Temp\ccjHsQYj.s:720    .text.usart_synchronous_clock_enable:000000000000000e .LFE23
C:\Users\test\AppData\Local\Temp\ccjHsQYj.s:4683   .debug_str:00000000000001d3 .LASF97
C:\Users\test\AppData\Local\Temp\ccjHsQYj.s:687    .text.usart_halfduplex_disable:0000000000000000 .LFB22
C:\Users\test\AppData\Local\Temp\ccjHsQYj.s:699    .text.usart_halfduplex_disable:0000000000000008 .LFE22
C:\Users\test\AppData\Local\Temp\ccjHsQYj.s:4685   .debug_str:00000000000001ec .LASF98
C:\Users\test\AppData\Local\Temp\ccjHsQYj.s:668    .text.usart_halfduplex_enable:0000000000000000 .LFB21
C:\Users\test\AppData\Local\Temp\ccjHsQYj.s:680    .text.usart_halfduplex_enable:000000000000000a .LFE21
C:\Users\test\AppData\Local\Temp\ccjHsQYj.s:4779   .debug_str:000000000000053c .LASF99
C:\Users\test\AppData\Local\Temp\ccjHsQYj.s:649    .text.usart_send_break:0000000000000000 .LFB20
C:\Users\test\AppData\Local\Temp\ccjHsQYj.s:661    .text.usart_send_break:000000000000000a .LFE20
GAS LISTING C:\Users\test\AppData\Local\Temp\ccjHsQYj.s 			page 50


C:\Users\test\AppData\Local\Temp\ccjHsQYj.s:4797   .debug_str:00000000000005c9 .LASF100
C:\Users\test\AppData\Local\Temp\ccjHsQYj.s:621    .text.usart_lin_break_detection_length_config:0000000000000000 .LFB19
C:\Users\test\AppData\Local\Temp\ccjHsQYj.s:642    .text.usart_lin_break_detection_length_config:0000000000000014 .LFE19
C:\Users\test\AppData\Local\Temp\ccjHsQYj.s:4729   .debug_str:0000000000000358 .LASF101
C:\Users\test\AppData\Local\Temp\ccjHsQYj.s:3873   .debug_loc:0000000000000362 .LLST20
C:\Users\test\AppData\Local\Temp\ccjHsQYj.s:4725   .debug_str:000000000000033c .LASF102
C:\Users\test\AppData\Local\Temp\ccjHsQYj.s:600    .text.usart_lin_mode_disable:0000000000000000 .LFB18
C:\Users\test\AppData\Local\Temp\ccjHsQYj.s:614    .text.usart_lin_mode_disable:000000000000000c .LFE18
C:\Users\test\AppData\Local\Temp\ccjHsQYj.s:4861   .debug_str:00000000000007d1 .LASF103
C:\Users\test\AppData\Local\Temp\ccjHsQYj.s:580    .text.usart_lin_mode_enable:0000000000000000 .LFB17
C:\Users\test\AppData\Local\Temp\ccjHsQYj.s:593    .text.usart_lin_mode_enable:000000000000000a .LFE17
C:\Users\test\AppData\Local\Temp\ccjHsQYj.s:4675   .debug_str:000000000000018d .LASF104
C:\Users\test\AppData\Local\Temp\ccjHsQYj.s:553    .text.usart_mute_mode_wakeup_config:0000000000000000 .LFB16
C:\Users\test\AppData\Local\Temp\ccjHsQYj.s:573    .text.usart_mute_mode_wakeup_config:0000000000000014 .LFE16
C:\Users\test\AppData\Local\Temp\ccjHsQYj.s:4657   .debug_str:0000000000000106 .LASF105
C:\Users\test\AppData\Local\Temp\ccjHsQYj.s:3887   .debug_loc:0000000000000383 .LLST19
C:\Users\test\AppData\Local\Temp\ccjHsQYj.s:4723   .debug_str:0000000000000324 .LASF106
C:\Users\test\AppData\Local\Temp\ccjHsQYj.s:534    .text.usart_mute_mode_disable:0000000000000000 .LFB15
C:\Users\test\AppData\Local\Temp\ccjHsQYj.s:546    .text.usart_mute_mode_disable:0000000000000008 .LFE15
C:\Users\test\AppData\Local\Temp\ccjHsQYj.s:4699   .debug_str:000000000000025b .LASF107
C:\Users\test\AppData\Local\Temp\ccjHsQYj.s:515    .text.usart_mute_mode_enable:0000000000000000 .LFB14
C:\Users\test\AppData\Local\Temp\ccjHsQYj.s:527    .text.usart_mute_mode_enable:000000000000000a .LFE14
C:\Users\test\AppData\Local\Temp\ccjHsQYj.s:4745   .debug_str:00000000000003c7 .LASF108
C:\Users\test\AppData\Local\Temp\ccjHsQYj.s:487    .text.usart_address_config:0000000000000000 .LFB13
C:\Users\test\AppData\Local\Temp\ccjHsQYj.s:508    .text.usart_address_config:0000000000000010 .LFE13
C:\Users\test\AppData\Local\Temp\ccjHsQYj.s:4867   .debug_str:0000000000000800 .LASF109
C:\Users\test\AppData\Local\Temp\ccjHsQYj.s:3901   .debug_loc:00000000000003a4 .LLST18
C:\Users\test\AppData\Local\Temp\ccjHsQYj.s:4665   .debug_str:0000000000000146 .LASF110
C:\Users\test\AppData\Local\Temp\ccjHsQYj.s:468    .text.usart_data_receive:0000000000000000 .LFB12
C:\Users\test\AppData\Local\Temp\ccjHsQYj.s:480    .text.usart_data_receive:0000000000000008 .LFE12
C:\Users\test\AppData\Local\Temp\ccjHsQYj.s:3915   .debug_loc:00000000000003c5 .LLST17
C:\Users\test\AppData\Local\Temp\ccjHsQYj.s:4631   .debug_str:0000000000000040 .LASF111
C:\Users\test\AppData\Local\Temp\ccjHsQYj.s:448    .text.usart_data_transmit:0000000000000000 .LFB11
C:\Users\test\AppData\Local\Temp\ccjHsQYj.s:461    .text.usart_data_transmit:0000000000000008 .LFE11
C:\Users\test\AppData\Local\Temp\ccjHsQYj.s:4735   .debug_str:000000000000037a .LASF112
C:\Users\test\AppData\Local\Temp\ccjHsQYj.s:3929   .debug_loc:00000000000003e6 .LLST16
C:\Users\test\AppData\Local\Temp\ccjHsQYj.s:4713   .debug_str:00000000000002c3 .LASF113
C:\Users\test\AppData\Local\Temp\ccjHsQYj.s:418    .text.usart_receive_config:0000000000000000 .LFB10
C:\Users\test\AppData\Local\Temp\ccjHsQYj.s:441    .text.usart_receive_config:000000000000000a .LFE10
C:\Users\test\AppData\Local\Temp\ccjHsQYj.s:4869   .debug_str:0000000000000805 .LASF114
C:\Users\test\AppData\Local\Temp\ccjHsQYj.s:3943   .debug_loc:0000000000000407 .LLST14
C:\Users\test\AppData\Local\Temp\ccjHsQYj.s:3957   .debug_loc:0000000000000428 .LLST15
C:\Users\test\AppData\Local\Temp\ccjHsQYj.s:4847   .debug_str:0000000000000744 .LASF115
C:\Users\test\AppData\Local\Temp\ccjHsQYj.s:388    .text.usart_transmit_config:0000000000000000 .LFB9
C:\Users\test\AppData\Local\Temp\ccjHsQYj.s:411    .text.usart_transmit_config:000000000000000a .LFE9
C:\Users\test\AppData\Local\Temp\ccjHsQYj.s:4785   .debug_str:000000000000056e .LASF116
C:\Users\test\AppData\Local\Temp\ccjHsQYj.s:3973   .debug_loc:0000000000000452 .LLST12
C:\Users\test\AppData\Local\Temp\ccjHsQYj.s:3987   .debug_loc:0000000000000473 .LLST13
C:\Users\test\AppData\Local\Temp\ccjHsQYj.s:4831   .debug_str:000000000000069d .LASF117
C:\Users\test\AppData\Local\Temp\ccjHsQYj.s:367    .text.usart_disable:0000000000000000 .LFB8
C:\Users\test\AppData\Local\Temp\ccjHsQYj.s:381    .text.usart_disable:000000000000000c .LFE8
C:\Users\test\AppData\Local\Temp\ccjHsQYj.s:4893   .debug_str:00000000000008d3 .LASF118
C:\Users\test\AppData\Local\Temp\ccjHsQYj.s:347    .text.usart_enable:0000000000000000 .LFB7
C:\Users\test\AppData\Local\Temp\ccjHsQYj.s:360    .text.usart_enable:000000000000000a .LFE7
C:\Users\test\AppData\Local\Temp\ccjHsQYj.s:4739   .debug_str:0000000000000392 .LASF119
C:\Users\test\AppData\Local\Temp\ccjHsQYj.s:320    .text.usart_stop_bit_set:0000000000000000 .LFB6
C:\Users\test\AppData\Local\Temp\ccjHsQYj.s:340    .text.usart_stop_bit_set:0000000000000012 .LFE6
GAS LISTING C:\Users\test\AppData\Local\Temp\ccjHsQYj.s 			page 51


C:\Users\test\AppData\Local\Temp\ccjHsQYj.s:4845   .debug_str:000000000000073d .LASF120
C:\Users\test\AppData\Local\Temp\ccjHsQYj.s:4003   .debug_loc:000000000000049d .LLST11
C:\Users\test\AppData\Local\Temp\ccjHsQYj.s:4879   .debug_str:0000000000000852 .LASF121
C:\Users\test\AppData\Local\Temp\ccjHsQYj.s:293    .text.usart_word_length_set:0000000000000000 .LFB5
C:\Users\test\AppData\Local\Temp\ccjHsQYj.s:313    .text.usart_word_length_set:0000000000000012 .LFE5
C:\Users\test\AppData\Local\Temp\ccjHsQYj.s:4807   .debug_str:000000000000061a .LASF122
C:\Users\test\AppData\Local\Temp\ccjHsQYj.s:4017   .debug_loc:00000000000004be .LLST10
C:\Users\test\AppData\Local\Temp\ccjHsQYj.s:4781   .debug_str:000000000000054d .LASF123
C:\Users\test\AppData\Local\Temp\ccjHsQYj.s:268    .text.usart_parity_config:0000000000000000 .LFB4
C:\Users\test\AppData\Local\Temp\ccjHsQYj.s:286    .text.usart_parity_config:0000000000000010 .LFE4
C:\Users\test\AppData\Local\Temp\ccjHsQYj.s:4899   .debug_str:0000000000000906 .LASF124
C:\Users\test\AppData\Local\Temp\ccjHsQYj.s:4031   .debug_loc:00000000000004df .LLST9
C:\Users\test\AppData\Local\Temp\ccjHsQYj.s:4813   .debug_str:000000000000063a .LASF125
C:\Users\test\AppData\Local\Temp\ccjHsQYj.s:165    .text.usart_baudrate_set:0000000000000000 .LFB3
C:\Users\test\AppData\Local\Temp\ccjHsQYj.s:261    .text.usart_baudrate_set:0000000000000074 .LFE3
C:\Users\test\AppData\Local\Temp\ccjHsQYj.s:4045   .debug_loc:0000000000000500 .LLST2
C:\Users\test\AppData\Local\Temp\ccjHsQYj.s:4068   .debug_loc:0000000000000538 .LLST3
C:\Users\test\AppData\Local\Temp\ccjHsQYj.s:4903   .debug_str:000000000000091b .LASF126
C:\Users\test\AppData\Local\Temp\ccjHsQYj.s:4090   .debug_loc:000000000000056f .LLST4
C:\Users\test\AppData\Local\Temp\ccjHsQYj.s:4727   .debug_str:0000000000000353 .LASF127
C:\Users\test\AppData\Local\Temp\ccjHsQYj.s:4112   .debug_loc:00000000000005a6 .LLST5
C:\Users\test\AppData\Local\Temp\ccjHsQYj.s:4707   .debug_str:00000000000002a2 .LASF128
C:\Users\test\AppData\Local\Temp\ccjHsQYj.s:4133   .debug_loc:00000000000005dc .LLST6
C:\Users\test\AppData\Local\Temp\ccjHsQYj.s:4659   .debug_str:000000000000010e .LASF129
C:\Users\test\AppData\Local\Temp\ccjHsQYj.s:4194   .debug_loc:000000000000063c .LLST7
C:\Users\test\AppData\Local\Temp\ccjHsQYj.s:4749   .debug_str:00000000000003e9 .LASF130
C:\Users\test\AppData\Local\Temp\ccjHsQYj.s:4253   .debug_loc:0000000000000698 .LLST8
C:\Users\test\AppData\Local\Temp\ccjHsQYj.s:204    .text.usart_baudrate_set:0000000000000038 .LVL18
C:\Users\test\AppData\Local\Temp\ccjHsQYj.s:257    .text.usart_baudrate_set:0000000000000072 .LVL24
C:\Users\test\AppData\Local\Temp\ccjHsQYj.s:4793   .debug_str:00000000000005ae .LASF131
C:\Users\test\AppData\Local\Temp\ccjHsQYj.s:11     .text.usart_deinit:0000000000000000 .LFB2
C:\Users\test\AppData\Local\Temp\ccjHsQYj.s:158    .text.usart_deinit:00000000000000ca .LFE2
C:\Users\test\AppData\Local\Temp\ccjHsQYj.s:4312   .debug_loc:00000000000006fb .LLST0
C:\Users\test\AppData\Local\Temp\ccjHsQYj.s:4380   .debug_loc:000000000000079f .LLST1
C:\Users\test\AppData\Local\Temp\ccjHsQYj.s:38     .text.usart_deinit:0000000000000030 .LVL2
C:\Users\test\AppData\Local\Temp\ccjHsQYj.s:52     .text.usart_deinit:0000000000000040 .LVL3
C:\Users\test\AppData\Local\Temp\ccjHsQYj.s:66     .text.usart_deinit:0000000000000060 .LVL5
C:\Users\test\AppData\Local\Temp\ccjHsQYj.s:80     .text.usart_deinit:0000000000000070 .LVL6
C:\Users\test\AppData\Local\Temp\ccjHsQYj.s:88     .text.usart_deinit:000000000000007c .LVL8
C:\Users\test\AppData\Local\Temp\ccjHsQYj.s:102    .text.usart_deinit:000000000000008c .LVL9
C:\Users\test\AppData\Local\Temp\ccjHsQYj.s:110    .text.usart_deinit:0000000000000098 .LVL11
C:\Users\test\AppData\Local\Temp\ccjHsQYj.s:124    .text.usart_deinit:00000000000000a8 .LVL12
C:\Users\test\AppData\Local\Temp\ccjHsQYj.s:143    .text.usart_deinit:00000000000000ba .LVL14
C:\Users\test\AppData\Local\Temp\ccjHsQYj.s:156    .text.usart_deinit:00000000000000ca .LVL15
C:\Users\test\AppData\Local\Temp\ccjHsQYj.s:4737   .debug_str:000000000000037f .LASF132
C:\Users\test\AppData\Local\Temp\ccjHsQYj.s:4701   .debug_str:0000000000000272 .LASF133
C:\Users\test\AppData\Local\Temp\ccjHsQYj.s:4663   .debug_str:000000000000012d .LASF134
C:\Users\test\AppData\Local\Temp\ccjHsQYj.s:1275   .text.usart_interrupt_flag_clear:0000000000000000 .LVL108
C:\Users\test\AppData\Local\Temp\ccjHsQYj.s:1280   .text.usart_interrupt_flag_clear:0000000000000006 .LVL109
C:\Users\test\AppData\Local\Temp\ccjHsQYj.s:1284   .text.usart_interrupt_flag_clear:000000000000000a .LVL110
C:\Users\test\AppData\Local\Temp\ccjHsQYj.s:1225   .text.usart_interrupt_flag_get:0000000000000000 .LVL103
C:\Users\test\AppData\Local\Temp\ccjHsQYj.s:1245   .text.usart_interrupt_flag_get:0000000000000018 .LVL105
C:\Users\test\AppData\Local\Temp\ccjHsQYj.s:1239   .text.usart_interrupt_flag_get:0000000000000012 .LVL104
C:\Users\test\AppData\Local\Temp\ccjHsQYj.s:1250   .text.usart_interrupt_flag_get:0000000000000020 .LVL106
C:\Users\test\AppData\Local\Temp\ccjHsQYj.s:1256   .text.usart_interrupt_flag_get:0000000000000026 .LVL107
C:\Users\test\AppData\Local\Temp\ccjHsQYj.s:1196   .text.usart_interrupt_disable:0000000000000000 .LVL101
C:\Users\test\AppData\Local\Temp\ccjHsQYj.s:1202   .text.usart_interrupt_disable:000000000000000a .LVL102
GAS LISTING C:\Users\test\AppData\Local\Temp\ccjHsQYj.s 			page 52


C:\Users\test\AppData\Local\Temp\ccjHsQYj.s:1169   .text.usart_interrupt_enable:0000000000000000 .LVL99
C:\Users\test\AppData\Local\Temp\ccjHsQYj.s:1175   .text.usart_interrupt_enable:000000000000000a .LVL100
C:\Users\test\AppData\Local\Temp\ccjHsQYj.s:1140   .text.usart_flag_clear:0000000000000000 .LVL97
C:\Users\test\AppData\Local\Temp\ccjHsQYj.s:1146   .text.usart_flag_clear:000000000000000a .LVL98
C:\Users\test\AppData\Local\Temp\ccjHsQYj.s:1116   .text.usart_flag_get:0000000000000000 .LVL95
C:\Users\test\AppData\Local\Temp\ccjHsQYj.s:1122   .text.usart_flag_get:000000000000000a .LVL96
C:\Users\test\AppData\Local\Temp\ccjHsQYj.s:1086   .text.usart_dma_transmit_config:0000000000000000 .LVL91
C:\Users\test\AppData\Local\Temp\ccjHsQYj.s:1099   .text.usart_dma_transmit_config:0000000000000008 .LVL94
C:\Users\test\AppData\Local\Temp\ccjHsQYj.s:1091   .text.usart_dma_transmit_config:0000000000000002 .LVL92
C:\Users\test\AppData\Local\Temp\ccjHsQYj.s:1056   .text.usart_dma_receive_config:0000000000000000 .LVL87
C:\Users\test\AppData\Local\Temp\ccjHsQYj.s:1069   .text.usart_dma_receive_config:0000000000000008 .LVL90
C:\Users\test\AppData\Local\Temp\ccjHsQYj.s:1061   .text.usart_dma_receive_config:0000000000000002 .LVL88
C:\Users\test\AppData\Local\Temp\ccjHsQYj.s:1026   .text.usart_hardware_flow_cts_config:0000000000000000 .LVL83
C:\Users\test\AppData\Local\Temp\ccjHsQYj.s:1039   .text.usart_hardware_flow_cts_config:0000000000000008 .LVL86
C:\Users\test\AppData\Local\Temp\ccjHsQYj.s:1031   .text.usart_hardware_flow_cts_config:0000000000000002 .LVL84
C:\Users\test\AppData\Local\Temp\ccjHsQYj.s:996    .text.usart_hardware_flow_rts_config:0000000000000000 .LVL79
C:\Users\test\AppData\Local\Temp\ccjHsQYj.s:1009   .text.usart_hardware_flow_rts_config:0000000000000008 .LVL82
C:\Users\test\AppData\Local\Temp\ccjHsQYj.s:1001   .text.usart_hardware_flow_rts_config:0000000000000002 .LVL80
C:\Users\test\AppData\Local\Temp\ccjHsQYj.s:968    .text.usart_irda_lowpower_config:0000000000000000 .LVL77
C:\Users\test\AppData\Local\Temp\ccjHsQYj.s:974    .text.usart_irda_lowpower_config:0000000000000004 .LVL78
C:\Users\test\AppData\Local\Temp\ccjHsQYj.s:943    .text.usart_prescaler_config:0000000000000000 .LVL75
C:\Users\test\AppData\Local\Temp\ccjHsQYj.s:953    .text.usart_prescaler_config:000000000000000c .LVL76
C:\Users\test\AppData\Local\Temp\ccjHsQYj.s:794    .text.usart_guard_time_config:0000000000000000 .LVL67
C:\Users\test\AppData\Local\Temp\ccjHsQYj.s:809    .text.usart_guard_time_config:0000000000000012 .LVL68
C:\Users\test\AppData\Local\Temp\ccjHsQYj.s:751    .text.usart_synchronous_clock_config:0000000000000000 .LVL60
C:\Users\test\AppData\Local\Temp\ccjHsQYj.s:768    .text.usart_synchronous_clock_config:0000000000000010 .LVL64
C:\Users\test\AppData\Local\Temp\ccjHsQYj.s:760    .text.usart_synchronous_clock_config:0000000000000006 .LVL62
C:\Users\test\AppData\Local\Temp\ccjHsQYj.s:763    .text.usart_synchronous_clock_config:000000000000000a .LVL63
C:\Users\test\AppData\Local\Temp\ccjHsQYj.s:756    .text.usart_synchronous_clock_config:0000000000000002 .LVL61
C:\Users\test\AppData\Local\Temp\ccjHsQYj.s:777    .text.usart_synchronous_clock_config:0000000000000018 .LVL66
C:\Users\test\AppData\Local\Temp\ccjHsQYj.s:624    .text.usart_lin_break_detection_length_config:0000000000000000 .LVL53
C:\Users\test\AppData\Local\Temp\ccjHsQYj.s:630    .text.usart_lin_break_detection_length_config:0000000000000006 .LVL54
C:\Users\test\AppData\Local\Temp\ccjHsQYj.s:556    .text.usart_mute_mode_wakeup_config:0000000000000000 .LVL49
C:\Users\test\AppData\Local\Temp\ccjHsQYj.s:568    .text.usart_mute_mode_wakeup_config:0000000000000010 .LVL50
C:\Users\test\AppData\Local\Temp\ccjHsQYj.s:490    .text.usart_address_config:0000000000000000 .LVL45
C:\Users\test\AppData\Local\Temp\ccjHsQYj.s:496    .text.usart_address_config:0000000000000004 .LVL46
C:\Users\test\AppData\Local\Temp\ccjHsQYj.s:471    .text.usart_data_receive:0000000000000000 .LVL43
C:\Users\test\AppData\Local\Temp\ccjHsQYj.s:475    .text.usart_data_receive:0000000000000002 .LVL44
C:\Users\test\AppData\Local\Temp\ccjHsQYj.s:451    .text.usart_data_transmit:0000000000000000 .LVL41
C:\Users\test\AppData\Local\Temp\ccjHsQYj.s:455    .text.usart_data_transmit:0000000000000004 .LVL42
C:\Users\test\AppData\Local\Temp\ccjHsQYj.s:421    .text.usart_receive_config:0000000000000000 .LVL37
C:\Users\test\AppData\Local\Temp\ccjHsQYj.s:434    .text.usart_receive_config:0000000000000006 .LVL40
C:\Users\test\AppData\Local\Temp\ccjHsQYj.s:426    .text.usart_receive_config:0000000000000002 .LVL38
C:\Users\test\AppData\Local\Temp\ccjHsQYj.s:391    .text.usart_transmit_config:0000000000000000 .LVL33
C:\Users\test\AppData\Local\Temp\ccjHsQYj.s:404    .text.usart_transmit_config:0000000000000006 .LVL36
C:\Users\test\AppData\Local\Temp\ccjHsQYj.s:396    .text.usart_transmit_config:0000000000000002 .LVL34
C:\Users\test\AppData\Local\Temp\ccjHsQYj.s:323    .text.usart_stop_bit_set:0000000000000000 .LVL29
C:\Users\test\AppData\Local\Temp\ccjHsQYj.s:335    .text.usart_stop_bit_set:000000000000000e .LVL30
C:\Users\test\AppData\Local\Temp\ccjHsQYj.s:296    .text.usart_word_length_set:0000000000000000 .LVL27
C:\Users\test\AppData\Local\Temp\ccjHsQYj.s:308    .text.usart_word_length_set:000000000000000e .LVL28
C:\Users\test\AppData\Local\Temp\ccjHsQYj.s:271    .text.usart_parity_config:0000000000000000 .LVL25
C:\Users\test\AppData\Local\Temp\ccjHsQYj.s:281    .text.usart_parity_config:000000000000000c .LVL26
C:\Users\test\AppData\Local\Temp\ccjHsQYj.s:173    .text.usart_baudrate_set:0000000000000002 .LCFI12
C:\Users\test\AppData\Local\Temp\ccjHsQYj.s:236    .text.usart_baudrate_set:0000000000000050 .LCFI13
C:\Users\test\AppData\Local\Temp\ccjHsQYj.s:241    .text.usart_baudrate_set:0000000000000052 .LCFI14
C:\Users\test\AppData\Local\Temp\ccjHsQYj.s:168    .text.usart_baudrate_set:0000000000000000 .LVL16
C:\Users\test\AppData\Local\Temp\ccjHsQYj.s:197    .text.usart_baudrate_set:000000000000002a .LVL17
GAS LISTING C:\Users\test\AppData\Local\Temp\ccjHsQYj.s 			page 53


C:\Users\test\AppData\Local\Temp\ccjHsQYj.s:234    .text.usart_baudrate_set:000000000000004e .LVL22
C:\Users\test\AppData\Local\Temp\ccjHsQYj.s:239    .text.usart_baudrate_set:0000000000000052 .LVL23
C:\Users\test\AppData\Local\Temp\ccjHsQYj.s:224    .text.usart_baudrate_set:0000000000000046 .LVL20
C:\Users\test\AppData\Local\Temp\ccjHsQYj.s:217    .text.usart_baudrate_set:0000000000000042 .LVL19
C:\Users\test\AppData\Local\Temp\ccjHsQYj.s:227    .text.usart_baudrate_set:0000000000000048 .LVL21
C:\Users\test\AppData\Local\Temp\ccjHsQYj.s:19     .text.usart_deinit:0000000000000002 .LCFI0
C:\Users\test\AppData\Local\Temp\ccjHsQYj.s:48     .text.usart_deinit:0000000000000038 .LCFI1
C:\Users\test\AppData\Local\Temp\ccjHsQYj.s:54     .text.usart_deinit:0000000000000040 .LCFI2
C:\Users\test\AppData\Local\Temp\ccjHsQYj.s:76     .text.usart_deinit:0000000000000068 .LCFI3
C:\Users\test\AppData\Local\Temp\ccjHsQYj.s:82     .text.usart_deinit:0000000000000070 .LCFI4
C:\Users\test\AppData\Local\Temp\ccjHsQYj.s:98     .text.usart_deinit:0000000000000084 .LCFI5
C:\Users\test\AppData\Local\Temp\ccjHsQYj.s:104    .text.usart_deinit:000000000000008c .LCFI6
C:\Users\test\AppData\Local\Temp\ccjHsQYj.s:120    .text.usart_deinit:00000000000000a0 .LCFI7
C:\Users\test\AppData\Local\Temp\ccjHsQYj.s:126    .text.usart_deinit:00000000000000a8 .LCFI8
C:\Users\test\AppData\Local\Temp\ccjHsQYj.s:133    .text.usart_deinit:00000000000000ac .LCFI9
C:\Users\test\AppData\Local\Temp\ccjHsQYj.s:137    .text.usart_deinit:00000000000000ae .LCFI10
C:\Users\test\AppData\Local\Temp\ccjHsQYj.s:152    .text.usart_deinit:00000000000000c2 .LCFI11
C:\Users\test\AppData\Local\Temp\ccjHsQYj.s:15     .text.usart_deinit:0000000000000000 .LVL0
C:\Users\test\AppData\Local\Temp\ccjHsQYj.s:36     .text.usart_deinit:0000000000000028 .LVL1
C:\Users\test\AppData\Local\Temp\ccjHsQYj.s:64     .text.usart_deinit:0000000000000058 .LVL4
C:\Users\test\AppData\Local\Temp\ccjHsQYj.s:86     .text.usart_deinit:0000000000000074 .LVL7
C:\Users\test\AppData\Local\Temp\ccjHsQYj.s:108    .text.usart_deinit:0000000000000090 .LVL10
C:\Users\test\AppData\Local\Temp\ccjHsQYj.s:141    .text.usart_deinit:00000000000000b2 .LVL13
C:\Users\test\AppData\Local\Temp\ccjHsQYj.s:1306   .debug_info:0000000000000000 .Ldebug_info0

UNDEFINED SYMBOLS
rcu_periph_reset_enable
rcu_periph_reset_disable
rcu_clock_freq_get
