GAS LISTING C:\Users\test\AppData\Local\Temp\ccA0cEyS.s 			page 1


   1              		.file	"gd32vf103_can.c"
   2              		.option nopic
   3              		.text
   4              	.Ltext0:
   5              		.cfi_sections	.debug_frame
   6              		.section	.text.can_deinit,"ax",@progbits
   7              		.align	1
   8              		.globl	can_deinit
  10              	can_deinit:
  11              	.LFB2:
  12              		.file 1 "arch/riscv/mach-gd32vf10x/bsp/gd32vf103_can.c"
   1:arch/riscv/mach-gd32vf10x/bsp/gd32vf103_can.c **** /*!
   2:arch/riscv/mach-gd32vf10x/bsp/gd32vf103_can.c ****     \file  gd32vf103_can.c
   3:arch/riscv/mach-gd32vf10x/bsp/gd32vf103_can.c ****     \brief CAN driver
   4:arch/riscv/mach-gd32vf10x/bsp/gd32vf103_can.c ****     
   5:arch/riscv/mach-gd32vf10x/bsp/gd32vf103_can.c ****     \version 2019-6-5, V1.0.0, firmware for GD32VF103
   6:arch/riscv/mach-gd32vf10x/bsp/gd32vf103_can.c **** */
   7:arch/riscv/mach-gd32vf10x/bsp/gd32vf103_can.c **** 
   8:arch/riscv/mach-gd32vf10x/bsp/gd32vf103_can.c **** /*
   9:arch/riscv/mach-gd32vf10x/bsp/gd32vf103_can.c ****     Copyright (c) 2019, GigaDevice Semiconductor Inc.
  10:arch/riscv/mach-gd32vf10x/bsp/gd32vf103_can.c **** 
  11:arch/riscv/mach-gd32vf10x/bsp/gd32vf103_can.c ****     Redistribution and use in source and binary forms, with or without modification, 
  12:arch/riscv/mach-gd32vf10x/bsp/gd32vf103_can.c **** are permitted provided that the following conditions are met:
  13:arch/riscv/mach-gd32vf10x/bsp/gd32vf103_can.c **** 
  14:arch/riscv/mach-gd32vf10x/bsp/gd32vf103_can.c ****     1. Redistributions of source code must retain the above copyright notice, this 
  15:arch/riscv/mach-gd32vf10x/bsp/gd32vf103_can.c ****        list of conditions and the following disclaimer.
  16:arch/riscv/mach-gd32vf10x/bsp/gd32vf103_can.c ****     2. Redistributions in binary form must reproduce the above copyright notice, 
  17:arch/riscv/mach-gd32vf10x/bsp/gd32vf103_can.c ****        this list of conditions and the following disclaimer in the documentation 
  18:arch/riscv/mach-gd32vf10x/bsp/gd32vf103_can.c ****        and/or other materials provided with the distribution.
  19:arch/riscv/mach-gd32vf10x/bsp/gd32vf103_can.c ****     3. Neither the name of the copyright holder nor the names of its contributors 
  20:arch/riscv/mach-gd32vf10x/bsp/gd32vf103_can.c ****        may be used to endorse or promote products derived from this software without 
  21:arch/riscv/mach-gd32vf10x/bsp/gd32vf103_can.c ****        specific prior written permission.
  22:arch/riscv/mach-gd32vf10x/bsp/gd32vf103_can.c **** 
  23:arch/riscv/mach-gd32vf10x/bsp/gd32vf103_can.c ****     THIS SOFTWARE IS PROVIDED BY THE COPYRIGHT HOLDERS AND CONTRIBUTORS "AS IS" 
  24:arch/riscv/mach-gd32vf10x/bsp/gd32vf103_can.c **** AND ANY EXPRESS OR IMPLIED WARRANTIES, INCLUDING, BUT NOT LIMITED TO, THE IMPLIED 
  25:arch/riscv/mach-gd32vf10x/bsp/gd32vf103_can.c **** WARRANTIES OF MERCHANTABILITY AND FITNESS FOR A PARTICULAR PURPOSE ARE DISCLAIMED. 
  26:arch/riscv/mach-gd32vf10x/bsp/gd32vf103_can.c **** IN NO EVENT SHALL THE COPYRIGHT HOLDER OR CONTRIBUTORS BE LIABLE FOR ANY DIRECT, 
  27:arch/riscv/mach-gd32vf10x/bsp/gd32vf103_can.c **** INDIRECT, INCIDENTAL, SPECIAL, EXEMPLARY, OR CONSEQUENTIAL DAMAGES (INCLUDING, BUT 
  28:arch/riscv/mach-gd32vf10x/bsp/gd32vf103_can.c **** NOT LIMITED TO, PROCUREMENT OF SUBSTITUTE GOODS OR SERVICES; LOSS OF USE, DATA, OR 
  29:arch/riscv/mach-gd32vf10x/bsp/gd32vf103_can.c **** PROFITS; OR BUSINESS INTERRUPTION) HOWEVER CAUSED AND ON ANY THEORY OF LIABILITY, 
  30:arch/riscv/mach-gd32vf10x/bsp/gd32vf103_can.c **** WHETHER IN CONTRACT, STRICT LIABILITY, OR TORT (INCLUDING NEGLIGENCE OR OTHERWISE) 
  31:arch/riscv/mach-gd32vf10x/bsp/gd32vf103_can.c **** ARISING IN ANY WAY OUT OF THE USE OF THIS SOFTWARE, EVEN IF ADVISED OF THE POSSIBILITY 
  32:arch/riscv/mach-gd32vf10x/bsp/gd32vf103_can.c **** OF SUCH DAMAGE.
  33:arch/riscv/mach-gd32vf10x/bsp/gd32vf103_can.c **** */
  34:arch/riscv/mach-gd32vf10x/bsp/gd32vf103_can.c **** 
  35:arch/riscv/mach-gd32vf10x/bsp/gd32vf103_can.c **** #include "gd32vf103_can.h"
  36:arch/riscv/mach-gd32vf10x/bsp/gd32vf103_can.c **** 
  37:arch/riscv/mach-gd32vf10x/bsp/gd32vf103_can.c **** #define CAN_ERROR_HANDLE(s)     do{}while(1)
  38:arch/riscv/mach-gd32vf10x/bsp/gd32vf103_can.c **** 
  39:arch/riscv/mach-gd32vf10x/bsp/gd32vf103_can.c **** /*!
  40:arch/riscv/mach-gd32vf10x/bsp/gd32vf103_can.c ****     \brief      deinitialize CAN 
  41:arch/riscv/mach-gd32vf10x/bsp/gd32vf103_can.c ****     \param[in]  can_periph
  42:arch/riscv/mach-gd32vf10x/bsp/gd32vf103_can.c ****     \arg        CANx(x=0,1)
  43:arch/riscv/mach-gd32vf10x/bsp/gd32vf103_can.c ****     \param[out] none
  44:arch/riscv/mach-gd32vf10x/bsp/gd32vf103_can.c ****     \retval     none
  45:arch/riscv/mach-gd32vf10x/bsp/gd32vf103_can.c **** */
  46:arch/riscv/mach-gd32vf10x/bsp/gd32vf103_can.c **** void can_deinit(uint32_t can_periph)
GAS LISTING C:\Users\test\AppData\Local\Temp\ccA0cEyS.s 			page 2


  47:arch/riscv/mach-gd32vf10x/bsp/gd32vf103_can.c **** {
  13              		.loc 1 47 1
  14              		.cfi_startproc
  15              	.LVL0:
  48:arch/riscv/mach-gd32vf10x/bsp/gd32vf103_can.c ****     if(CAN0 == can_periph){
  16              		.loc 1 48 5
  47:arch/riscv/mach-gd32vf10x/bsp/gd32vf103_can.c ****     if(CAN0 == can_periph){
  17              		.loc 1 47 1 is_stmt 0
  18 0000 4111     		addi	sp,sp,-16
  19              	.LCFI0:
  20              		.cfi_def_cfa_offset 16
  21              		.loc 1 48 7
  22 0002 B7670040 		li	a5,1073766400
  47:arch/riscv/mach-gd32vf10x/bsp/gd32vf103_can.c ****     if(CAN0 == can_periph){
  23              		.loc 1 47 1
  24 0006 06C6     		sw	ra,12(sp)
  25              		.cfi_offset 1, -4
  26              		.loc 1 48 7
  27 0008 93870740 		addi	a5,a5,1024
  28 000c 6300F502 		beq	a0,a5,.L5
  49:arch/riscv/mach-gd32vf10x/bsp/gd32vf103_can.c ****         rcu_periph_reset_enable(RCU_CAN0RST);
  50:arch/riscv/mach-gd32vf10x/bsp/gd32vf103_can.c ****         rcu_periph_reset_disable(RCU_CAN0RST);
  51:arch/riscv/mach-gd32vf10x/bsp/gd32vf103_can.c ****     }else{
  52:arch/riscv/mach-gd32vf10x/bsp/gd32vf103_can.c ****         rcu_periph_reset_enable(RCU_CAN1RST);
  29              		.loc 1 52 9 is_stmt 1
  30 0010 1305A041 		li	a0,1050
  31              	.LVL1:
  32 0014 97000000 		call	rcu_periph_reset_enable
  32      E7800000 
  33              	.LVL2:
  53:arch/riscv/mach-gd32vf10x/bsp/gd32vf103_can.c ****         rcu_periph_reset_disable(RCU_CAN1RST);
  34              		.loc 1 53 9
  54:arch/riscv/mach-gd32vf10x/bsp/gd32vf103_can.c ****     }
  55:arch/riscv/mach-gd32vf10x/bsp/gd32vf103_can.c **** }
  35              		.loc 1 55 1 is_stmt 0
  36 001c B240     		lw	ra,12(sp)
  37              		.cfi_remember_state
  38              		.cfi_restore 1
  53:arch/riscv/mach-gd32vf10x/bsp/gd32vf103_can.c ****         rcu_periph_reset_disable(RCU_CAN1RST);
  39              		.loc 1 53 9
  40 001e 1305A041 		li	a0,1050
  41              		.loc 1 55 1
  42 0022 4101     		addi	sp,sp,16
  43              	.LCFI1:
  44              		.cfi_def_cfa_offset 0
  53:arch/riscv/mach-gd32vf10x/bsp/gd32vf103_can.c ****         rcu_periph_reset_disable(RCU_CAN1RST);
  45              		.loc 1 53 9
  46 0024 17030000 		tail	rcu_periph_reset_disable
  46      67000300 
  47              	.LVL3:
  48              	.L5:
  49              	.LCFI2:
  50              		.cfi_restore_state
  49:arch/riscv/mach-gd32vf10x/bsp/gd32vf103_can.c ****         rcu_periph_reset_disable(RCU_CAN0RST);
  51              		.loc 1 49 9 is_stmt 1
  52 002c 13059041 		li	a0,1049
  53              	.LVL4:
GAS LISTING C:\Users\test\AppData\Local\Temp\ccA0cEyS.s 			page 3


  54 0030 97000000 		call	rcu_periph_reset_enable
  54      E7800000 
  55              	.LVL5:
  50:arch/riscv/mach-gd32vf10x/bsp/gd32vf103_can.c ****     }else{
  56              		.loc 1 50 9
  57              		.loc 1 55 1 is_stmt 0
  58 0038 B240     		lw	ra,12(sp)
  59              		.cfi_restore 1
  50:arch/riscv/mach-gd32vf10x/bsp/gd32vf103_can.c ****     }else{
  60              		.loc 1 50 9
  61 003a 13059041 		li	a0,1049
  62              		.loc 1 55 1
  63 003e 4101     		addi	sp,sp,16
  64              	.LCFI3:
  65              		.cfi_def_cfa_offset 0
  50:arch/riscv/mach-gd32vf10x/bsp/gd32vf103_can.c ****     }else{
  66              		.loc 1 50 9
  67 0040 17030000 		tail	rcu_periph_reset_disable
  67      67000300 
  68              	.LVL6:
  69              		.cfi_endproc
  70              	.LFE2:
  72              		.section	.text.can_struct_para_init,"ax",@progbits
  73              		.align	1
  74              		.globl	can_struct_para_init
  76              	can_struct_para_init:
  77              	.LFB3:
  56:arch/riscv/mach-gd32vf10x/bsp/gd32vf103_can.c **** 
  57:arch/riscv/mach-gd32vf10x/bsp/gd32vf103_can.c **** /*!
  58:arch/riscv/mach-gd32vf10x/bsp/gd32vf103_can.c ****     \brief      initialize CAN parameter struct with a default value
  59:arch/riscv/mach-gd32vf10x/bsp/gd32vf103_can.c ****     \param[in]  type: the type of CAN parameter struct  
  60:arch/riscv/mach-gd32vf10x/bsp/gd32vf103_can.c ****                 only one parameter can be selected which is shown as below:
  61:arch/riscv/mach-gd32vf10x/bsp/gd32vf103_can.c ****       \arg        CAN_INIT_STRUCT: the CAN initial struct
  62:arch/riscv/mach-gd32vf10x/bsp/gd32vf103_can.c ****       \arg        CAN_FILTER_STRUCT: the CAN filter struct
  63:arch/riscv/mach-gd32vf10x/bsp/gd32vf103_can.c ****       \arg        CAN_TX_MESSAGE_STRUCT: the CAN TX message struct
  64:arch/riscv/mach-gd32vf10x/bsp/gd32vf103_can.c ****       \arg        CAN_RX_MESSAGE_STRUCT: the CAN RX message struct
  65:arch/riscv/mach-gd32vf10x/bsp/gd32vf103_can.c ****     \param[in]  p_struct: the pointer of the specific struct 
  66:arch/riscv/mach-gd32vf10x/bsp/gd32vf103_can.c ****     \param[out] none
  67:arch/riscv/mach-gd32vf10x/bsp/gd32vf103_can.c ****     \retval     none
  68:arch/riscv/mach-gd32vf10x/bsp/gd32vf103_can.c **** */
  69:arch/riscv/mach-gd32vf10x/bsp/gd32vf103_can.c **** void can_struct_para_init(can_struct_type_enum type, void* p_struct)
  70:arch/riscv/mach-gd32vf10x/bsp/gd32vf103_can.c **** {
  78              		.loc 1 70 1 is_stmt 1
  79              		.cfi_startproc
  80              	.LVL7:
  71:arch/riscv/mach-gd32vf10x/bsp/gd32vf103_can.c ****     uint8_t i;
  81              		.loc 1 71 5
  72:arch/riscv/mach-gd32vf10x/bsp/gd32vf103_can.c ****     
  73:arch/riscv/mach-gd32vf10x/bsp/gd32vf103_can.c ****     /* get type of the struct */
  74:arch/riscv/mach-gd32vf10x/bsp/gd32vf103_can.c ****     switch(type){
  82              		.loc 1 74 5
  83 0000 8547     		li	a5,1
  84 0002 6305F502 		beq	a0,a5,.L7
  85 0006 39C9     		beq	a0,zero,.L8
  86 0008 8947     		li	a5,2
  87 000a 630CF502 		beq	a0,a5,.L9
  88 000e 8D47     		li	a5,3
GAS LISTING C:\Users\test\AppData\Local\Temp\ccA0cEyS.s 			page 4


  89 0010 631DF500 		bne	a0,a5,.L13
  90              	.LVL8:
  75:arch/riscv/mach-gd32vf10x/bsp/gd32vf103_can.c ****         /* used for can_init() */
  76:arch/riscv/mach-gd32vf10x/bsp/gd32vf103_can.c ****         case CAN_INIT_STRUCT:
  77:arch/riscv/mach-gd32vf10x/bsp/gd32vf103_can.c ****             ((can_parameter_struct*)p_struct)->auto_bus_off_recovery = DISABLE;
  78:arch/riscv/mach-gd32vf10x/bsp/gd32vf103_can.c ****             ((can_parameter_struct*)p_struct)->no_auto_retrans = DISABLE;
  79:arch/riscv/mach-gd32vf10x/bsp/gd32vf103_can.c ****             ((can_parameter_struct*)p_struct)->auto_wake_up = DISABLE;
  80:arch/riscv/mach-gd32vf10x/bsp/gd32vf103_can.c ****             ((can_parameter_struct*)p_struct)->prescaler = 0x03FFU; 
  81:arch/riscv/mach-gd32vf10x/bsp/gd32vf103_can.c ****             ((can_parameter_struct*)p_struct)->rec_fifo_overwrite = DISABLE; 
  82:arch/riscv/mach-gd32vf10x/bsp/gd32vf103_can.c ****             ((can_parameter_struct*)p_struct)->resync_jump_width = CAN_BT_SJW_1TQ;
  83:arch/riscv/mach-gd32vf10x/bsp/gd32vf103_can.c ****             ((can_parameter_struct*)p_struct)->time_segment_1 = CAN_BT_BS1_3TQ;
  84:arch/riscv/mach-gd32vf10x/bsp/gd32vf103_can.c ****             ((can_parameter_struct*)p_struct)->time_segment_2 = CAN_BT_BS2_1TQ;
  85:arch/riscv/mach-gd32vf10x/bsp/gd32vf103_can.c ****             ((can_parameter_struct*)p_struct)->time_triggered = DISABLE;
  86:arch/riscv/mach-gd32vf10x/bsp/gd32vf103_can.c ****             ((can_parameter_struct*)p_struct)->trans_fifo_order = DISABLE;
  87:arch/riscv/mach-gd32vf10x/bsp/gd32vf103_can.c ****             ((can_parameter_struct*)p_struct)->working_mode = CAN_NORMAL_MODE;
  88:arch/riscv/mach-gd32vf10x/bsp/gd32vf103_can.c ****             
  89:arch/riscv/mach-gd32vf10x/bsp/gd32vf103_can.c ****             break;
  90:arch/riscv/mach-gd32vf10x/bsp/gd32vf103_can.c ****         /* used for can_filter_init() */
  91:arch/riscv/mach-gd32vf10x/bsp/gd32vf103_can.c ****         case CAN_FILTER_STRUCT:
  92:arch/riscv/mach-gd32vf10x/bsp/gd32vf103_can.c ****             ((can_filter_parameter_struct*)p_struct)->filter_bits = CAN_FILTERBITS_32BIT;
  93:arch/riscv/mach-gd32vf10x/bsp/gd32vf103_can.c ****             ((can_filter_parameter_struct*)p_struct)->filter_enable = DISABLE;
  94:arch/riscv/mach-gd32vf10x/bsp/gd32vf103_can.c ****             ((can_filter_parameter_struct*)p_struct)->filter_fifo_number = CAN_FIFO0;
  95:arch/riscv/mach-gd32vf10x/bsp/gd32vf103_can.c ****             ((can_filter_parameter_struct*)p_struct)->filter_list_high = 0x0000U;
  96:arch/riscv/mach-gd32vf10x/bsp/gd32vf103_can.c ****             ((can_filter_parameter_struct*)p_struct)->filter_list_low = 0x0000U;
  97:arch/riscv/mach-gd32vf10x/bsp/gd32vf103_can.c ****             ((can_filter_parameter_struct*)p_struct)->filter_mask_high = 0x0000U;
  98:arch/riscv/mach-gd32vf10x/bsp/gd32vf103_can.c ****             ((can_filter_parameter_struct*)p_struct)->filter_mask_low = 0x0000U;
  99:arch/riscv/mach-gd32vf10x/bsp/gd32vf103_can.c ****             ((can_filter_parameter_struct*)p_struct)->filter_mode = CAN_FILTERMODE_MASK;
 100:arch/riscv/mach-gd32vf10x/bsp/gd32vf103_can.c ****             ((can_filter_parameter_struct*)p_struct)->filter_number = 0U;
 101:arch/riscv/mach-gd32vf10x/bsp/gd32vf103_can.c **** 
 102:arch/riscv/mach-gd32vf10x/bsp/gd32vf103_can.c ****             break;
 103:arch/riscv/mach-gd32vf10x/bsp/gd32vf103_can.c ****         /* used for can_message_transmit() */
 104:arch/riscv/mach-gd32vf10x/bsp/gd32vf103_can.c ****         case CAN_TX_MESSAGE_STRUCT:
 105:arch/riscv/mach-gd32vf10x/bsp/gd32vf103_can.c ****             for(i = 0U; i < 8U; i++){
 106:arch/riscv/mach-gd32vf10x/bsp/gd32vf103_can.c ****                 ((can_trasnmit_message_struct*)p_struct)->tx_data[i] = 0U;
 107:arch/riscv/mach-gd32vf10x/bsp/gd32vf103_can.c ****             }
 108:arch/riscv/mach-gd32vf10x/bsp/gd32vf103_can.c ****             
 109:arch/riscv/mach-gd32vf10x/bsp/gd32vf103_can.c ****             ((can_trasnmit_message_struct*)p_struct)->tx_dlen = 0u;
 110:arch/riscv/mach-gd32vf10x/bsp/gd32vf103_can.c ****             ((can_trasnmit_message_struct*)p_struct)->tx_efid = 0U;
 111:arch/riscv/mach-gd32vf10x/bsp/gd32vf103_can.c ****             ((can_trasnmit_message_struct*)p_struct)->tx_ff = (uint8_t)CAN_FF_STANDARD;
 112:arch/riscv/mach-gd32vf10x/bsp/gd32vf103_can.c ****             ((can_trasnmit_message_struct*)p_struct)->tx_ft = (uint8_t)CAN_FT_DATA;
 113:arch/riscv/mach-gd32vf10x/bsp/gd32vf103_can.c ****             ((can_trasnmit_message_struct*)p_struct)->tx_sfid = 0U;
 114:arch/riscv/mach-gd32vf10x/bsp/gd32vf103_can.c ****             
 115:arch/riscv/mach-gd32vf10x/bsp/gd32vf103_can.c ****             break;
 116:arch/riscv/mach-gd32vf10x/bsp/gd32vf103_can.c ****         /* used for can_message_receive() */
 117:arch/riscv/mach-gd32vf10x/bsp/gd32vf103_can.c ****         case CAN_RX_MESSAGE_STRUCT:
 118:arch/riscv/mach-gd32vf10x/bsp/gd32vf103_can.c ****             for(i = 0U; i < 8U; i++){
 119:arch/riscv/mach-gd32vf10x/bsp/gd32vf103_can.c ****                 ((can_receive_message_struct*)p_struct)->rx_data[i] = 0U;
  91              		.loc 1 119 17
  92              		.loc 1 119 17
  93              		.loc 1 119 17
  94              		.loc 1 119 17
  95              		.loc 1 119 17
  96              		.loc 1 119 17
  97              		.loc 1 119 17
  98              		.loc 1 119 17
 120:arch/riscv/mach-gd32vf10x/bsp/gd32vf103_can.c ****             }
 121:arch/riscv/mach-gd32vf10x/bsp/gd32vf103_can.c ****             
GAS LISTING C:\Users\test\AppData\Local\Temp\ccA0cEyS.s 			page 5


 122:arch/riscv/mach-gd32vf10x/bsp/gd32vf103_can.c ****             ((can_receive_message_struct*)p_struct)->rx_dlen = 0U;
  99              		.loc 1 122 13
 123:arch/riscv/mach-gd32vf10x/bsp/gd32vf103_can.c ****             ((can_receive_message_struct*)p_struct)->rx_efid = 0U;
 100              		.loc 1 123 13
 124:arch/riscv/mach-gd32vf10x/bsp/gd32vf103_can.c ****             ((can_receive_message_struct*)p_struct)->rx_ff = (uint8_t)CAN_FF_STANDARD;
 101              		.loc 1 124 13
 125:arch/riscv/mach-gd32vf10x/bsp/gd32vf103_can.c ****             ((can_receive_message_struct*)p_struct)->rx_fi = 0U;
 102              		.loc 1 125 13
 126:arch/riscv/mach-gd32vf10x/bsp/gd32vf103_can.c ****             ((can_receive_message_struct*)p_struct)->rx_ft = (uint8_t)CAN_FT_DATA;
 103              		.loc 1 126 13
 127:arch/riscv/mach-gd32vf10x/bsp/gd32vf103_can.c ****             ((can_receive_message_struct*)p_struct)->rx_sfid = 0U;
 104              		.loc 1 127 13
 105              		.loc 1 127 62 is_stmt 0
 106 0014 23A00500 		sw	zero,0(a1)
 123:arch/riscv/mach-gd32vf10x/bsp/gd32vf103_can.c ****             ((can_receive_message_struct*)p_struct)->rx_ff = (uint8_t)CAN_FF_STANDARD;
 107              		.loc 1 123 62
 108 0018 23A20500 		sw	zero,4(a1)
 124:arch/riscv/mach-gd32vf10x/bsp/gd32vf103_can.c ****             ((can_receive_message_struct*)p_struct)->rx_fi = 0U;
 109              		.loc 1 124 60
 110 001c 23A40500 		sw	zero,8(a1)
 119:arch/riscv/mach-gd32vf10x/bsp/gd32vf103_can.c ****             }
 111              		.loc 1 119 69
 112 0020 23A60500 		sw	zero,12(a1)
 113 0024 23A80500 		sw	zero,16(a1)
 128:arch/riscv/mach-gd32vf10x/bsp/gd32vf103_can.c ****             
 129:arch/riscv/mach-gd32vf10x/bsp/gd32vf103_can.c ****             break;
 114              		.loc 1 129 13 is_stmt 1
 130:arch/riscv/mach-gd32vf10x/bsp/gd32vf103_can.c **** 
 131:arch/riscv/mach-gd32vf10x/bsp/gd32vf103_can.c ****         default:
 132:arch/riscv/mach-gd32vf10x/bsp/gd32vf103_can.c ****             CAN_ERROR_HANDLE("parameter is invalid \r\n");
 133:arch/riscv/mach-gd32vf10x/bsp/gd32vf103_can.c ****     }
 134:arch/riscv/mach-gd32vf10x/bsp/gd32vf103_can.c **** }
 115              		.loc 1 134 1 is_stmt 0
 116 0028 8280     		ret
 117              	.LVL9:
 118              	.L13:
 119              	.L11:
 132:arch/riscv/mach-gd32vf10x/bsp/gd32vf103_can.c ****     }
 120              		.loc 1 132 13 is_stmt 1 discriminator 1
 132:arch/riscv/mach-gd32vf10x/bsp/gd32vf103_can.c ****     }
 121              		.loc 1 132 13 discriminator 1
 132:arch/riscv/mach-gd32vf10x/bsp/gd32vf103_can.c ****     }
 122              		.loc 1 132 13 discriminator 1
 132:arch/riscv/mach-gd32vf10x/bsp/gd32vf103_can.c ****     }
 123              		.loc 1 132 13 discriminator 1
 124 002a 01A0     		j	.L11
 125              	.L7:
  92:arch/riscv/mach-gd32vf10x/bsp/gd32vf103_can.c ****             ((can_filter_parameter_struct*)p_struct)->filter_enable = DISABLE;
 126              		.loc 1 92 13
  93:arch/riscv/mach-gd32vf10x/bsp/gd32vf103_can.c ****             ((can_filter_parameter_struct*)p_struct)->filter_fifo_number = CAN_FIFO0;
 127              		.loc 1 93 13
  94:arch/riscv/mach-gd32vf10x/bsp/gd32vf103_can.c ****             ((can_filter_parameter_struct*)p_struct)->filter_list_high = 0x0000U;
 128              		.loc 1 94 13
  95:arch/riscv/mach-gd32vf10x/bsp/gd32vf103_can.c ****             ((can_filter_parameter_struct*)p_struct)->filter_list_low = 0x0000U;
 129              		.loc 1 95 13
  96:arch/riscv/mach-gd32vf10x/bsp/gd32vf103_can.c ****             ((can_filter_parameter_struct*)p_struct)->filter_mask_high = 0x0000U;
 130              		.loc 1 96 13
GAS LISTING C:\Users\test\AppData\Local\Temp\ccA0cEyS.s 			page 6


  97:arch/riscv/mach-gd32vf10x/bsp/gd32vf103_can.c ****             ((can_filter_parameter_struct*)p_struct)->filter_mask_low = 0x0000U;
 131              		.loc 1 97 13
  98:arch/riscv/mach-gd32vf10x/bsp/gd32vf103_can.c ****             ((can_filter_parameter_struct*)p_struct)->filter_mode = CAN_FILTERMODE_MASK;
 132              		.loc 1 98 13
  99:arch/riscv/mach-gd32vf10x/bsp/gd32vf103_can.c ****             ((can_filter_parameter_struct*)p_struct)->filter_number = 0U;
 133              		.loc 1 99 13
 100:arch/riscv/mach-gd32vf10x/bsp/gd32vf103_can.c **** 
 134              		.loc 1 100 13
  99:arch/riscv/mach-gd32vf10x/bsp/gd32vf103_can.c ****             ((can_filter_parameter_struct*)p_struct)->filter_number = 0U;
 135              		.loc 1 99 67 is_stmt 0
 136 002c C167     		li	a5,65536
  95:arch/riscv/mach-gd32vf10x/bsp/gd32vf103_can.c ****             ((can_filter_parameter_struct*)p_struct)->filter_list_low = 0x0000U;
 137              		.loc 1 95 72
 138 002e 23A00500 		sw	zero,0(a1)
  97:arch/riscv/mach-gd32vf10x/bsp/gd32vf103_can.c ****             ((can_filter_parameter_struct*)p_struct)->filter_mask_low = 0x0000U;
 139              		.loc 1 97 72
 140 0032 23A20500 		sw	zero,4(a1)
  94:arch/riscv/mach-gd32vf10x/bsp/gd32vf103_can.c ****             ((can_filter_parameter_struct*)p_struct)->filter_list_high = 0x0000U;
 141              		.loc 1 94 74
 142 0036 23A40500 		sw	zero,8(a1)
  99:arch/riscv/mach-gd32vf10x/bsp/gd32vf103_can.c ****             ((can_filter_parameter_struct*)p_struct)->filter_number = 0U;
 143              		.loc 1 99 67
 144 003a DCC5     		sw	a5,12(a1)
  93:arch/riscv/mach-gd32vf10x/bsp/gd32vf103_can.c ****             ((can_filter_parameter_struct*)p_struct)->filter_fifo_number = CAN_FIFO0;
 145              		.loc 1 93 69
 146 003c 23A80500 		sw	zero,16(a1)
 102:arch/riscv/mach-gd32vf10x/bsp/gd32vf103_can.c ****         /* used for can_message_transmit() */
 147              		.loc 1 102 13 is_stmt 1
 148 0040 8280     		ret
 149              	.L9:
 150              	.LVL10:
 106:arch/riscv/mach-gd32vf10x/bsp/gd32vf103_can.c ****             }
 151              		.loc 1 106 17
 106:arch/riscv/mach-gd32vf10x/bsp/gd32vf103_can.c ****             }
 152              		.loc 1 106 17
 106:arch/riscv/mach-gd32vf10x/bsp/gd32vf103_can.c ****             }
 153              		.loc 1 106 17
 106:arch/riscv/mach-gd32vf10x/bsp/gd32vf103_can.c ****             }
 154              		.loc 1 106 17
 106:arch/riscv/mach-gd32vf10x/bsp/gd32vf103_can.c ****             }
 155              		.loc 1 106 17
 106:arch/riscv/mach-gd32vf10x/bsp/gd32vf103_can.c ****             }
 156              		.loc 1 106 17
 106:arch/riscv/mach-gd32vf10x/bsp/gd32vf103_can.c ****             }
 157              		.loc 1 106 17
 106:arch/riscv/mach-gd32vf10x/bsp/gd32vf103_can.c ****             }
 158              		.loc 1 106 17
 109:arch/riscv/mach-gd32vf10x/bsp/gd32vf103_can.c ****             ((can_trasnmit_message_struct*)p_struct)->tx_efid = 0U;
 159              		.loc 1 109 13
 110:arch/riscv/mach-gd32vf10x/bsp/gd32vf103_can.c ****             ((can_trasnmit_message_struct*)p_struct)->tx_ff = (uint8_t)CAN_FF_STANDARD;
 160              		.loc 1 110 13
 111:arch/riscv/mach-gd32vf10x/bsp/gd32vf103_can.c ****             ((can_trasnmit_message_struct*)p_struct)->tx_ft = (uint8_t)CAN_FT_DATA;
 161              		.loc 1 111 13
 112:arch/riscv/mach-gd32vf10x/bsp/gd32vf103_can.c ****             ((can_trasnmit_message_struct*)p_struct)->tx_sfid = 0U;
 162              		.loc 1 112 13
 113:arch/riscv/mach-gd32vf10x/bsp/gd32vf103_can.c ****             
 163              		.loc 1 113 13
GAS LISTING C:\Users\test\AppData\Local\Temp\ccA0cEyS.s 			page 7


 113:arch/riscv/mach-gd32vf10x/bsp/gd32vf103_can.c ****             
 164              		.loc 1 113 63 is_stmt 0
 165 0042 23A00500 		sw	zero,0(a1)
 110:arch/riscv/mach-gd32vf10x/bsp/gd32vf103_can.c ****             ((can_trasnmit_message_struct*)p_struct)->tx_ff = (uint8_t)CAN_FF_STANDARD;
 166              		.loc 1 110 63
 167 0046 23A20500 		sw	zero,4(a1)
 111:arch/riscv/mach-gd32vf10x/bsp/gd32vf103_can.c ****             ((can_trasnmit_message_struct*)p_struct)->tx_ft = (uint8_t)CAN_FT_DATA;
 168              		.loc 1 111 61
 169 004a 23A40500 		sw	zero,8(a1)
 106:arch/riscv/mach-gd32vf10x/bsp/gd32vf103_can.c ****             }
 170              		.loc 1 106 70
 171 004e 23A60500 		sw	zero,12(a1)
 172 0052 23980500 		sh	zero,16(a1)
 173 0056 23890500 		sb	zero,18(a1)
 115:arch/riscv/mach-gd32vf10x/bsp/gd32vf103_can.c ****         /* used for can_message_receive() */
 174              		.loc 1 115 13 is_stmt 1
 175 005a 8280     		ret
 176              	.LVL11:
 177              	.L8:
  77:arch/riscv/mach-gd32vf10x/bsp/gd32vf103_can.c ****             ((can_parameter_struct*)p_struct)->no_auto_retrans = DISABLE;
 178              		.loc 1 77 13
  78:arch/riscv/mach-gd32vf10x/bsp/gd32vf103_can.c ****             ((can_parameter_struct*)p_struct)->auto_wake_up = DISABLE;
 179              		.loc 1 78 13
  79:arch/riscv/mach-gd32vf10x/bsp/gd32vf103_can.c ****             ((can_parameter_struct*)p_struct)->prescaler = 0x03FFU; 
 180              		.loc 1 79 13
  80:arch/riscv/mach-gd32vf10x/bsp/gd32vf103_can.c ****             ((can_parameter_struct*)p_struct)->rec_fifo_overwrite = DISABLE; 
 181              		.loc 1 80 13
  81:arch/riscv/mach-gd32vf10x/bsp/gd32vf103_can.c ****             ((can_parameter_struct*)p_struct)->resync_jump_width = CAN_BT_SJW_1TQ;
 182              		.loc 1 81 13
  82:arch/riscv/mach-gd32vf10x/bsp/gd32vf103_can.c ****             ((can_parameter_struct*)p_struct)->time_segment_1 = CAN_BT_BS1_3TQ;
 183              		.loc 1 82 13
  83:arch/riscv/mach-gd32vf10x/bsp/gd32vf103_can.c ****             ((can_parameter_struct*)p_struct)->time_segment_2 = CAN_BT_BS2_1TQ;
 184              		.loc 1 83 13
  84:arch/riscv/mach-gd32vf10x/bsp/gd32vf103_can.c ****             ((can_parameter_struct*)p_struct)->time_triggered = DISABLE;
 185              		.loc 1 84 13
  85:arch/riscv/mach-gd32vf10x/bsp/gd32vf103_can.c ****             ((can_parameter_struct*)p_struct)->trans_fifo_order = DISABLE;
 186              		.loc 1 85 13
  86:arch/riscv/mach-gd32vf10x/bsp/gd32vf103_can.c ****             ((can_parameter_struct*)p_struct)->working_mode = CAN_NORMAL_MODE;
 187              		.loc 1 86 13
  87:arch/riscv/mach-gd32vf10x/bsp/gd32vf103_can.c ****             
 188              		.loc 1 87 13
  87:arch/riscv/mach-gd32vf10x/bsp/gd32vf103_can.c ****             
 189              		.loc 1 87 61 is_stmt 0
 190 005c B7070200 		li	a5,131072
 191 0060 9CC1     		sw	a5,0(a1)
  80:arch/riscv/mach-gd32vf10x/bsp/gd32vf103_can.c ****             ((can_parameter_struct*)p_struct)->rec_fifo_overwrite = DISABLE; 
 192              		.loc 1 80 58
 193 0062 9307F03F 		li	a5,1023
  85:arch/riscv/mach-gd32vf10x/bsp/gd32vf103_can.c ****             ((can_parameter_struct*)p_struct)->trans_fifo_order = DISABLE;
 194              		.loc 1 85 63
 195 0066 23A20500 		sw	zero,4(a1)
  77:arch/riscv/mach-gd32vf10x/bsp/gd32vf103_can.c ****             ((can_parameter_struct*)p_struct)->no_auto_retrans = DISABLE;
 196              		.loc 1 77 70
 197 006a 23A40500 		sw	zero,8(a1)
  79:arch/riscv/mach-gd32vf10x/bsp/gd32vf103_can.c ****             ((can_parameter_struct*)p_struct)->prescaler = 0x03FFU; 
 198              		.loc 1 79 61
 199 006e 23A60500 		sw	zero,12(a1)
GAS LISTING C:\Users\test\AppData\Local\Temp\ccA0cEyS.s 			page 8


  78:arch/riscv/mach-gd32vf10x/bsp/gd32vf103_can.c ****             ((can_parameter_struct*)p_struct)->auto_wake_up = DISABLE;
 200              		.loc 1 78 64
 201 0072 23A80500 		sw	zero,16(a1)
  81:arch/riscv/mach-gd32vf10x/bsp/gd32vf103_can.c ****             ((can_parameter_struct*)p_struct)->resync_jump_width = CAN_BT_SJW_1TQ;
 202              		.loc 1 81 67
 203 0076 23AA0500 		sw	zero,20(a1)
  86:arch/riscv/mach-gd32vf10x/bsp/gd32vf103_can.c ****             ((can_parameter_struct*)p_struct)->working_mode = CAN_NORMAL_MODE;
 204              		.loc 1 86 65
 205 007a 23AC0500 		sw	zero,24(a1)
  80:arch/riscv/mach-gd32vf10x/bsp/gd32vf103_can.c ****             ((can_parameter_struct*)p_struct)->rec_fifo_overwrite = DISABLE; 
 206              		.loc 1 80 58
 207 007e 239EF500 		sh	a5,28(a1)
  89:arch/riscv/mach-gd32vf10x/bsp/gd32vf103_can.c ****         /* used for can_filter_init() */
 208              		.loc 1 89 13 is_stmt 1
 209 0082 8280     		ret
 210              		.cfi_endproc
 211              	.LFE3:
 213              		.section	.text.can_init,"ax",@progbits
 214              		.align	1
 215              		.globl	can_init
 217              	can_init:
 218              	.LFB4:
 135:arch/riscv/mach-gd32vf10x/bsp/gd32vf103_can.c **** 
 136:arch/riscv/mach-gd32vf10x/bsp/gd32vf103_can.c **** /*!
 137:arch/riscv/mach-gd32vf10x/bsp/gd32vf103_can.c ****     \brief      initialize CAN
 138:arch/riscv/mach-gd32vf10x/bsp/gd32vf103_can.c ****     \param[in]  can_periph
 139:arch/riscv/mach-gd32vf10x/bsp/gd32vf103_can.c ****       \arg        CANx(x=0,1)
 140:arch/riscv/mach-gd32vf10x/bsp/gd32vf103_can.c ****     \param[in]  can_parameter_init: parameters for CAN initializtion
 141:arch/riscv/mach-gd32vf10x/bsp/gd32vf103_can.c ****       \arg        working_mode: CAN_NORMAL_MODE, CAN_LOOPBACK_MODE, CAN_SILENT_MODE, CAN_SILENT_LOO
 142:arch/riscv/mach-gd32vf10x/bsp/gd32vf103_can.c ****       \arg        resync_jump_width: CAN_BT_SJW_xTQ(x=1, 2, 3, 4)
 143:arch/riscv/mach-gd32vf10x/bsp/gd32vf103_can.c ****       \arg        time_segment_1: CAN_BT_BS1_xTQ(1..16)
 144:arch/riscv/mach-gd32vf10x/bsp/gd32vf103_can.c ****       \arg        time_segment_2: CAN_BT_BS2_xTQ(1..8)
 145:arch/riscv/mach-gd32vf10x/bsp/gd32vf103_can.c ****       \arg        time_triggered: ENABLE or DISABLE
 146:arch/riscv/mach-gd32vf10x/bsp/gd32vf103_can.c ****       \arg        auto_bus_off_recovery: ENABLE or DISABLE
 147:arch/riscv/mach-gd32vf10x/bsp/gd32vf103_can.c ****       \arg        auto_wake_up: ENABLE or DISABLE
 148:arch/riscv/mach-gd32vf10x/bsp/gd32vf103_can.c ****       \arg        no_auto_retrans: ENABLE or DISABLE
 149:arch/riscv/mach-gd32vf10x/bsp/gd32vf103_can.c ****       \arg        rec_fifo_overwrite: ENABLE or DISABLE
 150:arch/riscv/mach-gd32vf10x/bsp/gd32vf103_can.c ****       \arg        trans_fifo_order: ENABLE or DISABLE
 151:arch/riscv/mach-gd32vf10x/bsp/gd32vf103_can.c ****       \arg        prescaler: 0x0000 - 0x03FF
 152:arch/riscv/mach-gd32vf10x/bsp/gd32vf103_can.c ****     \param[out] none
 153:arch/riscv/mach-gd32vf10x/bsp/gd32vf103_can.c ****     \retval     ErrStatus: SUCCESS or ERROR
 154:arch/riscv/mach-gd32vf10x/bsp/gd32vf103_can.c **** */
 155:arch/riscv/mach-gd32vf10x/bsp/gd32vf103_can.c **** ErrStatus can_init(uint32_t can_periph, can_parameter_struct* can_parameter_init)
 156:arch/riscv/mach-gd32vf10x/bsp/gd32vf103_can.c **** {
 219              		.loc 1 156 1
 220              		.cfi_startproc
 221              	.LVL12:
 157:arch/riscv/mach-gd32vf10x/bsp/gd32vf103_can.c ****     uint32_t timeout = CAN_TIMEOUT;
 222              		.loc 1 157 5
 158:arch/riscv/mach-gd32vf10x/bsp/gd32vf103_can.c ****     ErrStatus flag = ERROR;
 223              		.loc 1 158 5
 159:arch/riscv/mach-gd32vf10x/bsp/gd32vf103_can.c ****     
 160:arch/riscv/mach-gd32vf10x/bsp/gd32vf103_can.c ****     /* disable sleep mode */
 161:arch/riscv/mach-gd32vf10x/bsp/gd32vf103_can.c ****     CAN_CTL(can_periph) &= ~CAN_CTL_SLPWMOD;
 224              		.loc 1 161 5
 225              		.loc 1 161 25 is_stmt 0
 226 0000 1C41     		lw	a5,0(a0)
GAS LISTING C:\Users\test\AppData\Local\Temp\ccA0cEyS.s 			page 9


 162:arch/riscv/mach-gd32vf10x/bsp/gd32vf103_can.c ****     /* enable initialize mode */
 163:arch/riscv/mach-gd32vf10x/bsp/gd32vf103_can.c ****     CAN_CTL(can_periph) |= CAN_CTL_IWMOD;
 164:arch/riscv/mach-gd32vf10x/bsp/gd32vf103_can.c ****     /* wait ACK */
 165:arch/riscv/mach-gd32vf10x/bsp/gd32vf103_can.c ****     while((CAN_STAT_IWS != (CAN_STAT(can_periph) & CAN_STAT_IWS)) && (0U != timeout)){
 227              		.loc 1 165 29
 228 0002 93064500 		addi	a3,a0,4
 161:arch/riscv/mach-gd32vf10x/bsp/gd32vf103_can.c ****     /* enable initialize mode */
 229              		.loc 1 161 25
 230 0006 F59B     		andi	a5,a5,-3
 231 0008 1CC1     		sw	a5,0(a0)
 163:arch/riscv/mach-gd32vf10x/bsp/gd32vf103_can.c ****     /* wait ACK */
 232              		.loc 1 163 5 is_stmt 1
 163:arch/riscv/mach-gd32vf10x/bsp/gd32vf103_can.c ****     /* wait ACK */
 233              		.loc 1 163 25 is_stmt 0
 234 000a 1C41     		lw	a5,0(a0)
 235 000c 93E71700 		ori	a5,a5,1
 236 0010 1CC1     		sw	a5,0(a0)
 237              		.loc 1 165 5 is_stmt 1
 238              		.loc 1 165 29 is_stmt 0
 239 0012 5C41     		lw	a5,4(a0)
 240              		.loc 1 165 50
 241 0014 858B     		andi	a5,a5,1
 242              		.loc 1 165 10
 243 0016 89EB     		bne	a5,zero,.L15
 244 0018 4167     		li	a4,65536
 245 001a 7D17     		addi	a4,a4,-1
 246 001c 11A0     		j	.L16
 247              	.LVL13:
 248              	.L40:
 249              		.loc 1 165 67 discriminator 1
 250 001e 09C7     		beq	a4,zero,.L15
 251              	.LVL14:
 252              	.L16:
 166:arch/riscv/mach-gd32vf10x/bsp/gd32vf103_can.c ****         timeout--;
 253              		.loc 1 166 9 is_stmt 1
 165:arch/riscv/mach-gd32vf10x/bsp/gd32vf103_can.c ****         timeout--;
 254              		.loc 1 165 29 is_stmt 0
 255 0020 9C42     		lw	a5,0(a3)
 256 0022 7D17     		addi	a4,a4,-1
 257              	.LVL15:
 165:arch/riscv/mach-gd32vf10x/bsp/gd32vf103_can.c ****         timeout--;
 258              		.loc 1 165 50
 259 0024 858B     		andi	a5,a5,1
 165:arch/riscv/mach-gd32vf10x/bsp/gd32vf103_can.c ****         timeout--;
 260              		.loc 1 165 10
 261 0026 E5DF     		beq	a5,zero,.L40
 262              	.LVL16:
 263              	.L15:
 167:arch/riscv/mach-gd32vf10x/bsp/gd32vf103_can.c ****     }
 168:arch/riscv/mach-gd32vf10x/bsp/gd32vf103_can.c ****     /* check initialize working success */
 169:arch/riscv/mach-gd32vf10x/bsp/gd32vf103_can.c ****     if(CAN_STAT_IWS != (CAN_STAT(can_periph) & CAN_STAT_IWS)){
 264              		.loc 1 169 5 is_stmt 1
 265              		.loc 1 169 25 is_stmt 0
 266 0028 5841     		lw	a4,4(a0)
 267              		.loc 1 169 46
 268 002a 058B     		andi	a4,a4,1
 269              		.loc 1 169 7
GAS LISTING C:\Users\test\AppData\Local\Temp\ccA0cEyS.s 			page 10


 270 002c 71C7     		beq	a4,zero,.L34
 170:arch/riscv/mach-gd32vf10x/bsp/gd32vf103_can.c ****         flag = ERROR;
 171:arch/riscv/mach-gd32vf10x/bsp/gd32vf103_can.c ****     }else{
 172:arch/riscv/mach-gd32vf10x/bsp/gd32vf103_can.c ****         /* set the bit timing register */
 173:arch/riscv/mach-gd32vf10x/bsp/gd32vf103_can.c ****         CAN_BT(can_periph) = (BT_MODE((uint32_t)can_parameter_init->working_mode) | \
 271              		.loc 1 173 9 is_stmt 1
 174:arch/riscv/mach-gd32vf10x/bsp/gd32vf103_can.c ****                               BT_SJW((uint32_t)can_parameter_init->resync_jump_width) | \
 272              		.loc 1 174 31 is_stmt 0
 273 002e 83C71500 		lbu	a5,1(a1)
 175:arch/riscv/mach-gd32vf10x/bsp/gd32vf103_can.c ****                               BT_BS1((uint32_t)can_parameter_init->time_segment_1) | \
 274              		.loc 1 175 31
 275 0032 83C82500 		lbu	a7,2(a1)
 173:arch/riscv/mach-gd32vf10x/bsp/gd32vf103_can.c ****                               BT_SJW((uint32_t)can_parameter_init->resync_jump_width) | \
 276              		.loc 1 173 31
 277 0036 03C30500 		lbu	t1,0(a1)
 174:arch/riscv/mach-gd32vf10x/bsp/gd32vf103_can.c ****                               BT_SJW((uint32_t)can_parameter_init->resync_jump_width) | \
 278              		.loc 1 174 31
 279 003a 370E0003 		li	t3,50331648
 280 003e E207     		slli	a5,a5,24
 176:arch/riscv/mach-gd32vf10x/bsp/gd32vf103_can.c ****                               BT_BS2((uint32_t)can_parameter_init->time_segment_2) | \
 281              		.loc 1 176 31
 282 0040 03C83500 		lbu	a6,3(a1)
 174:arch/riscv/mach-gd32vf10x/bsp/gd32vf103_can.c ****                               BT_BS1((uint32_t)can_parameter_init->time_segment_1) | \
 283              		.loc 1 174 31
 284 0044 B3F7C701 		and	a5,a5,t3
 175:arch/riscv/mach-gd32vf10x/bsp/gd32vf103_can.c ****                               BT_BS2((uint32_t)can_parameter_init->time_segment_2) | \
 285              		.loc 1 175 31
 286 0048 C208     		slli	a7,a7,16
 287 004a 370E0F00 		li	t3,983040
 177:arch/riscv/mach-gd32vf10x/bsp/gd32vf103_can.c ****                               BT_BAUDPSC(((uint32_t)(can_parameter_init->prescaler) - 1U)));
 288              		.loc 1 177 31
 289 004e 03D6C501 		lhu	a2,28(a1)
 175:arch/riscv/mach-gd32vf10x/bsp/gd32vf103_can.c ****                               BT_BS2((uint32_t)can_parameter_init->time_segment_2) | \
 290              		.loc 1 175 31
 291 0052 B3F8C801 		and	a7,a7,t3
 174:arch/riscv/mach-gd32vf10x/bsp/gd32vf103_can.c ****                               BT_BS1((uint32_t)can_parameter_init->time_segment_1) | \
 292              		.loc 1 174 87
 293 0056 B3E71701 		or	a5,a5,a7
 173:arch/riscv/mach-gd32vf10x/bsp/gd32vf103_can.c ****                               BT_SJW((uint32_t)can_parameter_init->resync_jump_width) | \
 294              		.loc 1 173 31
 295 005a 9318E301 		slli	a7,t1,30
 174:arch/riscv/mach-gd32vf10x/bsp/gd32vf103_can.c ****                               BT_BS1((uint32_t)can_parameter_init->time_segment_1) | \
 296              		.loc 1 174 87
 297 005e B3E71701 		or	a5,a5,a7
 176:arch/riscv/mach-gd32vf10x/bsp/gd32vf103_can.c ****                               BT_BAUDPSC(((uint32_t)(can_parameter_init->prescaler) - 1U)));
 298              		.loc 1 176 31
 299 0062 5208     		slli	a6,a6,20
 300 0064 B7087000 		li	a7,7340032
 301 0068 33781801 		and	a6,a6,a7
 302              		.loc 1 177 31
 303 006c 7D16     		addi	a2,a2,-1
 175:arch/riscv/mach-gd32vf10x/bsp/gd32vf103_can.c ****                               BT_BS2((uint32_t)can_parameter_init->time_segment_2) | \
 304              		.loc 1 175 84
 305 006e B3E70701 		or	a5,a5,a6
 306              		.loc 1 177 31
 307 0072 1376F63F 		andi	a2,a2,1023
 178:arch/riscv/mach-gd32vf10x/bsp/gd32vf103_can.c **** 
GAS LISTING C:\Users\test\AppData\Local\Temp\ccA0cEyS.s 			page 11


 179:arch/riscv/mach-gd32vf10x/bsp/gd32vf103_can.c ****         /* time trigger communication mode */
 180:arch/riscv/mach-gd32vf10x/bsp/gd32vf103_can.c ****         if(ENABLE == can_parameter_init->time_triggered){
 308              		.loc 1 180 11
 309 0076 03A84500 		lw	a6,4(a1)
 176:arch/riscv/mach-gd32vf10x/bsp/gd32vf103_can.c ****                               BT_BAUDPSC(((uint32_t)(can_parameter_init->prescaler) - 1U)));
 310              		.loc 1 176 84
 311 007a D18F     		or	a5,a5,a2
 173:arch/riscv/mach-gd32vf10x/bsp/gd32vf103_can.c ****                               BT_SJW((uint32_t)can_parameter_init->resync_jump_width) | \
 312              		.loc 1 173 28
 313 007c 5CCD     		sw	a5,28(a0)
 314              		.loc 1 180 9 is_stmt 1
 315              		.loc 1 180 11 is_stmt 0
 316 007e 8547     		li	a5,1
 317 0080 6307F80A 		beq	a6,a5,.L41
 181:arch/riscv/mach-gd32vf10x/bsp/gd32vf103_can.c ****             CAN_CTL(can_periph) |= CAN_CTL_TTC;
 182:arch/riscv/mach-gd32vf10x/bsp/gd32vf103_can.c ****         }else{
 183:arch/riscv/mach-gd32vf10x/bsp/gd32vf103_can.c ****             CAN_CTL(can_periph) &= ~CAN_CTL_TTC;
 318              		.loc 1 183 13 is_stmt 1
 319              		.loc 1 183 33 is_stmt 0
 320 0084 1C41     		lw	a5,0(a0)
 184:arch/riscv/mach-gd32vf10x/bsp/gd32vf103_can.c ****         }
 185:arch/riscv/mach-gd32vf10x/bsp/gd32vf103_can.c ****         /* automatic bus-off managment */
 186:arch/riscv/mach-gd32vf10x/bsp/gd32vf103_can.c ****         if(ENABLE == can_parameter_init->auto_bus_off_recovery){
 321              		.loc 1 186 11
 322 0086 9045     		lw	a2,8(a1)
 183:arch/riscv/mach-gd32vf10x/bsp/gd32vf103_can.c ****         }
 323              		.loc 1 183 33
 324 0088 93F7F7F7 		andi	a5,a5,-129
 325 008c 1CC1     		sw	a5,0(a0)
 326              		.loc 1 186 9 is_stmt 1
 327              		.loc 1 186 11 is_stmt 0
 328 008e 8547     		li	a5,1
 329 0090 6307F60A 		beq	a2,a5,.L42
 330              	.L21:
 187:arch/riscv/mach-gd32vf10x/bsp/gd32vf103_can.c ****             CAN_CTL(can_periph) |= CAN_CTL_ABOR;
 188:arch/riscv/mach-gd32vf10x/bsp/gd32vf103_can.c ****         }else{
 189:arch/riscv/mach-gd32vf10x/bsp/gd32vf103_can.c ****             CAN_CTL(can_periph) &= ~CAN_CTL_ABOR;
 331              		.loc 1 189 13 is_stmt 1
 332              		.loc 1 189 33 is_stmt 0
 333 0094 1C41     		lw	a5,0(a0)
 190:arch/riscv/mach-gd32vf10x/bsp/gd32vf103_can.c ****         }
 191:arch/riscv/mach-gd32vf10x/bsp/gd32vf103_can.c ****         /* automatic wakeup mode */
 192:arch/riscv/mach-gd32vf10x/bsp/gd32vf103_can.c ****         if(ENABLE == can_parameter_init->auto_wake_up){
 334              		.loc 1 192 11
 335 0096 D045     		lw	a2,12(a1)
 189:arch/riscv/mach-gd32vf10x/bsp/gd32vf103_can.c ****         }
 336              		.loc 1 189 33
 337 0098 93F7F7FB 		andi	a5,a5,-65
 338 009c 1CC1     		sw	a5,0(a0)
 339              		.loc 1 192 9 is_stmt 1
 340              		.loc 1 192 11 is_stmt 0
 341 009e 8547     		li	a5,1
 342 00a0 6307F60A 		beq	a2,a5,.L43
 343              	.L23:
 193:arch/riscv/mach-gd32vf10x/bsp/gd32vf103_can.c ****             CAN_CTL(can_periph) |= CAN_CTL_AWU;
 194:arch/riscv/mach-gd32vf10x/bsp/gd32vf103_can.c ****         }else{
 195:arch/riscv/mach-gd32vf10x/bsp/gd32vf103_can.c ****             CAN_CTL(can_periph) &= ~CAN_CTL_AWU;
GAS LISTING C:\Users\test\AppData\Local\Temp\ccA0cEyS.s 			page 12


 344              		.loc 1 195 13 is_stmt 1
 345              		.loc 1 195 33 is_stmt 0
 346 00a4 1C41     		lw	a5,0(a0)
 196:arch/riscv/mach-gd32vf10x/bsp/gd32vf103_can.c ****         }
 197:arch/riscv/mach-gd32vf10x/bsp/gd32vf103_can.c ****         /* automatic retransmission mode disable*/
 198:arch/riscv/mach-gd32vf10x/bsp/gd32vf103_can.c ****         if(ENABLE == can_parameter_init->no_auto_retrans){
 347              		.loc 1 198 11
 348 00a6 9049     		lw	a2,16(a1)
 195:arch/riscv/mach-gd32vf10x/bsp/gd32vf103_can.c ****         }
 349              		.loc 1 195 33
 350 00a8 93F7F7FD 		andi	a5,a5,-33
 351 00ac 1CC1     		sw	a5,0(a0)
 352              		.loc 1 198 9 is_stmt 1
 353              		.loc 1 198 11 is_stmt 0
 354 00ae 8547     		li	a5,1
 355 00b0 6307F60A 		beq	a2,a5,.L44
 356              	.L25:
 199:arch/riscv/mach-gd32vf10x/bsp/gd32vf103_can.c ****             CAN_CTL(can_periph) |= CAN_CTL_ARD;
 200:arch/riscv/mach-gd32vf10x/bsp/gd32vf103_can.c ****         }else{
 201:arch/riscv/mach-gd32vf10x/bsp/gd32vf103_can.c ****             CAN_CTL(can_periph) &= ~CAN_CTL_ARD;
 357              		.loc 1 201 13 is_stmt 1
 358              		.loc 1 201 33 is_stmt 0
 359 00b4 1C41     		lw	a5,0(a0)
 202:arch/riscv/mach-gd32vf10x/bsp/gd32vf103_can.c ****         }
 203:arch/riscv/mach-gd32vf10x/bsp/gd32vf103_can.c ****         /* receive fifo overwrite mode */        
 204:arch/riscv/mach-gd32vf10x/bsp/gd32vf103_can.c ****         if(ENABLE == can_parameter_init->rec_fifo_overwrite){
 360              		.loc 1 204 11
 361 00b6 D049     		lw	a2,20(a1)
 201:arch/riscv/mach-gd32vf10x/bsp/gd32vf103_can.c ****         }
 362              		.loc 1 201 33
 363 00b8 BD9B     		andi	a5,a5,-17
 364 00ba 1CC1     		sw	a5,0(a0)
 365              		.loc 1 204 9 is_stmt 1
 366              		.loc 1 204 11 is_stmt 0
 367 00bc 8547     		li	a5,1
 368 00be 6308F60A 		beq	a2,a5,.L45
 369              	.L27:
 205:arch/riscv/mach-gd32vf10x/bsp/gd32vf103_can.c ****             CAN_CTL(can_periph) |= CAN_CTL_RFOD;
 206:arch/riscv/mach-gd32vf10x/bsp/gd32vf103_can.c ****         }else{
 207:arch/riscv/mach-gd32vf10x/bsp/gd32vf103_can.c ****             CAN_CTL(can_periph) &= ~CAN_CTL_RFOD;
 370              		.loc 1 207 13 is_stmt 1
 371              		.loc 1 207 33 is_stmt 0
 372 00c2 1C41     		lw	a5,0(a0)
 208:arch/riscv/mach-gd32vf10x/bsp/gd32vf103_can.c ****         } 
 209:arch/riscv/mach-gd32vf10x/bsp/gd32vf103_can.c ****         /* transmit fifo order */
 210:arch/riscv/mach-gd32vf10x/bsp/gd32vf103_can.c ****         if(ENABLE == can_parameter_init->trans_fifo_order){
 373              		.loc 1 210 11
 374 00c4 904D     		lw	a2,24(a1)
 207:arch/riscv/mach-gd32vf10x/bsp/gd32vf103_can.c ****         } 
 375              		.loc 1 207 33
 376 00c6 DD9B     		andi	a5,a5,-9
 377 00c8 1CC1     		sw	a5,0(a0)
 378              		.loc 1 210 9 is_stmt 1
 379              		.loc 1 210 11 is_stmt 0
 380 00ca 8547     		li	a5,1
 381 00cc 6309F60A 		beq	a2,a5,.L46
 382              	.L29:
GAS LISTING C:\Users\test\AppData\Local\Temp\ccA0cEyS.s 			page 13


 211:arch/riscv/mach-gd32vf10x/bsp/gd32vf103_can.c ****             CAN_CTL(can_periph) |= CAN_CTL_TFO;
 212:arch/riscv/mach-gd32vf10x/bsp/gd32vf103_can.c ****         }else{
 213:arch/riscv/mach-gd32vf10x/bsp/gd32vf103_can.c ****             CAN_CTL(can_periph) &= ~CAN_CTL_TFO;
 383              		.loc 1 213 13 is_stmt 1
 384              		.loc 1 213 33 is_stmt 0
 385 00d0 1C41     		lw	a5,0(a0)
 386 00d2 ED9B     		andi	a5,a5,-5
 387 00d4 1CC1     		sw	a5,0(a0)
 388              	.L30:
 214:arch/riscv/mach-gd32vf10x/bsp/gd32vf103_can.c ****         }  
 215:arch/riscv/mach-gd32vf10x/bsp/gd32vf103_can.c ****         /* disable initialize mode */
 216:arch/riscv/mach-gd32vf10x/bsp/gd32vf103_can.c ****         CAN_CTL(can_periph) &= ~CAN_CTL_IWMOD;
 389              		.loc 1 216 9 is_stmt 1
 390              		.loc 1 216 29 is_stmt 0
 391 00d6 1C41     		lw	a5,0(a0)
 392 00d8 F99B     		andi	a5,a5,-2
 393 00da 1CC1     		sw	a5,0(a0)
 217:arch/riscv/mach-gd32vf10x/bsp/gd32vf103_can.c ****         timeout = CAN_TIMEOUT;
 394              		.loc 1 217 9 is_stmt 1
 395              	.LVL17:
 218:arch/riscv/mach-gd32vf10x/bsp/gd32vf103_can.c ****         /* wait the ACK */
 219:arch/riscv/mach-gd32vf10x/bsp/gd32vf103_can.c ****         while((CAN_STAT_IWS == (CAN_STAT(can_periph) & CAN_STAT_IWS)) && (0U != timeout)){
 396              		.loc 1 219 9
 397              		.loc 1 219 33 is_stmt 0
 398 00dc 5C41     		lw	a5,4(a0)
 399              		.loc 1 219 54
 400 00de 858B     		andi	a5,a5,1
 401              		.loc 1 219 14
 402 00e0 89CF     		beq	a5,zero,.L18
 217:arch/riscv/mach-gd32vf10x/bsp/gd32vf103_can.c ****         timeout = CAN_TIMEOUT;
 403              		.loc 1 217 17
 404 00e2 4167     		li	a4,65536
 405 00e4 7D17     		addi	a4,a4,-1
 406 00e6 11A0     		j	.L33
 407              	.LVL18:
 408              	.L32:
 409              		.loc 1 219 71 discriminator 1
 410 00e8 01CB     		beq	a4,zero,.L34
 411              	.LVL19:
 412              	.L33:
 220:arch/riscv/mach-gd32vf10x/bsp/gd32vf103_can.c ****             timeout--;
 413              		.loc 1 220 13 is_stmt 1
 219:arch/riscv/mach-gd32vf10x/bsp/gd32vf103_can.c ****             timeout--;
 414              		.loc 1 219 33 is_stmt 0
 415 00ea 9C42     		lw	a5,0(a3)
 416              		.loc 1 220 20
 417 00ec 7D17     		addi	a4,a4,-1
 418              	.LVL20:
 219:arch/riscv/mach-gd32vf10x/bsp/gd32vf103_can.c ****             timeout--;
 419              		.loc 1 219 54
 420 00ee 858B     		andi	a5,a5,1
 219:arch/riscv/mach-gd32vf10x/bsp/gd32vf103_can.c ****             timeout--;
 421              		.loc 1 219 14
 422 00f0 E5FF     		bne	a5,zero,.L32
 423 00f2 3337E000 		snez	a4,a4
 424              	.LVL21:
 425 00f6 11A0     		j	.L18
GAS LISTING C:\Users\test\AppData\Local\Temp\ccA0cEyS.s 			page 14


 426              	.L34:
 170:arch/riscv/mach-gd32vf10x/bsp/gd32vf103_can.c ****     }else{
 427              		.loc 1 170 14
 428 00f8 0147     		li	a4,0
 429              	.L18:
 430              	.LVL22:
 221:arch/riscv/mach-gd32vf10x/bsp/gd32vf103_can.c ****         }
 222:arch/riscv/mach-gd32vf10x/bsp/gd32vf103_can.c ****         /* check exit initialize mode */
 223:arch/riscv/mach-gd32vf10x/bsp/gd32vf103_can.c ****         if(0U != timeout){
 224:arch/riscv/mach-gd32vf10x/bsp/gd32vf103_can.c ****             flag = SUCCESS;
 225:arch/riscv/mach-gd32vf10x/bsp/gd32vf103_can.c ****         }
 226:arch/riscv/mach-gd32vf10x/bsp/gd32vf103_can.c ****     }
 227:arch/riscv/mach-gd32vf10x/bsp/gd32vf103_can.c ****     CAN_TMI0(can_periph) = 0x0;
 431              		.loc 1 227 5 is_stmt 1
 432              		.loc 1 227 26 is_stmt 0
 433 00fa 23200518 		sw	zero,384(a0)
 228:arch/riscv/mach-gd32vf10x/bsp/gd32vf103_can.c ****     CAN_TMI1(can_periph) = 0x0;
 434              		.loc 1 228 5 is_stmt 1
 435              		.loc 1 228 26 is_stmt 0
 436 00fe 23280518 		sw	zero,400(a0)
 229:arch/riscv/mach-gd32vf10x/bsp/gd32vf103_can.c ****     CAN_TMI2(can_periph) = 0x0;
 437              		.loc 1 229 5 is_stmt 1
 438              		.loc 1 229 26 is_stmt 0
 439 0102 2320051A 		sw	zero,416(a0)
 230:arch/riscv/mach-gd32vf10x/bsp/gd32vf103_can.c ****     CAN_TMP0(can_periph) = 0x0;
 440              		.loc 1 230 5 is_stmt 1
 441              		.loc 1 230 26 is_stmt 0
 442 0106 23220518 		sw	zero,388(a0)
 231:arch/riscv/mach-gd32vf10x/bsp/gd32vf103_can.c ****     CAN_TMP1(can_periph) = 0x0;
 443              		.loc 1 231 5 is_stmt 1
 444              		.loc 1 231 26 is_stmt 0
 445 010a 232A0518 		sw	zero,404(a0)
 232:arch/riscv/mach-gd32vf10x/bsp/gd32vf103_can.c ****     CAN_TMP2(can_periph) = 0x0;
 446              		.loc 1 232 5 is_stmt 1
 447              		.loc 1 232 26 is_stmt 0
 448 010e 2322051A 		sw	zero,420(a0)
 233:arch/riscv/mach-gd32vf10x/bsp/gd32vf103_can.c ****     CAN_TMDATA00(can_periph) = 0x0;
 449              		.loc 1 233 5 is_stmt 1
 450              		.loc 1 233 30 is_stmt 0
 451 0112 23240518 		sw	zero,392(a0)
 234:arch/riscv/mach-gd32vf10x/bsp/gd32vf103_can.c ****     CAN_TMDATA01(can_periph) = 0x0;
 452              		.loc 1 234 5 is_stmt 1
 453              		.loc 1 234 30 is_stmt 0
 454 0116 232C0518 		sw	zero,408(a0)
 235:arch/riscv/mach-gd32vf10x/bsp/gd32vf103_can.c ****     CAN_TMDATA02(can_periph) = 0x0;
 455              		.loc 1 235 5 is_stmt 1
 456              		.loc 1 235 30 is_stmt 0
 457 011a 2324051A 		sw	zero,424(a0)
 236:arch/riscv/mach-gd32vf10x/bsp/gd32vf103_can.c ****     CAN_TMDATA10(can_periph) = 0x0;
 458              		.loc 1 236 5 is_stmt 1
 459              		.loc 1 236 30 is_stmt 0
 460 011e 23260518 		sw	zero,396(a0)
 237:arch/riscv/mach-gd32vf10x/bsp/gd32vf103_can.c ****     CAN_TMDATA11(can_periph) = 0x0;
 461              		.loc 1 237 5 is_stmt 1
 462              		.loc 1 237 30 is_stmt 0
 463 0122 232E0518 		sw	zero,412(a0)
 238:arch/riscv/mach-gd32vf10x/bsp/gd32vf103_can.c ****     CAN_TMDATA12(can_periph) = 0x0;
GAS LISTING C:\Users\test\AppData\Local\Temp\ccA0cEyS.s 			page 15


 464              		.loc 1 238 5 is_stmt 1
 465              		.loc 1 238 30 is_stmt 0
 466 0126 2326051A 		sw	zero,428(a0)
 239:arch/riscv/mach-gd32vf10x/bsp/gd32vf103_can.c **** 
 240:arch/riscv/mach-gd32vf10x/bsp/gd32vf103_can.c ****     return flag;
 467              		.loc 1 240 5 is_stmt 1
 241:arch/riscv/mach-gd32vf10x/bsp/gd32vf103_can.c **** }
 468              		.loc 1 241 1 is_stmt 0
 469 012a 3A85     		mv	a0,a4
 470              	.LVL23:
 471 012c 8280     		ret
 472              	.LVL24:
 473              	.L41:
 181:arch/riscv/mach-gd32vf10x/bsp/gd32vf103_can.c ****         }else{
 474              		.loc 1 181 13 is_stmt 1
 181:arch/riscv/mach-gd32vf10x/bsp/gd32vf103_can.c ****         }else{
 475              		.loc 1 181 33 is_stmt 0
 476 012e 1C41     		lw	a5,0(a0)
 186:arch/riscv/mach-gd32vf10x/bsp/gd32vf103_can.c ****             CAN_CTL(can_periph) |= CAN_CTL_ABOR;
 477              		.loc 1 186 11
 478 0130 9045     		lw	a2,8(a1)
 181:arch/riscv/mach-gd32vf10x/bsp/gd32vf103_can.c ****         }else{
 479              		.loc 1 181 33
 480 0132 93E70708 		ori	a5,a5,128
 481 0136 1CC1     		sw	a5,0(a0)
 186:arch/riscv/mach-gd32vf10x/bsp/gd32vf103_can.c ****             CAN_CTL(can_periph) |= CAN_CTL_ABOR;
 482              		.loc 1 186 9 is_stmt 1
 186:arch/riscv/mach-gd32vf10x/bsp/gd32vf103_can.c ****             CAN_CTL(can_periph) |= CAN_CTL_ABOR;
 483              		.loc 1 186 11 is_stmt 0
 484 0138 8547     		li	a5,1
 485 013a E31DF6F4 		bne	a2,a5,.L21
 486              	.L42:
 187:arch/riscv/mach-gd32vf10x/bsp/gd32vf103_can.c ****         }else{
 487              		.loc 1 187 13 is_stmt 1
 187:arch/riscv/mach-gd32vf10x/bsp/gd32vf103_can.c ****         }else{
 488              		.loc 1 187 33 is_stmt 0
 489 013e 1C41     		lw	a5,0(a0)
 192:arch/riscv/mach-gd32vf10x/bsp/gd32vf103_can.c ****             CAN_CTL(can_periph) |= CAN_CTL_AWU;
 490              		.loc 1 192 11
 491 0140 D045     		lw	a2,12(a1)
 187:arch/riscv/mach-gd32vf10x/bsp/gd32vf103_can.c ****         }else{
 492              		.loc 1 187 33
 493 0142 93E70704 		ori	a5,a5,64
 494 0146 1CC1     		sw	a5,0(a0)
 192:arch/riscv/mach-gd32vf10x/bsp/gd32vf103_can.c ****             CAN_CTL(can_periph) |= CAN_CTL_AWU;
 495              		.loc 1 192 9 is_stmt 1
 192:arch/riscv/mach-gd32vf10x/bsp/gd32vf103_can.c ****             CAN_CTL(can_periph) |= CAN_CTL_AWU;
 496              		.loc 1 192 11 is_stmt 0
 497 0148 8547     		li	a5,1
 498 014a E31DF6F4 		bne	a2,a5,.L23
 499              	.L43:
 193:arch/riscv/mach-gd32vf10x/bsp/gd32vf103_can.c ****         }else{
 500              		.loc 1 193 13 is_stmt 1
 193:arch/riscv/mach-gd32vf10x/bsp/gd32vf103_can.c ****         }else{
 501              		.loc 1 193 33 is_stmt 0
 502 014e 1C41     		lw	a5,0(a0)
 198:arch/riscv/mach-gd32vf10x/bsp/gd32vf103_can.c ****             CAN_CTL(can_periph) |= CAN_CTL_ARD;
GAS LISTING C:\Users\test\AppData\Local\Temp\ccA0cEyS.s 			page 16


 503              		.loc 1 198 11
 504 0150 9049     		lw	a2,16(a1)
 193:arch/riscv/mach-gd32vf10x/bsp/gd32vf103_can.c ****         }else{
 505              		.loc 1 193 33
 506 0152 93E70702 		ori	a5,a5,32
 507 0156 1CC1     		sw	a5,0(a0)
 198:arch/riscv/mach-gd32vf10x/bsp/gd32vf103_can.c ****             CAN_CTL(can_periph) |= CAN_CTL_ARD;
 508              		.loc 1 198 9 is_stmt 1
 198:arch/riscv/mach-gd32vf10x/bsp/gd32vf103_can.c ****             CAN_CTL(can_periph) |= CAN_CTL_ARD;
 509              		.loc 1 198 11 is_stmt 0
 510 0158 8547     		li	a5,1
 511 015a E31DF6F4 		bne	a2,a5,.L25
 512              	.L44:
 199:arch/riscv/mach-gd32vf10x/bsp/gd32vf103_can.c ****         }else{
 513              		.loc 1 199 13 is_stmt 1
 199:arch/riscv/mach-gd32vf10x/bsp/gd32vf103_can.c ****         }else{
 514              		.loc 1 199 33 is_stmt 0
 515 015e 1C41     		lw	a5,0(a0)
 204:arch/riscv/mach-gd32vf10x/bsp/gd32vf103_can.c ****             CAN_CTL(can_periph) |= CAN_CTL_RFOD;
 516              		.loc 1 204 11
 517 0160 D049     		lw	a2,20(a1)
 199:arch/riscv/mach-gd32vf10x/bsp/gd32vf103_can.c ****         }else{
 518              		.loc 1 199 33
 519 0162 93E70701 		ori	a5,a5,16
 520 0166 1CC1     		sw	a5,0(a0)
 204:arch/riscv/mach-gd32vf10x/bsp/gd32vf103_can.c ****             CAN_CTL(can_periph) |= CAN_CTL_RFOD;
 521              		.loc 1 204 9 is_stmt 1
 204:arch/riscv/mach-gd32vf10x/bsp/gd32vf103_can.c ****             CAN_CTL(can_periph) |= CAN_CTL_RFOD;
 522              		.loc 1 204 11 is_stmt 0
 523 0168 8547     		li	a5,1
 524 016a E31CF6F4 		bne	a2,a5,.L27
 525              	.L45:
 205:arch/riscv/mach-gd32vf10x/bsp/gd32vf103_can.c ****         }else{
 526              		.loc 1 205 13 is_stmt 1
 205:arch/riscv/mach-gd32vf10x/bsp/gd32vf103_can.c ****         }else{
 527              		.loc 1 205 33 is_stmt 0
 528 016e 1C41     		lw	a5,0(a0)
 210:arch/riscv/mach-gd32vf10x/bsp/gd32vf103_can.c ****             CAN_CTL(can_periph) |= CAN_CTL_TFO;
 529              		.loc 1 210 11
 530 0170 904D     		lw	a2,24(a1)
 205:arch/riscv/mach-gd32vf10x/bsp/gd32vf103_can.c ****         }else{
 531              		.loc 1 205 33
 532 0172 93E78700 		ori	a5,a5,8
 533 0176 1CC1     		sw	a5,0(a0)
 210:arch/riscv/mach-gd32vf10x/bsp/gd32vf103_can.c ****             CAN_CTL(can_periph) |= CAN_CTL_TFO;
 534              		.loc 1 210 9 is_stmt 1
 210:arch/riscv/mach-gd32vf10x/bsp/gd32vf103_can.c ****             CAN_CTL(can_periph) |= CAN_CTL_TFO;
 535              		.loc 1 210 11 is_stmt 0
 536 0178 8547     		li	a5,1
 537 017a E31BF6F4 		bne	a2,a5,.L29
 538              	.L46:
 211:arch/riscv/mach-gd32vf10x/bsp/gd32vf103_can.c ****         }else{
 539              		.loc 1 211 13 is_stmt 1
 211:arch/riscv/mach-gd32vf10x/bsp/gd32vf103_can.c ****         }else{
 540              		.loc 1 211 33 is_stmt 0
 541 017e 1C41     		lw	a5,0(a0)
 542 0180 93E74700 		ori	a5,a5,4
GAS LISTING C:\Users\test\AppData\Local\Temp\ccA0cEyS.s 			page 17


 543 0184 1CC1     		sw	a5,0(a0)
 544 0186 81BF     		j	.L30
 545              		.cfi_endproc
 546              	.LFE4:
 548              		.section	.text.can_filter_init,"ax",@progbits
 549              		.align	1
 550              		.globl	can_filter_init
 552              	can_filter_init:
 553              	.LFB5:
 242:arch/riscv/mach-gd32vf10x/bsp/gd32vf103_can.c **** 
 243:arch/riscv/mach-gd32vf10x/bsp/gd32vf103_can.c **** /*!
 244:arch/riscv/mach-gd32vf10x/bsp/gd32vf103_can.c ****     \brief      initialize CAN filter 
 245:arch/riscv/mach-gd32vf10x/bsp/gd32vf103_can.c ****     \param[in]  can_filter_parameter_init: struct for CAN filter initialization
 246:arch/riscv/mach-gd32vf10x/bsp/gd32vf103_can.c ****       \arg        filter_list_high: 0x0000 - 0xFFFF
 247:arch/riscv/mach-gd32vf10x/bsp/gd32vf103_can.c ****       \arg        filter_list_low: 0x0000 - 0xFFFF
 248:arch/riscv/mach-gd32vf10x/bsp/gd32vf103_can.c ****       \arg        filter_mask_high: 0x0000 - 0xFFFF
 249:arch/riscv/mach-gd32vf10x/bsp/gd32vf103_can.c ****       \arg        filter_mask_low: 0x0000 - 0xFFFF
 250:arch/riscv/mach-gd32vf10x/bsp/gd32vf103_can.c ****       \arg        filter_fifo_number: CAN_FIFO0, CAN_FIFO1 
 251:arch/riscv/mach-gd32vf10x/bsp/gd32vf103_can.c ****       \arg        filter_number: 0 - 27
 252:arch/riscv/mach-gd32vf10x/bsp/gd32vf103_can.c ****       \arg        filter_mode: CAN_FILTERMODE_MASK, CAN_FILTERMODE_LIST
 253:arch/riscv/mach-gd32vf10x/bsp/gd32vf103_can.c ****       \arg        filter_bits: CAN_FILTERBITS_32BIT, CAN_FILTERBITS_16BIT 
 254:arch/riscv/mach-gd32vf10x/bsp/gd32vf103_can.c ****       \arg        filter_enable: ENABLE or DISABLE
 255:arch/riscv/mach-gd32vf10x/bsp/gd32vf103_can.c ****     \param[out] none
 256:arch/riscv/mach-gd32vf10x/bsp/gd32vf103_can.c ****     \retval     none
 257:arch/riscv/mach-gd32vf10x/bsp/gd32vf103_can.c **** */
 258:arch/riscv/mach-gd32vf10x/bsp/gd32vf103_can.c **** void can_filter_init(can_filter_parameter_struct* can_filter_parameter_init)
 259:arch/riscv/mach-gd32vf10x/bsp/gd32vf103_can.c **** {
 554              		.loc 1 259 1 is_stmt 1
 555              		.cfi_startproc
 556              	.LVL25:
 260:arch/riscv/mach-gd32vf10x/bsp/gd32vf103_can.c ****     uint32_t val = 0U;
 557              		.loc 1 260 5
 261:arch/riscv/mach-gd32vf10x/bsp/gd32vf103_can.c ****     
 262:arch/riscv/mach-gd32vf10x/bsp/gd32vf103_can.c ****     val = ((uint32_t)1) << (can_filter_parameter_init->filter_number);
 558              		.loc 1 262 5
 263:arch/riscv/mach-gd32vf10x/bsp/gd32vf103_can.c ****     /* filter lock disable */
 264:arch/riscv/mach-gd32vf10x/bsp/gd32vf103_can.c ****     CAN_FCTL(CAN0) |= CAN_FCTL_FLD;
 559              		.loc 1 264 20 is_stmt 0
 560 0000 37670040 		li	a4,1073766400
 561 0004 83260760 		lw	a3,1536(a4)
 262:arch/riscv/mach-gd32vf10x/bsp/gd32vf103_can.c ****     /* filter lock disable */
 562              		.loc 1 262 54
 563 0008 8357A500 		lhu	a5,10(a0)
 262:arch/riscv/mach-gd32vf10x/bsp/gd32vf103_can.c ****     /* filter lock disable */
 564              		.loc 1 262 9
 565 000c 0548     		li	a6,1
 566              		.loc 1 264 20
 567 000e 93E61600 		ori	a3,a3,1
 568 0012 2320D760 		sw	a3,1536(a4)
 265:arch/riscv/mach-gd32vf10x/bsp/gd32vf103_can.c ****     /* disable filter */
 266:arch/riscv/mach-gd32vf10x/bsp/gd32vf103_can.c ****     CAN_FW(CAN0) &= ~(uint32_t)val;
 569              		.loc 1 266 18
 570 0016 0326C761 		lw	a2,1564(a4)
 262:arch/riscv/mach-gd32vf10x/bsp/gd32vf103_can.c ****     /* filter lock disable */
 571              		.loc 1 262 9
 572 001a B315F800 		sll	a1,a6,a5
 573              	.LVL26:
GAS LISTING C:\Users\test\AppData\Local\Temp\ccA0cEyS.s 			page 18


 264:arch/riscv/mach-gd32vf10x/bsp/gd32vf103_can.c ****     /* disable filter */
 574              		.loc 1 264 5 is_stmt 1
 575              		.loc 1 266 5
 576              		.loc 1 266 21 is_stmt 0
 577 001e 93C6F5FF 		not	a3,a1
 267:arch/riscv/mach-gd32vf10x/bsp/gd32vf103_can.c ****     
 268:arch/riscv/mach-gd32vf10x/bsp/gd32vf103_can.c ****     /* filter 16 bits */
 269:arch/riscv/mach-gd32vf10x/bsp/gd32vf103_can.c ****     if(CAN_FILTERBITS_16BIT == can_filter_parameter_init->filter_bits){
 578              		.loc 1 269 57
 579 0022 8358E500 		lhu	a7,14(a0)
 266:arch/riscv/mach-gd32vf10x/bsp/gd32vf103_can.c ****     
 580              		.loc 1 266 18
 581 0026 758E     		and	a2,a2,a3
 582 0028 232EC760 		sw	a2,1564(a4)
 583              		.loc 1 269 5 is_stmt 1
 584              		.loc 1 269 7 is_stmt 0
 585 002c 63970808 		bne	a7,zero,.L48
 270:arch/riscv/mach-gd32vf10x/bsp/gd32vf103_can.c ****         /* set filter 16 bits */
 271:arch/riscv/mach-gd32vf10x/bsp/gd32vf103_can.c ****         CAN_FSCFG(CAN0) &= ~(uint32_t)val;
 586              		.loc 1 271 9 is_stmt 1
 587              		.loc 1 271 25 is_stmt 0
 588 0030 8328C760 		lw	a7,1548(a4)
 272:arch/riscv/mach-gd32vf10x/bsp/gd32vf103_can.c ****         /* first 16 bits list and first 16 bits mask or first 16 bits list and second 16 bits list 
 273:arch/riscv/mach-gd32vf10x/bsp/gd32vf103_can.c ****         CAN_FDATA0(CAN0, can_filter_parameter_init->filter_number) = \
 274:arch/riscv/mach-gd32vf10x/bsp/gd32vf103_can.c ****                                 FDATA_MASK_HIGH((can_filter_parameter_init->filter_mask_low) & CAN_
 589              		.loc 1 274 33
 590 0034 03586500 		lhu	a6,6(a0)
 275:arch/riscv/mach-gd32vf10x/bsp/gd32vf103_can.c ****                                 FDATA_MASK_LOW((can_filter_parameter_init->filter_list_low) & CAN_F
 591              		.loc 1 275 33
 592 0038 835E2500 		lhu	t4,2(a0)
 276:arch/riscv/mach-gd32vf10x/bsp/gd32vf103_can.c ****         /* second 16 bits list and second 16 bits mask or third 16 bits list and fourth 16 bits lis
 277:arch/riscv/mach-gd32vf10x/bsp/gd32vf103_can.c ****         CAN_FDATA1(CAN0, can_filter_parameter_init->filter_number) = \
 278:arch/riscv/mach-gd32vf10x/bsp/gd32vf103_can.c ****                                 FDATA_MASK_HIGH((can_filter_parameter_init->filter_mask_high) & CAN
 593              		.loc 1 278 33
 594 003c 03564500 		lhu	a2,4(a0)
 279:arch/riscv/mach-gd32vf10x/bsp/gd32vf103_can.c ****                                 FDATA_MASK_LOW((can_filter_parameter_init->filter_list_high) & CAN_
 595              		.loc 1 279 33
 596 0040 035E0500 		lhu	t3,0(a0)
 271:arch/riscv/mach-gd32vf10x/bsp/gd32vf103_can.c ****         /* first 16 bits list and first 16 bits mask or first 16 bits list and second 16 bits list 
 597              		.loc 1 271 25
 598 0044 B3F81601 		and	a7,a3,a7
 599              	.L55:
 280:arch/riscv/mach-gd32vf10x/bsp/gd32vf103_can.c ****     }
 281:arch/riscv/mach-gd32vf10x/bsp/gd32vf103_can.c ****     /* filter 32 bits */
 282:arch/riscv/mach-gd32vf10x/bsp/gd32vf103_can.c ****     if(CAN_FILTERBITS_32BIT == can_filter_parameter_init->filter_bits){
 283:arch/riscv/mach-gd32vf10x/bsp/gd32vf103_can.c ****         /* set filter 32 bits */
 284:arch/riscv/mach-gd32vf10x/bsp/gd32vf103_can.c ****         CAN_FSCFG(CAN0) |= (uint32_t)val;
 285:arch/riscv/mach-gd32vf10x/bsp/gd32vf103_can.c ****         /* 32 bits list or first 32 bits list */
 286:arch/riscv/mach-gd32vf10x/bsp/gd32vf103_can.c ****         CAN_FDATA0(CAN0, can_filter_parameter_init->filter_number) = \
 600              		.loc 1 286 9
 601 0048 37130008 		li	t1,134221824
 602 004c 130383CC 		addi	t1,t1,-824
 603 0050 9A97     		add	a5,a5,t1
 287:arch/riscv/mach-gd32vf10x/bsp/gd32vf103_can.c ****                                 FDATA_MASK_HIGH((can_filter_parameter_init->filter_list_high) & CAN
 604              		.loc 1 287 33
 605 0052 4208     		slli	a6,a6,16
 284:arch/riscv/mach-gd32vf10x/bsp/gd32vf103_can.c ****         /* 32 bits list or first 32 bits list */
GAS LISTING C:\Users\test\AppData\Local\Temp\ccA0cEyS.s 			page 19


 606              		.loc 1 284 25
 607 0054 23261761 		sw	a7,1548(a4)
 286:arch/riscv/mach-gd32vf10x/bsp/gd32vf103_can.c ****                                 FDATA_MASK_HIGH((can_filter_parameter_init->filter_list_high) & CAN
 608              		.loc 1 286 9 is_stmt 1
 609 0058 8E07     		slli	a5,a5,3
 610              		.loc 1 287 121 is_stmt 0
 611 005a 3368D801 		or	a6,a6,t4
 288:arch/riscv/mach-gd32vf10x/bsp/gd32vf103_can.c ****                                 FDATA_MASK_LOW((can_filter_parameter_init->filter_list_low) & CAN_F
 289:arch/riscv/mach-gd32vf10x/bsp/gd32vf103_can.c ****         /* 32 bits mask or second 32 bits list */
 290:arch/riscv/mach-gd32vf10x/bsp/gd32vf103_can.c ****         CAN_FDATA1(CAN0, can_filter_parameter_init->filter_number) = \
 291:arch/riscv/mach-gd32vf10x/bsp/gd32vf103_can.c ****                                 FDATA_MASK_HIGH((can_filter_parameter_init->filter_mask_high) & CAN
 612              		.loc 1 291 33
 613 005e 13170601 		slli	a4,a2,16
 286:arch/riscv/mach-gd32vf10x/bsp/gd32vf103_can.c ****                                 FDATA_MASK_HIGH((can_filter_parameter_init->filter_list_high) & CAN
 614              		.loc 1 286 68
 615 0062 23A00701 		sw	a6,0(a5)
 290:arch/riscv/mach-gd32vf10x/bsp/gd32vf103_can.c ****                                 FDATA_MASK_HIGH((can_filter_parameter_init->filter_mask_high) & CAN
 616              		.loc 1 290 9 is_stmt 1
 617              		.loc 1 291 121 is_stmt 0
 618 0066 3367C701 		or	a4,a4,t3
 290:arch/riscv/mach-gd32vf10x/bsp/gd32vf103_can.c ****                                 FDATA_MASK_HIGH((can_filter_parameter_init->filter_mask_high) & CAN
 619              		.loc 1 290 68
 620 006a D8C3     		sw	a4,4(a5)
 621              	.L49:
 292:arch/riscv/mach-gd32vf10x/bsp/gd32vf103_can.c ****                                 FDATA_MASK_LOW((can_filter_parameter_init->filter_mask_low) & CAN_F
 293:arch/riscv/mach-gd32vf10x/bsp/gd32vf103_can.c ****     }
 294:arch/riscv/mach-gd32vf10x/bsp/gd32vf103_can.c ****     
 295:arch/riscv/mach-gd32vf10x/bsp/gd32vf103_can.c ****     /* filter mode */
 296:arch/riscv/mach-gd32vf10x/bsp/gd32vf103_can.c ****     if(CAN_FILTERMODE_MASK == can_filter_parameter_init->filter_mode){
 622              		.loc 1 296 5 is_stmt 1
 623              		.loc 1 296 7 is_stmt 0
 624 006c 8357C500 		lhu	a5,12(a0)
 297:arch/riscv/mach-gd32vf10x/bsp/gd32vf103_can.c ****         /* mask mode */
 298:arch/riscv/mach-gd32vf10x/bsp/gd32vf103_can.c ****         CAN_FMCFG(CAN0) &= ~(uint32_t)val;
 625              		.loc 1 298 25
 626 0070 37670040 		li	a4,1073766400
 296:arch/riscv/mach-gd32vf10x/bsp/gd32vf103_can.c ****         /* mask mode */
 627              		.loc 1 296 7
 628 0074 B5E3     		bne	a5,zero,.L50
 629              		.loc 1 298 9 is_stmt 1
 630              		.loc 1 298 25 is_stmt 0
 631 0076 83274760 		lw	a5,1540(a4)
 632 007a F58F     		and	a5,a3,a5
 633 007c 2322F760 		sw	a5,1540(a4)
 299:arch/riscv/mach-gd32vf10x/bsp/gd32vf103_can.c ****     }else{
 300:arch/riscv/mach-gd32vf10x/bsp/gd32vf103_can.c ****         /* list mode */
 301:arch/riscv/mach-gd32vf10x/bsp/gd32vf103_can.c ****         CAN_FMCFG(CAN0) |= (uint32_t)val;
 302:arch/riscv/mach-gd32vf10x/bsp/gd32vf103_can.c ****     }
 303:arch/riscv/mach-gd32vf10x/bsp/gd32vf103_can.c ****     
 304:arch/riscv/mach-gd32vf10x/bsp/gd32vf103_can.c ****     /* filter FIFO */
 305:arch/riscv/mach-gd32vf10x/bsp/gd32vf103_can.c ****     if(CAN_FIFO0 == (can_filter_parameter_init->filter_fifo_number)){
 634              		.loc 1 305 5 is_stmt 1
 635              		.loc 1 305 7 is_stmt 0
 636 0080 83578500 		lhu	a5,8(a0)
 637 0084 B5E3     		bne	a5,zero,.L52
 638              	.L56:
 306:arch/riscv/mach-gd32vf10x/bsp/gd32vf103_can.c ****         /* FIFO0 */
GAS LISTING C:\Users\test\AppData\Local\Temp\ccA0cEyS.s 			page 20


 307:arch/riscv/mach-gd32vf10x/bsp/gd32vf103_can.c ****         CAN_FAFIFO(CAN0) &= ~(uint32_t)val;
 639              		.loc 1 307 9 is_stmt 1
 640              		.loc 1 307 26 is_stmt 0
 641 0086 B7670040 		li	a5,1073766400
 642 008a 03A74761 		lw	a4,1556(a5)
 643 008e F98E     		and	a3,a3,a4
 644 0090 23AAD760 		sw	a3,1556(a5)
 645              	.L53:
 308:arch/riscv/mach-gd32vf10x/bsp/gd32vf103_can.c ****     }else{
 309:arch/riscv/mach-gd32vf10x/bsp/gd32vf103_can.c ****         /* FIFO1 */
 310:arch/riscv/mach-gd32vf10x/bsp/gd32vf103_can.c ****         CAN_FAFIFO(CAN0) |= (uint32_t)val;
 311:arch/riscv/mach-gd32vf10x/bsp/gd32vf103_can.c ****     }
 312:arch/riscv/mach-gd32vf10x/bsp/gd32vf103_can.c ****     
 313:arch/riscv/mach-gd32vf10x/bsp/gd32vf103_can.c ****     /* filter working */
 314:arch/riscv/mach-gd32vf10x/bsp/gd32vf103_can.c ****     if(ENABLE == can_filter_parameter_init->filter_enable){
 646              		.loc 1 314 5 is_stmt 1
 647              		.loc 1 314 7 is_stmt 0
 648 0094 1849     		lw	a4,16(a0)
 649 0096 8547     		li	a5,1
 650 0098 6319F700 		bne	a4,a5,.L54
 315:arch/riscv/mach-gd32vf10x/bsp/gd32vf103_can.c ****         
 316:arch/riscv/mach-gd32vf10x/bsp/gd32vf103_can.c ****         CAN_FW(CAN0) |= (uint32_t)val;
 651              		.loc 1 316 9 is_stmt 1
 652              		.loc 1 316 22 is_stmt 0
 653 009c 37670040 		li	a4,1073766400
 654 00a0 8327C761 		lw	a5,1564(a4)
 655 00a4 DD8D     		or	a1,a5,a1
 656              	.LVL27:
 657 00a6 232EB760 		sw	a1,1564(a4)
 658              	.L54:
 317:arch/riscv/mach-gd32vf10x/bsp/gd32vf103_can.c ****     }
 318:arch/riscv/mach-gd32vf10x/bsp/gd32vf103_can.c ****     
 319:arch/riscv/mach-gd32vf10x/bsp/gd32vf103_can.c ****     /* filter lock enable */
 320:arch/riscv/mach-gd32vf10x/bsp/gd32vf103_can.c ****     CAN_FCTL(CAN0) &= ~CAN_FCTL_FLD;
 659              		.loc 1 320 5 is_stmt 1
 660              		.loc 1 320 20 is_stmt 0
 661 00aa 37670040 		li	a4,1073766400
 662 00ae 83270760 		lw	a5,1536(a4)
 663 00b2 F99B     		andi	a5,a5,-2
 664 00b4 2320F760 		sw	a5,1536(a4)
 321:arch/riscv/mach-gd32vf10x/bsp/gd32vf103_can.c **** }
 665              		.loc 1 321 1
 666 00b8 8280     		ret
 667              	.LVL28:
 668              	.L48:
 282:arch/riscv/mach-gd32vf10x/bsp/gd32vf103_can.c ****         /* set filter 32 bits */
 669              		.loc 1 282 5 is_stmt 1
 282:arch/riscv/mach-gd32vf10x/bsp/gd32vf103_can.c ****         /* set filter 32 bits */
 670              		.loc 1 282 7 is_stmt 0
 671 00ba E39908FB 		bne	a7,a6,.L49
 284:arch/riscv/mach-gd32vf10x/bsp/gd32vf103_can.c ****         /* 32 bits list or first 32 bits list */
 672              		.loc 1 284 9 is_stmt 1
 284:arch/riscv/mach-gd32vf10x/bsp/gd32vf103_can.c ****         /* 32 bits list or first 32 bits list */
 673              		.loc 1 284 25 is_stmt 0
 674 00be 8328C760 		lw	a7,1548(a4)
 287:arch/riscv/mach-gd32vf10x/bsp/gd32vf103_can.c ****                                 FDATA_MASK_LOW((can_filter_parameter_init->filter_list_low) & CAN_F
 675              		.loc 1 287 33
GAS LISTING C:\Users\test\AppData\Local\Temp\ccA0cEyS.s 			page 21


 676 00c2 03580500 		lhu	a6,0(a0)
 288:arch/riscv/mach-gd32vf10x/bsp/gd32vf103_can.c ****         /* 32 bits mask or second 32 bits list */
 677              		.loc 1 288 33
 678 00c6 835E2500 		lhu	t4,2(a0)
 291:arch/riscv/mach-gd32vf10x/bsp/gd32vf103_can.c ****                                 FDATA_MASK_LOW((can_filter_parameter_init->filter_mask_low) & CAN_F
 679              		.loc 1 291 33
 680 00ca 03564500 		lhu	a2,4(a0)
 292:arch/riscv/mach-gd32vf10x/bsp/gd32vf103_can.c ****     }
 681              		.loc 1 292 33
 682 00ce 035E6500 		lhu	t3,6(a0)
 284:arch/riscv/mach-gd32vf10x/bsp/gd32vf103_can.c ****         /* 32 bits list or first 32 bits list */
 683              		.loc 1 284 25
 684 00d2 B3E8B800 		or	a7,a7,a1
 685 00d6 8DBF     		j	.L55
 686              	.L50:
 301:arch/riscv/mach-gd32vf10x/bsp/gd32vf103_can.c ****     }
 687              		.loc 1 301 9 is_stmt 1
 301:arch/riscv/mach-gd32vf10x/bsp/gd32vf103_can.c ****     }
 688              		.loc 1 301 25 is_stmt 0
 689 00d8 83274760 		lw	a5,1540(a4)
 690 00dc CD8F     		or	a5,a5,a1
 691 00de 2322F760 		sw	a5,1540(a4)
 305:arch/riscv/mach-gd32vf10x/bsp/gd32vf103_can.c ****         /* FIFO0 */
 692              		.loc 1 305 5 is_stmt 1
 305:arch/riscv/mach-gd32vf10x/bsp/gd32vf103_can.c ****         /* FIFO0 */
 693              		.loc 1 305 7 is_stmt 0
 694 00e2 83578500 		lhu	a5,8(a0)
 695 00e6 C5D3     		beq	a5,zero,.L56
 696              	.L52:
 310:arch/riscv/mach-gd32vf10x/bsp/gd32vf103_can.c ****     }
 697              		.loc 1 310 9 is_stmt 1
 310:arch/riscv/mach-gd32vf10x/bsp/gd32vf103_can.c ****     }
 698              		.loc 1 310 26 is_stmt 0
 699 00e8 37670040 		li	a4,1073766400
 700 00ec 83274761 		lw	a5,1556(a4)
 701 00f0 CD8F     		or	a5,a5,a1
 702 00f2 232AF760 		sw	a5,1556(a4)
 703 00f6 79BF     		j	.L53
 704              		.cfi_endproc
 705              	.LFE5:
 707              		.section	.text.can1_filter_start_bank,"ax",@progbits
 708              		.align	1
 709              		.globl	can1_filter_start_bank
 711              	can1_filter_start_bank:
 712              	.LFB6:
 322:arch/riscv/mach-gd32vf10x/bsp/gd32vf103_can.c **** 
 323:arch/riscv/mach-gd32vf10x/bsp/gd32vf103_can.c **** /*!
 324:arch/riscv/mach-gd32vf10x/bsp/gd32vf103_can.c ****     \brief      set CAN1 fliter start bank number
 325:arch/riscv/mach-gd32vf10x/bsp/gd32vf103_can.c ****     \param[in]  start_bank: CAN1 start bank number
 326:arch/riscv/mach-gd32vf10x/bsp/gd32vf103_can.c ****                 only one parameter can be selected which is shown as below:
 327:arch/riscv/mach-gd32vf10x/bsp/gd32vf103_can.c ****       \arg        (1..27)
 328:arch/riscv/mach-gd32vf10x/bsp/gd32vf103_can.c ****     \param[out] none
 329:arch/riscv/mach-gd32vf10x/bsp/gd32vf103_can.c ****     \retval     none
 330:arch/riscv/mach-gd32vf10x/bsp/gd32vf103_can.c **** */
 331:arch/riscv/mach-gd32vf10x/bsp/gd32vf103_can.c **** void can1_filter_start_bank(uint8_t start_bank)
 332:arch/riscv/mach-gd32vf10x/bsp/gd32vf103_can.c **** {
 713              		.loc 1 332 1 is_stmt 1
GAS LISTING C:\Users\test\AppData\Local\Temp\ccA0cEyS.s 			page 22


 714              		.cfi_startproc
 715              	.LVL29:
 333:arch/riscv/mach-gd32vf10x/bsp/gd32vf103_can.c ****     /* filter lock disable */
 334:arch/riscv/mach-gd32vf10x/bsp/gd32vf103_can.c ****     CAN_FCTL(CAN0) |= CAN_FCTL_FLD;
 716              		.loc 1 334 5
 717              		.loc 1 334 20 is_stmt 0
 718 0000 B7670040 		li	a5,1073766400
 719 0004 03A70760 		lw	a4,1536(a5)
 335:arch/riscv/mach-gd32vf10x/bsp/gd32vf103_can.c ****     /* set CAN1 filter start number */
 336:arch/riscv/mach-gd32vf10x/bsp/gd32vf103_can.c ****     CAN_FCTL(CAN0) &= ~(uint32_t)CAN_FCTL_HBC1F;
 720              		.loc 1 336 20
 721 0008 F176     		li	a3,-16384
 722 000a 9386F60F 		addi	a3,a3,255
 334:arch/riscv/mach-gd32vf10x/bsp/gd32vf103_can.c ****     /* set CAN1 filter start number */
 723              		.loc 1 334 20
 724 000e 13671700 		ori	a4,a4,1
 725 0012 23A0E760 		sw	a4,1536(a5)
 726              		.loc 1 336 5 is_stmt 1
 727              		.loc 1 336 20 is_stmt 0
 728 0016 03A70760 		lw	a4,1536(a5)
 337:arch/riscv/mach-gd32vf10x/bsp/gd32vf103_can.c ****     CAN_FCTL(CAN0) |= FCTL_HBC1F(start_bank);
 729              		.loc 1 337 23
 730 001a 2205     		slli	a0,a0,8
 731              	.LVL30:
 336:arch/riscv/mach-gd32vf10x/bsp/gd32vf103_can.c ****     CAN_FCTL(CAN0) |= FCTL_HBC1F(start_bank);
 732              		.loc 1 336 20
 733 001c 758F     		and	a4,a4,a3
 734 001e 23A0E760 		sw	a4,1536(a5)
 735              		.loc 1 337 5 is_stmt 1
 736              		.loc 1 337 20 is_stmt 0
 737 0022 83A60760 		lw	a3,1536(a5)
 738              		.loc 1 337 23
 739 0026 1167     		li	a4,16384
 740 0028 130707F0 		addi	a4,a4,-256
 741 002c 798D     		and	a0,a0,a4
 742              		.loc 1 337 20
 743 002e 558D     		or	a0,a0,a3
 744 0030 23A0A760 		sw	a0,1536(a5)
 338:arch/riscv/mach-gd32vf10x/bsp/gd32vf103_can.c ****     /* filter lock enaable */
 339:arch/riscv/mach-gd32vf10x/bsp/gd32vf103_can.c ****     CAN_FCTL(CAN0) &= ~CAN_FCTL_FLD;
 745              		.loc 1 339 5 is_stmt 1
 746              		.loc 1 339 20 is_stmt 0
 747 0034 03A70760 		lw	a4,1536(a5)
 748 0038 799B     		andi	a4,a4,-2
 749 003a 23A0E760 		sw	a4,1536(a5)
 340:arch/riscv/mach-gd32vf10x/bsp/gd32vf103_can.c **** }
 750              		.loc 1 340 1
 751 003e 8280     		ret
 752              		.cfi_endproc
 753              	.LFE6:
 755              		.section	.text.can_debug_freeze_enable,"ax",@progbits
 756              		.align	1
 757              		.globl	can_debug_freeze_enable
 759              	can_debug_freeze_enable:
 760              	.LFB7:
 341:arch/riscv/mach-gd32vf10x/bsp/gd32vf103_can.c **** 
 342:arch/riscv/mach-gd32vf10x/bsp/gd32vf103_can.c **** /*!
GAS LISTING C:\Users\test\AppData\Local\Temp\ccA0cEyS.s 			page 23


 343:arch/riscv/mach-gd32vf10x/bsp/gd32vf103_can.c ****     \brief      enable CAN debug freeze
 344:arch/riscv/mach-gd32vf10x/bsp/gd32vf103_can.c ****     \param[in]  can_periph
 345:arch/riscv/mach-gd32vf10x/bsp/gd32vf103_can.c ****       \arg        CANx(x=0,1)
 346:arch/riscv/mach-gd32vf10x/bsp/gd32vf103_can.c ****     \param[out] none
 347:arch/riscv/mach-gd32vf10x/bsp/gd32vf103_can.c ****     \retval     none
 348:arch/riscv/mach-gd32vf10x/bsp/gd32vf103_can.c **** */
 349:arch/riscv/mach-gd32vf10x/bsp/gd32vf103_can.c **** void can_debug_freeze_enable(uint32_t can_periph)
 350:arch/riscv/mach-gd32vf10x/bsp/gd32vf103_can.c **** {
 761              		.loc 1 350 1 is_stmt 1
 762              		.cfi_startproc
 763              	.LVL31:
 351:arch/riscv/mach-gd32vf10x/bsp/gd32vf103_can.c ****     /* set DFZ bit */
 352:arch/riscv/mach-gd32vf10x/bsp/gd32vf103_can.c ****     CAN_CTL(can_periph) |= CAN_CTL_DFZ;
 764              		.loc 1 352 5
 765              		.loc 1 352 25 is_stmt 0
 766 0000 1C41     		lw	a5,0(a0)
 767 0002 4167     		li	a4,65536
 768 0004 D98F     		or	a5,a5,a4
 769 0006 1CC1     		sw	a5,0(a0)
 353:arch/riscv/mach-gd32vf10x/bsp/gd32vf103_can.c ****     if(CAN0 == can_periph){
 770              		.loc 1 353 5 is_stmt 1
 771              		.loc 1 353 7 is_stmt 0
 772 0008 B7670040 		li	a5,1073766400
 773 000c 93870740 		addi	a5,a5,1024
 774 0010 6308F500 		beq	a0,a5,.L60
 354:arch/riscv/mach-gd32vf10x/bsp/gd32vf103_can.c ****         dbg_periph_enable(DBG_CAN0_HOLD);
 355:arch/riscv/mach-gd32vf10x/bsp/gd32vf103_can.c ****     }else{
 356:arch/riscv/mach-gd32vf10x/bsp/gd32vf103_can.c ****         dbg_periph_enable(DBG_CAN1_HOLD);
 775              		.loc 1 356 9 is_stmt 1
 776 0014 37052000 		li	a0,2097152
 777              	.LVL32:
 778 0018 17030000 		tail	dbg_periph_enable
 778      67000300 
 779              	.LVL33:
 780              	.L60:
 354:arch/riscv/mach-gd32vf10x/bsp/gd32vf103_can.c ****         dbg_periph_enable(DBG_CAN0_HOLD);
 781              		.loc 1 354 9
 782 0020 1165     		li	a0,16384
 783              	.LVL34:
 784 0022 17030000 		tail	dbg_periph_enable
 784      67000300 
 785              	.LVL35:
 786              		.cfi_endproc
 787              	.LFE7:
 789              		.section	.text.can_debug_freeze_disable,"ax",@progbits
 790              		.align	1
 791              		.globl	can_debug_freeze_disable
 793              	can_debug_freeze_disable:
 794              	.LFB8:
 357:arch/riscv/mach-gd32vf10x/bsp/gd32vf103_can.c ****     }
 358:arch/riscv/mach-gd32vf10x/bsp/gd32vf103_can.c **** }
 359:arch/riscv/mach-gd32vf10x/bsp/gd32vf103_can.c **** 
 360:arch/riscv/mach-gd32vf10x/bsp/gd32vf103_can.c **** /*!
 361:arch/riscv/mach-gd32vf10x/bsp/gd32vf103_can.c ****     \brief      disable CAN debug freeze
 362:arch/riscv/mach-gd32vf10x/bsp/gd32vf103_can.c ****     \param[in]  can_periph
 363:arch/riscv/mach-gd32vf10x/bsp/gd32vf103_can.c ****       \arg        CANx(x=0,1)
 364:arch/riscv/mach-gd32vf10x/bsp/gd32vf103_can.c ****     \param[out] none
GAS LISTING C:\Users\test\AppData\Local\Temp\ccA0cEyS.s 			page 24


 365:arch/riscv/mach-gd32vf10x/bsp/gd32vf103_can.c ****     \retval     none
 366:arch/riscv/mach-gd32vf10x/bsp/gd32vf103_can.c **** */
 367:arch/riscv/mach-gd32vf10x/bsp/gd32vf103_can.c **** void can_debug_freeze_disable(uint32_t can_periph)
 368:arch/riscv/mach-gd32vf10x/bsp/gd32vf103_can.c **** {
 795              		.loc 1 368 1
 796              		.cfi_startproc
 797              	.LVL36:
 369:arch/riscv/mach-gd32vf10x/bsp/gd32vf103_can.c ****     /* set DFZ bit */
 370:arch/riscv/mach-gd32vf10x/bsp/gd32vf103_can.c ****     CAN_CTL(can_periph) &= ~CAN_CTL_DFZ;
 798              		.loc 1 370 5
 799              		.loc 1 370 25 is_stmt 0
 800 0000 1C41     		lw	a5,0(a0)
 801 0002 4177     		li	a4,-65536
 802 0004 7D17     		addi	a4,a4,-1
 803 0006 F98F     		and	a5,a5,a4
 804 0008 1CC1     		sw	a5,0(a0)
 371:arch/riscv/mach-gd32vf10x/bsp/gd32vf103_can.c ****     if(CAN0 == can_periph){
 805              		.loc 1 371 5 is_stmt 1
 806              		.loc 1 371 7 is_stmt 0
 807 000a B7670040 		li	a5,1073766400
 808 000e 93870740 		addi	a5,a5,1024
 809 0012 6308F500 		beq	a0,a5,.L63
 372:arch/riscv/mach-gd32vf10x/bsp/gd32vf103_can.c ****         dbg_periph_disable(DBG_CAN0_HOLD);
 373:arch/riscv/mach-gd32vf10x/bsp/gd32vf103_can.c ****     }else{
 374:arch/riscv/mach-gd32vf10x/bsp/gd32vf103_can.c ****         dbg_periph_disable(DBG_CAN1_HOLD);
 810              		.loc 1 374 9 is_stmt 1
 811 0016 37052000 		li	a0,2097152
 812              	.LVL37:
 813 001a 17030000 		tail	dbg_periph_disable
 813      67000300 
 814              	.LVL38:
 815              	.L63:
 372:arch/riscv/mach-gd32vf10x/bsp/gd32vf103_can.c ****         dbg_periph_disable(DBG_CAN0_HOLD);
 816              		.loc 1 372 9
 817 0022 1165     		li	a0,16384
 818              	.LVL39:
 819 0024 17030000 		tail	dbg_periph_disable
 819      67000300 
 820              	.LVL40:
 821              		.cfi_endproc
 822              	.LFE8:
 824              		.section	.text.can_time_trigger_mode_enable,"ax",@progbits
 825              		.align	1
 826              		.globl	can_time_trigger_mode_enable
 828              	can_time_trigger_mode_enable:
 829              	.LFB9:
 375:arch/riscv/mach-gd32vf10x/bsp/gd32vf103_can.c ****     }
 376:arch/riscv/mach-gd32vf10x/bsp/gd32vf103_can.c **** }
 377:arch/riscv/mach-gd32vf10x/bsp/gd32vf103_can.c **** 
 378:arch/riscv/mach-gd32vf10x/bsp/gd32vf103_can.c **** /*!
 379:arch/riscv/mach-gd32vf10x/bsp/gd32vf103_can.c ****     \brief      enable CAN time trigger mode
 380:arch/riscv/mach-gd32vf10x/bsp/gd32vf103_can.c ****     \param[in]  can_periph
 381:arch/riscv/mach-gd32vf10x/bsp/gd32vf103_can.c ****       \arg        CANx(x=0,1)
 382:arch/riscv/mach-gd32vf10x/bsp/gd32vf103_can.c ****     \param[out] none
 383:arch/riscv/mach-gd32vf10x/bsp/gd32vf103_can.c ****     \retval     none
 384:arch/riscv/mach-gd32vf10x/bsp/gd32vf103_can.c **** */
 385:arch/riscv/mach-gd32vf10x/bsp/gd32vf103_can.c **** void can_time_trigger_mode_enable(uint32_t can_periph)
GAS LISTING C:\Users\test\AppData\Local\Temp\ccA0cEyS.s 			page 25


 386:arch/riscv/mach-gd32vf10x/bsp/gd32vf103_can.c **** {
 830              		.loc 1 386 1
 831              		.cfi_startproc
 832              	.LVL41:
 387:arch/riscv/mach-gd32vf10x/bsp/gd32vf103_can.c ****     uint8_t mailbox_number;
 833              		.loc 1 387 5
 388:arch/riscv/mach-gd32vf10x/bsp/gd32vf103_can.c ****     
 389:arch/riscv/mach-gd32vf10x/bsp/gd32vf103_can.c ****     /* enable the tcc mode */
 390:arch/riscv/mach-gd32vf10x/bsp/gd32vf103_can.c ****     CAN_CTL(can_periph) |= CAN_CTL_TTC;
 834              		.loc 1 390 5
 835              		.loc 1 390 25 is_stmt 0
 836 0000 1C41     		lw	a5,0(a0)
 837 0002 93E70708 		ori	a5,a5,128
 838 0006 1CC1     		sw	a5,0(a0)
 391:arch/riscv/mach-gd32vf10x/bsp/gd32vf103_can.c ****     /* enable time stamp */
 392:arch/riscv/mach-gd32vf10x/bsp/gd32vf103_can.c ****     for(mailbox_number = 0U; mailbox_number < 3U; mailbox_number++){
 839              		.loc 1 392 5 is_stmt 1
 840              	.LVL42:
 393:arch/riscv/mach-gd32vf10x/bsp/gd32vf103_can.c ****         CAN_TMP(can_periph, mailbox_number) |= CAN_TMP_TSEN;
 841              		.loc 1 393 9
 842              		.loc 1 393 45 is_stmt 0
 843 0008 83274518 		lw	a5,388(a0)
 844 000c 93E70710 		ori	a5,a5,256
 845 0010 2322F518 		sw	a5,388(a0)
 846              	.LVL43:
 847              		.loc 1 393 9 is_stmt 1
 848              		.loc 1 393 45 is_stmt 0
 849 0014 83274519 		lw	a5,404(a0)
 850 0018 93E70710 		ori	a5,a5,256
 851 001c 232AF518 		sw	a5,404(a0)
 852              	.LVL44:
 853              		.loc 1 393 9 is_stmt 1
 854              		.loc 1 393 45 is_stmt 0
 855 0020 8327451A 		lw	a5,420(a0)
 856 0024 93E70710 		ori	a5,a5,256
 857 0028 2322F51A 		sw	a5,420(a0)
 858              	.LVL45:
 394:arch/riscv/mach-gd32vf10x/bsp/gd32vf103_can.c ****     }
 395:arch/riscv/mach-gd32vf10x/bsp/gd32vf103_can.c **** }
 859              		.loc 1 395 1
 860 002c 8280     		ret
 861              		.cfi_endproc
 862              	.LFE9:
 864              		.section	.text.can_time_trigger_mode_disable,"ax",@progbits
 865              		.align	1
 866              		.globl	can_time_trigger_mode_disable
 868              	can_time_trigger_mode_disable:
 869              	.LFB10:
 396:arch/riscv/mach-gd32vf10x/bsp/gd32vf103_can.c **** 
 397:arch/riscv/mach-gd32vf10x/bsp/gd32vf103_can.c **** /*!
 398:arch/riscv/mach-gd32vf10x/bsp/gd32vf103_can.c ****     \brief      disable CAN time trigger mode
 399:arch/riscv/mach-gd32vf10x/bsp/gd32vf103_can.c ****     \param[in]  can_periph
 400:arch/riscv/mach-gd32vf10x/bsp/gd32vf103_can.c ****       \arg        CANx(x=0,1)
 401:arch/riscv/mach-gd32vf10x/bsp/gd32vf103_can.c ****     \param[out] none
 402:arch/riscv/mach-gd32vf10x/bsp/gd32vf103_can.c ****     \retval     none
 403:arch/riscv/mach-gd32vf10x/bsp/gd32vf103_can.c **** */
 404:arch/riscv/mach-gd32vf10x/bsp/gd32vf103_can.c **** void can_time_trigger_mode_disable(uint32_t can_periph)
GAS LISTING C:\Users\test\AppData\Local\Temp\ccA0cEyS.s 			page 26


 405:arch/riscv/mach-gd32vf10x/bsp/gd32vf103_can.c **** {
 870              		.loc 1 405 1 is_stmt 1
 871              		.cfi_startproc
 872              	.LVL46:
 406:arch/riscv/mach-gd32vf10x/bsp/gd32vf103_can.c ****     uint8_t mailbox_number; 
 873              		.loc 1 406 5
 407:arch/riscv/mach-gd32vf10x/bsp/gd32vf103_can.c ****     
 408:arch/riscv/mach-gd32vf10x/bsp/gd32vf103_can.c ****     /* disable the TCC mode */
 409:arch/riscv/mach-gd32vf10x/bsp/gd32vf103_can.c ****     CAN_CTL(can_periph) &= ~CAN_CTL_TTC;
 874              		.loc 1 409 5
 875              		.loc 1 409 25 is_stmt 0
 876 0000 1C41     		lw	a5,0(a0)
 877 0002 93F7F7F7 		andi	a5,a5,-129
 878 0006 1CC1     		sw	a5,0(a0)
 410:arch/riscv/mach-gd32vf10x/bsp/gd32vf103_can.c ****     /* reset TSEN bits */
 411:arch/riscv/mach-gd32vf10x/bsp/gd32vf103_can.c ****     for(mailbox_number = 0U; mailbox_number < 3U; mailbox_number++){
 879              		.loc 1 411 5 is_stmt 1
 880              	.LVL47:
 412:arch/riscv/mach-gd32vf10x/bsp/gd32vf103_can.c ****         CAN_TMP(can_periph, mailbox_number) &= ~CAN_TMP_TSEN;
 881              		.loc 1 412 9
 882              		.loc 1 412 45 is_stmt 0
 883 0008 83274518 		lw	a5,388(a0)
 884 000c 93F7F7EF 		andi	a5,a5,-257
 885 0010 2322F518 		sw	a5,388(a0)
 886              	.LVL48:
 887              		.loc 1 412 9 is_stmt 1
 888              		.loc 1 412 45 is_stmt 0
 889 0014 83274519 		lw	a5,404(a0)
 890 0018 93F7F7EF 		andi	a5,a5,-257
 891 001c 232AF518 		sw	a5,404(a0)
 892              	.LVL49:
 893              		.loc 1 412 9 is_stmt 1
 894              		.loc 1 412 45 is_stmt 0
 895 0020 8327451A 		lw	a5,420(a0)
 896 0024 93F7F7EF 		andi	a5,a5,-257
 897 0028 2322F51A 		sw	a5,420(a0)
 898              	.LVL50:
 413:arch/riscv/mach-gd32vf10x/bsp/gd32vf103_can.c ****     }
 414:arch/riscv/mach-gd32vf10x/bsp/gd32vf103_can.c **** }
 899              		.loc 1 414 1
 900 002c 8280     		ret
 901              		.cfi_endproc
 902              	.LFE10:
 904              		.section	.text.can_message_transmit,"ax",@progbits
 905              		.align	1
 906              		.globl	can_message_transmit
 908              	can_message_transmit:
 909              	.LFB11:
 415:arch/riscv/mach-gd32vf10x/bsp/gd32vf103_can.c **** 
 416:arch/riscv/mach-gd32vf10x/bsp/gd32vf103_can.c **** /*!
 417:arch/riscv/mach-gd32vf10x/bsp/gd32vf103_can.c ****     \brief       transmit CAN message
 418:arch/riscv/mach-gd32vf10x/bsp/gd32vf103_can.c ****     \param[in]  can_periph
 419:arch/riscv/mach-gd32vf10x/bsp/gd32vf103_can.c ****       \arg        CANx(x=0,1)
 420:arch/riscv/mach-gd32vf10x/bsp/gd32vf103_can.c ****     \param[in]  transmit_message: struct for CAN transmit message
 421:arch/riscv/mach-gd32vf10x/bsp/gd32vf103_can.c ****       \arg        tx_sfid: 0x00000000 - 0x000007FF
 422:arch/riscv/mach-gd32vf10x/bsp/gd32vf103_can.c ****       \arg        tx_efid: 0x00000000 - 0x1FFFFFFF
 423:arch/riscv/mach-gd32vf10x/bsp/gd32vf103_can.c ****       \arg        tx_ff: CAN_FF_STANDARD, CAN_FF_EXTENDED
GAS LISTING C:\Users\test\AppData\Local\Temp\ccA0cEyS.s 			page 27


 424:arch/riscv/mach-gd32vf10x/bsp/gd32vf103_can.c ****       \arg        tx_ft: CAN_FT_DATA, CAN_FT_REMOTE
 425:arch/riscv/mach-gd32vf10x/bsp/gd32vf103_can.c ****       \arg        tx_dlenc: 1 - 7
 426:arch/riscv/mach-gd32vf10x/bsp/gd32vf103_can.c ****       \arg        tx_data[]: 0x00 - 0xFF
 427:arch/riscv/mach-gd32vf10x/bsp/gd32vf103_can.c ****     \param[out] none
 428:arch/riscv/mach-gd32vf10x/bsp/gd32vf103_can.c ****     \retval     mailbox_number
 429:arch/riscv/mach-gd32vf10x/bsp/gd32vf103_can.c **** */
 430:arch/riscv/mach-gd32vf10x/bsp/gd32vf103_can.c **** uint8_t can_message_transmit(uint32_t can_periph, can_trasnmit_message_struct* transmit_message)
 431:arch/riscv/mach-gd32vf10x/bsp/gd32vf103_can.c **** {
 910              		.loc 1 431 1 is_stmt 1
 911              		.cfi_startproc
 912              	.LVL51:
 432:arch/riscv/mach-gd32vf10x/bsp/gd32vf103_can.c ****     uint8_t mailbox_number = CAN_MAILBOX0;
 913              		.loc 1 432 5
 433:arch/riscv/mach-gd32vf10x/bsp/gd32vf103_can.c **** 
 434:arch/riscv/mach-gd32vf10x/bsp/gd32vf103_can.c ****     /* select one empty mailbox */
 435:arch/riscv/mach-gd32vf10x/bsp/gd32vf103_can.c ****     if(CAN_TSTAT_TME0 == (CAN_TSTAT(can_periph)&CAN_TSTAT_TME0)){
 914              		.loc 1 435 5
 915              		.loc 1 435 27 is_stmt 0
 916 0000 1845     		lw	a4,8(a0)
 431:arch/riscv/mach-gd32vf10x/bsp/gd32vf103_can.c ****     uint8_t mailbox_number = CAN_MAILBOX0;
 917              		.loc 1 431 1
 918 0002 AA87     		mv	a5,a0
 919              		.loc 1 435 27
 920 0004 93068500 		addi	a3,a0,8
 921              		.loc 1 435 7
 922 0008 13165700 		slli	a2,a4,5
 923 000c 6345060A 		blt	a2,zero,.L72
 436:arch/riscv/mach-gd32vf10x/bsp/gd32vf103_can.c ****         mailbox_number = CAN_MAILBOX0;
 437:arch/riscv/mach-gd32vf10x/bsp/gd32vf103_can.c ****     }else if(CAN_TSTAT_TME1 == (CAN_TSTAT(can_periph)&CAN_TSTAT_TME1)){
 924              		.loc 1 437 11 is_stmt 1
 925              		.loc 1 437 33 is_stmt 0
 926 0010 1845     		lw	a4,8(a0)
 927              		.loc 1 437 13
 928 0012 13164700 		slli	a2,a4,4
 929 0016 6356060C 		bge	a2,zero,.L68
 930 001a 93070501 		addi	a5,a0,16
 438:arch/riscv/mach-gd32vf10x/bsp/gd32vf103_can.c ****         mailbox_number = CAN_MAILBOX1;
 439:arch/riscv/mach-gd32vf10x/bsp/gd32vf103_can.c ****     }else if(CAN_TSTAT_TME2 == (CAN_TSTAT(can_periph)&CAN_TSTAT_TME2)){
 440:arch/riscv/mach-gd32vf10x/bsp/gd32vf103_can.c ****         mailbox_number = CAN_MAILBOX2;
 441:arch/riscv/mach-gd32vf10x/bsp/gd32vf103_can.c ****     }else{
 442:arch/riscv/mach-gd32vf10x/bsp/gd32vf103_can.c ****         mailbox_number = CAN_NOMAILBOX;
 443:arch/riscv/mach-gd32vf10x/bsp/gd32vf103_can.c ****     }
 444:arch/riscv/mach-gd32vf10x/bsp/gd32vf103_can.c ****     /* return no mailbox empty */
 445:arch/riscv/mach-gd32vf10x/bsp/gd32vf103_can.c ****     if(CAN_NOMAILBOX == mailbox_number){
 446:arch/riscv/mach-gd32vf10x/bsp/gd32vf103_can.c ****         return CAN_NOMAILBOX;
 447:arch/riscv/mach-gd32vf10x/bsp/gd32vf103_can.c ****     }
 448:arch/riscv/mach-gd32vf10x/bsp/gd32vf103_can.c ****     
 449:arch/riscv/mach-gd32vf10x/bsp/gd32vf103_can.c ****     CAN_TMI(can_periph, mailbox_number) &= CAN_TMI_TEN;
 931              		.loc 1 449 41
 932 001e 03A70718 		lw	a4,384(a5)
 438:arch/riscv/mach-gd32vf10x/bsp/gd32vf103_can.c ****         mailbox_number = CAN_MAILBOX1;
 933              		.loc 1 438 24
 934 0022 0545     		li	a0,1
 935              	.LVL52:
 936              		.loc 1 449 5 is_stmt 1
 937              		.loc 1 449 41 is_stmt 0
 938 0024 13880718 		addi	a6,a5,384
GAS LISTING C:\Users\test\AppData\Local\Temp\ccA0cEyS.s 			page 28


 939 0028 058B     		andi	a4,a4,1
 940 002a 23A0E718 		sw	a4,384(a5)
 450:arch/riscv/mach-gd32vf10x/bsp/gd32vf103_can.c ****     if(CAN_FF_STANDARD == transmit_message->tx_ff){
 941              		.loc 1 450 5 is_stmt 1
 942              		.loc 1 450 43 is_stmt 0
 943 002e 83C68500 		lbu	a3,8(a1)
 944              		.loc 1 450 7
 945 0032 C9CE     		beq	a3,zero,.L75
 946              	.LVL53:
 947              	.L70:
 451:arch/riscv/mach-gd32vf10x/bsp/gd32vf103_can.c ****         /* set transmit mailbox standard identifier */
 452:arch/riscv/mach-gd32vf10x/bsp/gd32vf103_can.c ****         CAN_TMI(can_periph, mailbox_number) |= (uint32_t)(TMI_SFID(transmit_message->tx_sfid) | \
 453:arch/riscv/mach-gd32vf10x/bsp/gd32vf103_can.c ****                                                 transmit_message->tx_ft);
 454:arch/riscv/mach-gd32vf10x/bsp/gd32vf103_can.c ****     }else{
 455:arch/riscv/mach-gd32vf10x/bsp/gd32vf103_can.c ****         /* set transmit mailbox extended identifier */
 456:arch/riscv/mach-gd32vf10x/bsp/gd32vf103_can.c ****         CAN_TMI(can_periph, mailbox_number) |= (uint32_t)(TMI_EFID(transmit_message->tx_efid) | \
 948              		.loc 1 456 9 is_stmt 1
 949              		.loc 1 456 59 is_stmt 0
 950 0034 D841     		lw	a4,4(a1)
 457:arch/riscv/mach-gd32vf10x/bsp/gd32vf103_can.c ****                                                 transmit_message->tx_ff | \
 458:arch/riscv/mach-gd32vf10x/bsp/gd32vf103_can.c ****                                                 transmit_message->tx_ft);
 951              		.loc 1 458 65
 952 0036 83C89500 		lbu	a7,9(a1)
 456:arch/riscv/mach-gd32vf10x/bsp/gd32vf103_can.c ****                                                 transmit_message->tx_ff | \
 953              		.loc 1 456 45
 954 003a 03A60718 		lw	a2,384(a5)
 456:arch/riscv/mach-gd32vf10x/bsp/gd32vf103_can.c ****                                                 transmit_message->tx_ff | \
 955              		.loc 1 456 59
 956 003e 0E07     		slli	a4,a4,3
 456:arch/riscv/mach-gd32vf10x/bsp/gd32vf103_can.c ****                                                 transmit_message->tx_ff | \
 957              		.loc 1 456 95
 958 0040 558F     		or	a4,a4,a3
 456:arch/riscv/mach-gd32vf10x/bsp/gd32vf103_can.c ****                                                 transmit_message->tx_ff | \
 959              		.loc 1 456 48
 960 0042 33671701 		or	a4,a4,a7
 456:arch/riscv/mach-gd32vf10x/bsp/gd32vf103_can.c ****                                                 transmit_message->tx_ff | \
 961              		.loc 1 456 45
 962 0046 518F     		or	a4,a4,a2
 963 0048 23A0E718 		sw	a4,384(a5)
 964              	.L71:
 459:arch/riscv/mach-gd32vf10x/bsp/gd32vf103_can.c ****     }
 460:arch/riscv/mach-gd32vf10x/bsp/gd32vf103_can.c ****     /* set the data length */
 461:arch/riscv/mach-gd32vf10x/bsp/gd32vf103_can.c ****     CAN_TMP(can_periph, mailbox_number) &= ~CAN_TMP_DLENC;
 965              		.loc 1 461 5 is_stmt 1
 966              		.loc 1 461 41 is_stmt 0
 967 004c 03A74718 		lw	a4,388(a5)
 968 0050 419B     		andi	a4,a4,-16
 969 0052 23A2E718 		sw	a4,388(a5)
 462:arch/riscv/mach-gd32vf10x/bsp/gd32vf103_can.c ****     CAN_TMP(can_periph, mailbox_number) |= transmit_message->tx_dlen;
 970              		.loc 1 462 5 is_stmt 1
 971              		.loc 1 462 41 is_stmt 0
 972 0056 83A64718 		lw	a3,388(a5)
 973              		.loc 1 462 60
 974 005a 03C7A500 		lbu	a4,10(a1)
 975              		.loc 1 462 41
 976 005e 558F     		or	a4,a4,a3
 977 0060 23A2E718 		sw	a4,388(a5)
GAS LISTING C:\Users\test\AppData\Local\Temp\ccA0cEyS.s 			page 29


 463:arch/riscv/mach-gd32vf10x/bsp/gd32vf103_can.c ****     /* set the data */
 464:arch/riscv/mach-gd32vf10x/bsp/gd32vf103_can.c ****     CAN_TMDATA0(can_periph, mailbox_number) = TMDATA0_DB3(transmit_message->tx_data[3]) | \
 978              		.loc 1 464 5 is_stmt 1
 465:arch/riscv/mach-gd32vf10x/bsp/gd32vf103_can.c ****                                               TMDATA0_DB2(transmit_message->tx_data[2]) | \
 466:arch/riscv/mach-gd32vf10x/bsp/gd32vf103_can.c ****                                               TMDATA0_DB1(transmit_message->tx_data[1]) | \
 979              		.loc 1 466 89 is_stmt 0
 980 0064 03C6C500 		lbu	a2,12(a1)
 981 0068 83C8B500 		lbu	a7,11(a1)
 982 006c 83C6D500 		lbu	a3,13(a1)
 983 0070 03C7E500 		lbu	a4,14(a1)
 984 0074 2206     		slli	a2,a2,8
 985 0076 33661601 		or	a2,a2,a7
 986 007a C206     		slli	a3,a3,16
 987 007c D18E     		or	a3,a3,a2
 988 007e 6207     		slli	a4,a4,24
 989 0080 558F     		or	a4,a4,a3
 464:arch/riscv/mach-gd32vf10x/bsp/gd32vf103_can.c ****                                               TMDATA0_DB2(transmit_message->tx_data[2]) | \
 990              		.loc 1 464 45
 991 0082 23A4E718 		sw	a4,392(a5)
 467:arch/riscv/mach-gd32vf10x/bsp/gd32vf103_can.c ****                                               TMDATA0_DB0(transmit_message->tx_data[0]);
 468:arch/riscv/mach-gd32vf10x/bsp/gd32vf103_can.c ****     CAN_TMDATA1(can_periph, mailbox_number) = TMDATA1_DB7(transmit_message->tx_data[7]) | \
 992              		.loc 1 468 5 is_stmt 1
 469:arch/riscv/mach-gd32vf10x/bsp/gd32vf103_can.c ****                                               TMDATA1_DB6(transmit_message->tx_data[6]) | \
 470:arch/riscv/mach-gd32vf10x/bsp/gd32vf103_can.c ****                                               TMDATA1_DB5(transmit_message->tx_data[5]) | \
 993              		.loc 1 470 89 is_stmt 0
 994 0086 03C60501 		lbu	a2,16(a1)
 995 008a 83C8F500 		lbu	a7,15(a1)
 996 008e 83C61501 		lbu	a3,17(a1)
 997 0092 03C72501 		lbu	a4,18(a1)
 998 0096 2206     		slli	a2,a2,8
 999 0098 33661601 		or	a2,a2,a7
 1000 009c C206     		slli	a3,a3,16
 1001 009e D18E     		or	a3,a3,a2
 1002 00a0 6207     		slli	a4,a4,24
 1003 00a2 558F     		or	a4,a4,a3
 468:arch/riscv/mach-gd32vf10x/bsp/gd32vf103_can.c ****                                               TMDATA1_DB6(transmit_message->tx_data[6]) | \
 1004              		.loc 1 468 45
 1005 00a4 23A6E718 		sw	a4,396(a5)
 471:arch/riscv/mach-gd32vf10x/bsp/gd32vf103_can.c ****                                               TMDATA1_DB4(transmit_message->tx_data[4]);
 472:arch/riscv/mach-gd32vf10x/bsp/gd32vf103_can.c ****     /* enable transmission */
 473:arch/riscv/mach-gd32vf10x/bsp/gd32vf103_can.c ****     CAN_TMI(can_periph, mailbox_number) |= CAN_TMI_TEN;
 1006              		.loc 1 473 5 is_stmt 1
 1007              		.loc 1 473 41 is_stmt 0
 1008 00a8 83270800 		lw	a5,0(a6)
 1009 00ac 93E71700 		ori	a5,a5,1
 1010 00b0 2320F800 		sw	a5,0(a6)
 474:arch/riscv/mach-gd32vf10x/bsp/gd32vf103_can.c **** 
 475:arch/riscv/mach-gd32vf10x/bsp/gd32vf103_can.c ****     return mailbox_number;
 1011              		.loc 1 475 5 is_stmt 1
 1012              	.L69:
 476:arch/riscv/mach-gd32vf10x/bsp/gd32vf103_can.c **** }
 1013              		.loc 1 476 1 is_stmt 0
 1014 00b4 8280     		ret
 1015              	.LVL54:
 1016              	.L72:
 436:arch/riscv/mach-gd32vf10x/bsp/gd32vf103_can.c ****     }else if(CAN_TSTAT_TME1 == (CAN_TSTAT(can_periph)&CAN_TSTAT_TME1)){
 1017              		.loc 1 436 24
GAS LISTING C:\Users\test\AppData\Local\Temp\ccA0cEyS.s 			page 30


 1018 00b6 0145     		li	a0,0
 1019              	.LVL55:
 1020              	.L67:
 449:arch/riscv/mach-gd32vf10x/bsp/gd32vf103_can.c ****     if(CAN_FF_STANDARD == transmit_message->tx_ff){
 1021              		.loc 1 449 5 is_stmt 1
 449:arch/riscv/mach-gd32vf10x/bsp/gd32vf103_can.c ****     if(CAN_FF_STANDARD == transmit_message->tx_ff){
 1022              		.loc 1 449 41 is_stmt 0
 1023 00b8 03A70718 		lw	a4,384(a5)
 1024 00bc 13880718 		addi	a6,a5,384
 1025 00c0 058B     		andi	a4,a4,1
 1026 00c2 23A0E718 		sw	a4,384(a5)
 450:arch/riscv/mach-gd32vf10x/bsp/gd32vf103_can.c ****         /* set transmit mailbox standard identifier */
 1027              		.loc 1 450 5 is_stmt 1
 450:arch/riscv/mach-gd32vf10x/bsp/gd32vf103_can.c ****         /* set transmit mailbox standard identifier */
 1028              		.loc 1 450 43 is_stmt 0
 1029 00c6 83C68500 		lbu	a3,8(a1)
 450:arch/riscv/mach-gd32vf10x/bsp/gd32vf103_can.c ****         /* set transmit mailbox standard identifier */
 1030              		.loc 1 450 7
 1031 00ca ADF6     		bne	a3,zero,.L70
 1032              	.L75:
 452:arch/riscv/mach-gd32vf10x/bsp/gd32vf103_can.c ****                                                 transmit_message->tx_ft);
 1033              		.loc 1 452 9 is_stmt 1
 452:arch/riscv/mach-gd32vf10x/bsp/gd32vf103_can.c ****                                                 transmit_message->tx_ft);
 1034              		.loc 1 452 59 is_stmt 0
 1035 00cc 9841     		lw	a4,0(a1)
 453:arch/riscv/mach-gd32vf10x/bsp/gd32vf103_can.c ****     }else{
 1036              		.loc 1 453 65
 1037 00ce 03C69500 		lbu	a2,9(a1)
 452:arch/riscv/mach-gd32vf10x/bsp/gd32vf103_can.c ****                                                 transmit_message->tx_ft);
 1038              		.loc 1 452 45
 1039 00d2 83A60718 		lw	a3,384(a5)
 452:arch/riscv/mach-gd32vf10x/bsp/gd32vf103_can.c ****                                                 transmit_message->tx_ft);
 1040              		.loc 1 452 59
 1041 00d6 5607     		slli	a4,a4,21
 452:arch/riscv/mach-gd32vf10x/bsp/gd32vf103_can.c ****                                                 transmit_message->tx_ft);
 1042              		.loc 1 452 48
 1043 00d8 518F     		or	a4,a4,a2
 452:arch/riscv/mach-gd32vf10x/bsp/gd32vf103_can.c ****                                                 transmit_message->tx_ft);
 1044              		.loc 1 452 45
 1045 00da 558F     		or	a4,a4,a3
 1046 00dc 23A0E718 		sw	a4,384(a5)
 1047 00e0 B5B7     		j	.L71
 1048              	.LVL56:
 1049              	.L68:
 439:arch/riscv/mach-gd32vf10x/bsp/gd32vf103_can.c ****         mailbox_number = CAN_MAILBOX2;
 1050              		.loc 1 439 11 is_stmt 1
 439:arch/riscv/mach-gd32vf10x/bsp/gd32vf103_can.c ****         mailbox_number = CAN_MAILBOX2;
 1051              		.loc 1 439 33 is_stmt 0
 1052 00e2 9842     		lw	a4,0(a3)
 446:arch/riscv/mach-gd32vf10x/bsp/gd32vf103_can.c ****     }
 1053              		.loc 1 446 16
 1054 00e4 0D45     		li	a0,3
 1055              	.LVL57:
 439:arch/riscv/mach-gd32vf10x/bsp/gd32vf103_can.c ****         mailbox_number = CAN_MAILBOX2;
 1056              		.loc 1 439 13
 1057 00e6 93163700 		slli	a3,a4,3
 1058 00ea E3D506FC 		bge	a3,zero,.L69
GAS LISTING C:\Users\test\AppData\Local\Temp\ccA0cEyS.s 			page 31


 1059 00ee 93870702 		addi	a5,a5,32
 1060              	.LVL58:
 440:arch/riscv/mach-gd32vf10x/bsp/gd32vf103_can.c ****     }else{
 1061              		.loc 1 440 24
 1062 00f2 0945     		li	a0,2
 1063 00f4 D1B7     		j	.L67
 1064              		.cfi_endproc
 1065              	.LFE11:
 1067              		.section	.text.can_transmit_states,"ax",@progbits
 1068              		.align	1
 1069              		.globl	can_transmit_states
 1071              	can_transmit_states:
 1072              	.LFB12:
 477:arch/riscv/mach-gd32vf10x/bsp/gd32vf103_can.c **** 
 478:arch/riscv/mach-gd32vf10x/bsp/gd32vf103_can.c **** /*!
 479:arch/riscv/mach-gd32vf10x/bsp/gd32vf103_can.c ****     \brief      get CAN transmit state 
 480:arch/riscv/mach-gd32vf10x/bsp/gd32vf103_can.c ****     \param[in]  can_periph
 481:arch/riscv/mach-gd32vf10x/bsp/gd32vf103_can.c ****       \arg        CANx(x=0,1)
 482:arch/riscv/mach-gd32vf10x/bsp/gd32vf103_can.c ****     \param[in]  mailbox_number
 483:arch/riscv/mach-gd32vf10x/bsp/gd32vf103_can.c ****                 only one parameter can be selected which is shown as below:
 484:arch/riscv/mach-gd32vf10x/bsp/gd32vf103_can.c ****       \arg        CAN_MAILBOX(x=0,1,2)
 485:arch/riscv/mach-gd32vf10x/bsp/gd32vf103_can.c ****     \param[out] none
 486:arch/riscv/mach-gd32vf10x/bsp/gd32vf103_can.c ****     \retval     can_transmit_state_enum
 487:arch/riscv/mach-gd32vf10x/bsp/gd32vf103_can.c **** */
 488:arch/riscv/mach-gd32vf10x/bsp/gd32vf103_can.c **** can_transmit_state_enum can_transmit_states(uint32_t can_periph, uint8_t mailbox_number)
 489:arch/riscv/mach-gd32vf10x/bsp/gd32vf103_can.c **** {
 1073              		.loc 1 489 1 is_stmt 1
 1074              		.cfi_startproc
 1075              	.LVL59:
 490:arch/riscv/mach-gd32vf10x/bsp/gd32vf103_can.c ****     can_transmit_state_enum state = CAN_TRANSMIT_FAILED;
 1076              		.loc 1 490 5
 491:arch/riscv/mach-gd32vf10x/bsp/gd32vf103_can.c ****     uint32_t val = 0U;
 1077              		.loc 1 491 5
 492:arch/riscv/mach-gd32vf10x/bsp/gd32vf103_can.c ****     
 493:arch/riscv/mach-gd32vf10x/bsp/gd32vf103_can.c ****     /* check selected mailbox state */    
 494:arch/riscv/mach-gd32vf10x/bsp/gd32vf103_can.c ****     switch(mailbox_number){
 1078              		.loc 1 494 5
 1079 0000 8547     		li	a5,1
 1080 0002 6386F504 		beq	a1,a5,.L77
 1081 0006 B9C9     		beq	a1,zero,.L78
 1082 0008 8947     		li	a5,2
 1083 000a 6390F504 		bne	a1,a5,.L87
 495:arch/riscv/mach-gd32vf10x/bsp/gd32vf103_can.c ****     /* mailbox0 */
 496:arch/riscv/mach-gd32vf10x/bsp/gd32vf103_can.c ****     case CAN_MAILBOX0:
 497:arch/riscv/mach-gd32vf10x/bsp/gd32vf103_can.c ****         val = CAN_TSTAT(can_periph) & (CAN_TSTAT_MTF0 | CAN_TSTAT_MTFNERR0 | CAN_TSTAT_TME0);
 498:arch/riscv/mach-gd32vf10x/bsp/gd32vf103_can.c ****         break;
 499:arch/riscv/mach-gd32vf10x/bsp/gd32vf103_can.c ****     /* mailbox1 */
 500:arch/riscv/mach-gd32vf10x/bsp/gd32vf103_can.c ****     case CAN_MAILBOX1:
 501:arch/riscv/mach-gd32vf10x/bsp/gd32vf103_can.c ****         val = CAN_TSTAT(can_periph) & (CAN_TSTAT_MTF1 | CAN_TSTAT_MTFNERR1 | CAN_TSTAT_TME1);
 502:arch/riscv/mach-gd32vf10x/bsp/gd32vf103_can.c ****         break;
 503:arch/riscv/mach-gd32vf10x/bsp/gd32vf103_can.c ****     /* mailbox2 */
 504:arch/riscv/mach-gd32vf10x/bsp/gd32vf103_can.c ****     case CAN_MAILBOX2:
 505:arch/riscv/mach-gd32vf10x/bsp/gd32vf103_can.c ****         val = CAN_TSTAT(can_periph) & (CAN_TSTAT_MTF2 | CAN_TSTAT_MTFNERR2 | CAN_TSTAT_TME2);
 1084              		.loc 1 505 9
 1085              		.loc 1 505 15 is_stmt 0
 1086 000e 1C45     		lw	a5,8(a0)
 1087              		.loc 1 505 13
GAS LISTING C:\Users\test\AppData\Local\Temp\ccA0cEyS.s 			page 32


 1088 0010 37050310 		li	a0,268632064
 1089              	.LVL60:
 1090 0014 E98F     		and	a5,a5,a0
 1091              	.LVL61:
 506:arch/riscv/mach-gd32vf10x/bsp/gd32vf103_can.c ****         break;
 1092              		.loc 1 506 9 is_stmt 1
 1093              	.L81:
 507:arch/riscv/mach-gd32vf10x/bsp/gd32vf103_can.c ****     default:
 508:arch/riscv/mach-gd32vf10x/bsp/gd32vf103_can.c ****         val = CAN_TRANSMIT_FAILED;
 509:arch/riscv/mach-gd32vf10x/bsp/gd32vf103_can.c ****         break;
 510:arch/riscv/mach-gd32vf10x/bsp/gd32vf103_can.c ****     }
 511:arch/riscv/mach-gd32vf10x/bsp/gd32vf103_can.c ****     
 512:arch/riscv/mach-gd32vf10x/bsp/gd32vf103_can.c ****     switch(val){
 1094              		.loc 1 512 5
 1095 0016 37070004 		li	a4,67108864
 1096 001a 0D07     		addi	a4,a4,3
 1097 001c 6381E702 		beq	a5,a4,.L83
 1098 0020 6371F702 		bleu	a5,a4,.L88
 1099 0024 37070008 		li	a4,134217728
 1100 0028 13070730 		addi	a4,a4,768
 513:arch/riscv/mach-gd32vf10x/bsp/gd32vf103_can.c ****         /* transmit pending */
 514:arch/riscv/mach-gd32vf10x/bsp/gd32vf103_can.c ****     case (CAN_STATE_PENDING): 
 515:arch/riscv/mach-gd32vf10x/bsp/gd32vf103_can.c ****         state = CAN_TRANSMIT_PENDING;
 516:arch/riscv/mach-gd32vf10x/bsp/gd32vf103_can.c ****         break;
 517:arch/riscv/mach-gd32vf10x/bsp/gd32vf103_can.c ****         /* mailbox0 transmit succeeded */
 518:arch/riscv/mach-gd32vf10x/bsp/gd32vf103_can.c ****     case (CAN_TSTAT_MTF0 | CAN_TSTAT_MTFNERR0 | CAN_TSTAT_TME0):
 519:arch/riscv/mach-gd32vf10x/bsp/gd32vf103_can.c ****         state = CAN_TRANSMIT_OK;
 1101              		.loc 1 519 15 is_stmt 0
 1102 002c 0545     		li	a0,1
 512:arch/riscv/mach-gd32vf10x/bsp/gd32vf103_can.c ****         /* transmit pending */
 1103              		.loc 1 512 5
 1104 002e 6389E700 		beq	a5,a4,.L76
 1105 0032 37050310 		li	a0,268632064
 520:arch/riscv/mach-gd32vf10x/bsp/gd32vf103_can.c ****         break;
 521:arch/riscv/mach-gd32vf10x/bsp/gd32vf103_can.c ****         /* mailbox1 transmit succeeded */
 522:arch/riscv/mach-gd32vf10x/bsp/gd32vf103_can.c ****     case (CAN_TSTAT_MTF1 | CAN_TSTAT_MTFNERR1 | CAN_TSTAT_TME1):
 523:arch/riscv/mach-gd32vf10x/bsp/gd32vf103_can.c ****         state = CAN_TRANSMIT_OK;
 524:arch/riscv/mach-gd32vf10x/bsp/gd32vf103_can.c ****         break;
 525:arch/riscv/mach-gd32vf10x/bsp/gd32vf103_can.c ****         /* mailbox2 transmit succeeded */
 526:arch/riscv/mach-gd32vf10x/bsp/gd32vf103_can.c ****     case (CAN_TSTAT_MTF2 | CAN_TSTAT_MTFNERR2 | CAN_TSTAT_TME2):
 527:arch/riscv/mach-gd32vf10x/bsp/gd32vf103_can.c ****         state = CAN_TRANSMIT_OK;
 528:arch/riscv/mach-gd32vf10x/bsp/gd32vf103_can.c ****         break;
 529:arch/riscv/mach-gd32vf10x/bsp/gd32vf103_can.c ****         /* transmit failed */
 530:arch/riscv/mach-gd32vf10x/bsp/gd32vf103_can.c ****     default: 
 531:arch/riscv/mach-gd32vf10x/bsp/gd32vf103_can.c ****         state = CAN_TRANSMIT_FAILED;
 1106              		.loc 1 531 15
 1107 0036 898F     		sub	a5,a5,a0
 1108              	.LVL62:
 1109 0038 13B51700 		seqz	a0,a5
 1110 003c 8280     		ret
 1111              	.LVL63:
 1112              	.L83:
 519:arch/riscv/mach-gd32vf10x/bsp/gd32vf103_can.c ****         break;
 1113              		.loc 1 519 15
 1114 003e 0545     		li	a0,1
 1115              	.L76:
 532:arch/riscv/mach-gd32vf10x/bsp/gd32vf103_can.c ****         break;
GAS LISTING C:\Users\test\AppData\Local\Temp\ccA0cEyS.s 			page 33


 533:arch/riscv/mach-gd32vf10x/bsp/gd32vf103_can.c ****     }
 534:arch/riscv/mach-gd32vf10x/bsp/gd32vf103_can.c ****     return state;
 535:arch/riscv/mach-gd32vf10x/bsp/gd32vf103_can.c **** }
 1116              		.loc 1 535 1
 1117 0040 8280     		ret
 1118              	.L88:
 531:arch/riscv/mach-gd32vf10x/bsp/gd32vf103_can.c ****         break;
 1119              		.loc 1 531 15
 1120 0042 13B51700 		seqz	a0,a5
 1121 0046 0605     		slli	a0,a0,1
 1122 0048 8280     		ret
 1123              	.LVL64:
 1124              	.L87:
 515:arch/riscv/mach-gd32vf10x/bsp/gd32vf103_can.c ****         break;
 1125              		.loc 1 515 15
 1126 004a 0945     		li	a0,2
 1127              	.LVL65:
 1128 004c 8280     		ret
 1129              	.LVL66:
 1130              	.L77:
 501:arch/riscv/mach-gd32vf10x/bsp/gd32vf103_can.c ****         break;
 1131              		.loc 1 501 9 is_stmt 1
 501:arch/riscv/mach-gd32vf10x/bsp/gd32vf103_can.c ****         break;
 1132              		.loc 1 501 15 is_stmt 0
 1133 004e 1C45     		lw	a5,8(a0)
 501:arch/riscv/mach-gd32vf10x/bsp/gd32vf103_can.c ****         break;
 1134              		.loc 1 501 13
 1135 0050 37050008 		li	a0,134217728
 1136              	.LVL67:
 1137 0054 13050530 		addi	a0,a0,768
 1138 0058 E98F     		and	a5,a5,a0
 1139              	.LVL68:
 502:arch/riscv/mach-gd32vf10x/bsp/gd32vf103_can.c ****     /* mailbox2 */
 1140              		.loc 1 502 9 is_stmt 1
 1141 005a 75BF     		j	.L81
 1142              	.LVL69:
 1143              	.L78:
 497:arch/riscv/mach-gd32vf10x/bsp/gd32vf103_can.c ****         break;
 1144              		.loc 1 497 9
 497:arch/riscv/mach-gd32vf10x/bsp/gd32vf103_can.c ****         break;
 1145              		.loc 1 497 15 is_stmt 0
 1146 005c 1C45     		lw	a5,8(a0)
 497:arch/riscv/mach-gd32vf10x/bsp/gd32vf103_can.c ****         break;
 1147              		.loc 1 497 13
 1148 005e 37050004 		li	a0,67108864
 1149              	.LVL70:
 1150 0062 0D05     		addi	a0,a0,3
 1151 0064 E98F     		and	a5,a5,a0
 1152              	.LVL71:
 498:arch/riscv/mach-gd32vf10x/bsp/gd32vf103_can.c ****     /* mailbox1 */
 1153              		.loc 1 498 9 is_stmt 1
 1154 0066 45BF     		j	.L81
 1155              		.cfi_endproc
 1156              	.LFE12:
 1158              		.section	.text.can_transmission_stop,"ax",@progbits
 1159              		.align	1
 1160              		.globl	can_transmission_stop
GAS LISTING C:\Users\test\AppData\Local\Temp\ccA0cEyS.s 			page 34


 1162              	can_transmission_stop:
 1163              	.LFB13:
 536:arch/riscv/mach-gd32vf10x/bsp/gd32vf103_can.c **** 
 537:arch/riscv/mach-gd32vf10x/bsp/gd32vf103_can.c **** /*!
 538:arch/riscv/mach-gd32vf10x/bsp/gd32vf103_can.c ****     \brief      stop CAN transmission
 539:arch/riscv/mach-gd32vf10x/bsp/gd32vf103_can.c ****     \param[in]  can_periph
 540:arch/riscv/mach-gd32vf10x/bsp/gd32vf103_can.c ****       \arg        CANx(x=0,1)
 541:arch/riscv/mach-gd32vf10x/bsp/gd32vf103_can.c ****     \param[in]  mailbox_number
 542:arch/riscv/mach-gd32vf10x/bsp/gd32vf103_can.c ****                 only one parameter can be selected which is shown as below:
 543:arch/riscv/mach-gd32vf10x/bsp/gd32vf103_can.c ****       \arg        CAN_MAILBOXx(x=0,1,2)
 544:arch/riscv/mach-gd32vf10x/bsp/gd32vf103_can.c ****     \param[out] none
 545:arch/riscv/mach-gd32vf10x/bsp/gd32vf103_can.c ****     \retval     none
 546:arch/riscv/mach-gd32vf10x/bsp/gd32vf103_can.c **** */
 547:arch/riscv/mach-gd32vf10x/bsp/gd32vf103_can.c **** void can_transmission_stop(uint32_t can_periph, uint8_t mailbox_number)
 548:arch/riscv/mach-gd32vf10x/bsp/gd32vf103_can.c **** {
 1164              		.loc 1 548 1
 1165              		.cfi_startproc
 1166              	.LVL72:
 549:arch/riscv/mach-gd32vf10x/bsp/gd32vf103_can.c ****     if(CAN_MAILBOX0 == mailbox_number){
 1167              		.loc 1 549 5
 1168              		.loc 1 549 7 is_stmt 0
 1169 0000 81ED     		bne	a1,zero,.L90
 550:arch/riscv/mach-gd32vf10x/bsp/gd32vf103_can.c ****         CAN_TSTAT(can_periph) |= CAN_TSTAT_MST0;
 1170              		.loc 1 550 9 is_stmt 1
 1171              		.loc 1 550 31 is_stmt 0
 1172 0002 1C45     		lw	a5,8(a0)
 1173 0004 13078500 		addi	a4,a0,8
 1174 0008 93E70708 		ori	a5,a5,128
 1175 000c 1CC5     		sw	a5,8(a0)
 551:arch/riscv/mach-gd32vf10x/bsp/gd32vf103_can.c ****         while(CAN_TSTAT_MST0 == (CAN_TSTAT(can_periph) & CAN_TSTAT_MST0)){
 1176              		.loc 1 551 9 is_stmt 1
 1177              	.L91:
 552:arch/riscv/mach-gd32vf10x/bsp/gd32vf103_can.c ****         }
 1178              		.loc 1 552 9 discriminator 1
 551:arch/riscv/mach-gd32vf10x/bsp/gd32vf103_can.c ****         while(CAN_TSTAT_MST0 == (CAN_TSTAT(can_periph) & CAN_TSTAT_MST0)){
 1179              		.loc 1 551 34 is_stmt 0 discriminator 1
 1180 000e 1C43     		lw	a5,0(a4)
 551:arch/riscv/mach-gd32vf10x/bsp/gd32vf103_can.c ****         while(CAN_TSTAT_MST0 == (CAN_TSTAT(can_periph) & CAN_TSTAT_MST0)){
 1181              		.loc 1 551 56 discriminator 1
 1182 0010 93F70708 		andi	a5,a5,128
 551:arch/riscv/mach-gd32vf10x/bsp/gd32vf103_can.c ****         while(CAN_TSTAT_MST0 == (CAN_TSTAT(can_periph) & CAN_TSTAT_MST0)){
 1183              		.loc 1 551 14 discriminator 1
 1184 0014 EDFF     		bne	a5,zero,.L91
 1185 0016 8280     		ret
 1186              	.L90:
 553:arch/riscv/mach-gd32vf10x/bsp/gd32vf103_can.c ****     }else if(CAN_MAILBOX1 == mailbox_number){
 1187              		.loc 1 553 11 is_stmt 1
 1188              		.loc 1 553 13 is_stmt 0
 1189 0018 8547     		li	a5,1
 1190 001a 6386F500 		beq	a1,a5,.L99
 554:arch/riscv/mach-gd32vf10x/bsp/gd32vf103_can.c ****         CAN_TSTAT(can_periph) |= CAN_TSTAT_MST1;
 555:arch/riscv/mach-gd32vf10x/bsp/gd32vf103_can.c ****         while(CAN_TSTAT_MST1 == (CAN_TSTAT(can_periph) & CAN_TSTAT_MST1)){
 556:arch/riscv/mach-gd32vf10x/bsp/gd32vf103_can.c ****         }
 557:arch/riscv/mach-gd32vf10x/bsp/gd32vf103_can.c ****     }else if(CAN_MAILBOX2 == mailbox_number){
 1191              		.loc 1 557 11 is_stmt 1
 1192              		.loc 1 557 13 is_stmt 0
 1193 001e 8947     		li	a5,2
GAS LISTING C:\Users\test\AppData\Local\Temp\ccA0cEyS.s 			page 35


 1194 0020 638FF500 		beq	a1,a5,.L100
 558:arch/riscv/mach-gd32vf10x/bsp/gd32vf103_can.c ****         CAN_TSTAT(can_periph) |= CAN_TSTAT_MST2;
 559:arch/riscv/mach-gd32vf10x/bsp/gd32vf103_can.c ****         while(CAN_TSTAT_MST2 == (CAN_TSTAT(can_periph) & CAN_TSTAT_MST2)){
 560:arch/riscv/mach-gd32vf10x/bsp/gd32vf103_can.c ****         }
 561:arch/riscv/mach-gd32vf10x/bsp/gd32vf103_can.c ****     }else{
 562:arch/riscv/mach-gd32vf10x/bsp/gd32vf103_can.c ****         /* illegal parameters */
 563:arch/riscv/mach-gd32vf10x/bsp/gd32vf103_can.c ****     }
 564:arch/riscv/mach-gd32vf10x/bsp/gd32vf103_can.c **** }
 1195              		.loc 1 564 1
 1196 0024 8280     		ret
 1197              	.L99:
 554:arch/riscv/mach-gd32vf10x/bsp/gd32vf103_can.c ****         CAN_TSTAT(can_periph) |= CAN_TSTAT_MST1;
 1198              		.loc 1 554 9 is_stmt 1
 554:arch/riscv/mach-gd32vf10x/bsp/gd32vf103_can.c ****         CAN_TSTAT(can_periph) |= CAN_TSTAT_MST1;
 1199              		.loc 1 554 31 is_stmt 0
 1200 0026 1C45     		lw	a5,8(a0)
 1201 0028 A166     		li	a3,32768
 1202 002a 13078500 		addi	a4,a0,8
 1203 002e D58F     		or	a5,a5,a3
 1204 0030 1CC5     		sw	a5,8(a0)
 555:arch/riscv/mach-gd32vf10x/bsp/gd32vf103_can.c ****         }
 1205              		.loc 1 555 9 is_stmt 1
 1206              	.L94:
 556:arch/riscv/mach-gd32vf10x/bsp/gd32vf103_can.c ****     }else if(CAN_MAILBOX2 == mailbox_number){
 1207              		.loc 1 556 9 discriminator 1
 555:arch/riscv/mach-gd32vf10x/bsp/gd32vf103_can.c ****         }
 1208              		.loc 1 555 34 is_stmt 0 discriminator 1
 1209 0032 1C43     		lw	a5,0(a4)
 555:arch/riscv/mach-gd32vf10x/bsp/gd32vf103_can.c ****         }
 1210              		.loc 1 555 14 discriminator 1
 1211 0034 93960701 		slli	a3,a5,16
 1212 0038 E3CD06FE 		blt	a3,zero,.L94
 1213 003c 8280     		ret
 1214              	.L100:
 558:arch/riscv/mach-gd32vf10x/bsp/gd32vf103_can.c ****         CAN_TSTAT(can_periph) |= CAN_TSTAT_MST2;
 1215              		.loc 1 558 9 is_stmt 1
 558:arch/riscv/mach-gd32vf10x/bsp/gd32vf103_can.c ****         CAN_TSTAT(can_periph) |= CAN_TSTAT_MST2;
 1216              		.loc 1 558 31 is_stmt 0
 1217 003e 1C45     		lw	a5,8(a0)
 1218 0040 B7068000 		li	a3,8388608
 1219 0044 13078500 		addi	a4,a0,8
 1220 0048 D58F     		or	a5,a5,a3
 1221 004a 1CC5     		sw	a5,8(a0)
 559:arch/riscv/mach-gd32vf10x/bsp/gd32vf103_can.c ****         }
 1222              		.loc 1 559 9 is_stmt 1
 1223              	.L95:
 560:arch/riscv/mach-gd32vf10x/bsp/gd32vf103_can.c ****     }else{
 1224              		.loc 1 560 9 discriminator 1
 559:arch/riscv/mach-gd32vf10x/bsp/gd32vf103_can.c ****         }
 1225              		.loc 1 559 34 is_stmt 0 discriminator 1
 1226 004c 1C43     		lw	a5,0(a4)
 559:arch/riscv/mach-gd32vf10x/bsp/gd32vf103_can.c ****         }
 1227              		.loc 1 559 14 discriminator 1
 1228 004e 93968700 		slli	a3,a5,8
 1229 0052 E3CD06FE 		blt	a3,zero,.L95
 1230              		.loc 1 564 1
 1231 0056 8280     		ret
GAS LISTING C:\Users\test\AppData\Local\Temp\ccA0cEyS.s 			page 36


 1232              		.cfi_endproc
 1233              	.LFE13:
 1235              		.section	.text.can_message_receive,"ax",@progbits
 1236              		.align	1
 1237              		.globl	can_message_receive
 1239              	can_message_receive:
 1240              	.LFB14:
 565:arch/riscv/mach-gd32vf10x/bsp/gd32vf103_can.c **** 
 566:arch/riscv/mach-gd32vf10x/bsp/gd32vf103_can.c **** /*!
 567:arch/riscv/mach-gd32vf10x/bsp/gd32vf103_can.c ****     \brief      CAN receive message
 568:arch/riscv/mach-gd32vf10x/bsp/gd32vf103_can.c ****     \param[in]  can_periph
 569:arch/riscv/mach-gd32vf10x/bsp/gd32vf103_can.c ****       \arg        CANx(x=0,1)
 570:arch/riscv/mach-gd32vf10x/bsp/gd32vf103_can.c ****     \param[in]  fifo_number
 571:arch/riscv/mach-gd32vf10x/bsp/gd32vf103_can.c ****       \arg        CAN_FIFOx(x=0,1)
 572:arch/riscv/mach-gd32vf10x/bsp/gd32vf103_can.c ****     \param[out] receive_message: struct for CAN receive message
 573:arch/riscv/mach-gd32vf10x/bsp/gd32vf103_can.c ****       \arg        rx_sfid: 0x00000000 - 0x000007FF
 574:arch/riscv/mach-gd32vf10x/bsp/gd32vf103_can.c ****       \arg        rx_efid: 0x00000000 - 0x1FFFFFFF
 575:arch/riscv/mach-gd32vf10x/bsp/gd32vf103_can.c ****       \arg        rx_ff: CAN_FF_STANDARD, CAN_FF_EXTENDED
 576:arch/riscv/mach-gd32vf10x/bsp/gd32vf103_can.c ****       \arg        rx_ft: CAN_FT_DATA, CAN_FT_REMOTE
 577:arch/riscv/mach-gd32vf10x/bsp/gd32vf103_can.c ****       \arg        rx_dlenc: 1 - 7
 578:arch/riscv/mach-gd32vf10x/bsp/gd32vf103_can.c ****       \arg        rx_data[]: 0x00 - 0xFF
 579:arch/riscv/mach-gd32vf10x/bsp/gd32vf103_can.c ****       \arg        rx_fi: 0 - 27
 580:arch/riscv/mach-gd32vf10x/bsp/gd32vf103_can.c ****     \retval     none
 581:arch/riscv/mach-gd32vf10x/bsp/gd32vf103_can.c **** */
 582:arch/riscv/mach-gd32vf10x/bsp/gd32vf103_can.c **** void can_message_receive(uint32_t can_periph, uint8_t fifo_number, can_receive_message_struct* rece
 583:arch/riscv/mach-gd32vf10x/bsp/gd32vf103_can.c **** {
 1241              		.loc 1 583 1 is_stmt 1
 1242              		.cfi_startproc
 1243              	.LVL73:
 584:arch/riscv/mach-gd32vf10x/bsp/gd32vf103_can.c ****     /* get the frame format */
 585:arch/riscv/mach-gd32vf10x/bsp/gd32vf103_can.c ****     receive_message->rx_ff = (uint8_t)(CAN_RFIFOMI_FF & CAN_RFIFOMI(can_periph, fifo_number));
 1244              		.loc 1 585 5
 1245              		.loc 1 585 57 is_stmt 0
 1246 0000 93974500 		slli	a5,a1,4
 1247 0004 AA97     		add	a5,a5,a0
 1248 0006 03A7071B 		lw	a4,432(a5)
 1249              		.loc 1 585 30
 1250 000a 118B     		andi	a4,a4,4
 1251              		.loc 1 585 28
 1252 000c 2304E600 		sb	a4,8(a2)
 586:arch/riscv/mach-gd32vf10x/bsp/gd32vf103_can.c ****     if(CAN_FF_STANDARD == receive_message->rx_ff){
 1253              		.loc 1 586 5 is_stmt 1
 1254              		.loc 1 586 7 is_stmt 0
 1255 0010 41E3     		bne	a4,zero,.L102
 587:arch/riscv/mach-gd32vf10x/bsp/gd32vf103_can.c ****         /* get standard identifier */
 588:arch/riscv/mach-gd32vf10x/bsp/gd32vf103_can.c ****         receive_message->rx_sfid = (uint32_t)(GET_RFIFOMI_SFID(CAN_RFIFOMI(can_periph, fifo_number)
 1256              		.loc 1 588 9 is_stmt 1
 1257              		.loc 1 588 47 is_stmt 0
 1258 0012 03A7071B 		lw	a4,432(a5)
 1259              		.loc 1 588 36
 1260 0016 5583     		srli	a4,a4,21
 1261              		.loc 1 588 34
 1262 0018 18C2     		sw	a4,0(a2)
 1263              	.L103:
 589:arch/riscv/mach-gd32vf10x/bsp/gd32vf103_can.c ****     }else{
 590:arch/riscv/mach-gd32vf10x/bsp/gd32vf103_can.c ****         /* get extended identifier */
 591:arch/riscv/mach-gd32vf10x/bsp/gd32vf103_can.c ****         receive_message->rx_efid = (uint32_t)(GET_RFIFOMI_EFID(CAN_RFIFOMI(can_periph, fifo_number)
GAS LISTING C:\Users\test\AppData\Local\Temp\ccA0cEyS.s 			page 37


 592:arch/riscv/mach-gd32vf10x/bsp/gd32vf103_can.c ****     }
 593:arch/riscv/mach-gd32vf10x/bsp/gd32vf103_can.c ****     
 594:arch/riscv/mach-gd32vf10x/bsp/gd32vf103_can.c ****     /* get frame type */
 595:arch/riscv/mach-gd32vf10x/bsp/gd32vf103_can.c ****     receive_message->rx_ft = (uint8_t)(CAN_RFIFOMI_FT & CAN_RFIFOMI(can_periph, fifo_number));     
 1264              		.loc 1 595 5 is_stmt 1
 1265              		.loc 1 595 57 is_stmt 0
 1266 001a 03A7071B 		lw	a4,432(a5)
 1267              		.loc 1 595 30
 1268 001e 098B     		andi	a4,a4,2
 1269              		.loc 1 595 28
 1270 0020 A304E600 		sb	a4,9(a2)
 596:arch/riscv/mach-gd32vf10x/bsp/gd32vf103_can.c ****     /* filtering index */
 597:arch/riscv/mach-gd32vf10x/bsp/gd32vf103_can.c ****     receive_message->rx_fi = (uint8_t)(GET_RFIFOMP_FI(CAN_RFIFOMP(can_periph, fifo_number)));
 1271              		.loc 1 597 5 is_stmt 1
 1272              		.loc 1 597 40 is_stmt 0
 1273 0024 03A7471B 		lw	a4,436(a5)
 1274 0028 2183     		srli	a4,a4,8
 1275              		.loc 1 597 30
 1276 002a A309E600 		sb	a4,19(a2)
 598:arch/riscv/mach-gd32vf10x/bsp/gd32vf103_can.c ****     /* get recevie data length */
 599:arch/riscv/mach-gd32vf10x/bsp/gd32vf103_can.c ****     receive_message->rx_dlen = (uint8_t)(GET_RFIFOMP_DLENC(CAN_RFIFOMP(can_periph, fifo_number)));
 1277              		.loc 1 599 5 is_stmt 1
 1278              		.loc 1 599 42 is_stmt 0
 1279 002e 03A7471B 		lw	a4,436(a5)
 1280              		.loc 1 599 32
 1281 0032 3D8B     		andi	a4,a4,15
 1282              		.loc 1 599 30
 1283 0034 2305E600 		sb	a4,10(a2)
 600:arch/riscv/mach-gd32vf10x/bsp/gd32vf103_can.c ****     
 601:arch/riscv/mach-gd32vf10x/bsp/gd32vf103_can.c ****     /* receive data */
 602:arch/riscv/mach-gd32vf10x/bsp/gd32vf103_can.c ****     receive_message -> rx_data[0] = (uint8_t)(GET_RFIFOMDATA0_DB0(CAN_RFIFOMDATA0(can_periph, fifo_
 1284              		.loc 1 602 5 is_stmt 1
 1285              		.loc 1 602 47 is_stmt 0
 1286 0038 03A7871B 		lw	a4,440(a5)
 1287              		.loc 1 602 37
 1288 003c A305E600 		sb	a4,11(a2)
 603:arch/riscv/mach-gd32vf10x/bsp/gd32vf103_can.c ****     receive_message -> rx_data[1] = (uint8_t)(GET_RFIFOMDATA0_DB1(CAN_RFIFOMDATA0(can_periph, fifo_
 1289              		.loc 1 603 5 is_stmt 1
 1290              		.loc 1 603 47 is_stmt 0
 1291 0040 03A7871B 		lw	a4,440(a5)
 1292 0044 2183     		srli	a4,a4,8
 1293              		.loc 1 603 37
 1294 0046 2306E600 		sb	a4,12(a2)
 604:arch/riscv/mach-gd32vf10x/bsp/gd32vf103_can.c ****     receive_message -> rx_data[2] = (uint8_t)(GET_RFIFOMDATA0_DB2(CAN_RFIFOMDATA0(can_periph, fifo_
 1295              		.loc 1 604 5 is_stmt 1
 1296              		.loc 1 604 47 is_stmt 0
 1297 004a 03A7871B 		lw	a4,440(a5)
 1298 004e 4183     		srli	a4,a4,16
 1299              		.loc 1 604 37
 1300 0050 A306E600 		sb	a4,13(a2)
 605:arch/riscv/mach-gd32vf10x/bsp/gd32vf103_can.c ****     receive_message -> rx_data[3] = (uint8_t)(GET_RFIFOMDATA0_DB3(CAN_RFIFOMDATA0(can_periph, fifo_
 1301              		.loc 1 605 5 is_stmt 1
 1302              		.loc 1 605 47 is_stmt 0
 1303 0054 03A7871B 		lw	a4,440(a5)
 1304 0058 6183     		srli	a4,a4,24
 1305              		.loc 1 605 37
 1306 005a 2307E600 		sb	a4,14(a2)
GAS LISTING C:\Users\test\AppData\Local\Temp\ccA0cEyS.s 			page 38


 606:arch/riscv/mach-gd32vf10x/bsp/gd32vf103_can.c ****     receive_message -> rx_data[4] = (uint8_t)(GET_RFIFOMDATA1_DB4(CAN_RFIFOMDATA1(can_periph, fifo_
 1307              		.loc 1 606 5 is_stmt 1
 1308              		.loc 1 606 47 is_stmt 0
 1309 005e 03A7C71B 		lw	a4,444(a5)
 1310              		.loc 1 606 37
 1311 0062 A307E600 		sb	a4,15(a2)
 607:arch/riscv/mach-gd32vf10x/bsp/gd32vf103_can.c ****     receive_message -> rx_data[5] = (uint8_t)(GET_RFIFOMDATA1_DB5(CAN_RFIFOMDATA1(can_periph, fifo_
 1312              		.loc 1 607 5 is_stmt 1
 1313              		.loc 1 607 47 is_stmt 0
 1314 0066 03A7C71B 		lw	a4,444(a5)
 1315 006a 2183     		srli	a4,a4,8
 1316              		.loc 1 607 37
 1317 006c 2308E600 		sb	a4,16(a2)
 608:arch/riscv/mach-gd32vf10x/bsp/gd32vf103_can.c ****     receive_message -> rx_data[6] = (uint8_t)(GET_RFIFOMDATA1_DB6(CAN_RFIFOMDATA1(can_periph, fifo_
 1318              		.loc 1 608 5 is_stmt 1
 1319              		.loc 1 608 47 is_stmt 0
 1320 0070 03A7C71B 		lw	a4,444(a5)
 1321 0074 4183     		srli	a4,a4,16
 1322              		.loc 1 608 37
 1323 0076 A308E600 		sb	a4,17(a2)
 609:arch/riscv/mach-gd32vf10x/bsp/gd32vf103_can.c ****     receive_message -> rx_data[7] = (uint8_t)(GET_RFIFOMDATA1_DB7(CAN_RFIFOMDATA1(can_periph, fifo_
 1324              		.loc 1 609 5 is_stmt 1
 1325              		.loc 1 609 47 is_stmt 0
 1326 007a 83A7C71B 		lw	a5,444(a5)
 1327 007e E183     		srli	a5,a5,24
 1328              		.loc 1 609 37
 1329 0080 2309F600 		sb	a5,18(a2)
 610:arch/riscv/mach-gd32vf10x/bsp/gd32vf103_can.c ****     
 611:arch/riscv/mach-gd32vf10x/bsp/gd32vf103_can.c ****     /* release FIFO */
 612:arch/riscv/mach-gd32vf10x/bsp/gd32vf103_can.c ****     if(CAN_FIFO0 == fifo_number){
 1330              		.loc 1 612 5 is_stmt 1
 1331              		.loc 1 612 7 is_stmt 0
 1332 0084 99E9     		bne	a1,zero,.L104
 613:arch/riscv/mach-gd32vf10x/bsp/gd32vf103_can.c ****         CAN_RFIFO0(can_periph) |= CAN_RFIFO0_RFD0;
 1333              		.loc 1 613 9 is_stmt 1
 1334              		.loc 1 613 32 is_stmt 0
 1335 0086 5C45     		lw	a5,12(a0)
 1336 0088 93E70702 		ori	a5,a5,32
 1337 008c 5CC5     		sw	a5,12(a0)
 1338 008e 8280     		ret
 1339              	.L102:
 591:arch/riscv/mach-gd32vf10x/bsp/gd32vf103_can.c ****     }
 1340              		.loc 1 591 9 is_stmt 1
 591:arch/riscv/mach-gd32vf10x/bsp/gd32vf103_can.c ****     }
 1341              		.loc 1 591 47 is_stmt 0
 1342 0090 03A7071B 		lw	a4,432(a5)
 591:arch/riscv/mach-gd32vf10x/bsp/gd32vf103_can.c ****     }
 1343              		.loc 1 591 36
 1344 0094 0D83     		srli	a4,a4,3
 591:arch/riscv/mach-gd32vf10x/bsp/gd32vf103_can.c ****     }
 1345              		.loc 1 591 34
 1346 0096 58C2     		sw	a4,4(a2)
 1347 0098 49B7     		j	.L103
 1348              	.L104:
 614:arch/riscv/mach-gd32vf10x/bsp/gd32vf103_can.c ****     }else{
 615:arch/riscv/mach-gd32vf10x/bsp/gd32vf103_can.c ****         CAN_RFIFO1(can_periph) |= CAN_RFIFO1_RFD1;
 1349              		.loc 1 615 9 is_stmt 1
GAS LISTING C:\Users\test\AppData\Local\Temp\ccA0cEyS.s 			page 39


 1350              		.loc 1 615 32 is_stmt 0
 1351 009a 1C49     		lw	a5,16(a0)
 1352 009c 93E70702 		ori	a5,a5,32
 1353 00a0 1CC9     		sw	a5,16(a0)
 616:arch/riscv/mach-gd32vf10x/bsp/gd32vf103_can.c ****     }
 617:arch/riscv/mach-gd32vf10x/bsp/gd32vf103_can.c **** }
 1354              		.loc 1 617 1
 1355 00a2 8280     		ret
 1356              		.cfi_endproc
 1357              	.LFE14:
 1359              		.section	.text.can_fifo_release,"ax",@progbits
 1360              		.align	1
 1361              		.globl	can_fifo_release
 1363              	can_fifo_release:
 1364              	.LFB15:
 618:arch/riscv/mach-gd32vf10x/bsp/gd32vf103_can.c **** 
 619:arch/riscv/mach-gd32vf10x/bsp/gd32vf103_can.c **** /*!
 620:arch/riscv/mach-gd32vf10x/bsp/gd32vf103_can.c ****     \brief      release FIFO0
 621:arch/riscv/mach-gd32vf10x/bsp/gd32vf103_can.c ****     \param[in]  can_periph
 622:arch/riscv/mach-gd32vf10x/bsp/gd32vf103_can.c ****       \arg        CANx(x=0,1)
 623:arch/riscv/mach-gd32vf10x/bsp/gd32vf103_can.c ****     \param[in]  fifo_number
 624:arch/riscv/mach-gd32vf10x/bsp/gd32vf103_can.c ****                 only one parameter can be selected which is shown as below:
 625:arch/riscv/mach-gd32vf10x/bsp/gd32vf103_can.c ****       \arg        CAN_FIFOx(x=0,1)
 626:arch/riscv/mach-gd32vf10x/bsp/gd32vf103_can.c ****     \param[out] none
 627:arch/riscv/mach-gd32vf10x/bsp/gd32vf103_can.c ****     \retval     none
 628:arch/riscv/mach-gd32vf10x/bsp/gd32vf103_can.c **** */
 629:arch/riscv/mach-gd32vf10x/bsp/gd32vf103_can.c **** void can_fifo_release(uint32_t can_periph, uint8_t fifo_number)
 630:arch/riscv/mach-gd32vf10x/bsp/gd32vf103_can.c **** {
 1365              		.loc 1 630 1 is_stmt 1
 1366              		.cfi_startproc
 1367              	.LVL74:
 631:arch/riscv/mach-gd32vf10x/bsp/gd32vf103_can.c ****     if(CAN_FIFO0 == fifo_number){
 1368              		.loc 1 631 5
 1369              		.loc 1 631 7 is_stmt 0
 1370 0000 91E5     		bne	a1,zero,.L107
 632:arch/riscv/mach-gd32vf10x/bsp/gd32vf103_can.c ****         CAN_RFIFO0(can_periph) |= CAN_RFIFO0_RFD0;
 1371              		.loc 1 632 9 is_stmt 1
 1372              		.loc 1 632 32 is_stmt 0
 1373 0002 5C45     		lw	a5,12(a0)
 1374 0004 93E70702 		ori	a5,a5,32
 1375 0008 5CC5     		sw	a5,12(a0)
 1376 000a 8280     		ret
 1377              	.L107:
 633:arch/riscv/mach-gd32vf10x/bsp/gd32vf103_can.c ****     }else if(CAN_FIFO1 == fifo_number){
 1378              		.loc 1 633 11 is_stmt 1
 1379              		.loc 1 633 13 is_stmt 0
 1380 000c 8547     		li	a5,1
 1381 000e 6383F500 		beq	a1,a5,.L111
 1382              	.L109:
 634:arch/riscv/mach-gd32vf10x/bsp/gd32vf103_can.c ****         CAN_RFIFO1(can_periph) |= CAN_RFIFO1_RFD1;
 635:arch/riscv/mach-gd32vf10x/bsp/gd32vf103_can.c ****     }else{
 636:arch/riscv/mach-gd32vf10x/bsp/gd32vf103_can.c ****         /* illegal parameters */
 637:arch/riscv/mach-gd32vf10x/bsp/gd32vf103_can.c ****         CAN_ERROR_HANDLE("CAN FIFO NUM is invalid \r\n");
 1383              		.loc 1 637 9 is_stmt 1 discriminator 1
 1384              		.loc 1 637 9 discriminator 1
 1385              		.loc 1 637 9 discriminator 1
 1386              		.loc 1 637 9 discriminator 1
GAS LISTING C:\Users\test\AppData\Local\Temp\ccA0cEyS.s 			page 40


 1387 0012 01A0     		j	.L109
 1388              	.L111:
 634:arch/riscv/mach-gd32vf10x/bsp/gd32vf103_can.c ****         CAN_RFIFO1(can_periph) |= CAN_RFIFO1_RFD1;
 1389              		.loc 1 634 9
 634:arch/riscv/mach-gd32vf10x/bsp/gd32vf103_can.c ****         CAN_RFIFO1(can_periph) |= CAN_RFIFO1_RFD1;
 1390              		.loc 1 634 32 is_stmt 0
 1391 0014 1C49     		lw	a5,16(a0)
 1392 0016 93E70702 		ori	a5,a5,32
 1393 001a 1CC9     		sw	a5,16(a0)
 638:arch/riscv/mach-gd32vf10x/bsp/gd32vf103_can.c ****     }
 639:arch/riscv/mach-gd32vf10x/bsp/gd32vf103_can.c **** }
 1394              		.loc 1 639 1
 1395 001c 8280     		ret
 1396              		.cfi_endproc
 1397              	.LFE15:
 1399              		.section	.text.can_receive_message_length_get,"ax",@progbits
 1400              		.align	1
 1401              		.globl	can_receive_message_length_get
 1403              	can_receive_message_length_get:
 1404              	.LFB16:
 640:arch/riscv/mach-gd32vf10x/bsp/gd32vf103_can.c **** 
 641:arch/riscv/mach-gd32vf10x/bsp/gd32vf103_can.c **** /*!
 642:arch/riscv/mach-gd32vf10x/bsp/gd32vf103_can.c ****     \brief      CAN receive message length
 643:arch/riscv/mach-gd32vf10x/bsp/gd32vf103_can.c ****     \param[in]  can_periph
 644:arch/riscv/mach-gd32vf10x/bsp/gd32vf103_can.c ****       \arg        CANx(x=0,1)
 645:arch/riscv/mach-gd32vf10x/bsp/gd32vf103_can.c ****     \param[in]  fifo_number
 646:arch/riscv/mach-gd32vf10x/bsp/gd32vf103_can.c ****                 only one parameter can be selected which is shown as below:
 647:arch/riscv/mach-gd32vf10x/bsp/gd32vf103_can.c ****       \arg        CAN_FIFOx(x=0,1) 
 648:arch/riscv/mach-gd32vf10x/bsp/gd32vf103_can.c ****     \param[out] none
 649:arch/riscv/mach-gd32vf10x/bsp/gd32vf103_can.c ****     \retval     message length
 650:arch/riscv/mach-gd32vf10x/bsp/gd32vf103_can.c **** */
 651:arch/riscv/mach-gd32vf10x/bsp/gd32vf103_can.c **** uint8_t can_receive_message_length_get(uint32_t can_periph, uint8_t fifo_number)
 652:arch/riscv/mach-gd32vf10x/bsp/gd32vf103_can.c **** {
 1405              		.loc 1 652 1 is_stmt 1
 1406              		.cfi_startproc
 1407              	.LVL75:
 653:arch/riscv/mach-gd32vf10x/bsp/gd32vf103_can.c ****     uint8_t val = 0U;
 1408              		.loc 1 653 5
 654:arch/riscv/mach-gd32vf10x/bsp/gd32vf103_can.c ****     
 655:arch/riscv/mach-gd32vf10x/bsp/gd32vf103_can.c ****     if(CAN_FIFO0 == fifo_number){
 1409              		.loc 1 655 5
 1410              		.loc 1 655 7 is_stmt 0
 1411 0000 89E5     		bne	a1,zero,.L113
 656:arch/riscv/mach-gd32vf10x/bsp/gd32vf103_can.c ****         /* FIFO0 */
 657:arch/riscv/mach-gd32vf10x/bsp/gd32vf103_can.c ****         val = (uint8_t)(CAN_RFIFO0(can_periph) & CAN_RFIF_RFL_MASK);
 1412              		.loc 1 657 9 is_stmt 1
 1413              		.loc 1 657 25 is_stmt 0
 1414 0002 5C45     		lw	a5,12(a0)
 1415              		.loc 1 657 13
 1416 0004 8D8B     		andi	a5,a5,3
 1417              	.LVL76:
 1418              	.L114:
 658:arch/riscv/mach-gd32vf10x/bsp/gd32vf103_can.c ****     }else if(CAN_FIFO1 == fifo_number){
 659:arch/riscv/mach-gd32vf10x/bsp/gd32vf103_can.c ****         /* FIFO1 */
 660:arch/riscv/mach-gd32vf10x/bsp/gd32vf103_can.c ****         val = (uint8_t)(CAN_RFIFO1(can_periph) & CAN_RFIF_RFL_MASK);
 661:arch/riscv/mach-gd32vf10x/bsp/gd32vf103_can.c ****     }else{
 662:arch/riscv/mach-gd32vf10x/bsp/gd32vf103_can.c ****         /* illegal parameters */
GAS LISTING C:\Users\test\AppData\Local\Temp\ccA0cEyS.s 			page 41


 663:arch/riscv/mach-gd32vf10x/bsp/gd32vf103_can.c ****     }
 1419              		.loc 1 663 5 is_stmt 1
 664:arch/riscv/mach-gd32vf10x/bsp/gd32vf103_can.c ****     return val;
 1420              		.loc 1 664 5
 665:arch/riscv/mach-gd32vf10x/bsp/gd32vf103_can.c **** }
 1421              		.loc 1 665 1 is_stmt 0
 1422 0006 3E85     		mv	a0,a5
 1423              	.LVL77:
 1424 0008 8280     		ret
 1425              	.LVL78:
 1426              	.L113:
 658:arch/riscv/mach-gd32vf10x/bsp/gd32vf103_can.c ****     }else if(CAN_FIFO1 == fifo_number){
 1427              		.loc 1 658 11 is_stmt 1
 658:arch/riscv/mach-gd32vf10x/bsp/gd32vf103_can.c ****     }else if(CAN_FIFO1 == fifo_number){
 1428              		.loc 1 658 13 is_stmt 0
 1429 000a 0547     		li	a4,1
 653:arch/riscv/mach-gd32vf10x/bsp/gd32vf103_can.c ****     
 1430              		.loc 1 653 13
 1431 000c 8147     		li	a5,0
 658:arch/riscv/mach-gd32vf10x/bsp/gd32vf103_can.c ****         /* FIFO1 */
 1432              		.loc 1 658 13
 1433 000e E39CE5FE 		bne	a1,a4,.L114
 660:arch/riscv/mach-gd32vf10x/bsp/gd32vf103_can.c ****     }else{
 1434              		.loc 1 660 9 is_stmt 1
 660:arch/riscv/mach-gd32vf10x/bsp/gd32vf103_can.c ****     }else{
 1435              		.loc 1 660 25 is_stmt 0
 1436 0012 1C49     		lw	a5,16(a0)
 660:arch/riscv/mach-gd32vf10x/bsp/gd32vf103_can.c ****     }else{
 1437              		.loc 1 660 13
 1438 0014 8D8B     		andi	a5,a5,3
 1439              	.LVL79:
 663:arch/riscv/mach-gd32vf10x/bsp/gd32vf103_can.c ****     return val;
 1440              		.loc 1 663 5 is_stmt 1
 664:arch/riscv/mach-gd32vf10x/bsp/gd32vf103_can.c **** }
 1441              		.loc 1 664 5
 1442              		.loc 1 665 1 is_stmt 0
 1443 0016 3E85     		mv	a0,a5
 1444              	.LVL80:
 1445 0018 8280     		ret
 1446              		.cfi_endproc
 1447              	.LFE16:
 1449              		.section	.text.can_working_mode_set,"ax",@progbits
 1450              		.align	1
 1451              		.globl	can_working_mode_set
 1453              	can_working_mode_set:
 1454              	.LFB17:
 666:arch/riscv/mach-gd32vf10x/bsp/gd32vf103_can.c **** 
 667:arch/riscv/mach-gd32vf10x/bsp/gd32vf103_can.c **** /*!
 668:arch/riscv/mach-gd32vf10x/bsp/gd32vf103_can.c ****     \brief      set CAN working mode
 669:arch/riscv/mach-gd32vf10x/bsp/gd32vf103_can.c ****     \param[in]  can_periph
 670:arch/riscv/mach-gd32vf10x/bsp/gd32vf103_can.c ****       \arg        CANx(x=0,1)
 671:arch/riscv/mach-gd32vf10x/bsp/gd32vf103_can.c ****     \param[in]  can_working_mode
 672:arch/riscv/mach-gd32vf10x/bsp/gd32vf103_can.c ****                 only one parameter can be selected which is shown as below:
 673:arch/riscv/mach-gd32vf10x/bsp/gd32vf103_can.c ****       \arg        CAN_MODE_INITIALIZE
 674:arch/riscv/mach-gd32vf10x/bsp/gd32vf103_can.c ****       \arg        CAN_MODE_NORMAL
 675:arch/riscv/mach-gd32vf10x/bsp/gd32vf103_can.c ****       \arg        CAN_MODE_SLEEP
 676:arch/riscv/mach-gd32vf10x/bsp/gd32vf103_can.c ****     \param[out] none
GAS LISTING C:\Users\test\AppData\Local\Temp\ccA0cEyS.s 			page 42


 677:arch/riscv/mach-gd32vf10x/bsp/gd32vf103_can.c ****     \retval     ErrStatus: SUCCESS or ERROR
 678:arch/riscv/mach-gd32vf10x/bsp/gd32vf103_can.c **** */
 679:arch/riscv/mach-gd32vf10x/bsp/gd32vf103_can.c **** ErrStatus can_working_mode_set(uint32_t can_periph, uint8_t working_mode)
 680:arch/riscv/mach-gd32vf10x/bsp/gd32vf103_can.c **** {
 1455              		.loc 1 680 1 is_stmt 1
 1456              		.cfi_startproc
 1457              	.LVL81:
 681:arch/riscv/mach-gd32vf10x/bsp/gd32vf103_can.c ****     ErrStatus flag = ERROR;
 1458              		.loc 1 681 5
 682:arch/riscv/mach-gd32vf10x/bsp/gd32vf103_can.c ****     /* timeout for IWS or also for SLPWS bits */
 683:arch/riscv/mach-gd32vf10x/bsp/gd32vf103_can.c ****     uint32_t timeout = CAN_TIMEOUT; 
 1459              		.loc 1 683 5
 684:arch/riscv/mach-gd32vf10x/bsp/gd32vf103_can.c ****     
 685:arch/riscv/mach-gd32vf10x/bsp/gd32vf103_can.c ****     if(CAN_MODE_INITIALIZE == working_mode){
 1460              		.loc 1 685 5
 1461              		.loc 1 685 7 is_stmt 0
 1462 0000 8547     		li	a5,1
 680:arch/riscv/mach-gd32vf10x/bsp/gd32vf103_can.c ****     ErrStatus flag = ERROR;
 1463              		.loc 1 680 1
 1464 0002 AA86     		mv	a3,a0
 1465              		.loc 1 685 7
 1466 0004 638FF502 		beq	a1,a5,.L136
 686:arch/riscv/mach-gd32vf10x/bsp/gd32vf103_can.c ****         /* disable sleep mode */
 687:arch/riscv/mach-gd32vf10x/bsp/gd32vf103_can.c ****         CAN_CTL(can_periph) &= (~(uint32_t)CAN_CTL_SLPWMOD);
 688:arch/riscv/mach-gd32vf10x/bsp/gd32vf103_can.c ****         /* set initialize mode */
 689:arch/riscv/mach-gd32vf10x/bsp/gd32vf103_can.c ****         CAN_CTL(can_periph) |= (uint8_t)CAN_CTL_IWMOD;
 690:arch/riscv/mach-gd32vf10x/bsp/gd32vf103_can.c ****         /* wait the acknowledge */
 691:arch/riscv/mach-gd32vf10x/bsp/gd32vf103_can.c ****         while((CAN_STAT_IWS != (CAN_STAT(can_periph) & CAN_STAT_IWS)) && (0U != timeout)){
 692:arch/riscv/mach-gd32vf10x/bsp/gd32vf103_can.c ****             timeout--;
 693:arch/riscv/mach-gd32vf10x/bsp/gd32vf103_can.c ****         }
 694:arch/riscv/mach-gd32vf10x/bsp/gd32vf103_can.c ****         if(CAN_STAT_IWS != (CAN_STAT(can_periph) & CAN_STAT_IWS)){
 695:arch/riscv/mach-gd32vf10x/bsp/gd32vf103_can.c ****             flag = ERROR;
 696:arch/riscv/mach-gd32vf10x/bsp/gd32vf103_can.c ****         }else{
 697:arch/riscv/mach-gd32vf10x/bsp/gd32vf103_can.c ****             flag = SUCCESS;
 698:arch/riscv/mach-gd32vf10x/bsp/gd32vf103_can.c ****         }
 699:arch/riscv/mach-gd32vf10x/bsp/gd32vf103_can.c ****     }else if(CAN_MODE_NORMAL == working_mode){
 1467              		.loc 1 699 11 is_stmt 1
 1468              		.loc 1 699 13 is_stmt 0
 1469 0008 8947     		li	a5,2
 1470 000a 6387F500 		beq	a1,a5,.L137
 700:arch/riscv/mach-gd32vf10x/bsp/gd32vf103_can.c ****         /* enter normal mode */
 701:arch/riscv/mach-gd32vf10x/bsp/gd32vf103_can.c ****         CAN_CTL(can_periph) &= ~(uint32_t)(CAN_CTL_SLPWMOD | CAN_CTL_IWMOD);
 702:arch/riscv/mach-gd32vf10x/bsp/gd32vf103_can.c ****         /* wait the acknowledge */
 703:arch/riscv/mach-gd32vf10x/bsp/gd32vf103_can.c ****         while((0U != (CAN_STAT(can_periph) & (CAN_STAT_IWS | CAN_STAT_SLPWS))) && (0U != timeout)){
 704:arch/riscv/mach-gd32vf10x/bsp/gd32vf103_can.c ****             timeout--;
 705:arch/riscv/mach-gd32vf10x/bsp/gd32vf103_can.c ****         }
 706:arch/riscv/mach-gd32vf10x/bsp/gd32vf103_can.c ****         if(0U != (CAN_STAT(can_periph) & (CAN_STAT_IWS | CAN_STAT_SLPWS))){
 707:arch/riscv/mach-gd32vf10x/bsp/gd32vf103_can.c ****             flag = ERROR;
 708:arch/riscv/mach-gd32vf10x/bsp/gd32vf103_can.c ****         }else{
 709:arch/riscv/mach-gd32vf10x/bsp/gd32vf103_can.c ****             flag = SUCCESS;
 710:arch/riscv/mach-gd32vf10x/bsp/gd32vf103_can.c ****         }
 711:arch/riscv/mach-gd32vf10x/bsp/gd32vf103_can.c ****     }else if(CAN_MODE_SLEEP == working_mode){
 1471              		.loc 1 711 11 is_stmt 1
 1472              		.loc 1 711 13 is_stmt 0
 1473 000e 9147     		li	a5,4
 712:arch/riscv/mach-gd32vf10x/bsp/gd32vf103_can.c ****         /* disable initialize mode */
 713:arch/riscv/mach-gd32vf10x/bsp/gd32vf103_can.c ****         CAN_CTL(can_periph) &= (~(uint32_t)CAN_CTL_IWMOD);
GAS LISTING C:\Users\test\AppData\Local\Temp\ccA0cEyS.s 			page 43


 714:arch/riscv/mach-gd32vf10x/bsp/gd32vf103_can.c ****         /* set sleep mode */
 715:arch/riscv/mach-gd32vf10x/bsp/gd32vf103_can.c ****         CAN_CTL(can_periph) |= (uint8_t)CAN_CTL_SLPWMOD;
 716:arch/riscv/mach-gd32vf10x/bsp/gd32vf103_can.c ****         /* wait the acknowledge */
 717:arch/riscv/mach-gd32vf10x/bsp/gd32vf103_can.c ****         while((CAN_STAT_SLPWS != (CAN_STAT(can_periph) & CAN_STAT_SLPWS)) && (0U != timeout)){
 718:arch/riscv/mach-gd32vf10x/bsp/gd32vf103_can.c ****             timeout--;
 719:arch/riscv/mach-gd32vf10x/bsp/gd32vf103_can.c ****         }
 720:arch/riscv/mach-gd32vf10x/bsp/gd32vf103_can.c ****         if(CAN_STAT_SLPWS != (CAN_STAT(can_periph) & CAN_STAT_SLPWS)){
 721:arch/riscv/mach-gd32vf10x/bsp/gd32vf103_can.c ****             flag = ERROR;
 722:arch/riscv/mach-gd32vf10x/bsp/gd32vf103_can.c ****         }else{
 723:arch/riscv/mach-gd32vf10x/bsp/gd32vf103_can.c ****             flag = SUCCESS;
 724:arch/riscv/mach-gd32vf10x/bsp/gd32vf103_can.c ****         }
 725:arch/riscv/mach-gd32vf10x/bsp/gd32vf103_can.c ****     }else{
 726:arch/riscv/mach-gd32vf10x/bsp/gd32vf103_can.c ****         flag = ERROR;
 1474              		.loc 1 726 14
 1475 0010 0145     		li	a0,0
 1476              	.LVL82:
 711:arch/riscv/mach-gd32vf10x/bsp/gd32vf103_can.c ****         /* disable initialize mode */
 1477              		.loc 1 711 13
 1478 0012 638FF504 		beq	a1,a5,.L138
 727:arch/riscv/mach-gd32vf10x/bsp/gd32vf103_can.c ****     }
 728:arch/riscv/mach-gd32vf10x/bsp/gd32vf103_can.c ****     return flag;
 729:arch/riscv/mach-gd32vf10x/bsp/gd32vf103_can.c **** }
 1479              		.loc 1 729 1
 1480 0016 8280     		ret
 1481              	.LVL83:
 1482              	.L137:
 701:arch/riscv/mach-gd32vf10x/bsp/gd32vf103_can.c ****         /* wait the acknowledge */
 1483              		.loc 1 701 9 is_stmt 1
 701:arch/riscv/mach-gd32vf10x/bsp/gd32vf103_can.c ****         /* wait the acknowledge */
 1484              		.loc 1 701 29 is_stmt 0
 1485 0018 1C41     		lw	a5,0(a0)
 703:arch/riscv/mach-gd32vf10x/bsp/gd32vf103_can.c ****             timeout--;
 1486              		.loc 1 703 23
 1487 001a 13064500 		addi	a2,a0,4
 701:arch/riscv/mach-gd32vf10x/bsp/gd32vf103_can.c ****         /* wait the acknowledge */
 1488              		.loc 1 701 29
 1489 001e F19B     		andi	a5,a5,-4
 1490 0020 1CC1     		sw	a5,0(a0)
 703:arch/riscv/mach-gd32vf10x/bsp/gd32vf103_can.c ****             timeout--;
 1491              		.loc 1 703 9 is_stmt 1
 703:arch/riscv/mach-gd32vf10x/bsp/gd32vf103_can.c ****             timeout--;
 1492              		.loc 1 703 23 is_stmt 0
 1493 0022 5C41     		lw	a5,4(a0)
 703:arch/riscv/mach-gd32vf10x/bsp/gd32vf103_can.c ****             timeout--;
 1494              		.loc 1 703 44
 1495 0024 8D8B     		andi	a5,a5,3
 703:arch/riscv/mach-gd32vf10x/bsp/gd32vf103_can.c ****             timeout--;
 1496              		.loc 1 703 14
 1497 0026 89CB     		beq	a5,zero,.L122
 1498 0028 4167     		li	a4,65536
 1499 002a 7D17     		addi	a4,a4,-1
 1500 002c 11A0     		j	.L123
 1501              	.LVL84:
 1502              	.L139:
 703:arch/riscv/mach-gd32vf10x/bsp/gd32vf103_can.c ****             timeout--;
 1503              		.loc 1 703 80 discriminator 1
 1504 002e 09C7     		beq	a4,zero,.L122
GAS LISTING C:\Users\test\AppData\Local\Temp\ccA0cEyS.s 			page 44


 1505              	.LVL85:
 1506              	.L123:
 704:arch/riscv/mach-gd32vf10x/bsp/gd32vf103_can.c ****         }
 1507              		.loc 1 704 13 is_stmt 1
 703:arch/riscv/mach-gd32vf10x/bsp/gd32vf103_can.c ****             timeout--;
 1508              		.loc 1 703 23 is_stmt 0
 1509 0030 1C42     		lw	a5,0(a2)
 1510 0032 7D17     		addi	a4,a4,-1
 1511              	.LVL86:
 703:arch/riscv/mach-gd32vf10x/bsp/gd32vf103_can.c ****             timeout--;
 1512              		.loc 1 703 44
 1513 0034 8D8B     		andi	a5,a5,3
 703:arch/riscv/mach-gd32vf10x/bsp/gd32vf103_can.c ****             timeout--;
 1514              		.loc 1 703 14
 1515 0036 E5FF     		bne	a5,zero,.L139
 1516              	.LVL87:
 1517              	.L122:
 706:arch/riscv/mach-gd32vf10x/bsp/gd32vf103_can.c ****             flag = ERROR;
 1518              		.loc 1 706 9 is_stmt 1
 706:arch/riscv/mach-gd32vf10x/bsp/gd32vf103_can.c ****             flag = ERROR;
 1519              		.loc 1 706 19 is_stmt 0
 1520 0038 C842     		lw	a0,4(a3)
 1521              	.LVL88:
 706:arch/riscv/mach-gd32vf10x/bsp/gd32vf103_can.c ****             flag = ERROR;
 1522              		.loc 1 706 40
 1523 003a 0D89     		andi	a0,a0,3
 706:arch/riscv/mach-gd32vf10x/bsp/gd32vf103_can.c ****             flag = ERROR;
 1524              		.loc 1 706 11
 1525 003c 13351500 		seqz	a0,a0
 1526 0040 8280     		ret
 1527              	.LVL89:
 1528              	.L136:
 687:arch/riscv/mach-gd32vf10x/bsp/gd32vf103_can.c ****         /* set initialize mode */
 1529              		.loc 1 687 9 is_stmt 1
 687:arch/riscv/mach-gd32vf10x/bsp/gd32vf103_can.c ****         /* set initialize mode */
 1530              		.loc 1 687 29 is_stmt 0
 1531 0042 1C41     		lw	a5,0(a0)
 691:arch/riscv/mach-gd32vf10x/bsp/gd32vf103_can.c ****             timeout--;
 1532              		.loc 1 691 33
 1533 0044 13064500 		addi	a2,a0,4
 687:arch/riscv/mach-gd32vf10x/bsp/gd32vf103_can.c ****         /* set initialize mode */
 1534              		.loc 1 687 29
 1535 0048 F59B     		andi	a5,a5,-3
 1536 004a 1CC1     		sw	a5,0(a0)
 689:arch/riscv/mach-gd32vf10x/bsp/gd32vf103_can.c ****         /* wait the acknowledge */
 1537              		.loc 1 689 9 is_stmt 1
 689:arch/riscv/mach-gd32vf10x/bsp/gd32vf103_can.c ****         /* wait the acknowledge */
 1538              		.loc 1 689 29 is_stmt 0
 1539 004c 1C41     		lw	a5,0(a0)
 1540 004e 93E71700 		ori	a5,a5,1
 1541 0052 1CC1     		sw	a5,0(a0)
 691:arch/riscv/mach-gd32vf10x/bsp/gd32vf103_can.c ****             timeout--;
 1542              		.loc 1 691 9 is_stmt 1
 691:arch/riscv/mach-gd32vf10x/bsp/gd32vf103_can.c ****             timeout--;
 1543              		.loc 1 691 33 is_stmt 0
 1544 0054 5C41     		lw	a5,4(a0)
 691:arch/riscv/mach-gd32vf10x/bsp/gd32vf103_can.c ****             timeout--;
GAS LISTING C:\Users\test\AppData\Local\Temp\ccA0cEyS.s 			page 45


 1545              		.loc 1 691 54
 1546 0056 858B     		andi	a5,a5,1
 691:arch/riscv/mach-gd32vf10x/bsp/gd32vf103_can.c ****             timeout--;
 1547              		.loc 1 691 14
 1548 0058 89EB     		bne	a5,zero,.L118
 1549 005a 4167     		li	a4,65536
 1550 005c 7D17     		addi	a4,a4,-1
 1551 005e 11A0     		j	.L119
 1552              	.LVL90:
 1553              	.L140:
 691:arch/riscv/mach-gd32vf10x/bsp/gd32vf103_can.c ****             timeout--;
 1554              		.loc 1 691 71 discriminator 1
 1555 0060 09C7     		beq	a4,zero,.L118
 1556              	.LVL91:
 1557              	.L119:
 692:arch/riscv/mach-gd32vf10x/bsp/gd32vf103_can.c ****         }
 1558              		.loc 1 692 13 is_stmt 1
 691:arch/riscv/mach-gd32vf10x/bsp/gd32vf103_can.c ****             timeout--;
 1559              		.loc 1 691 33 is_stmt 0
 1560 0062 1C42     		lw	a5,0(a2)
 1561 0064 7D17     		addi	a4,a4,-1
 1562              	.LVL92:
 691:arch/riscv/mach-gd32vf10x/bsp/gd32vf103_can.c ****             timeout--;
 1563              		.loc 1 691 54
 1564 0066 858B     		andi	a5,a5,1
 691:arch/riscv/mach-gd32vf10x/bsp/gd32vf103_can.c ****             timeout--;
 1565              		.loc 1 691 14
 1566 0068 E5DF     		beq	a5,zero,.L140
 1567              	.LVL93:
 1568              	.L118:
 694:arch/riscv/mach-gd32vf10x/bsp/gd32vf103_can.c ****             flag = ERROR;
 1569              		.loc 1 694 9 is_stmt 1
 694:arch/riscv/mach-gd32vf10x/bsp/gd32vf103_can.c ****             flag = ERROR;
 1570              		.loc 1 694 29 is_stmt 0
 1571 006a C842     		lw	a0,4(a3)
 1572              	.LVL94:
 1573 006c 0589     		andi	a0,a0,1
 1574 006e 8280     		ret
 1575              	.LVL95:
 1576              	.L138:
 713:arch/riscv/mach-gd32vf10x/bsp/gd32vf103_can.c ****         /* set sleep mode */
 1577              		.loc 1 713 9 is_stmt 1
 713:arch/riscv/mach-gd32vf10x/bsp/gd32vf103_can.c ****         /* set sleep mode */
 1578              		.loc 1 713 29 is_stmt 0
 1579 0070 9C42     		lw	a5,0(a3)
 717:arch/riscv/mach-gd32vf10x/bsp/gd32vf103_can.c ****             timeout--;
 1580              		.loc 1 717 35
 1581 0072 13864600 		addi	a2,a3,4
 713:arch/riscv/mach-gd32vf10x/bsp/gd32vf103_can.c ****         /* set sleep mode */
 1582              		.loc 1 713 29
 1583 0076 F99B     		andi	a5,a5,-2
 1584 0078 9CC2     		sw	a5,0(a3)
 715:arch/riscv/mach-gd32vf10x/bsp/gd32vf103_can.c ****         /* wait the acknowledge */
 1585              		.loc 1 715 9 is_stmt 1
 715:arch/riscv/mach-gd32vf10x/bsp/gd32vf103_can.c ****         /* wait the acknowledge */
 1586              		.loc 1 715 29 is_stmt 0
 1587 007a 9C42     		lw	a5,0(a3)
GAS LISTING C:\Users\test\AppData\Local\Temp\ccA0cEyS.s 			page 46


 1588 007c 93E72700 		ori	a5,a5,2
 1589 0080 9CC2     		sw	a5,0(a3)
 717:arch/riscv/mach-gd32vf10x/bsp/gd32vf103_can.c ****             timeout--;
 1590              		.loc 1 717 9 is_stmt 1
 717:arch/riscv/mach-gd32vf10x/bsp/gd32vf103_can.c ****             timeout--;
 1591              		.loc 1 717 35 is_stmt 0
 1592 0082 DC42     		lw	a5,4(a3)
 717:arch/riscv/mach-gd32vf10x/bsp/gd32vf103_can.c ****             timeout--;
 1593              		.loc 1 717 56
 1594 0084 898B     		andi	a5,a5,2
 717:arch/riscv/mach-gd32vf10x/bsp/gd32vf103_can.c ****             timeout--;
 1595              		.loc 1 717 14
 1596 0086 89EB     		bne	a5,zero,.L124
 1597 0088 4167     		li	a4,65536
 1598 008a 7D17     		addi	a4,a4,-1
 1599 008c 11A0     		j	.L125
 1600              	.LVL96:
 1601              	.L141:
 717:arch/riscv/mach-gd32vf10x/bsp/gd32vf103_can.c ****             timeout--;
 1602              		.loc 1 717 75 discriminator 1
 1603 008e 09C7     		beq	a4,zero,.L124
 1604              	.LVL97:
 1605              	.L125:
 718:arch/riscv/mach-gd32vf10x/bsp/gd32vf103_can.c ****         }
 1606              		.loc 1 718 13 is_stmt 1
 717:arch/riscv/mach-gd32vf10x/bsp/gd32vf103_can.c ****             timeout--;
 1607              		.loc 1 717 35 is_stmt 0
 1608 0090 1C42     		lw	a5,0(a2)
 1609 0092 7D17     		addi	a4,a4,-1
 1610              	.LVL98:
 717:arch/riscv/mach-gd32vf10x/bsp/gd32vf103_can.c ****             timeout--;
 1611              		.loc 1 717 56
 1612 0094 898B     		andi	a5,a5,2
 717:arch/riscv/mach-gd32vf10x/bsp/gd32vf103_can.c ****             timeout--;
 1613              		.loc 1 717 14
 1614 0096 E5DF     		beq	a5,zero,.L141
 1615              	.LVL99:
 1616              	.L124:
 720:arch/riscv/mach-gd32vf10x/bsp/gd32vf103_can.c ****             flag = ERROR;
 1617              		.loc 1 720 9 is_stmt 1
 720:arch/riscv/mach-gd32vf10x/bsp/gd32vf103_can.c ****             flag = ERROR;
 1618              		.loc 1 720 31 is_stmt 0
 1619 0098 C842     		lw	a0,4(a3)
 720:arch/riscv/mach-gd32vf10x/bsp/gd32vf103_can.c ****             flag = ERROR;
 1620              		.loc 1 720 11
 1621 009a 0581     		srli	a0,a0,1
 1622 009c 0589     		andi	a0,a0,1
 1623              		.loc 1 729 1
 1624 009e 8280     		ret
 1625              		.cfi_endproc
 1626              	.LFE17:
 1628              		.section	.text.can_wakeup,"ax",@progbits
 1629              		.align	1
 1630              		.globl	can_wakeup
 1632              	can_wakeup:
 1633              	.LFB18:
 730:arch/riscv/mach-gd32vf10x/bsp/gd32vf103_can.c **** 
GAS LISTING C:\Users\test\AppData\Local\Temp\ccA0cEyS.s 			page 47


 731:arch/riscv/mach-gd32vf10x/bsp/gd32vf103_can.c **** /*!
 732:arch/riscv/mach-gd32vf10x/bsp/gd32vf103_can.c ****     \brief      wake up CAN
 733:arch/riscv/mach-gd32vf10x/bsp/gd32vf103_can.c ****     \param[in]  can_periph
 734:arch/riscv/mach-gd32vf10x/bsp/gd32vf103_can.c ****       \arg        CANx(x=0,1)
 735:arch/riscv/mach-gd32vf10x/bsp/gd32vf103_can.c ****     \param[out] none
 736:arch/riscv/mach-gd32vf10x/bsp/gd32vf103_can.c ****     \retval     ErrStatus: SUCCESS or ERROR
 737:arch/riscv/mach-gd32vf10x/bsp/gd32vf103_can.c **** */
 738:arch/riscv/mach-gd32vf10x/bsp/gd32vf103_can.c **** ErrStatus can_wakeup(uint32_t can_periph)
 739:arch/riscv/mach-gd32vf10x/bsp/gd32vf103_can.c **** {
 1634              		.loc 1 739 1 is_stmt 1
 1635              		.cfi_startproc
 1636              	.LVL100:
 740:arch/riscv/mach-gd32vf10x/bsp/gd32vf103_can.c ****     ErrStatus flag = ERROR;
 1637              		.loc 1 740 5
 741:arch/riscv/mach-gd32vf10x/bsp/gd32vf103_can.c ****     uint32_t timeout = CAN_TIMEOUT;
 1638              		.loc 1 741 5
 742:arch/riscv/mach-gd32vf10x/bsp/gd32vf103_can.c ****     
 743:arch/riscv/mach-gd32vf10x/bsp/gd32vf103_can.c ****     /* wakeup */
 744:arch/riscv/mach-gd32vf10x/bsp/gd32vf103_can.c ****     CAN_CTL(can_periph) &= ~CAN_CTL_SLPWMOD;
 1639              		.loc 1 744 5
 1640              		.loc 1 744 25 is_stmt 0
 1641 0000 1C41     		lw	a5,0(a0)
 745:arch/riscv/mach-gd32vf10x/bsp/gd32vf103_can.c ****     
 746:arch/riscv/mach-gd32vf10x/bsp/gd32vf103_can.c ****     while((0U != (CAN_STAT(can_periph) & CAN_STAT_SLPWS)) && (0x00U != timeout)){
 1642              		.loc 1 746 19
 1643 0002 93064500 		addi	a3,a0,4
 744:arch/riscv/mach-gd32vf10x/bsp/gd32vf103_can.c ****     
 1644              		.loc 1 744 25
 1645 0006 F59B     		andi	a5,a5,-3
 1646 0008 1CC1     		sw	a5,0(a0)
 1647              		.loc 1 746 5 is_stmt 1
 1648              		.loc 1 746 19 is_stmt 0
 1649 000a 5C41     		lw	a5,4(a0)
 1650              		.loc 1 746 40
 1651 000c 898B     		andi	a5,a5,2
 1652              		.loc 1 746 10
 1653 000e 89CB     		beq	a5,zero,.L143
 1654 0010 4167     		li	a4,65536
 1655 0012 7D17     		addi	a4,a4,-1
 1656 0014 11A0     		j	.L144
 1657              	.LVL101:
 1658              	.L152:
 1659              		.loc 1 746 59 discriminator 1
 1660 0016 09C7     		beq	a4,zero,.L143
 1661              	.LVL102:
 1662              	.L144:
 747:arch/riscv/mach-gd32vf10x/bsp/gd32vf103_can.c ****         timeout--;
 1663              		.loc 1 747 9 is_stmt 1
 746:arch/riscv/mach-gd32vf10x/bsp/gd32vf103_can.c ****         timeout--;
 1664              		.loc 1 746 19 is_stmt 0
 1665 0018 9C42     		lw	a5,0(a3)
 1666 001a 7D17     		addi	a4,a4,-1
 1667              	.LVL103:
 746:arch/riscv/mach-gd32vf10x/bsp/gd32vf103_can.c ****         timeout--;
 1668              		.loc 1 746 40
 1669 001c 898B     		andi	a5,a5,2
 746:arch/riscv/mach-gd32vf10x/bsp/gd32vf103_can.c ****         timeout--;
GAS LISTING C:\Users\test\AppData\Local\Temp\ccA0cEyS.s 			page 48


 1670              		.loc 1 746 10
 1671 001e E5FF     		bne	a5,zero,.L152
 1672              	.LVL104:
 1673              	.L143:
 748:arch/riscv/mach-gd32vf10x/bsp/gd32vf103_can.c ****     }
 749:arch/riscv/mach-gd32vf10x/bsp/gd32vf103_can.c ****     /* check state */
 750:arch/riscv/mach-gd32vf10x/bsp/gd32vf103_can.c ****     if(0U != (CAN_STAT(can_periph) & CAN_STAT_SLPWS)){
 1674              		.loc 1 750 5 is_stmt 1
 1675              		.loc 1 750 15 is_stmt 0
 1676 0020 4841     		lw	a0,4(a0)
 1677              	.LVL105:
 751:arch/riscv/mach-gd32vf10x/bsp/gd32vf103_can.c ****         flag = ERROR;
 752:arch/riscv/mach-gd32vf10x/bsp/gd32vf103_can.c ****     }else{
 753:arch/riscv/mach-gd32vf10x/bsp/gd32vf103_can.c ****         flag = SUCCESS;
 754:arch/riscv/mach-gd32vf10x/bsp/gd32vf103_can.c ****     }
 755:arch/riscv/mach-gd32vf10x/bsp/gd32vf103_can.c ****     return flag;
 1678              		.loc 1 755 5 is_stmt 1
 750:arch/riscv/mach-gd32vf10x/bsp/gd32vf103_can.c ****         flag = ERROR;
 1679              		.loc 1 750 7 is_stmt 0
 1680 0022 0581     		srli	a0,a0,1
 1681              	.LVL106:
 1682 0024 13451500 		xori	a0,a0,1
 756:arch/riscv/mach-gd32vf10x/bsp/gd32vf103_can.c **** }
 1683              		.loc 1 756 1
 1684 0028 0589     		andi	a0,a0,1
 1685 002a 8280     		ret
 1686              		.cfi_endproc
 1687              	.LFE18:
 1689              		.section	.text.can_error_get,"ax",@progbits
 1690              		.align	1
 1691              		.globl	can_error_get
 1693              	can_error_get:
 1694              	.LFB19:
 757:arch/riscv/mach-gd32vf10x/bsp/gd32vf103_can.c **** 
 758:arch/riscv/mach-gd32vf10x/bsp/gd32vf103_can.c **** /*!
 759:arch/riscv/mach-gd32vf10x/bsp/gd32vf103_can.c ****     \brief      get CAN error type
 760:arch/riscv/mach-gd32vf10x/bsp/gd32vf103_can.c ****     \param[in]  can_periph
 761:arch/riscv/mach-gd32vf10x/bsp/gd32vf103_can.c ****       \arg        CANx(x=0,1)
 762:arch/riscv/mach-gd32vf10x/bsp/gd32vf103_can.c ****     \param[out] none
 763:arch/riscv/mach-gd32vf10x/bsp/gd32vf103_can.c ****     \retval     can_error_enum
 764:arch/riscv/mach-gd32vf10x/bsp/gd32vf103_can.c ****       \arg        CAN_ERROR_NONE: no error
 765:arch/riscv/mach-gd32vf10x/bsp/gd32vf103_can.c ****       \arg        CAN_ERROR_FILL: fill error
 766:arch/riscv/mach-gd32vf10x/bsp/gd32vf103_can.c ****       \arg        CAN_ERROR_FORMATE: format error
 767:arch/riscv/mach-gd32vf10x/bsp/gd32vf103_can.c ****       \arg        CAN_ERROR_ACK: ACK error
 768:arch/riscv/mach-gd32vf10x/bsp/gd32vf103_can.c ****       \arg        CAN_ERROR_BITRECESSIVE: bit recessive
 769:arch/riscv/mach-gd32vf10x/bsp/gd32vf103_can.c ****       \arg        CAN_ERROR_BITDOMINANTER: bit dominant error
 770:arch/riscv/mach-gd32vf10x/bsp/gd32vf103_can.c ****       \arg        CAN_ERROR_CRC: CRC error
 771:arch/riscv/mach-gd32vf10x/bsp/gd32vf103_can.c ****       \arg        CAN_ERROR_SOFTWARECFG: software configure
 772:arch/riscv/mach-gd32vf10x/bsp/gd32vf103_can.c **** */
 773:arch/riscv/mach-gd32vf10x/bsp/gd32vf103_can.c **** can_error_enum can_error_get(uint32_t can_periph)
 774:arch/riscv/mach-gd32vf10x/bsp/gd32vf103_can.c **** {
 1695              		.loc 1 774 1 is_stmt 1
 1696              		.cfi_startproc
 1697              	.LVL107:
 775:arch/riscv/mach-gd32vf10x/bsp/gd32vf103_can.c ****     can_error_enum error;
 1698              		.loc 1 775 5
 776:arch/riscv/mach-gd32vf10x/bsp/gd32vf103_can.c ****     error = CAN_ERROR_NONE;
GAS LISTING C:\Users\test\AppData\Local\Temp\ccA0cEyS.s 			page 49


 1699              		.loc 1 776 5
 777:arch/riscv/mach-gd32vf10x/bsp/gd32vf103_can.c ****     
 778:arch/riscv/mach-gd32vf10x/bsp/gd32vf103_can.c ****     /* get error type */
 779:arch/riscv/mach-gd32vf10x/bsp/gd32vf103_can.c ****     error = (can_error_enum)(GET_ERR_ERRN(CAN_ERR(can_periph)));
 1700              		.loc 1 779 5
 1701              		.loc 1 779 30 is_stmt 0
 1702 0000 084D     		lw	a0,24(a0)
 1703              	.LVL108:
 780:arch/riscv/mach-gd32vf10x/bsp/gd32vf103_can.c ****     return error;
 1704              		.loc 1 780 5 is_stmt 1
 779:arch/riscv/mach-gd32vf10x/bsp/gd32vf103_can.c ****     return error;
 1705              		.loc 1 779 30 is_stmt 0
 1706 0002 1181     		srli	a0,a0,4
 1707              	.LVL109:
 781:arch/riscv/mach-gd32vf10x/bsp/gd32vf103_can.c **** }
 1708              		.loc 1 781 1
 1709 0004 1D89     		andi	a0,a0,7
 1710              	.LVL110:
 1711 0006 8280     		ret
 1712              		.cfi_endproc
 1713              	.LFE19:
 1715              		.section	.text.can_receive_error_number_get,"ax",@progbits
 1716              		.align	1
 1717              		.globl	can_receive_error_number_get
 1719              	can_receive_error_number_get:
 1720              	.LFB20:
 782:arch/riscv/mach-gd32vf10x/bsp/gd32vf103_can.c **** 
 783:arch/riscv/mach-gd32vf10x/bsp/gd32vf103_can.c **** /*!
 784:arch/riscv/mach-gd32vf10x/bsp/gd32vf103_can.c ****     \brief      get CAN receive error number
 785:arch/riscv/mach-gd32vf10x/bsp/gd32vf103_can.c ****     \param[in]  can_periph
 786:arch/riscv/mach-gd32vf10x/bsp/gd32vf103_can.c ****       \arg        CANx(x=0,1)
 787:arch/riscv/mach-gd32vf10x/bsp/gd32vf103_can.c ****     \param[out] none
 788:arch/riscv/mach-gd32vf10x/bsp/gd32vf103_can.c ****     \retval     error number
 789:arch/riscv/mach-gd32vf10x/bsp/gd32vf103_can.c **** */
 790:arch/riscv/mach-gd32vf10x/bsp/gd32vf103_can.c **** uint8_t can_receive_error_number_get(uint32_t can_periph)
 791:arch/riscv/mach-gd32vf10x/bsp/gd32vf103_can.c **** {
 1721              		.loc 1 791 1 is_stmt 1
 1722              		.cfi_startproc
 1723              	.LVL111:
 792:arch/riscv/mach-gd32vf10x/bsp/gd32vf103_can.c ****     uint8_t val;
 1724              		.loc 1 792 5
 793:arch/riscv/mach-gd32vf10x/bsp/gd32vf103_can.c ****     
 794:arch/riscv/mach-gd32vf10x/bsp/gd32vf103_can.c ****     /* get error count */
 795:arch/riscv/mach-gd32vf10x/bsp/gd32vf103_can.c ****     val = (uint8_t)(GET_ERR_RECNT(CAN_ERR(can_periph)));
 1725              		.loc 1 795 5
 1726              		.loc 1 795 21 is_stmt 0
 1727 0000 084D     		lw	a0,24(a0)
 1728              	.LVL112:
 796:arch/riscv/mach-gd32vf10x/bsp/gd32vf103_can.c ****     return val;
 1729              		.loc 1 796 5 is_stmt 1
 797:arch/riscv/mach-gd32vf10x/bsp/gd32vf103_can.c **** }
 1730              		.loc 1 797 1 is_stmt 0
 1731 0002 6181     		srli	a0,a0,24
 1732              	.LVL113:
 1733 0004 8280     		ret
 1734              		.cfi_endproc
 1735              	.LFE20:
GAS LISTING C:\Users\test\AppData\Local\Temp\ccA0cEyS.s 			page 50


 1737              		.section	.text.can_transmit_error_number_get,"ax",@progbits
 1738              		.align	1
 1739              		.globl	can_transmit_error_number_get
 1741              	can_transmit_error_number_get:
 1742              	.LFB21:
 798:arch/riscv/mach-gd32vf10x/bsp/gd32vf103_can.c **** 
 799:arch/riscv/mach-gd32vf10x/bsp/gd32vf103_can.c **** /*!
 800:arch/riscv/mach-gd32vf10x/bsp/gd32vf103_can.c ****     \brief      get CAN transmit error number
 801:arch/riscv/mach-gd32vf10x/bsp/gd32vf103_can.c ****     \param[in]  can_periph
 802:arch/riscv/mach-gd32vf10x/bsp/gd32vf103_can.c ****       \arg        CANx(x=0,1)
 803:arch/riscv/mach-gd32vf10x/bsp/gd32vf103_can.c ****     \param[out] none
 804:arch/riscv/mach-gd32vf10x/bsp/gd32vf103_can.c ****     \retval     error number
 805:arch/riscv/mach-gd32vf10x/bsp/gd32vf103_can.c **** */
 806:arch/riscv/mach-gd32vf10x/bsp/gd32vf103_can.c **** uint8_t can_transmit_error_number_get(uint32_t can_periph)
 807:arch/riscv/mach-gd32vf10x/bsp/gd32vf103_can.c **** {
 1743              		.loc 1 807 1 is_stmt 1
 1744              		.cfi_startproc
 1745              	.LVL114:
 808:arch/riscv/mach-gd32vf10x/bsp/gd32vf103_can.c ****     uint8_t val;
 1746              		.loc 1 808 5
 809:arch/riscv/mach-gd32vf10x/bsp/gd32vf103_can.c ****     
 810:arch/riscv/mach-gd32vf10x/bsp/gd32vf103_can.c ****     val = (uint8_t)(GET_ERR_TECNT(CAN_ERR(can_periph)));
 1747              		.loc 1 810 5
 1748              		.loc 1 810 21 is_stmt 0
 1749 0000 084D     		lw	a0,24(a0)
 1750              	.LVL115:
 811:arch/riscv/mach-gd32vf10x/bsp/gd32vf103_can.c ****     return val;
 1751              		.loc 1 811 5 is_stmt 1
 810:arch/riscv/mach-gd32vf10x/bsp/gd32vf103_can.c ****     return val;
 1752              		.loc 1 810 21 is_stmt 0
 1753 0002 4181     		srli	a0,a0,16
 1754              	.LVL116:
 812:arch/riscv/mach-gd32vf10x/bsp/gd32vf103_can.c **** }
 1755              		.loc 1 812 1
 1756 0004 1375F50F 		andi	a0,a0,0xff
 1757 0008 8280     		ret
 1758              		.cfi_endproc
 1759              	.LFE21:
 1761              		.section	.text.can_interrupt_enable,"ax",@progbits
 1762              		.align	1
 1763              		.globl	can_interrupt_enable
 1765              	can_interrupt_enable:
 1766              	.LFB22:
 813:arch/riscv/mach-gd32vf10x/bsp/gd32vf103_can.c **** 
 814:arch/riscv/mach-gd32vf10x/bsp/gd32vf103_can.c **** /*!
 815:arch/riscv/mach-gd32vf10x/bsp/gd32vf103_can.c ****     \brief      enable CAN interrupt 
 816:arch/riscv/mach-gd32vf10x/bsp/gd32vf103_can.c ****     \param[in]  can_periph
 817:arch/riscv/mach-gd32vf10x/bsp/gd32vf103_can.c ****       \arg        CANx(x=0,1)
 818:arch/riscv/mach-gd32vf10x/bsp/gd32vf103_can.c ****     \param[in]  interrupt 
 819:arch/riscv/mach-gd32vf10x/bsp/gd32vf103_can.c ****                 one or more parameters can be selected which are shown as below:
 820:arch/riscv/mach-gd32vf10x/bsp/gd32vf103_can.c ****       \arg        CAN_INT_TME: transmit mailbox empty interrupt enable
 821:arch/riscv/mach-gd32vf10x/bsp/gd32vf103_can.c ****       \arg        CAN_INT_RFNE0: receive FIFO0 not empty interrupt enable
 822:arch/riscv/mach-gd32vf10x/bsp/gd32vf103_can.c ****       \arg        CAN_INT_RFF0: receive FIFO0 full interrupt enable
 823:arch/riscv/mach-gd32vf10x/bsp/gd32vf103_can.c ****       \arg        CAN_INT_RFO0: receive FIFO0 overfull interrupt enable
 824:arch/riscv/mach-gd32vf10x/bsp/gd32vf103_can.c ****       \arg        CAN_INT_RFNE1: receive FIFO1 not empty interrupt enable
 825:arch/riscv/mach-gd32vf10x/bsp/gd32vf103_can.c ****       \arg        CAN_INT_RFF1: receive FIFO1 full interrupt enable
 826:arch/riscv/mach-gd32vf10x/bsp/gd32vf103_can.c ****       \arg        CAN_INT_RFO1: receive FIFO1 overfull interrupt enable
GAS LISTING C:\Users\test\AppData\Local\Temp\ccA0cEyS.s 			page 51


 827:arch/riscv/mach-gd32vf10x/bsp/gd32vf103_can.c ****       \arg        CAN_INT_WERR: warning error interrupt enable
 828:arch/riscv/mach-gd32vf10x/bsp/gd32vf103_can.c ****       \arg        CAN_INT_PERR: passive error interrupt enable
 829:arch/riscv/mach-gd32vf10x/bsp/gd32vf103_can.c ****       \arg        CAN_INT_BO: bus-off interrupt enable
 830:arch/riscv/mach-gd32vf10x/bsp/gd32vf103_can.c ****       \arg        CAN_INT_ERRN: error number interrupt enable
 831:arch/riscv/mach-gd32vf10x/bsp/gd32vf103_can.c ****       \arg        CAN_INT_ERR: error interrupt enable
 832:arch/riscv/mach-gd32vf10x/bsp/gd32vf103_can.c ****       \arg        CAN_INT_WU: wakeup interrupt enable
 833:arch/riscv/mach-gd32vf10x/bsp/gd32vf103_can.c ****       \arg        CAN_INT_SLPW: sleep working interrupt enable
 834:arch/riscv/mach-gd32vf10x/bsp/gd32vf103_can.c ****     \param[out] none
 835:arch/riscv/mach-gd32vf10x/bsp/gd32vf103_can.c ****     \retval     none
 836:arch/riscv/mach-gd32vf10x/bsp/gd32vf103_can.c **** */
 837:arch/riscv/mach-gd32vf10x/bsp/gd32vf103_can.c **** void can_interrupt_enable(uint32_t can_periph, uint32_t interrupt)
 838:arch/riscv/mach-gd32vf10x/bsp/gd32vf103_can.c **** {
 1767              		.loc 1 838 1 is_stmt 1
 1768              		.cfi_startproc
 1769              	.LVL117:
 839:arch/riscv/mach-gd32vf10x/bsp/gd32vf103_can.c ****     CAN_INTEN(can_periph) |= interrupt;
 1770              		.loc 1 839 5
 1771              		.loc 1 839 27 is_stmt 0
 1772 0000 5C49     		lw	a5,20(a0)
 1773 0002 DD8D     		or	a1,a5,a1
 1774              	.LVL118:
 1775 0004 4CC9     		sw	a1,20(a0)
 840:arch/riscv/mach-gd32vf10x/bsp/gd32vf103_can.c **** }
 1776              		.loc 1 840 1
 1777 0006 8280     		ret
 1778              		.cfi_endproc
 1779              	.LFE22:
 1781              		.section	.text.can_interrupt_disable,"ax",@progbits
 1782              		.align	1
 1783              		.globl	can_interrupt_disable
 1785              	can_interrupt_disable:
 1786              	.LFB23:
 841:arch/riscv/mach-gd32vf10x/bsp/gd32vf103_can.c **** 
 842:arch/riscv/mach-gd32vf10x/bsp/gd32vf103_can.c **** /*!
 843:arch/riscv/mach-gd32vf10x/bsp/gd32vf103_can.c ****     \brief      disable CAN interrupt 
 844:arch/riscv/mach-gd32vf10x/bsp/gd32vf103_can.c ****     \param[in]  can_periph
 845:arch/riscv/mach-gd32vf10x/bsp/gd32vf103_can.c ****       \arg        CANx(x=0,1)
 846:arch/riscv/mach-gd32vf10x/bsp/gd32vf103_can.c ****     \param[in]  interrupt
 847:arch/riscv/mach-gd32vf10x/bsp/gd32vf103_can.c ****                 one or more parameters can be selected which are shown as below:
 848:arch/riscv/mach-gd32vf10x/bsp/gd32vf103_can.c ****       \arg        CAN_INT_TME: transmit mailbox empty interrupt enable
 849:arch/riscv/mach-gd32vf10x/bsp/gd32vf103_can.c ****       \arg        CAN_INT_RFNE0: receive FIFO0 not empty interrupt enable
 850:arch/riscv/mach-gd32vf10x/bsp/gd32vf103_can.c ****       \arg        CAN_INT_RFF0: receive FIFO0 full interrupt enable
 851:arch/riscv/mach-gd32vf10x/bsp/gd32vf103_can.c ****       \arg        CAN_INT_RFO0: receive FIFO0 overfull interrupt enable
 852:arch/riscv/mach-gd32vf10x/bsp/gd32vf103_can.c ****       \arg        CAN_INT_RFNE1: receive FIFO1 not empty interrupt enable
 853:arch/riscv/mach-gd32vf10x/bsp/gd32vf103_can.c ****       \arg        CAN_INT_RFF1: receive FIFO1 full interrupt enable
 854:arch/riscv/mach-gd32vf10x/bsp/gd32vf103_can.c ****       \arg        CAN_INT_RFO1: receive FIFO1 overfull interrupt enable
 855:arch/riscv/mach-gd32vf10x/bsp/gd32vf103_can.c ****       \arg        CAN_INT_WERR: warning error interrupt enable
 856:arch/riscv/mach-gd32vf10x/bsp/gd32vf103_can.c ****       \arg        CAN_INT_PERR: passive error interrupt enable
 857:arch/riscv/mach-gd32vf10x/bsp/gd32vf103_can.c ****       \arg        CAN_INT_BO: bus-off interrupt enable
 858:arch/riscv/mach-gd32vf10x/bsp/gd32vf103_can.c ****       \arg        CAN_INT_ERRN: error number interrupt enable
 859:arch/riscv/mach-gd32vf10x/bsp/gd32vf103_can.c ****       \arg        CAN_INT_ERR: error interrupt enable
 860:arch/riscv/mach-gd32vf10x/bsp/gd32vf103_can.c ****       \arg        CAN_INT_WU: wakeup interrupt enable
 861:arch/riscv/mach-gd32vf10x/bsp/gd32vf103_can.c ****       \arg        CAN_INT_SLPW: sleep working interrupt enable
 862:arch/riscv/mach-gd32vf10x/bsp/gd32vf103_can.c ****     \param[out] none
 863:arch/riscv/mach-gd32vf10x/bsp/gd32vf103_can.c ****     \retval     none
 864:arch/riscv/mach-gd32vf10x/bsp/gd32vf103_can.c **** */
 865:arch/riscv/mach-gd32vf10x/bsp/gd32vf103_can.c **** void can_interrupt_disable(uint32_t can_periph, uint32_t interrupt)
GAS LISTING C:\Users\test\AppData\Local\Temp\ccA0cEyS.s 			page 52


 866:arch/riscv/mach-gd32vf10x/bsp/gd32vf103_can.c **** {
 1787              		.loc 1 866 1 is_stmt 1
 1788              		.cfi_startproc
 1789              	.LVL119:
 867:arch/riscv/mach-gd32vf10x/bsp/gd32vf103_can.c ****     CAN_INTEN(can_periph) &= ~interrupt;
 1790              		.loc 1 867 5
 1791              		.loc 1 867 27 is_stmt 0
 1792 0000 5C49     		lw	a5,20(a0)
 1793              		.loc 1 867 30
 1794 0002 93C5F5FF 		not	a1,a1
 1795              	.LVL120:
 1796              		.loc 1 867 27
 1797 0006 FD8D     		and	a1,a1,a5
 1798              	.LVL121:
 1799 0008 4CC9     		sw	a1,20(a0)
 868:arch/riscv/mach-gd32vf10x/bsp/gd32vf103_can.c **** }
 1800              		.loc 1 868 1
 1801 000a 8280     		ret
 1802              		.cfi_endproc
 1803              	.LFE23:
 1805              		.section	.text.can_flag_get,"ax",@progbits
 1806              		.align	1
 1807              		.globl	can_flag_get
 1809              	can_flag_get:
 1810              	.LFB24:
 869:arch/riscv/mach-gd32vf10x/bsp/gd32vf103_can.c **** 
 870:arch/riscv/mach-gd32vf10x/bsp/gd32vf103_can.c **** /*!
 871:arch/riscv/mach-gd32vf10x/bsp/gd32vf103_can.c ****     \brief      get CAN flag state
 872:arch/riscv/mach-gd32vf10x/bsp/gd32vf103_can.c ****     \param[in]  can_periph
 873:arch/riscv/mach-gd32vf10x/bsp/gd32vf103_can.c ****       \arg        CANx(x=0,1)
 874:arch/riscv/mach-gd32vf10x/bsp/gd32vf103_can.c ****     \param[in]  flag: CAN flags, refer to can_flag_enum
 875:arch/riscv/mach-gd32vf10x/bsp/gd32vf103_can.c ****                 only one parameter can be selected which is shown as below:
 876:arch/riscv/mach-gd32vf10x/bsp/gd32vf103_can.c ****       \arg        CAN_FLAG_MTE2: mailbox 2 transmit error
 877:arch/riscv/mach-gd32vf10x/bsp/gd32vf103_can.c ****       \arg        CAN_FLAG_MTE1: mailbox 1 transmit error
 878:arch/riscv/mach-gd32vf10x/bsp/gd32vf103_can.c ****       \arg        CAN_FLAG_MTE0: mailbox 0 transmit error
 879:arch/riscv/mach-gd32vf10x/bsp/gd32vf103_can.c ****       \arg        CAN_FLAG_MTF2: mailbox 2 transmit finished
 880:arch/riscv/mach-gd32vf10x/bsp/gd32vf103_can.c ****       \arg        CAN_FLAG_MTF1: mailbox 1 transmit finished
 881:arch/riscv/mach-gd32vf10x/bsp/gd32vf103_can.c ****       \arg        CAN_FLAG_MTF0: mailbox 0 transmit finished
 882:arch/riscv/mach-gd32vf10x/bsp/gd32vf103_can.c ****       \arg        CAN_FLAG_RFO0: receive FIFO0 overfull
 883:arch/riscv/mach-gd32vf10x/bsp/gd32vf103_can.c ****       \arg        CAN_FLAG_RFF0: receive FIFO0 full
 884:arch/riscv/mach-gd32vf10x/bsp/gd32vf103_can.c ****       \arg        CAN_FLAG_RFO1: receive FIFO1 overfull
 885:arch/riscv/mach-gd32vf10x/bsp/gd32vf103_can.c ****       \arg        CAN_FLAG_RFF1: receive FIFO1 full
 886:arch/riscv/mach-gd32vf10x/bsp/gd32vf103_can.c ****       \arg        CAN_FLAG_BOERR: bus-off error
 887:arch/riscv/mach-gd32vf10x/bsp/gd32vf103_can.c ****       \arg        CAN_FLAG_PERR: passive error
 888:arch/riscv/mach-gd32vf10x/bsp/gd32vf103_can.c ****       \arg        CAN_FLAG_WERR: warning error
 889:arch/riscv/mach-gd32vf10x/bsp/gd32vf103_can.c ****     \param[out] none
 890:arch/riscv/mach-gd32vf10x/bsp/gd32vf103_can.c ****     \retval     FlagStatus: SET or RESET
 891:arch/riscv/mach-gd32vf10x/bsp/gd32vf103_can.c **** */
 892:arch/riscv/mach-gd32vf10x/bsp/gd32vf103_can.c **** FlagStatus can_flag_get(uint32_t can_periph, can_flag_enum flag)
 893:arch/riscv/mach-gd32vf10x/bsp/gd32vf103_can.c **** {  
 1811              		.loc 1 893 1 is_stmt 1
 1812              		.cfi_startproc
 1813              	.LVL122:
 894:arch/riscv/mach-gd32vf10x/bsp/gd32vf103_can.c ****     /* get flag and interrupt enable state */
 895:arch/riscv/mach-gd32vf10x/bsp/gd32vf103_can.c ****     if(RESET != (CAN_REG_VAL(can_periph, flag) & BIT(CAN_BIT_POS(flag)))){
 1814              		.loc 1 895 5
 1815              		.loc 1 895 18 is_stmt 0
GAS LISTING C:\Users\test\AppData\Local\Temp\ccA0cEyS.s 			page 53


 1816 0000 93D76500 		srli	a5,a1,6
 1817 0004 3E95     		add	a0,a5,a0
 1818              	.LVL123:
 1819 0006 0841     		lw	a0,0(a0)
 1820              		.loc 1 895 14
 1821 0008 3355B500 		srl	a0,a0,a1
 896:arch/riscv/mach-gd32vf10x/bsp/gd32vf103_can.c ****         return SET;
 897:arch/riscv/mach-gd32vf10x/bsp/gd32vf103_can.c ****     }else{
 898:arch/riscv/mach-gd32vf10x/bsp/gd32vf103_can.c ****         return RESET;
 899:arch/riscv/mach-gd32vf10x/bsp/gd32vf103_can.c ****     }
 900:arch/riscv/mach-gd32vf10x/bsp/gd32vf103_can.c **** }
 1822              		.loc 1 900 1
 1823 000c 0589     		andi	a0,a0,1
 1824 000e 8280     		ret
 1825              		.cfi_endproc
 1826              	.LFE24:
 1828              		.section	.text.can_flag_clear,"ax",@progbits
 1829              		.align	1
 1830              		.globl	can_flag_clear
 1832              	can_flag_clear:
 1833              	.LFB25:
 901:arch/riscv/mach-gd32vf10x/bsp/gd32vf103_can.c **** 
 902:arch/riscv/mach-gd32vf10x/bsp/gd32vf103_can.c **** /*!
 903:arch/riscv/mach-gd32vf10x/bsp/gd32vf103_can.c ****     \brief      clear CAN flag state
 904:arch/riscv/mach-gd32vf10x/bsp/gd32vf103_can.c ****     \param[in]  can_periph
 905:arch/riscv/mach-gd32vf10x/bsp/gd32vf103_can.c ****       \arg        CANx(x=0,1)
 906:arch/riscv/mach-gd32vf10x/bsp/gd32vf103_can.c ****     \param[in]  flag: CAN flags, refer to can_flag_enum
 907:arch/riscv/mach-gd32vf10x/bsp/gd32vf103_can.c ****                 only one parameter can be selected which is shown as below:
 908:arch/riscv/mach-gd32vf10x/bsp/gd32vf103_can.c ****       \arg        CAN_FLAG_MTE2: mailbox 2 transmit error
 909:arch/riscv/mach-gd32vf10x/bsp/gd32vf103_can.c ****       \arg        CAN_FLAG_MTE1: mailbox 1 transmit error
 910:arch/riscv/mach-gd32vf10x/bsp/gd32vf103_can.c ****       \arg        CAN_FLAG_MTE0: mailbox 0 transmit error
 911:arch/riscv/mach-gd32vf10x/bsp/gd32vf103_can.c ****       \arg        CAN_FLAG_MTF2: mailbox 2 transmit finished
 912:arch/riscv/mach-gd32vf10x/bsp/gd32vf103_can.c ****       \arg        CAN_FLAG_MTF1: mailbox 1 transmit finished
 913:arch/riscv/mach-gd32vf10x/bsp/gd32vf103_can.c ****       \arg        CAN_FLAG_MTF0: mailbox 0 transmit finished
 914:arch/riscv/mach-gd32vf10x/bsp/gd32vf103_can.c ****       \arg        CAN_FLAG_RFO0: receive FIFO0 overfull
 915:arch/riscv/mach-gd32vf10x/bsp/gd32vf103_can.c ****       \arg        CAN_FLAG_RFF0: receive FIFO0 full
 916:arch/riscv/mach-gd32vf10x/bsp/gd32vf103_can.c ****       \arg        CAN_FLAG_RFO1: receive FIFO1 overfull
 917:arch/riscv/mach-gd32vf10x/bsp/gd32vf103_can.c ****       \arg        CAN_FLAG_RFF1: receive FIFO1 full
 918:arch/riscv/mach-gd32vf10x/bsp/gd32vf103_can.c ****       \arg		  CAN_FLAG_BOERR: bus-off error
 919:arch/riscv/mach-gd32vf10x/bsp/gd32vf103_can.c **** 	  \arg		  CAN_FLAG_PERR: passive error
 920:arch/riscv/mach-gd32vf10x/bsp/gd32vf103_can.c **** 	  \arg		  CAN_FLAG_WERR: warning error
 921:arch/riscv/mach-gd32vf10x/bsp/gd32vf103_can.c ****     \param[out] none
 922:arch/riscv/mach-gd32vf10x/bsp/gd32vf103_can.c ****     \retval     none
 923:arch/riscv/mach-gd32vf10x/bsp/gd32vf103_can.c **** */
 924:arch/riscv/mach-gd32vf10x/bsp/gd32vf103_can.c **** void can_flag_clear(uint32_t can_periph, can_flag_enum flag)
 925:arch/riscv/mach-gd32vf10x/bsp/gd32vf103_can.c **** {
 1834              		.loc 1 925 1 is_stmt 1
 1835              		.cfi_startproc
 1836              	.LVL124:
 926:arch/riscv/mach-gd32vf10x/bsp/gd32vf103_can.c ****     CAN_REG_VAL(can_periph, flag) = BIT(CAN_BIT_POS(flag));
 1837              		.loc 1 926 5
 1838 0000 93D76500 		srli	a5,a1,6
 1839 0004 3E95     		add	a0,a5,a0
 1840              	.LVL125:
 1841              		.loc 1 926 37 is_stmt 0
 1842 0006 8547     		li	a5,1
 1843 0008 B397B700 		sll	a5,a5,a1
GAS LISTING C:\Users\test\AppData\Local\Temp\ccA0cEyS.s 			page 54


 1844              		.loc 1 926 35
 1845 000c 1CC1     		sw	a5,0(a0)
 927:arch/riscv/mach-gd32vf10x/bsp/gd32vf103_can.c **** }
 1846              		.loc 1 927 1
 1847 000e 8280     		ret
 1848              		.cfi_endproc
 1849              	.LFE25:
 1851              		.section	.text.can_interrupt_flag_get,"ax",@progbits
 1852              		.align	1
 1853              		.globl	can_interrupt_flag_get
 1855              	can_interrupt_flag_get:
 1856              	.LFB26:
 928:arch/riscv/mach-gd32vf10x/bsp/gd32vf103_can.c **** 
 929:arch/riscv/mach-gd32vf10x/bsp/gd32vf103_can.c **** /*!
 930:arch/riscv/mach-gd32vf10x/bsp/gd32vf103_can.c ****     \brief      get CAN interrupt flag state
 931:arch/riscv/mach-gd32vf10x/bsp/gd32vf103_can.c ****     \param[in]  can_periph
 932:arch/riscv/mach-gd32vf10x/bsp/gd32vf103_can.c ****       \arg        CANx(x=0,1)
 933:arch/riscv/mach-gd32vf10x/bsp/gd32vf103_can.c ****     \param[in]  flag: CAN interrupt flags, refer to can_interrupt_flag_enum
 934:arch/riscv/mach-gd32vf10x/bsp/gd32vf103_can.c ****                 only one parameter can be selected which is shown as below:
 935:arch/riscv/mach-gd32vf10x/bsp/gd32vf103_can.c ****       \arg        CAN_INT_FLAG_SLPIF: status change interrupt flag of sleep working mode entering
 936:arch/riscv/mach-gd32vf10x/bsp/gd32vf103_can.c ****       \arg        CAN_INT_FLAG_WUIF: status change interrupt flag of wakeup from sleep working mode
 937:arch/riscv/mach-gd32vf10x/bsp/gd32vf103_can.c ****       \arg        CAN_INT_FLAG_ERRIF: error interrupt flag
 938:arch/riscv/mach-gd32vf10x/bsp/gd32vf103_can.c ****       \arg        CAN_INT_FLAG_MTF2: mailbox 2 transmit finished interrupt flag
 939:arch/riscv/mach-gd32vf10x/bsp/gd32vf103_can.c ****       \arg        CAN_INT_FLAG_MTF1: mailbox 1 transmit finished interrupt flag
 940:arch/riscv/mach-gd32vf10x/bsp/gd32vf103_can.c ****       \arg        CAN_INT_FLAG_MTF0: mailbox 0 transmit finished interrupt flag
 941:arch/riscv/mach-gd32vf10x/bsp/gd32vf103_can.c ****       \arg        CAN_INT_FLAG_RFO0: receive FIFO0 overfull interrupt flag
 942:arch/riscv/mach-gd32vf10x/bsp/gd32vf103_can.c ****       \arg        CAN_INT_FLAG_RFF0: receive FIFO0 full interrupt flag
 943:arch/riscv/mach-gd32vf10x/bsp/gd32vf103_can.c ****       \arg        CAN_INT_FLAG_RFO1: receive FIFO1 overfull interrupt flag
 944:arch/riscv/mach-gd32vf10x/bsp/gd32vf103_can.c ****       \arg        CAN_INT_FLAG_RFF1: receive FIFO1 full interrupt flag
 945:arch/riscv/mach-gd32vf10x/bsp/gd32vf103_can.c ****     \param[out] none
 946:arch/riscv/mach-gd32vf10x/bsp/gd32vf103_can.c ****     \retval     FlagStatus: SET or RESET
 947:arch/riscv/mach-gd32vf10x/bsp/gd32vf103_can.c **** */
 948:arch/riscv/mach-gd32vf10x/bsp/gd32vf103_can.c **** FlagStatus can_interrupt_flag_get(uint32_t can_periph, can_interrupt_flag_enum flag)
 949:arch/riscv/mach-gd32vf10x/bsp/gd32vf103_can.c **** {  
 1857              		.loc 1 949 1 is_stmt 1
 1858              		.cfi_startproc
 1859              	.LVL126:
 950:arch/riscv/mach-gd32vf10x/bsp/gd32vf103_can.c **** 	uint32_t ret1 = RESET;
 1860              		.loc 1 950 2
 951:arch/riscv/mach-gd32vf10x/bsp/gd32vf103_can.c **** 	uint32_t ret2 = RESET;
 1861              		.loc 1 951 2
 952:arch/riscv/mach-gd32vf10x/bsp/gd32vf103_can.c ****     
 953:arch/riscv/mach-gd32vf10x/bsp/gd32vf103_can.c ****     /* get the staus of interrupt flag */
 954:arch/riscv/mach-gd32vf10x/bsp/gd32vf103_can.c ****     ret1 = CAN_REG_VALS(can_periph, flag) & BIT(CAN_BIT_POS0(flag));
 1862              		.loc 1 954 5
 1863              		.loc 1 954 12 is_stmt 0
 1864 0000 93D7C500 		srli	a5,a1,12
 1865 0004 AA97     		add	a5,a5,a0
 1866 0006 9443     		lw	a3,0(a5)
 1867              		.loc 1 954 45
 1868 0008 0547     		li	a4,1
 1869 000a 93D76500 		srli	a5,a1,6
 1870 000e B317F700 		sll	a5,a4,a5
 955:arch/riscv/mach-gd32vf10x/bsp/gd32vf103_can.c ****     /* get the staus of interrupt enale bit */
 956:arch/riscv/mach-gd32vf10x/bsp/gd32vf103_can.c ****     ret2 = CAN_INTEN(can_periph) & BIT(CAN_BIT_POS1(flag));
 1871              		.loc 1 956 12
 1872 0012 5049     		lw	a2,20(a0)
GAS LISTING C:\Users\test\AppData\Local\Temp\ccA0cEyS.s 			page 55


 954:arch/riscv/mach-gd32vf10x/bsp/gd32vf103_can.c ****     /* get the staus of interrupt enale bit */
 1873              		.loc 1 954 10
 1874 0014 33F5D700 		and	a0,a5,a3
 1875              	.LVL127:
 1876              		.loc 1 956 5 is_stmt 1
 957:arch/riscv/mach-gd32vf10x/bsp/gd32vf103_can.c ****     if(ret1 && ret2){
 1877              		.loc 1 957 5
 1878              		.loc 1 957 7 is_stmt 0
 1879 0018 11C5     		beq	a0,zero,.L160
 956:arch/riscv/mach-gd32vf10x/bsp/gd32vf103_can.c ****     if(ret1 && ret2){
 1880              		.loc 1 956 36 discriminator 1
 1881 001a 3315B700 		sll	a0,a4,a1
 1882              	.LVL128:
 956:arch/riscv/mach-gd32vf10x/bsp/gd32vf103_can.c ****     if(ret1 && ret2){
 1883              		.loc 1 956 10 discriminator 1
 1884 001e 718D     		and	a0,a0,a2
 1885              		.loc 1 957 13 discriminator 1
 1886 0020 3335A000 		snez	a0,a0
 1887              	.L160:
 958:arch/riscv/mach-gd32vf10x/bsp/gd32vf103_can.c ****         return SET;
 959:arch/riscv/mach-gd32vf10x/bsp/gd32vf103_can.c ****     }else{
 960:arch/riscv/mach-gd32vf10x/bsp/gd32vf103_can.c ****         return RESET;
 961:arch/riscv/mach-gd32vf10x/bsp/gd32vf103_can.c ****     }
 962:arch/riscv/mach-gd32vf10x/bsp/gd32vf103_can.c **** }
 1888              		.loc 1 962 1
 1889 0024 8280     		ret
 1890              		.cfi_endproc
 1891              	.LFE26:
 1893              		.section	.text.can_interrupt_flag_clear,"ax",@progbits
 1894              		.align	1
 1895              		.globl	can_interrupt_flag_clear
 1897              	can_interrupt_flag_clear:
 1898              	.LFB27:
 963:arch/riscv/mach-gd32vf10x/bsp/gd32vf103_can.c **** 
 964:arch/riscv/mach-gd32vf10x/bsp/gd32vf103_can.c **** /*!
 965:arch/riscv/mach-gd32vf10x/bsp/gd32vf103_can.c ****     \brief      clear CAN interrupt flag state
 966:arch/riscv/mach-gd32vf10x/bsp/gd32vf103_can.c ****     \param[in]  can_periph
 967:arch/riscv/mach-gd32vf10x/bsp/gd32vf103_can.c ****       \arg        CANx(x=0,1)
 968:arch/riscv/mach-gd32vf10x/bsp/gd32vf103_can.c ****     \param[in]  flag: CAN interrupt flags, refer to can_interrupt_flag_enum
 969:arch/riscv/mach-gd32vf10x/bsp/gd32vf103_can.c ****                 only one parameter can be selected which is shown as below:
 970:arch/riscv/mach-gd32vf10x/bsp/gd32vf103_can.c ****       \arg        CAN_INT_FLAG_SLPIF: status change interrupt flag of sleep working mode entering
 971:arch/riscv/mach-gd32vf10x/bsp/gd32vf103_can.c ****       \arg        CAN_INT_FLAG_WUIF: status change interrupt flag of wakeup from sleep working mode
 972:arch/riscv/mach-gd32vf10x/bsp/gd32vf103_can.c ****       \arg        CAN_INT_FLAG_ERRIF: error interrupt flag
 973:arch/riscv/mach-gd32vf10x/bsp/gd32vf103_can.c ****       \arg        CAN_INT_FLAG_MTF2: mailbox 2 transmit finished interrupt flag
 974:arch/riscv/mach-gd32vf10x/bsp/gd32vf103_can.c ****       \arg        CAN_INT_FLAG_MTF1: mailbox 1 transmit finished interrupt flag
 975:arch/riscv/mach-gd32vf10x/bsp/gd32vf103_can.c ****       \arg        CAN_INT_FLAG_MTF0: mailbox 0 transmit finished interrupt flag
 976:arch/riscv/mach-gd32vf10x/bsp/gd32vf103_can.c ****       \arg        CAN_INT_FLAG_RFO0: receive FIFO0 overfull interrupt flag
 977:arch/riscv/mach-gd32vf10x/bsp/gd32vf103_can.c ****       \arg        CAN_INT_FLAG_RFF0: receive FIFO0 full interrupt flag
 978:arch/riscv/mach-gd32vf10x/bsp/gd32vf103_can.c ****       \arg        CAN_INT_FLAG_RFO1: receive FIFO1 overfull interrupt flag
 979:arch/riscv/mach-gd32vf10x/bsp/gd32vf103_can.c ****       \arg        CAN_INT_FLAG_RFF1: receive FIFO1 full interrupt flag
 980:arch/riscv/mach-gd32vf10x/bsp/gd32vf103_can.c **** 	  \arg		  CAN_FLAG_BOERR: bus-off error
 981:arch/riscv/mach-gd32vf10x/bsp/gd32vf103_can.c **** 	  \arg		  CAN_FLAG_PERR: passive error
 982:arch/riscv/mach-gd32vf10x/bsp/gd32vf103_can.c **** 	  \arg		  CAN_FLAG_WERR: warning error
 983:arch/riscv/mach-gd32vf10x/bsp/gd32vf103_can.c ****     \param[out] none
 984:arch/riscv/mach-gd32vf10x/bsp/gd32vf103_can.c ****     \retval     none
 985:arch/riscv/mach-gd32vf10x/bsp/gd32vf103_can.c **** */
 986:arch/riscv/mach-gd32vf10x/bsp/gd32vf103_can.c **** void can_interrupt_flag_clear(uint32_t can_periph, can_interrupt_flag_enum flag)
GAS LISTING C:\Users\test\AppData\Local\Temp\ccA0cEyS.s 			page 56


 987:arch/riscv/mach-gd32vf10x/bsp/gd32vf103_can.c **** {
 1899              		.loc 1 987 1 is_stmt 1
 1900              		.cfi_startproc
 1901              	.LVL129:
 988:arch/riscv/mach-gd32vf10x/bsp/gd32vf103_can.c ****     CAN_REG_VALS(can_periph, flag) = BIT(CAN_BIT_POS0(flag));
 1902              		.loc 1 988 5
 1903 0000 93D7C500 		srli	a5,a1,12
 1904 0004 3E95     		add	a0,a5,a0
 1905              	.LVL130:
 1906              		.loc 1 988 38 is_stmt 0
 1907 0006 9981     		srli	a1,a1,6
 1908              	.LVL131:
 1909 0008 8547     		li	a5,1
 1910 000a B395B700 		sll	a1,a5,a1
 1911              		.loc 1 988 36
 1912 000e 0CC1     		sw	a1,0(a0)
 989:arch/riscv/mach-gd32vf10x/bsp/gd32vf103_can.c **** }
 1913              		.loc 1 989 1
 1914 0010 8280     		ret
 1915              		.cfi_endproc
 1916              	.LFE27:
 1918              		.text
 1919              	.Letext0:
 1920              		.file 2 "d:\\risc_v_gcc\\riscv-none-embed\\include\\machine\\_default_types.h"
 1921              		.file 3 "d:\\risc_v_gcc\\riscv-none-embed\\include\\sys\\_stdint.h"
 1922              		.file 4 "arch/riscv/mach-gd32vf10x/system/gd32vf103.h"
 1923              		.file 5 "arch/riscv/mach-gd32vf10x/bsp/gd32vf103_dbg.h"
 1924              		.file 6 "arch/riscv/mach-gd32vf10x/bsp/gd32vf103_rcu.h"
 1925              		.file 7 "arch/riscv/mach-gd32vf10x/bsp/gd32vf103_can.h"
 1926              		.file 8 "arch/riscv/mach-gd32vf10x/system/system_gd32vf103.h"
GAS LISTING C:\Users\test\AppData\Local\Temp\ccA0cEyS.s 			page 57

