GAS LISTING C:\Users\test\AppData\Local\Temp\ccJ7WdPA.s 			page 1


   1              		.file	"gd32vf103_spi.c"
   2              		.option nopic
   3              		.text
   4              	.Ltext0:
   5              		.cfi_sections	.debug_frame
   6              		.section	.text.spi_i2s_deinit,"ax",@progbits
   7              		.align	1
   8              		.globl	spi_i2s_deinit
  10              	spi_i2s_deinit:
  11              	.LFB2:
  12              		.file 1 "arch/riscv/mach-gd32vf10x/bsp/gd32vf103_spi.c"
   1:arch/riscv/mach-gd32vf10x/bsp/gd32vf103_spi.c **** /*!
   2:arch/riscv/mach-gd32vf10x/bsp/gd32vf103_spi.c ****     \file  gd32vf103_spi.c
   3:arch/riscv/mach-gd32vf10x/bsp/gd32vf103_spi.c ****     \brief SPI driver
   4:arch/riscv/mach-gd32vf10x/bsp/gd32vf103_spi.c **** 
   5:arch/riscv/mach-gd32vf10x/bsp/gd32vf103_spi.c ****     \version 2019-6-5, V1.0.0, firmware for GD32VF103
   6:arch/riscv/mach-gd32vf10x/bsp/gd32vf103_spi.c **** */
   7:arch/riscv/mach-gd32vf10x/bsp/gd32vf103_spi.c **** 
   8:arch/riscv/mach-gd32vf10x/bsp/gd32vf103_spi.c **** /*
   9:arch/riscv/mach-gd32vf10x/bsp/gd32vf103_spi.c ****     Copyright (c) 2019, GigaDevice Semiconductor Inc.
  10:arch/riscv/mach-gd32vf10x/bsp/gd32vf103_spi.c **** 
  11:arch/riscv/mach-gd32vf10x/bsp/gd32vf103_spi.c ****     Redistribution and use in source and binary forms, with or without modification, 
  12:arch/riscv/mach-gd32vf10x/bsp/gd32vf103_spi.c **** are permitted provided that the following conditions are met:
  13:arch/riscv/mach-gd32vf10x/bsp/gd32vf103_spi.c **** 
  14:arch/riscv/mach-gd32vf10x/bsp/gd32vf103_spi.c ****     1. Redistributions of source code must retain the above copyright notice, this 
  15:arch/riscv/mach-gd32vf10x/bsp/gd32vf103_spi.c ****        list of conditions and the following disclaimer.
  16:arch/riscv/mach-gd32vf10x/bsp/gd32vf103_spi.c ****     2. Redistributions in binary form must reproduce the above copyright notice, 
  17:arch/riscv/mach-gd32vf10x/bsp/gd32vf103_spi.c ****        this list of conditions and the following disclaimer in the documentation 
  18:arch/riscv/mach-gd32vf10x/bsp/gd32vf103_spi.c ****        and/or other materials provided with the distribution.
  19:arch/riscv/mach-gd32vf10x/bsp/gd32vf103_spi.c ****     3. Neither the name of the copyright holder nor the names of its contributors 
  20:arch/riscv/mach-gd32vf10x/bsp/gd32vf103_spi.c ****        may be used to endorse or promote products derived from this software without 
  21:arch/riscv/mach-gd32vf10x/bsp/gd32vf103_spi.c ****        specific prior written permission.
  22:arch/riscv/mach-gd32vf10x/bsp/gd32vf103_spi.c **** 
  23:arch/riscv/mach-gd32vf10x/bsp/gd32vf103_spi.c ****     THIS SOFTWARE IS PROVIDED BY THE COPYRIGHT HOLDERS AND CONTRIBUTORS "AS IS" 
  24:arch/riscv/mach-gd32vf10x/bsp/gd32vf103_spi.c **** AND ANY EXPRESS OR IMPLIED WARRANTIES, INCLUDING, BUT NOT LIMITED TO, THE IMPLIED 
  25:arch/riscv/mach-gd32vf10x/bsp/gd32vf103_spi.c **** WARRANTIES OF MERCHANTABILITY AND FITNESS FOR A PARTICULAR PURPOSE ARE DISCLAIMED. 
  26:arch/riscv/mach-gd32vf10x/bsp/gd32vf103_spi.c **** IN NO EVENT SHALL THE COPYRIGHT HOLDER OR CONTRIBUTORS BE LIABLE FOR ANY DIRECT, 
  27:arch/riscv/mach-gd32vf10x/bsp/gd32vf103_spi.c **** INDIRECT, INCIDENTAL, SPECIAL, EXEMPLARY, OR CONSEQUENTIAL DAMAGES (INCLUDING, BUT 
  28:arch/riscv/mach-gd32vf10x/bsp/gd32vf103_spi.c **** NOT LIMITED TO, PROCUREMENT OF SUBSTITUTE GOODS OR SERVICES; LOSS OF USE, DATA, OR 
  29:arch/riscv/mach-gd32vf10x/bsp/gd32vf103_spi.c **** PROFITS; OR BUSINESS INTERRUPTION) HOWEVER CAUSED AND ON ANY THEORY OF LIABILITY, 
  30:arch/riscv/mach-gd32vf10x/bsp/gd32vf103_spi.c **** WHETHER IN CONTRACT, STRICT LIABILITY, OR TORT (INCLUDING NEGLIGENCE OR OTHERWISE) 
  31:arch/riscv/mach-gd32vf10x/bsp/gd32vf103_spi.c **** ARISING IN ANY WAY OUT OF THE USE OF THIS SOFTWARE, EVEN IF ADVISED OF THE POSSIBILITY 
  32:arch/riscv/mach-gd32vf10x/bsp/gd32vf103_spi.c **** OF SUCH DAMAGE.
  33:arch/riscv/mach-gd32vf10x/bsp/gd32vf103_spi.c **** */
  34:arch/riscv/mach-gd32vf10x/bsp/gd32vf103_spi.c **** 
  35:arch/riscv/mach-gd32vf10x/bsp/gd32vf103_spi.c **** #include "gd32vf103_spi.h"
  36:arch/riscv/mach-gd32vf10x/bsp/gd32vf103_spi.c **** 
  37:arch/riscv/mach-gd32vf10x/bsp/gd32vf103_spi.c **** /* SPI/I2S parameter initialization mask */
  38:arch/riscv/mach-gd32vf10x/bsp/gd32vf103_spi.c **** #define SPI_INIT_MASK                   ((uint32_t)0x00003040U)  /*!< SPI parameter initialization 
  39:arch/riscv/mach-gd32vf10x/bsp/gd32vf103_spi.c **** #define I2S_INIT_MASK                   ((uint32_t)0x0000F047U)  /*!< I2S parameter initialization 
  40:arch/riscv/mach-gd32vf10x/bsp/gd32vf103_spi.c **** 
  41:arch/riscv/mach-gd32vf10x/bsp/gd32vf103_spi.c **** /* I2S clock source selection, multiplication and division mask */
  42:arch/riscv/mach-gd32vf10x/bsp/gd32vf103_spi.c **** #define I2S1_CLOCK_SEL                  ((uint32_t)0x00020000U)  /* I2S1 clock source selection */
  43:arch/riscv/mach-gd32vf10x/bsp/gd32vf103_spi.c **** #define I2S2_CLOCK_SEL                  ((uint32_t)0x00040000U)  /* I2S2 clock source selection */
  44:arch/riscv/mach-gd32vf10x/bsp/gd32vf103_spi.c **** #define I2S_CLOCK_MUL_MASK              ((uint32_t)0x0000F000U)  /* I2S clock multiplication mask *
  45:arch/riscv/mach-gd32vf10x/bsp/gd32vf103_spi.c **** #define I2S_CLOCK_DIV_MASK              ((uint32_t)0x000000F0U)  /* I2S clock division mask */
  46:arch/riscv/mach-gd32vf10x/bsp/gd32vf103_spi.c **** 
GAS LISTING C:\Users\test\AppData\Local\Temp\ccJ7WdPA.s 			page 2


  47:arch/riscv/mach-gd32vf10x/bsp/gd32vf103_spi.c **** /* default value and offset */
  48:arch/riscv/mach-gd32vf10x/bsp/gd32vf103_spi.c **** #define SPI_I2SPSC_DEFAULT_VALUE        ((uint32_t)0x00000002U)  /* default value of SPI_I2SPSC reg
  49:arch/riscv/mach-gd32vf10x/bsp/gd32vf103_spi.c **** #define RCU_CFG1_PREDV1_OFFSET          4U                       /* PREDV1 offset in RCU_CFG1 */
  50:arch/riscv/mach-gd32vf10x/bsp/gd32vf103_spi.c **** #define RCU_CFG1_PLL2MF_OFFSET          12U                      /* PLL2MF offset in RCU_CFG1 */
  51:arch/riscv/mach-gd32vf10x/bsp/gd32vf103_spi.c **** 
  52:arch/riscv/mach-gd32vf10x/bsp/gd32vf103_spi.c **** /*!
  53:arch/riscv/mach-gd32vf10x/bsp/gd32vf103_spi.c ****     \brief      reset SPI and I2S 
  54:arch/riscv/mach-gd32vf10x/bsp/gd32vf103_spi.c ****     \param[in]  spi_periph: SPIx(x=0,1,2)
  55:arch/riscv/mach-gd32vf10x/bsp/gd32vf103_spi.c ****     \param[out] none
  56:arch/riscv/mach-gd32vf10x/bsp/gd32vf103_spi.c ****     \retval     none
  57:arch/riscv/mach-gd32vf10x/bsp/gd32vf103_spi.c **** */
  58:arch/riscv/mach-gd32vf10x/bsp/gd32vf103_spi.c **** void spi_i2s_deinit(uint32_t spi_periph)
  59:arch/riscv/mach-gd32vf10x/bsp/gd32vf103_spi.c **** {
  13              		.loc 1 59 1
  14              		.cfi_startproc
  15              	.LVL0:
  60:arch/riscv/mach-gd32vf10x/bsp/gd32vf103_spi.c ****     switch(spi_periph){
  16              		.loc 1 60 5
  59:arch/riscv/mach-gd32vf10x/bsp/gd32vf103_spi.c ****     switch(spi_periph){
  17              		.loc 1 59 1 is_stmt 0
  18 0000 4111     		addi	sp,sp,-16
  19              	.LCFI0:
  20              		.cfi_def_cfa_offset 16
  21              		.loc 1 60 5
  22 0002 B7470040 		li	a5,1073758208
  59:arch/riscv/mach-gd32vf10x/bsp/gd32vf103_spi.c ****     switch(spi_periph){
  23              		.loc 1 59 1
  24 0006 06C6     		sw	ra,12(sp)
  25              		.cfi_offset 1, -4
  26              		.loc 1 60 5
  27 0008 138707C0 		addi	a4,a5,-1024
  28 000c 630DE500 		beq	a0,a4,.L2
  29 0010 37370140 		li	a4,1073819648
  30 0014 6305E504 		beq	a0,a4,.L3
  31 0018 93870780 		addi	a5,a5,-2048
  32 001c 6303F502 		beq	a0,a5,.L9
  61:arch/riscv/mach-gd32vf10x/bsp/gd32vf103_spi.c ****     case SPI0:
  62:arch/riscv/mach-gd32vf10x/bsp/gd32vf103_spi.c ****         /* reset SPI0 */
  63:arch/riscv/mach-gd32vf10x/bsp/gd32vf103_spi.c ****         rcu_periph_reset_enable(RCU_SPI0RST);
  64:arch/riscv/mach-gd32vf10x/bsp/gd32vf103_spi.c ****         rcu_periph_reset_disable(RCU_SPI0RST);
  65:arch/riscv/mach-gd32vf10x/bsp/gd32vf103_spi.c ****         break;
  66:arch/riscv/mach-gd32vf10x/bsp/gd32vf103_spi.c ****     case SPI1:
  67:arch/riscv/mach-gd32vf10x/bsp/gd32vf103_spi.c ****         /* reset SPI1 and I2S1 */
  68:arch/riscv/mach-gd32vf10x/bsp/gd32vf103_spi.c ****         rcu_periph_reset_enable(RCU_SPI1RST);
  69:arch/riscv/mach-gd32vf10x/bsp/gd32vf103_spi.c ****         rcu_periph_reset_disable(RCU_SPI1RST);
  70:arch/riscv/mach-gd32vf10x/bsp/gd32vf103_spi.c ****         break;
  71:arch/riscv/mach-gd32vf10x/bsp/gd32vf103_spi.c ****     case SPI2:
  72:arch/riscv/mach-gd32vf10x/bsp/gd32vf103_spi.c ****         /* reset SPI2 and I2S2 */
  73:arch/riscv/mach-gd32vf10x/bsp/gd32vf103_spi.c ****         rcu_periph_reset_enable(RCU_SPI2RST);
  74:arch/riscv/mach-gd32vf10x/bsp/gd32vf103_spi.c ****         rcu_periph_reset_disable(RCU_SPI2RST);
  75:arch/riscv/mach-gd32vf10x/bsp/gd32vf103_spi.c ****         break;
  76:arch/riscv/mach-gd32vf10x/bsp/gd32vf103_spi.c ****     default :
  77:arch/riscv/mach-gd32vf10x/bsp/gd32vf103_spi.c ****         break;
  78:arch/riscv/mach-gd32vf10x/bsp/gd32vf103_spi.c ****     }
  79:arch/riscv/mach-gd32vf10x/bsp/gd32vf103_spi.c **** }
  33              		.loc 1 79 1
  34 0020 B240     		lw	ra,12(sp)
GAS LISTING C:\Users\test\AppData\Local\Temp\ccJ7WdPA.s 			page 3


  35              		.cfi_remember_state
  36              		.cfi_restore 1
  37 0022 4101     		addi	sp,sp,16
  38              	.LCFI1:
  39              		.cfi_def_cfa_offset 0
  40 0024 8280     		jr	ra
  41              	.L2:
  42              	.LCFI2:
  43              		.cfi_restore_state
  73:arch/riscv/mach-gd32vf10x/bsp/gd32vf103_spi.c ****         rcu_periph_reset_disable(RCU_SPI2RST);
  44              		.loc 1 73 9 is_stmt 1
  45 0026 1305F040 		li	a0,1039
  46              	.LVL1:
  47 002a 97000000 		call	rcu_periph_reset_enable
  47      E7800000 
  48              	.LVL2:
  74:arch/riscv/mach-gd32vf10x/bsp/gd32vf103_spi.c ****         break;
  49              		.loc 1 74 9
  50              		.loc 1 79 1 is_stmt 0
  51 0032 B240     		lw	ra,12(sp)
  52              		.cfi_remember_state
  53              		.cfi_restore 1
  74:arch/riscv/mach-gd32vf10x/bsp/gd32vf103_spi.c ****         break;
  54              		.loc 1 74 9
  55 0034 1305F040 		li	a0,1039
  56              		.loc 1 79 1
  57 0038 4101     		addi	sp,sp,16
  58              	.LCFI3:
  59              		.cfi_def_cfa_offset 0
  74:arch/riscv/mach-gd32vf10x/bsp/gd32vf103_spi.c ****         break;
  60              		.loc 1 74 9
  61 003a 17030000 		tail	rcu_periph_reset_disable
  61      67000300 
  62              	.LVL3:
  63              	.L9:
  64              	.LCFI4:
  65              		.cfi_restore_state
  68:arch/riscv/mach-gd32vf10x/bsp/gd32vf103_spi.c ****         rcu_periph_reset_disable(RCU_SPI1RST);
  66              		.loc 1 68 9 is_stmt 1
  67 0042 1305E040 		li	a0,1038
  68              	.LVL4:
  69 0046 97000000 		call	rcu_periph_reset_enable
  69      E7800000 
  70              	.LVL5:
  69:arch/riscv/mach-gd32vf10x/bsp/gd32vf103_spi.c ****         break;
  71              		.loc 1 69 9
  72              		.loc 1 79 1 is_stmt 0
  73 004e B240     		lw	ra,12(sp)
  74              		.cfi_remember_state
  75              		.cfi_restore 1
  69:arch/riscv/mach-gd32vf10x/bsp/gd32vf103_spi.c ****         break;
  76              		.loc 1 69 9
  77 0050 1305E040 		li	a0,1038
  78              		.loc 1 79 1
  79 0054 4101     		addi	sp,sp,16
  80              	.LCFI5:
  81              		.cfi_def_cfa_offset 0
GAS LISTING C:\Users\test\AppData\Local\Temp\ccJ7WdPA.s 			page 4


  69:arch/riscv/mach-gd32vf10x/bsp/gd32vf103_spi.c ****         break;
  82              		.loc 1 69 9
  83 0056 17030000 		tail	rcu_periph_reset_disable
  83      67000300 
  84              	.LVL6:
  85              	.L3:
  86              	.LCFI6:
  87              		.cfi_restore_state
  63:arch/riscv/mach-gd32vf10x/bsp/gd32vf103_spi.c ****         rcu_periph_reset_disable(RCU_SPI0RST);
  88              		.loc 1 63 9 is_stmt 1
  89 005e 1305C030 		li	a0,780
  90              	.LVL7:
  91 0062 97000000 		call	rcu_periph_reset_enable
  91      E7800000 
  92              	.LVL8:
  64:arch/riscv/mach-gd32vf10x/bsp/gd32vf103_spi.c ****         break;
  93              		.loc 1 64 9
  94              		.loc 1 79 1 is_stmt 0
  95 006a B240     		lw	ra,12(sp)
  96              		.cfi_restore 1
  64:arch/riscv/mach-gd32vf10x/bsp/gd32vf103_spi.c ****         break;
  97              		.loc 1 64 9
  98 006c 1305C030 		li	a0,780
  99              		.loc 1 79 1
 100 0070 4101     		addi	sp,sp,16
 101              	.LCFI7:
 102              		.cfi_def_cfa_offset 0
  64:arch/riscv/mach-gd32vf10x/bsp/gd32vf103_spi.c ****         break;
 103              		.loc 1 64 9
 104 0072 17030000 		tail	rcu_periph_reset_disable
 104      67000300 
 105              	.LVL9:
 106              		.cfi_endproc
 107              	.LFE2:
 109              		.section	.text.spi_struct_para_init,"ax",@progbits
 110              		.align	1
 111              		.globl	spi_struct_para_init
 113              	spi_struct_para_init:
 114              	.LFB3:
  80:arch/riscv/mach-gd32vf10x/bsp/gd32vf103_spi.c **** 
  81:arch/riscv/mach-gd32vf10x/bsp/gd32vf103_spi.c **** /*!
  82:arch/riscv/mach-gd32vf10x/bsp/gd32vf103_spi.c ****     \brief      initialize the parameters of SPI struct with the default values
  83:arch/riscv/mach-gd32vf10x/bsp/gd32vf103_spi.c ****     \param[in]  spi_struct: SPI parameter stuct
  84:arch/riscv/mach-gd32vf10x/bsp/gd32vf103_spi.c ****     \param[out] none
  85:arch/riscv/mach-gd32vf10x/bsp/gd32vf103_spi.c ****     \retval     none
  86:arch/riscv/mach-gd32vf10x/bsp/gd32vf103_spi.c **** */
  87:arch/riscv/mach-gd32vf10x/bsp/gd32vf103_spi.c **** void spi_struct_para_init(spi_parameter_struct* spi_struct)
  88:arch/riscv/mach-gd32vf10x/bsp/gd32vf103_spi.c **** {
 115              		.loc 1 88 1 is_stmt 1
 116              		.cfi_startproc
 117              	.LVL10:
  89:arch/riscv/mach-gd32vf10x/bsp/gd32vf103_spi.c ****     /* set the SPI struct with the default values */
  90:arch/riscv/mach-gd32vf10x/bsp/gd32vf103_spi.c ****     spi_struct->device_mode = SPI_SLAVE;
 118              		.loc 1 90 5
 119              		.loc 1 90 29 is_stmt 0
 120 0000 23200500 		sw	zero,0(a0)
  91:arch/riscv/mach-gd32vf10x/bsp/gd32vf103_spi.c ****     spi_struct->trans_mode = SPI_TRANSMODE_FULLDUPLEX;
GAS LISTING C:\Users\test\AppData\Local\Temp\ccJ7WdPA.s 			page 5


 121              		.loc 1 91 5 is_stmt 1
 122              		.loc 1 91 28 is_stmt 0
 123 0004 23220500 		sw	zero,4(a0)
  92:arch/riscv/mach-gd32vf10x/bsp/gd32vf103_spi.c ****     spi_struct->frame_size = SPI_FRAMESIZE_8BIT;
 124              		.loc 1 92 5 is_stmt 1
 125              		.loc 1 92 28 is_stmt 0
 126 0008 23240500 		sw	zero,8(a0)
  93:arch/riscv/mach-gd32vf10x/bsp/gd32vf103_spi.c ****     spi_struct->nss = SPI_NSS_HARD;
 127              		.loc 1 93 5 is_stmt 1
 128              		.loc 1 93 21 is_stmt 0
 129 000c 23260500 		sw	zero,12(a0)
  94:arch/riscv/mach-gd32vf10x/bsp/gd32vf103_spi.c ****     spi_struct->clock_polarity_phase = SPI_CK_PL_LOW_PH_1EDGE;
 130              		.loc 1 94 5 is_stmt 1
 131              		.loc 1 94 38 is_stmt 0
 132 0010 232A0500 		sw	zero,20(a0)
  95:arch/riscv/mach-gd32vf10x/bsp/gd32vf103_spi.c ****     spi_struct->prescale = SPI_PSC_2;
 133              		.loc 1 95 5 is_stmt 1
 134              		.loc 1 95 26 is_stmt 0
 135 0014 232C0500 		sw	zero,24(a0)
  96:arch/riscv/mach-gd32vf10x/bsp/gd32vf103_spi.c **** }
 136              		.loc 1 96 1
 137 0018 8280     		ret
 138              		.cfi_endproc
 139              	.LFE3:
 141              		.section	.text.spi_init,"ax",@progbits
 142              		.align	1
 143              		.globl	spi_init
 145              	spi_init:
 146              	.LFB4:
  97:arch/riscv/mach-gd32vf10x/bsp/gd32vf103_spi.c **** 
  98:arch/riscv/mach-gd32vf10x/bsp/gd32vf103_spi.c **** /*!
  99:arch/riscv/mach-gd32vf10x/bsp/gd32vf103_spi.c ****     \brief      initialize SPI parameter
 100:arch/riscv/mach-gd32vf10x/bsp/gd32vf103_spi.c ****     \param[in]  spi_periph: SPIx(x=0,1,2)
 101:arch/riscv/mach-gd32vf10x/bsp/gd32vf103_spi.c ****     \param[in]  spi_struct: SPI parameter initialization stuct members of the structure 
 102:arch/riscv/mach-gd32vf10x/bsp/gd32vf103_spi.c ****                             and the member values are shown as below:
 103:arch/riscv/mach-gd32vf10x/bsp/gd32vf103_spi.c ****                   device_mode: SPI_MASTER, SPI_SLAVE
 104:arch/riscv/mach-gd32vf10x/bsp/gd32vf103_spi.c ****                   trans_mode: SPI_TRANSMODE_FULLDUPLEX, SPI_TRANSMODE_RECEIVEONLY,
 105:arch/riscv/mach-gd32vf10x/bsp/gd32vf103_spi.c ****                               SPI_TRANSMODE_BDRECEIVE, SPI_TRANSMODE_BDTRANSMIT
 106:arch/riscv/mach-gd32vf10x/bsp/gd32vf103_spi.c ****                   frame_size: SPI_FRAMESIZE_16BIT, SPI_FRAMESIZE_8BIT
 107:arch/riscv/mach-gd32vf10x/bsp/gd32vf103_spi.c ****                   nss: SPI_NSS_SOFT, SPI_NSS_HARD
 108:arch/riscv/mach-gd32vf10x/bsp/gd32vf103_spi.c ****                   endian: SPI_ENDIAN_MSB, SPI_ENDIAN_LSB
 109:arch/riscv/mach-gd32vf10x/bsp/gd32vf103_spi.c ****                   clock_polarity_phase: SPI_CK_PL_LOW_PH_1EDGE, SPI_CK_PL_HIGH_PH_1EDGE
 110:arch/riscv/mach-gd32vf10x/bsp/gd32vf103_spi.c ****                                         SPI_CK_PL_LOW_PH_2EDGE, SPI_CK_PL_HIGH_PH_2EDGE
 111:arch/riscv/mach-gd32vf10x/bsp/gd32vf103_spi.c ****                   prescale: SPI_PSC_n (n=2,4,8,16,32,64,128,256)
 112:arch/riscv/mach-gd32vf10x/bsp/gd32vf103_spi.c ****     \param[out] none
 113:arch/riscv/mach-gd32vf10x/bsp/gd32vf103_spi.c ****     \retval     none
 114:arch/riscv/mach-gd32vf10x/bsp/gd32vf103_spi.c **** */
 115:arch/riscv/mach-gd32vf10x/bsp/gd32vf103_spi.c **** void spi_init(uint32_t spi_periph, spi_parameter_struct* spi_struct)
 116:arch/riscv/mach-gd32vf10x/bsp/gd32vf103_spi.c **** {   
 147              		.loc 1 116 1 is_stmt 1
 148              		.cfi_startproc
 149              	.LVL11:
 117:arch/riscv/mach-gd32vf10x/bsp/gd32vf103_spi.c ****     uint32_t reg = 0U;
 150              		.loc 1 117 5
 118:arch/riscv/mach-gd32vf10x/bsp/gd32vf103_spi.c ****     reg = SPI_CTL0(spi_periph);
 151              		.loc 1 118 5
 119:arch/riscv/mach-gd32vf10x/bsp/gd32vf103_spi.c ****     reg &= SPI_INIT_MASK;
GAS LISTING C:\Users\test\AppData\Local\Temp\ccJ7WdPA.s 			page 6


 120:arch/riscv/mach-gd32vf10x/bsp/gd32vf103_spi.c **** 
 121:arch/riscv/mach-gd32vf10x/bsp/gd32vf103_spi.c ****     /* select SPI as master or slave */
 122:arch/riscv/mach-gd32vf10x/bsp/gd32vf103_spi.c ****     reg |= spi_struct->device_mode;
 123:arch/riscv/mach-gd32vf10x/bsp/gd32vf103_spi.c ****     /* select SPI transfer mode */
 124:arch/riscv/mach-gd32vf10x/bsp/gd32vf103_spi.c ****     reg |= spi_struct->trans_mode;
 125:arch/riscv/mach-gd32vf10x/bsp/gd32vf103_spi.c ****     /* select SPI frame size */
 126:arch/riscv/mach-gd32vf10x/bsp/gd32vf103_spi.c ****     reg |= spi_struct->frame_size;
 127:arch/riscv/mach-gd32vf10x/bsp/gd32vf103_spi.c ****     /* select SPI NSS use hardware or software */
 128:arch/riscv/mach-gd32vf10x/bsp/gd32vf103_spi.c ****     reg |= spi_struct->nss;
 129:arch/riscv/mach-gd32vf10x/bsp/gd32vf103_spi.c ****     /* select SPI LSB or MSB */
 130:arch/riscv/mach-gd32vf10x/bsp/gd32vf103_spi.c ****     reg |= spi_struct->endian;
 131:arch/riscv/mach-gd32vf10x/bsp/gd32vf103_spi.c ****     /* select SPI polarity and phase */
 132:arch/riscv/mach-gd32vf10x/bsp/gd32vf103_spi.c ****     reg |= spi_struct->clock_polarity_phase;
 133:arch/riscv/mach-gd32vf10x/bsp/gd32vf103_spi.c ****     /* select SPI prescale to adjust transmit speed */
 134:arch/riscv/mach-gd32vf10x/bsp/gd32vf103_spi.c ****     reg |= spi_struct->prescale;
 152              		.loc 1 134 9 is_stmt 0
 153 0000 D441     		lw	a3,4(a1)
 154 0002 9C41     		lw	a5,0(a1)
 155 0004 9845     		lw	a4,8(a1)
 156 0006 83A8C500 		lw	a7,12(a1)
 157 000a 03A80501 		lw	a6,16(a1)
 158 000e D58F     		or	a5,a5,a3
 159 0010 D98F     		or	a5,a5,a4
 160 0012 D449     		lw	a3,20(a1)
 161 0014 B3E71701 		or	a5,a5,a7
 118:arch/riscv/mach-gd32vf10x/bsp/gd32vf103_spi.c ****     reg = SPI_CTL0(spi_periph);
 162              		.loc 1 118 9
 163 0018 1841     		lw	a4,0(a0)
 164              	.LVL12:
 119:arch/riscv/mach-gd32vf10x/bsp/gd32vf103_spi.c ****     reg &= SPI_INIT_MASK;
 165              		.loc 1 119 5 is_stmt 1
 166              		.loc 1 134 9 is_stmt 0
 167 001a 904D     		lw	a2,24(a1)
 168 001c B3E70701 		or	a5,a5,a6
 169 0020 D58F     		or	a5,a5,a3
 119:arch/riscv/mach-gd32vf10x/bsp/gd32vf103_spi.c ****     reg &= SPI_INIT_MASK;
 170              		.loc 1 119 9
 171 0022 8D66     		li	a3,12288
 172 0024 93860604 		addi	a3,a3,64
 173 0028 758F     		and	a4,a4,a3
 174              	.LVL13:
 122:arch/riscv/mach-gd32vf10x/bsp/gd32vf103_spi.c ****     /* select SPI transfer mode */
 175              		.loc 1 122 5 is_stmt 1
 124:arch/riscv/mach-gd32vf10x/bsp/gd32vf103_spi.c ****     /* select SPI frame size */
 176              		.loc 1 124 5
 126:arch/riscv/mach-gd32vf10x/bsp/gd32vf103_spi.c ****     /* select SPI NSS use hardware or software */
 177              		.loc 1 126 5
 128:arch/riscv/mach-gd32vf10x/bsp/gd32vf103_spi.c ****     /* select SPI LSB or MSB */
 178              		.loc 1 128 5
 130:arch/riscv/mach-gd32vf10x/bsp/gd32vf103_spi.c ****     /* select SPI polarity and phase */
 179              		.loc 1 130 5
 132:arch/riscv/mach-gd32vf10x/bsp/gd32vf103_spi.c ****     /* select SPI prescale to adjust transmit speed */
 180              		.loc 1 132 5
 181              		.loc 1 134 5
 182              		.loc 1 134 9 is_stmt 0
 183 002a D18F     		or	a5,a5,a2
 184 002c D98F     		or	a5,a5,a4
GAS LISTING C:\Users\test\AppData\Local\Temp\ccJ7WdPA.s 			page 7


 185              	.LVL14:
 135:arch/riscv/mach-gd32vf10x/bsp/gd32vf103_spi.c **** 
 136:arch/riscv/mach-gd32vf10x/bsp/gd32vf103_spi.c ****     /* write to SPI_CTL0 register */
 137:arch/riscv/mach-gd32vf10x/bsp/gd32vf103_spi.c ****     SPI_CTL0(spi_periph) = (uint32_t)reg;
 186              		.loc 1 137 5 is_stmt 1
 187              		.loc 1 137 26 is_stmt 0
 188 002e 1CC1     		sw	a5,0(a0)
 138:arch/riscv/mach-gd32vf10x/bsp/gd32vf103_spi.c **** 
 139:arch/riscv/mach-gd32vf10x/bsp/gd32vf103_spi.c ****     SPI_I2SCTL(spi_periph) &= (uint32_t)(~SPI_I2SCTL_I2SSEL);
 189              		.loc 1 139 5 is_stmt 1
 190              		.loc 1 139 28 is_stmt 0
 191 0030 5C4D     		lw	a5,28(a0)
 192              	.LVL15:
 193 0032 7D77     		li	a4,-4096
 194 0034 1307F77F 		addi	a4,a4,2047
 195 0038 F98F     		and	a5,a5,a4
 196 003a 5CCD     		sw	a5,28(a0)
 197              	.LVL16:
 140:arch/riscv/mach-gd32vf10x/bsp/gd32vf103_spi.c **** }
 198              		.loc 1 140 1
 199 003c 8280     		ret
 200              		.cfi_endproc
 201              	.LFE4:
 203              		.section	.text.spi_enable,"ax",@progbits
 204              		.align	1
 205              		.globl	spi_enable
 207              	spi_enable:
 208              	.LFB5:
 141:arch/riscv/mach-gd32vf10x/bsp/gd32vf103_spi.c **** 
 142:arch/riscv/mach-gd32vf10x/bsp/gd32vf103_spi.c **** /*!
 143:arch/riscv/mach-gd32vf10x/bsp/gd32vf103_spi.c ****     \brief      enable SPI
 144:arch/riscv/mach-gd32vf10x/bsp/gd32vf103_spi.c ****     \param[in]  spi_periph: SPIx(x=0,1,2)
 145:arch/riscv/mach-gd32vf10x/bsp/gd32vf103_spi.c ****     \param[out] none
 146:arch/riscv/mach-gd32vf10x/bsp/gd32vf103_spi.c ****     \retval     none
 147:arch/riscv/mach-gd32vf10x/bsp/gd32vf103_spi.c **** */
 148:arch/riscv/mach-gd32vf10x/bsp/gd32vf103_spi.c **** void spi_enable(uint32_t spi_periph)
 149:arch/riscv/mach-gd32vf10x/bsp/gd32vf103_spi.c **** {
 209              		.loc 1 149 1 is_stmt 1
 210              		.cfi_startproc
 211              	.LVL17:
 150:arch/riscv/mach-gd32vf10x/bsp/gd32vf103_spi.c ****     SPI_CTL0(spi_periph) |= (uint32_t)SPI_CTL0_SPIEN;
 212              		.loc 1 150 5
 213              		.loc 1 150 26 is_stmt 0
 214 0000 1C41     		lw	a5,0(a0)
 215 0002 93E70704 		ori	a5,a5,64
 216 0006 1CC1     		sw	a5,0(a0)
 151:arch/riscv/mach-gd32vf10x/bsp/gd32vf103_spi.c **** }
 217              		.loc 1 151 1
 218 0008 8280     		ret
 219              		.cfi_endproc
 220              	.LFE5:
 222              		.section	.text.spi_disable,"ax",@progbits
 223              		.align	1
 224              		.globl	spi_disable
 226              	spi_disable:
 227              	.LFB6:
 152:arch/riscv/mach-gd32vf10x/bsp/gd32vf103_spi.c **** 
GAS LISTING C:\Users\test\AppData\Local\Temp\ccJ7WdPA.s 			page 8


 153:arch/riscv/mach-gd32vf10x/bsp/gd32vf103_spi.c **** /*!
 154:arch/riscv/mach-gd32vf10x/bsp/gd32vf103_spi.c ****     \brief      disable SPI 
 155:arch/riscv/mach-gd32vf10x/bsp/gd32vf103_spi.c ****     \param[in]  spi_periph: SPIx(x=0,1,2)
 156:arch/riscv/mach-gd32vf10x/bsp/gd32vf103_spi.c ****     \param[out] none
 157:arch/riscv/mach-gd32vf10x/bsp/gd32vf103_spi.c ****     \retval     none
 158:arch/riscv/mach-gd32vf10x/bsp/gd32vf103_spi.c **** */
 159:arch/riscv/mach-gd32vf10x/bsp/gd32vf103_spi.c **** void spi_disable(uint32_t spi_periph)
 160:arch/riscv/mach-gd32vf10x/bsp/gd32vf103_spi.c **** {
 228              		.loc 1 160 1 is_stmt 1
 229              		.cfi_startproc
 230              	.LVL18:
 161:arch/riscv/mach-gd32vf10x/bsp/gd32vf103_spi.c ****     SPI_CTL0(spi_periph) &= (uint32_t)(~SPI_CTL0_SPIEN);
 231              		.loc 1 161 5
 232              		.loc 1 161 26 is_stmt 0
 233 0000 1C41     		lw	a5,0(a0)
 234 0002 93F7F7FB 		andi	a5,a5,-65
 235 0006 1CC1     		sw	a5,0(a0)
 162:arch/riscv/mach-gd32vf10x/bsp/gd32vf103_spi.c **** }
 236              		.loc 1 162 1
 237 0008 8280     		ret
 238              		.cfi_endproc
 239              	.LFE6:
 241              		.section	.text.i2s_init,"ax",@progbits
 242              		.align	1
 243              		.globl	i2s_init
 245              	i2s_init:
 246              	.LFB7:
 163:arch/riscv/mach-gd32vf10x/bsp/gd32vf103_spi.c **** 
 164:arch/riscv/mach-gd32vf10x/bsp/gd32vf103_spi.c **** /*!
 165:arch/riscv/mach-gd32vf10x/bsp/gd32vf103_spi.c ****     \brief      initialize I2S parameter 
 166:arch/riscv/mach-gd32vf10x/bsp/gd32vf103_spi.c ****     \param[in]  spi_periph: SPIx(x=1,2)
 167:arch/riscv/mach-gd32vf10x/bsp/gd32vf103_spi.c ****     \param[in]  mode: I2S operation mode
 168:arch/riscv/mach-gd32vf10x/bsp/gd32vf103_spi.c ****                 only one parameter can be selected which is shown as below:
 169:arch/riscv/mach-gd32vf10x/bsp/gd32vf103_spi.c ****       \arg        I2S_MODE_SLAVETX: I2S slave transmit mode
 170:arch/riscv/mach-gd32vf10x/bsp/gd32vf103_spi.c ****       \arg        I2S_MODE_SLAVERX: I2S slave receive mode
 171:arch/riscv/mach-gd32vf10x/bsp/gd32vf103_spi.c ****       \arg        I2S_MODE_MASTERTX: I2S master transmit mode
 172:arch/riscv/mach-gd32vf10x/bsp/gd32vf103_spi.c ****       \arg        I2S_MODE_MASTERRX: I2S master receive mode
 173:arch/riscv/mach-gd32vf10x/bsp/gd32vf103_spi.c ****     \param[in]  standard: I2S standard
 174:arch/riscv/mach-gd32vf10x/bsp/gd32vf103_spi.c ****                 only one parameter can be selected which is shown as below:
 175:arch/riscv/mach-gd32vf10x/bsp/gd32vf103_spi.c ****       \arg        I2S_STD_PHILLIPS: I2S phillips standard
 176:arch/riscv/mach-gd32vf10x/bsp/gd32vf103_spi.c ****       \arg        I2S_STD_MSB: I2S MSB standard
 177:arch/riscv/mach-gd32vf10x/bsp/gd32vf103_spi.c ****       \arg        I2S_STD_LSB: I2S LSB standard
 178:arch/riscv/mach-gd32vf10x/bsp/gd32vf103_spi.c ****       \arg        I2S_STD_PCMSHORT: I2S PCM short standard
 179:arch/riscv/mach-gd32vf10x/bsp/gd32vf103_spi.c ****       \arg        I2S_STD_PCMLONG: I2S PCM long standard
 180:arch/riscv/mach-gd32vf10x/bsp/gd32vf103_spi.c ****     \param[in]  ckpl: I2S idle state clock polarity
 181:arch/riscv/mach-gd32vf10x/bsp/gd32vf103_spi.c ****                 only one parameter can be selected which is shown as below:
 182:arch/riscv/mach-gd32vf10x/bsp/gd32vf103_spi.c ****       \arg        I2S_CKPL_LOW: I2S clock polarity low level
 183:arch/riscv/mach-gd32vf10x/bsp/gd32vf103_spi.c ****       \arg        I2S_CKPL_HIGH: I2S clock polarity high level
 184:arch/riscv/mach-gd32vf10x/bsp/gd32vf103_spi.c ****     \param[out] none
 185:arch/riscv/mach-gd32vf10x/bsp/gd32vf103_spi.c ****     \retval     none
 186:arch/riscv/mach-gd32vf10x/bsp/gd32vf103_spi.c **** */
 187:arch/riscv/mach-gd32vf10x/bsp/gd32vf103_spi.c **** void i2s_init(uint32_t spi_periph, uint32_t mode, uint32_t standard, uint32_t ckpl)
 188:arch/riscv/mach-gd32vf10x/bsp/gd32vf103_spi.c **** {
 247              		.loc 1 188 1 is_stmt 1
 248              		.cfi_startproc
 249              	.LVL19:
 189:arch/riscv/mach-gd32vf10x/bsp/gd32vf103_spi.c ****     uint32_t reg = 0U;
GAS LISTING C:\Users\test\AppData\Local\Temp\ccJ7WdPA.s 			page 9


 250              		.loc 1 189 5
 190:arch/riscv/mach-gd32vf10x/bsp/gd32vf103_spi.c ****     reg = SPI_I2SCTL(spi_periph);
 251              		.loc 1 190 5
 252              		.loc 1 190 9 is_stmt 0
 253 0000 5C4D     		lw	a5,28(a0)
 254              	.LVL20:
 191:arch/riscv/mach-gd32vf10x/bsp/gd32vf103_spi.c ****     reg &= I2S_INIT_MASK;
 255              		.loc 1 191 5 is_stmt 1
 192:arch/riscv/mach-gd32vf10x/bsp/gd32vf103_spi.c **** 
 193:arch/riscv/mach-gd32vf10x/bsp/gd32vf103_spi.c ****     /* enable I2S mode */
 194:arch/riscv/mach-gd32vf10x/bsp/gd32vf103_spi.c ****     reg |= (uint32_t)SPI_I2SCTL_I2SSEL; 
 256              		.loc 1 194 5
 195:arch/riscv/mach-gd32vf10x/bsp/gd32vf103_spi.c ****     /* select I2S mode */
 196:arch/riscv/mach-gd32vf10x/bsp/gd32vf103_spi.c ****     reg |= (uint32_t)mode;
 257              		.loc 1 196 5
 197:arch/riscv/mach-gd32vf10x/bsp/gd32vf103_spi.c ****     /* select I2S standard */
 198:arch/riscv/mach-gd32vf10x/bsp/gd32vf103_spi.c ****     reg |= (uint32_t)standard;
 258              		.loc 1 198 5
 191:arch/riscv/mach-gd32vf10x/bsp/gd32vf103_spi.c **** 
 259              		.loc 1 191 9 is_stmt 0
 260 0002 3D67     		li	a4,61440
 261 0004 13077704 		addi	a4,a4,71
 262 0008 F98F     		and	a5,a5,a4
 263              	.LVL21:
 264 000a DD8E     		or	a3,a5,a3
 265              	.LVL22:
 266 000c D18E     		or	a3,a3,a2
 267 000e CD8E     		or	a3,a3,a1
 199:arch/riscv/mach-gd32vf10x/bsp/gd32vf103_spi.c ****     /* select I2S polarity */
 200:arch/riscv/mach-gd32vf10x/bsp/gd32vf103_spi.c ****     reg |= (uint32_t)ckpl;
 268              		.loc 1 200 5 is_stmt 1
 269              		.loc 1 200 9 is_stmt 0
 270 0010 8565     		li	a1,4096
 271              	.LVL23:
 272 0012 93850580 		addi	a1,a1,-2048
 273 0016 CD8E     		or	a3,a3,a1
 274              	.LVL24:
 201:arch/riscv/mach-gd32vf10x/bsp/gd32vf103_spi.c **** 
 202:arch/riscv/mach-gd32vf10x/bsp/gd32vf103_spi.c ****     /* write to SPI_I2SCTL register */
 203:arch/riscv/mach-gd32vf10x/bsp/gd32vf103_spi.c ****     SPI_I2SCTL(spi_periph) = (uint32_t)reg;
 275              		.loc 1 203 5 is_stmt 1
 276              		.loc 1 203 28 is_stmt 0
 277 0018 54CD     		sw	a3,28(a0)
 204:arch/riscv/mach-gd32vf10x/bsp/gd32vf103_spi.c **** }
 278              		.loc 1 204 1
 279 001a 8280     		ret
 280              		.cfi_endproc
 281              	.LFE7:
 283              		.section	.text.i2s_psc_config,"ax",@progbits
 284              		.align	1
 285              		.globl	i2s_psc_config
 287              	i2s_psc_config:
 288              	.LFB8:
 205:arch/riscv/mach-gd32vf10x/bsp/gd32vf103_spi.c **** 
 206:arch/riscv/mach-gd32vf10x/bsp/gd32vf103_spi.c **** /*!
 207:arch/riscv/mach-gd32vf10x/bsp/gd32vf103_spi.c ****     \brief      configure I2S prescaler 
 208:arch/riscv/mach-gd32vf10x/bsp/gd32vf103_spi.c ****     \param[in]  spi_periph: SPIx(x=1,2)
GAS LISTING C:\Users\test\AppData\Local\Temp\ccJ7WdPA.s 			page 10


 209:arch/riscv/mach-gd32vf10x/bsp/gd32vf103_spi.c ****     \param[in]  audiosample: I2S audio sample rate
 210:arch/riscv/mach-gd32vf10x/bsp/gd32vf103_spi.c ****                 only one parameter can be selected which is shown as below:
 211:arch/riscv/mach-gd32vf10x/bsp/gd32vf103_spi.c ****       \arg        I2S_AUDIOSAMPLE_8K: audio sample rate is 8KHz
 212:arch/riscv/mach-gd32vf10x/bsp/gd32vf103_spi.c ****       \arg        I2S_AUDIOSAMPLE_11K: audio sample rate is 11KHz
 213:arch/riscv/mach-gd32vf10x/bsp/gd32vf103_spi.c ****       \arg        I2S_AUDIOSAMPLE_16K: audio sample rate is 16KHz
 214:arch/riscv/mach-gd32vf10x/bsp/gd32vf103_spi.c ****       \arg        I2S_AUDIOSAMPLE_22K: audio sample rate is 22KHz
 215:arch/riscv/mach-gd32vf10x/bsp/gd32vf103_spi.c ****       \arg        I2S_AUDIOSAMPLE_32K: audio sample rate is 32KHz
 216:arch/riscv/mach-gd32vf10x/bsp/gd32vf103_spi.c ****       \arg        I2S_AUDIOSAMPLE_44K: audio sample rate is 44KHz
 217:arch/riscv/mach-gd32vf10x/bsp/gd32vf103_spi.c ****       \arg        I2S_AUDIOSAMPLE_48K: audio sample rate is 48KHz
 218:arch/riscv/mach-gd32vf10x/bsp/gd32vf103_spi.c ****       \arg        I2S_AUDIOSAMPLE_96K: audio sample rate is 96KHz
 219:arch/riscv/mach-gd32vf10x/bsp/gd32vf103_spi.c ****       \arg        I2S_AUDIOSAMPLE_192K: audio sample rate is 192KHz
 220:arch/riscv/mach-gd32vf10x/bsp/gd32vf103_spi.c ****     \param[in]  frameformat: I2S data length and channel length
 221:arch/riscv/mach-gd32vf10x/bsp/gd32vf103_spi.c ****                 only one parameter can be selected which is shown as below:
 222:arch/riscv/mach-gd32vf10x/bsp/gd32vf103_spi.c ****       \arg        I2S_FRAMEFORMAT_DT16B_CH16B: I2S data length is 16 bit and channel length is 16 b
 223:arch/riscv/mach-gd32vf10x/bsp/gd32vf103_spi.c ****       \arg        I2S_FRAMEFORMAT_DT16B_CH32B: I2S data length is 16 bit and channel length is 32 b
 224:arch/riscv/mach-gd32vf10x/bsp/gd32vf103_spi.c ****       \arg        I2S_FRAMEFORMAT_DT24B_CH32B: I2S data length is 24 bit and channel length is 32 b
 225:arch/riscv/mach-gd32vf10x/bsp/gd32vf103_spi.c ****       \arg        I2S_FRAMEFORMAT_DT32B_CH32B: I2S data length is 32 bit and channel length is 32 b
 226:arch/riscv/mach-gd32vf10x/bsp/gd32vf103_spi.c ****     \param[in]  mckout: I2S master clock output
 227:arch/riscv/mach-gd32vf10x/bsp/gd32vf103_spi.c ****                 only one parameter can be selected which is shown as below:
 228:arch/riscv/mach-gd32vf10x/bsp/gd32vf103_spi.c ****       \arg        I2S_MCKOUT_ENABLE: I2S master clock output enable
 229:arch/riscv/mach-gd32vf10x/bsp/gd32vf103_spi.c ****       \arg        I2S_MCKOUT_DISABLE: I2S master clock output disable
 230:arch/riscv/mach-gd32vf10x/bsp/gd32vf103_spi.c ****     \param[out] none
 231:arch/riscv/mach-gd32vf10x/bsp/gd32vf103_spi.c ****     \retval     none
 232:arch/riscv/mach-gd32vf10x/bsp/gd32vf103_spi.c **** */
 233:arch/riscv/mach-gd32vf10x/bsp/gd32vf103_spi.c **** void i2s_psc_config(uint32_t spi_periph, uint32_t audiosample, uint32_t frameformat, uint32_t mckou
 234:arch/riscv/mach-gd32vf10x/bsp/gd32vf103_spi.c **** {
 289              		.loc 1 234 1 is_stmt 1
 290              		.cfi_startproc
 291              	.LVL25:
 235:arch/riscv/mach-gd32vf10x/bsp/gd32vf103_spi.c ****     uint32_t i2sdiv = 2U, i2sof = 0U;
 292              		.loc 1 235 5
 236:arch/riscv/mach-gd32vf10x/bsp/gd32vf103_spi.c ****     uint32_t clks = 0U;
 293              		.loc 1 236 5
 237:arch/riscv/mach-gd32vf10x/bsp/gd32vf103_spi.c ****     uint32_t i2sclock = 0U;
 294              		.loc 1 237 5
 238:arch/riscv/mach-gd32vf10x/bsp/gd32vf103_spi.c **** 
 239:arch/riscv/mach-gd32vf10x/bsp/gd32vf103_spi.c ****     /* deinit SPI_I2SPSC register */
 240:arch/riscv/mach-gd32vf10x/bsp/gd32vf103_spi.c ****     SPI_I2SPSC(spi_periph) = SPI_I2SPSC_DEFAULT_VALUE;
 295              		.loc 1 240 5
 234:arch/riscv/mach-gd32vf10x/bsp/gd32vf103_spi.c ****     uint32_t i2sdiv = 2U, i2sof = 0U;
 296              		.loc 1 234 1 is_stmt 0
 297 0000 0111     		addi	sp,sp,-32
 298              	.LCFI8:
 299              		.cfi_def_cfa_offset 32
 300 0002 22CC     		sw	s0,24(sp)
 301 0004 06CE     		sw	ra,28(sp)
 302              		.cfi_offset 8, -8
 303              		.cfi_offset 1, -4
 304              		.loc 1 240 28
 305 0006 8947     		li	a5,2
 241:arch/riscv/mach-gd32vf10x/bsp/gd32vf103_spi.c **** 
 242:arch/riscv/mach-gd32vf10x/bsp/gd32vf103_spi.c ****     /* get the I2S clock source */
 243:arch/riscv/mach-gd32vf10x/bsp/gd32vf103_spi.c ****     if(SPI1 == ((uint32_t)spi_periph)){
 306              		.loc 1 243 7
 307 0008 37470040 		li	a4,1073758208
 234:arch/riscv/mach-gd32vf10x/bsp/gd32vf103_spi.c ****     uint32_t i2sdiv = 2U, i2sof = 0U;
 308              		.loc 1 234 1
GAS LISTING C:\Users\test\AppData\Local\Temp\ccJ7WdPA.s 			page 11


 309 000c 2A84     		mv	s0,a0
 240:arch/riscv/mach-gd32vf10x/bsp/gd32vf103_spi.c **** 
 310              		.loc 1 240 28
 311 000e 1CD1     		sw	a5,32(a0)
 312              		.loc 1 243 5 is_stmt 1
 313              		.loc 1 243 7 is_stmt 0
 314 0010 13070780 		addi	a4,a4,-2048
 244:arch/riscv/mach-gd32vf10x/bsp/gd32vf103_spi.c ****         /* I2S1 clock source selection */
 245:arch/riscv/mach-gd32vf10x/bsp/gd32vf103_spi.c ****         clks = I2S1_CLOCK_SEL;
 246:arch/riscv/mach-gd32vf10x/bsp/gd32vf103_spi.c ****     }else{
 247:arch/riscv/mach-gd32vf10x/bsp/gd32vf103_spi.c ****         /* I2S2 clock source selection */
 248:arch/riscv/mach-gd32vf10x/bsp/gd32vf103_spi.c ****         clks = I2S2_CLOCK_SEL;
 315              		.loc 1 248 14
 316 0014 37050400 		li	a0,262144
 317              	.LVL26:
 243:arch/riscv/mach-gd32vf10x/bsp/gd32vf103_spi.c ****         /* I2S1 clock source selection */
 318              		.loc 1 243 7
 319 0018 6314E400 		bne	s0,a4,.L16
 320 001c 37050200 		li	a0,131072
 321              	.L16:
 322              	.LVL27:
 249:arch/riscv/mach-gd32vf10x/bsp/gd32vf103_spi.c ****     }
 250:arch/riscv/mach-gd32vf10x/bsp/gd32vf103_spi.c ****     
 251:arch/riscv/mach-gd32vf10x/bsp/gd32vf103_spi.c ****     if(0U != (RCU_CFG1 & clks)){
 323              		.loc 1 251 5 is_stmt 1
 324              		.loc 1 251 15 is_stmt 0
 325 0020 37170240 		li	a4,1073876992
 326 0024 5C57     		lw	a5,44(a4)
 327              		.loc 1 251 24
 328 0026 E98F     		and	a5,a5,a0
 329              		.loc 1 251 7
 330 0028 CDCB     		beq	a5,zero,.L17
 252:arch/riscv/mach-gd32vf10x/bsp/gd32vf103_spi.c ****         /* get RCU PLL2 clock multiplication factor */
 253:arch/riscv/mach-gd32vf10x/bsp/gd32vf103_spi.c ****         clks = (uint32_t)((RCU_CFG1 & I2S_CLOCK_MUL_MASK) >> RCU_CFG1_PLL2MF_OFFSET);
 331              		.loc 1 253 9 is_stmt 1
 332              		.loc 1 253 28 is_stmt 0
 333 002a 4857     		lw	a0,44(a4)
 334              	.LVL28:
 254:arch/riscv/mach-gd32vf10x/bsp/gd32vf103_spi.c ****         
 255:arch/riscv/mach-gd32vf10x/bsp/gd32vf103_spi.c ****         if((clks > 5U) && (clks < 15U)){
 335              		.loc 1 255 11
 336 002c 2147     		li	a4,8
 253:arch/riscv/mach-gd32vf10x/bsp/gd32vf103_spi.c ****         
 337              		.loc 1 253 16
 338 002e 3181     		srli	a0,a0,12
 253:arch/riscv/mach-gd32vf10x/bsp/gd32vf103_spi.c ****         
 339              		.loc 1 253 14
 340 0030 9377F500 		andi	a5,a0,15
 341              	.LVL29:
 342              		.loc 1 255 9 is_stmt 1
 343              		.loc 1 255 24 is_stmt 0
 344 0034 1385A7FF 		addi	a0,a5,-6
 345              		.loc 1 255 11
 346 0038 636CA706 		bgtu	a0,a4,.L18
 256:arch/riscv/mach-gd32vf10x/bsp/gd32vf103_spi.c ****             /* multiplier is between 8 and 16 */
 257:arch/riscv/mach-gd32vf10x/bsp/gd32vf103_spi.c ****             clks += 2U;
 347              		.loc 1 257 13 is_stmt 1
GAS LISTING C:\Users\test\AppData\Local\Temp\ccJ7WdPA.s 			page 12


 348              		.loc 1 257 18 is_stmt 0
 349 003c 8907     		addi	a5,a5,2
 350              	.LVL30:
 351              	.L19:
 258:arch/riscv/mach-gd32vf10x/bsp/gd32vf103_spi.c ****         }else{
 259:arch/riscv/mach-gd32vf10x/bsp/gd32vf103_spi.c ****             if(15U == clks){
 260:arch/riscv/mach-gd32vf10x/bsp/gd32vf103_spi.c ****                 /* multiplier is 20 */
 261:arch/riscv/mach-gd32vf10x/bsp/gd32vf103_spi.c ****                 clks = 20U;
 262:arch/riscv/mach-gd32vf10x/bsp/gd32vf103_spi.c ****             }
 263:arch/riscv/mach-gd32vf10x/bsp/gd32vf103_spi.c ****         }
 264:arch/riscv/mach-gd32vf10x/bsp/gd32vf103_spi.c **** 
 265:arch/riscv/mach-gd32vf10x/bsp/gd32vf103_spi.c ****         /* get the PREDV1 value */
 266:arch/riscv/mach-gd32vf10x/bsp/gd32vf103_spi.c ****         i2sclock = (uint32_t)(((RCU_CFG1 & I2S_CLOCK_DIV_MASK) >>  RCU_CFG1_PREDV1_OFFSET) + 1U);
 352              		.loc 1 266 9 is_stmt 1
 353              		.loc 1 266 33 is_stmt 0
 354 003e 37170240 		li	a4,1073876992
 355 0042 4857     		lw	a0,44(a4)
 356              	.LVL31:
 267:arch/riscv/mach-gd32vf10x/bsp/gd32vf103_spi.c ****         /* calculate I2S clock based on PLL2 and PREDV1 */
 268:arch/riscv/mach-gd32vf10x/bsp/gd32vf103_spi.c ****         i2sclock = (uint32_t)((HXTAL_VALUE / i2sclock) * clks * 2U);
 357              		.loc 1 268 9 is_stmt 1
 266:arch/riscv/mach-gd32vf10x/bsp/gd32vf103_spi.c ****         /* calculate I2S clock based on PLL2 and PREDV1 */
 358              		.loc 1 266 64 is_stmt 0
 359 0044 1181     		srli	a0,a0,4
 360              	.LVL32:
 361 0046 3D89     		andi	a0,a0,15
 266:arch/riscv/mach-gd32vf10x/bsp/gd32vf103_spi.c ****         /* calculate I2S clock based on PLL2 and PREDV1 */
 362              		.loc 1 266 18
 363 0048 13071500 		addi	a4,a0,1
 364              	.LVL33:
 365              		.loc 1 268 44
 366 004c 37157A00 		li	a0,7999488
 367 0050 13050520 		addi	a0,a0,512
 368 0054 3355E502 		divu	a0,a0,a4
 369 0058 3305F502 		mul	a0,a0,a5
 370              		.loc 1 268 18
 371 005c 0605     		slli	a0,a0,1
 372              	.LVL34:
 373              	.L20:
 269:arch/riscv/mach-gd32vf10x/bsp/gd32vf103_spi.c ****     }else{
 270:arch/riscv/mach-gd32vf10x/bsp/gd32vf103_spi.c ****         /* get system clock */
 271:arch/riscv/mach-gd32vf10x/bsp/gd32vf103_spi.c ****         i2sclock = rcu_clock_freq_get(CK_SYS);
 272:arch/riscv/mach-gd32vf10x/bsp/gd32vf103_spi.c ****     }
 273:arch/riscv/mach-gd32vf10x/bsp/gd32vf103_spi.c ****     
 274:arch/riscv/mach-gd32vf10x/bsp/gd32vf103_spi.c ****     /* config the prescaler depending on the mclk output state, the frame format and audio sample r
 275:arch/riscv/mach-gd32vf10x/bsp/gd32vf103_spi.c ****     if(I2S_MCKOUT_ENABLE == mckout){
 374              		.loc 1 275 5 is_stmt 1
 375              		.loc 1 275 7 is_stmt 0
 376 005e 93070020 		li	a5,512
 377 0062 638CF604 		beq	a3,a5,.L29
 276:arch/riscv/mach-gd32vf10x/bsp/gd32vf103_spi.c ****         clks = (uint32_t)(((i2sclock / 256U) * 10U) / audiosample);
 277:arch/riscv/mach-gd32vf10x/bsp/gd32vf103_spi.c ****     }else{
 278:arch/riscv/mach-gd32vf10x/bsp/gd32vf103_spi.c ****         if(I2S_FRAMEFORMAT_DT16B_CH16B == frameformat){
 378              		.loc 1 278 9 is_stmt 1
 379              		.loc 1 278 11 is_stmt 0
 380 0066 35E2     		bne	a2,zero,.L23
 279:arch/riscv/mach-gd32vf10x/bsp/gd32vf103_spi.c ****             clks = (uint32_t)(((i2sclock / 32U) *10U ) / audiosample);
GAS LISTING C:\Users\test\AppData\Local\Temp\ccJ7WdPA.s 			page 13


 381              		.loc 1 279 13 is_stmt 1
 382              		.loc 1 279 42 is_stmt 0
 383 0068 1581     		srli	a0,a0,5
 384              	.LVL35:
 385              		.loc 1 279 49
 386 006a 93172500 		slli	a5,a0,2
 387 006e 3E95     		add	a0,a5,a0
 388 0070 0605     		slli	a0,a0,1
 389              		.loc 1 279 18
 390 0072 B355B502 		divu	a1,a0,a1
 391              	.LVL36:
 392              	.L22:
 280:arch/riscv/mach-gd32vf10x/bsp/gd32vf103_spi.c ****         }else{
 281:arch/riscv/mach-gd32vf10x/bsp/gd32vf103_spi.c ****             clks = (uint32_t)(((i2sclock / 64U) *10U ) / audiosample);
 282:arch/riscv/mach-gd32vf10x/bsp/gd32vf103_spi.c ****         }
 283:arch/riscv/mach-gd32vf10x/bsp/gd32vf103_spi.c ****     }
 284:arch/riscv/mach-gd32vf10x/bsp/gd32vf103_spi.c ****     
 285:arch/riscv/mach-gd32vf10x/bsp/gd32vf103_spi.c ****     /* remove the floating point */
 286:arch/riscv/mach-gd32vf10x/bsp/gd32vf103_spi.c ****     clks = (clks + 5U) / 10U;
 393              		.loc 1 286 5 is_stmt 1
 394              		.loc 1 286 10 is_stmt 0
 395 0076 2947     		li	a4,10
 396              		.loc 1 286 18
 397 0078 9505     		addi	a1,a1,5
 398              	.LVL37:
 287:arch/riscv/mach-gd32vf10x/bsp/gd32vf103_spi.c ****     i2sof  = (clks & 0x00000001U);
 288:arch/riscv/mach-gd32vf10x/bsp/gd32vf103_spi.c ****     i2sdiv = ((clks - i2sof) / 2U);
 289:arch/riscv/mach-gd32vf10x/bsp/gd32vf103_spi.c ****     i2sof  = (i2sof << 8U);
 290:arch/riscv/mach-gd32vf10x/bsp/gd32vf103_spi.c **** 
 291:arch/riscv/mach-gd32vf10x/bsp/gd32vf103_spi.c ****     /* set the default values */
 292:arch/riscv/mach-gd32vf10x/bsp/gd32vf103_spi.c ****     if((i2sdiv < 2U) || (i2sdiv > 255U)){
 399              		.loc 1 292 7
 400 007a 1305D00F 		li	a0,253
 401 007e 8947     		li	a5,2
 286:arch/riscv/mach-gd32vf10x/bsp/gd32vf103_spi.c ****     i2sof  = (clks & 0x00000001U);
 402              		.loc 1 286 10
 403 0080 B3D5E502 		divu	a1,a1,a4
 404              	.LVL38:
 287:arch/riscv/mach-gd32vf10x/bsp/gd32vf103_spi.c ****     i2sof  = (clks & 0x00000001U);
 405              		.loc 1 287 5 is_stmt 1
 288:arch/riscv/mach-gd32vf10x/bsp/gd32vf103_spi.c ****     i2sof  = (i2sof << 8U);
 406              		.loc 1 288 5
 288:arch/riscv/mach-gd32vf10x/bsp/gd32vf103_spi.c ****     i2sof  = (i2sof << 8U);
 407              		.loc 1 288 12 is_stmt 0
 408 0084 13D71500 		srli	a4,a1,1
 409              	.LVL39:
 289:arch/riscv/mach-gd32vf10x/bsp/gd32vf103_spi.c **** 
 410              		.loc 1 289 5 is_stmt 1
 411              		.loc 1 292 22 is_stmt 0
 412 0088 1308E7FF 		addi	a6,a4,-2
 288:arch/riscv/mach-gd32vf10x/bsp/gd32vf103_spi.c ****     i2sof  = (i2sof << 8U);
 413              		.loc 1 288 21
 414 008c 8589     		andi	a1,a1,1
 415              	.LVL40:
 416              		.loc 1 292 5 is_stmt 1
 417              		.loc 1 292 7 is_stmt 0
 418 008e 63650501 		bgtu	a6,a0,.L24
GAS LISTING C:\Users\test\AppData\Local\Temp\ccJ7WdPA.s 			page 14


 289:arch/riscv/mach-gd32vf10x/bsp/gd32vf103_spi.c **** 
 419              		.loc 1 289 12
 420 0092 A205     		slli	a1,a1,8
 421              	.LVL41:
 422 0094 B3E7E500 		or	a5,a1,a4
 423              	.LVL42:
 424              	.L24:
 293:arch/riscv/mach-gd32vf10x/bsp/gd32vf103_spi.c ****         i2sdiv = 2U;
 294:arch/riscv/mach-gd32vf10x/bsp/gd32vf103_spi.c ****         i2sof = 0U;
 295:arch/riscv/mach-gd32vf10x/bsp/gd32vf103_spi.c ****     }
 296:arch/riscv/mach-gd32vf10x/bsp/gd32vf103_spi.c ****     /* configure SPI_I2SPSC */
 297:arch/riscv/mach-gd32vf10x/bsp/gd32vf103_spi.c ****     SPI_I2SPSC(spi_periph) = (uint32_t)(i2sdiv | i2sof | mckout);
 425              		.loc 1 297 5 is_stmt 1
 426              		.loc 1 297 56 is_stmt 0
 427 0098 DD8E     		or	a3,a3,a5
 428              		.loc 1 297 28
 429 009a 14D0     		sw	a3,32(s0)
 298:arch/riscv/mach-gd32vf10x/bsp/gd32vf103_spi.c **** 
 299:arch/riscv/mach-gd32vf10x/bsp/gd32vf103_spi.c ****     /* clear SPI_I2SCTL_DTLEN and SPI_I2SCTL_CHLEN bits */
 300:arch/riscv/mach-gd32vf10x/bsp/gd32vf103_spi.c ****     SPI_I2SCTL(spi_periph) &= (uint32_t)(~(SPI_I2SCTL_DTLEN | SPI_I2SCTL_CHLEN));
 430              		.loc 1 300 5 is_stmt 1
 431              		.loc 1 300 28 is_stmt 0
 432 009c 5C4C     		lw	a5,28(s0)
 301:arch/riscv/mach-gd32vf10x/bsp/gd32vf103_spi.c ****     /* configure data frame format */
 302:arch/riscv/mach-gd32vf10x/bsp/gd32vf103_spi.c ****     SPI_I2SCTL(spi_periph) |= (uint32_t)frameformat;
 303:arch/riscv/mach-gd32vf10x/bsp/gd32vf103_spi.c **** }
 433              		.loc 1 303 1
 434 009e F240     		lw	ra,28(sp)
 435              		.cfi_remember_state
 436              		.cfi_restore 1
 300:arch/riscv/mach-gd32vf10x/bsp/gd32vf103_spi.c ****     /* configure data frame format */
 437              		.loc 1 300 28
 438 00a0 E19B     		andi	a5,a5,-8
 439 00a2 5CCC     		sw	a5,28(s0)
 302:arch/riscv/mach-gd32vf10x/bsp/gd32vf103_spi.c **** }
 440              		.loc 1 302 5 is_stmt 1
 302:arch/riscv/mach-gd32vf10x/bsp/gd32vf103_spi.c **** }
 441              		.loc 1 302 28 is_stmt 0
 442 00a4 5C4C     		lw	a5,28(s0)
 443 00a6 5D8E     		or	a2,a5,a2
 444 00a8 50CC     		sw	a2,28(s0)
 445              		.loc 1 303 1
 446 00aa 6244     		lw	s0,24(sp)
 447              		.cfi_restore 8
 448              	.LVL43:
 449 00ac 0561     		addi	sp,sp,32
 450              	.LCFI9:
 451              		.cfi_def_cfa_offset 0
 452 00ae 8280     		jr	ra
 453              	.LVL44:
 454              	.L18:
 455              	.LCFI10:
 456              		.cfi_restore_state
 259:arch/riscv/mach-gd32vf10x/bsp/gd32vf103_spi.c ****                 /* multiplier is 20 */
 457              		.loc 1 259 13 is_stmt 1
 259:arch/riscv/mach-gd32vf10x/bsp/gd32vf103_spi.c ****                 /* multiplier is 20 */
 458              		.loc 1 259 15 is_stmt 0
GAS LISTING C:\Users\test\AppData\Local\Temp\ccJ7WdPA.s 			page 15


 459 00b0 3D47     		li	a4,15
 460 00b2 E396E7F8 		bne	a5,a4,.L19
 261:arch/riscv/mach-gd32vf10x/bsp/gd32vf103_spi.c ****             }
 461              		.loc 1 261 22
 462 00b6 D147     		li	a5,20
 463              	.LVL45:
 464 00b8 59B7     		j	.L19
 465              	.LVL46:
 466              	.L29:
 276:arch/riscv/mach-gd32vf10x/bsp/gd32vf103_spi.c ****     }else{
 467              		.loc 1 276 9 is_stmt 1
 276:arch/riscv/mach-gd32vf10x/bsp/gd32vf103_spi.c ****     }else{
 468              		.loc 1 276 38 is_stmt 0
 469 00ba 2181     		srli	a0,a0,8
 470              	.LVL47:
 276:arch/riscv/mach-gd32vf10x/bsp/gd32vf103_spi.c ****     }else{
 471              		.loc 1 276 46
 472 00bc 93172500 		slli	a5,a0,2
 473 00c0 3E95     		add	a0,a5,a0
 474 00c2 0605     		slli	a0,a0,1
 276:arch/riscv/mach-gd32vf10x/bsp/gd32vf103_spi.c ****     }else{
 475              		.loc 1 276 14
 476 00c4 B355B502 		divu	a1,a0,a1
 477              	.LVL48:
 478 00c8 7DB7     		j	.L22
 479              	.LVL49:
 480              	.L23:
 281:arch/riscv/mach-gd32vf10x/bsp/gd32vf103_spi.c ****         }
 481              		.loc 1 281 13 is_stmt 1
 281:arch/riscv/mach-gd32vf10x/bsp/gd32vf103_spi.c ****         }
 482              		.loc 1 281 42 is_stmt 0
 483 00ca 1981     		srli	a0,a0,6
 484              	.LVL50:
 281:arch/riscv/mach-gd32vf10x/bsp/gd32vf103_spi.c ****         }
 485              		.loc 1 281 49
 486 00cc 93172500 		slli	a5,a0,2
 487 00d0 3E95     		add	a0,a5,a0
 488 00d2 0605     		slli	a0,a0,1
 281:arch/riscv/mach-gd32vf10x/bsp/gd32vf103_spi.c ****         }
 489              		.loc 1 281 18
 490 00d4 B355B502 		divu	a1,a0,a1
 491              	.LVL51:
 492 00d8 79BF     		j	.L22
 493              	.LVL52:
 494              	.L17:
 271:arch/riscv/mach-gd32vf10x/bsp/gd32vf103_spi.c ****     }
 495              		.loc 1 271 20
 496 00da 0145     		li	a0,0
 497              	.LVL53:
 498 00dc 36C6     		sw	a3,12(sp)
 499 00de 32C4     		sw	a2,8(sp)
 500 00e0 2EC2     		sw	a1,4(sp)
 271:arch/riscv/mach-gd32vf10x/bsp/gd32vf103_spi.c ****     }
 501              		.loc 1 271 9 is_stmt 1
 271:arch/riscv/mach-gd32vf10x/bsp/gd32vf103_spi.c ****     }
 502              		.loc 1 271 20 is_stmt 0
 503 00e2 97000000 		call	rcu_clock_freq_get
GAS LISTING C:\Users\test\AppData\Local\Temp\ccJ7WdPA.s 			page 16


 503      E7800000 
 504              	.LVL54:
 505 00ea B246     		lw	a3,12(sp)
 506 00ec 2246     		lw	a2,8(sp)
 507 00ee 9245     		lw	a1,4(sp)
 508              	.LVL55:
 509 00f0 BDB7     		j	.L20
 510              		.cfi_endproc
 511              	.LFE8:
 513              		.section	.text.i2s_enable,"ax",@progbits
 514              		.align	1
 515              		.globl	i2s_enable
 517              	i2s_enable:
 518              	.LFB9:
 304:arch/riscv/mach-gd32vf10x/bsp/gd32vf103_spi.c **** 
 305:arch/riscv/mach-gd32vf10x/bsp/gd32vf103_spi.c **** /*!
 306:arch/riscv/mach-gd32vf10x/bsp/gd32vf103_spi.c ****     \brief      enable I2S 
 307:arch/riscv/mach-gd32vf10x/bsp/gd32vf103_spi.c ****     \param[in]  spi_periph: SPIx(x=1,2)
 308:arch/riscv/mach-gd32vf10x/bsp/gd32vf103_spi.c ****     \param[out] none
 309:arch/riscv/mach-gd32vf10x/bsp/gd32vf103_spi.c ****     \retval     none
 310:arch/riscv/mach-gd32vf10x/bsp/gd32vf103_spi.c **** */
 311:arch/riscv/mach-gd32vf10x/bsp/gd32vf103_spi.c **** void i2s_enable(uint32_t spi_periph)
 312:arch/riscv/mach-gd32vf10x/bsp/gd32vf103_spi.c **** {
 519              		.loc 1 312 1 is_stmt 1
 520              		.cfi_startproc
 521              	.LVL56:
 313:arch/riscv/mach-gd32vf10x/bsp/gd32vf103_spi.c ****     SPI_I2SCTL(spi_periph) |= (uint32_t)SPI_I2SCTL_I2SEN;
 522              		.loc 1 313 5
 523              		.loc 1 313 28 is_stmt 0
 524 0000 5C4D     		lw	a5,28(a0)
 525 0002 93E70740 		ori	a5,a5,1024
 526 0006 5CCD     		sw	a5,28(a0)
 314:arch/riscv/mach-gd32vf10x/bsp/gd32vf103_spi.c **** }
 527              		.loc 1 314 1
 528 0008 8280     		ret
 529              		.cfi_endproc
 530              	.LFE9:
 532              		.section	.text.i2s_disable,"ax",@progbits
 533              		.align	1
 534              		.globl	i2s_disable
 536              	i2s_disable:
 537              	.LFB10:
 315:arch/riscv/mach-gd32vf10x/bsp/gd32vf103_spi.c **** 
 316:arch/riscv/mach-gd32vf10x/bsp/gd32vf103_spi.c **** /*!
 317:arch/riscv/mach-gd32vf10x/bsp/gd32vf103_spi.c ****     \brief      disable I2S 
 318:arch/riscv/mach-gd32vf10x/bsp/gd32vf103_spi.c ****     \param[in]  spi_periph: SPIx(x=1,2)
 319:arch/riscv/mach-gd32vf10x/bsp/gd32vf103_spi.c ****     \param[out] none
 320:arch/riscv/mach-gd32vf10x/bsp/gd32vf103_spi.c ****     \retval     none
 321:arch/riscv/mach-gd32vf10x/bsp/gd32vf103_spi.c **** */
 322:arch/riscv/mach-gd32vf10x/bsp/gd32vf103_spi.c **** void i2s_disable(uint32_t spi_periph)
 323:arch/riscv/mach-gd32vf10x/bsp/gd32vf103_spi.c **** {
 538              		.loc 1 323 1 is_stmt 1
 539              		.cfi_startproc
 540              	.LVL57:
 324:arch/riscv/mach-gd32vf10x/bsp/gd32vf103_spi.c ****     SPI_I2SCTL(spi_periph) &= (uint32_t)(~SPI_I2SCTL_I2SEN);
 541              		.loc 1 324 5
 542              		.loc 1 324 28 is_stmt 0
GAS LISTING C:\Users\test\AppData\Local\Temp\ccJ7WdPA.s 			page 17


 543 0000 5C4D     		lw	a5,28(a0)
 544 0002 93F7F7BF 		andi	a5,a5,-1025
 545 0006 5CCD     		sw	a5,28(a0)
 325:arch/riscv/mach-gd32vf10x/bsp/gd32vf103_spi.c **** }
 546              		.loc 1 325 1
 547 0008 8280     		ret
 548              		.cfi_endproc
 549              	.LFE10:
 551              		.section	.text.spi_nss_output_enable,"ax",@progbits
 552              		.align	1
 553              		.globl	spi_nss_output_enable
 555              	spi_nss_output_enable:
 556              	.LFB11:
 326:arch/riscv/mach-gd32vf10x/bsp/gd32vf103_spi.c **** 
 327:arch/riscv/mach-gd32vf10x/bsp/gd32vf103_spi.c **** /*!
 328:arch/riscv/mach-gd32vf10x/bsp/gd32vf103_spi.c ****     \brief      enable SPI NSS output 
 329:arch/riscv/mach-gd32vf10x/bsp/gd32vf103_spi.c ****     \param[in]  spi_periph: SPIx(x=0,1,2)
 330:arch/riscv/mach-gd32vf10x/bsp/gd32vf103_spi.c ****     \param[out] none
 331:arch/riscv/mach-gd32vf10x/bsp/gd32vf103_spi.c ****     \retval     none
 332:arch/riscv/mach-gd32vf10x/bsp/gd32vf103_spi.c **** */
 333:arch/riscv/mach-gd32vf10x/bsp/gd32vf103_spi.c **** void spi_nss_output_enable(uint32_t spi_periph)
 334:arch/riscv/mach-gd32vf10x/bsp/gd32vf103_spi.c **** {
 557              		.loc 1 334 1 is_stmt 1
 558              		.cfi_startproc
 559              	.LVL58:
 335:arch/riscv/mach-gd32vf10x/bsp/gd32vf103_spi.c ****     SPI_CTL1(spi_periph) |= (uint32_t)SPI_CTL1_NSSDRV;
 560              		.loc 1 335 5
 561              		.loc 1 335 26 is_stmt 0
 562 0000 5C41     		lw	a5,4(a0)
 563 0002 93E74700 		ori	a5,a5,4
 564 0006 5CC1     		sw	a5,4(a0)
 336:arch/riscv/mach-gd32vf10x/bsp/gd32vf103_spi.c **** }
 565              		.loc 1 336 1
 566 0008 8280     		ret
 567              		.cfi_endproc
 568              	.LFE11:
 570              		.section	.text.spi_nss_output_disable,"ax",@progbits
 571              		.align	1
 572              		.globl	spi_nss_output_disable
 574              	spi_nss_output_disable:
 575              	.LFB12:
 337:arch/riscv/mach-gd32vf10x/bsp/gd32vf103_spi.c **** 
 338:arch/riscv/mach-gd32vf10x/bsp/gd32vf103_spi.c **** /*!
 339:arch/riscv/mach-gd32vf10x/bsp/gd32vf103_spi.c ****     \brief      disable SPI NSS output 
 340:arch/riscv/mach-gd32vf10x/bsp/gd32vf103_spi.c ****     \param[in]  spi_periph: SPIx(x=0,1,2)
 341:arch/riscv/mach-gd32vf10x/bsp/gd32vf103_spi.c ****     \param[out] none
 342:arch/riscv/mach-gd32vf10x/bsp/gd32vf103_spi.c ****     \retval     none
 343:arch/riscv/mach-gd32vf10x/bsp/gd32vf103_spi.c **** */
 344:arch/riscv/mach-gd32vf10x/bsp/gd32vf103_spi.c **** void spi_nss_output_disable(uint32_t spi_periph)
 345:arch/riscv/mach-gd32vf10x/bsp/gd32vf103_spi.c **** {
 576              		.loc 1 345 1 is_stmt 1
 577              		.cfi_startproc
 578              	.LVL59:
 346:arch/riscv/mach-gd32vf10x/bsp/gd32vf103_spi.c ****     SPI_CTL1(spi_periph) &= (uint32_t)(~SPI_CTL1_NSSDRV);
 579              		.loc 1 346 5
 580              		.loc 1 346 26 is_stmt 0
 581 0000 5C41     		lw	a5,4(a0)
GAS LISTING C:\Users\test\AppData\Local\Temp\ccJ7WdPA.s 			page 18


 582 0002 ED9B     		andi	a5,a5,-5
 583 0004 5CC1     		sw	a5,4(a0)
 347:arch/riscv/mach-gd32vf10x/bsp/gd32vf103_spi.c **** }
 584              		.loc 1 347 1
 585 0006 8280     		ret
 586              		.cfi_endproc
 587              	.LFE12:
 589              		.section	.text.spi_nss_internal_high,"ax",@progbits
 590              		.align	1
 591              		.globl	spi_nss_internal_high
 593              	spi_nss_internal_high:
 594              	.LFB13:
 348:arch/riscv/mach-gd32vf10x/bsp/gd32vf103_spi.c **** 
 349:arch/riscv/mach-gd32vf10x/bsp/gd32vf103_spi.c **** /*!
 350:arch/riscv/mach-gd32vf10x/bsp/gd32vf103_spi.c ****     \brief      SPI NSS pin high level in software mode
 351:arch/riscv/mach-gd32vf10x/bsp/gd32vf103_spi.c ****     \param[in]  spi_periph: SPIx(x=0,1,2)
 352:arch/riscv/mach-gd32vf10x/bsp/gd32vf103_spi.c ****     \param[out] none
 353:arch/riscv/mach-gd32vf10x/bsp/gd32vf103_spi.c ****     \retval     none
 354:arch/riscv/mach-gd32vf10x/bsp/gd32vf103_spi.c **** */
 355:arch/riscv/mach-gd32vf10x/bsp/gd32vf103_spi.c **** void spi_nss_internal_high(uint32_t spi_periph)
 356:arch/riscv/mach-gd32vf10x/bsp/gd32vf103_spi.c **** {
 595              		.loc 1 356 1 is_stmt 1
 596              		.cfi_startproc
 597              	.LVL60:
 357:arch/riscv/mach-gd32vf10x/bsp/gd32vf103_spi.c ****     SPI_CTL0(spi_periph) |= (uint32_t)SPI_CTL0_SWNSS;
 598              		.loc 1 357 5
 599              		.loc 1 357 26 is_stmt 0
 600 0000 1C41     		lw	a5,0(a0)
 601 0002 93E70710 		ori	a5,a5,256
 602 0006 1CC1     		sw	a5,0(a0)
 358:arch/riscv/mach-gd32vf10x/bsp/gd32vf103_spi.c **** }
 603              		.loc 1 358 1
 604 0008 8280     		ret
 605              		.cfi_endproc
 606              	.LFE13:
 608              		.section	.text.spi_nss_internal_low,"ax",@progbits
 609              		.align	1
 610              		.globl	spi_nss_internal_low
 612              	spi_nss_internal_low:
 613              	.LFB14:
 359:arch/riscv/mach-gd32vf10x/bsp/gd32vf103_spi.c **** 
 360:arch/riscv/mach-gd32vf10x/bsp/gd32vf103_spi.c **** /*!
 361:arch/riscv/mach-gd32vf10x/bsp/gd32vf103_spi.c ****     \brief      SPI NSS pin low level in software mode
 362:arch/riscv/mach-gd32vf10x/bsp/gd32vf103_spi.c ****     \param[in]  spi_periph: SPIx(x=0,1,2)
 363:arch/riscv/mach-gd32vf10x/bsp/gd32vf103_spi.c ****     \param[out] none
 364:arch/riscv/mach-gd32vf10x/bsp/gd32vf103_spi.c ****     \retval     none
 365:arch/riscv/mach-gd32vf10x/bsp/gd32vf103_spi.c **** */
 366:arch/riscv/mach-gd32vf10x/bsp/gd32vf103_spi.c **** void spi_nss_internal_low(uint32_t spi_periph)
 367:arch/riscv/mach-gd32vf10x/bsp/gd32vf103_spi.c **** {
 614              		.loc 1 367 1 is_stmt 1
 615              		.cfi_startproc
 616              	.LVL61:
 368:arch/riscv/mach-gd32vf10x/bsp/gd32vf103_spi.c ****     SPI_CTL0(spi_periph) &= (uint32_t)(~SPI_CTL0_SWNSS);
 617              		.loc 1 368 5
 618              		.loc 1 368 26 is_stmt 0
 619 0000 1C41     		lw	a5,0(a0)
 620 0002 93F7F7EF 		andi	a5,a5,-257
GAS LISTING C:\Users\test\AppData\Local\Temp\ccJ7WdPA.s 			page 19


 621 0006 1CC1     		sw	a5,0(a0)
 369:arch/riscv/mach-gd32vf10x/bsp/gd32vf103_spi.c **** }
 622              		.loc 1 369 1
 623 0008 8280     		ret
 624              		.cfi_endproc
 625              	.LFE14:
 627              		.section	.text.spi_dma_enable,"ax",@progbits
 628              		.align	1
 629              		.globl	spi_dma_enable
 631              	spi_dma_enable:
 632              	.LFB15:
 370:arch/riscv/mach-gd32vf10x/bsp/gd32vf103_spi.c **** 
 371:arch/riscv/mach-gd32vf10x/bsp/gd32vf103_spi.c **** /*!
 372:arch/riscv/mach-gd32vf10x/bsp/gd32vf103_spi.c ****     \brief      enable SPI DMA send or receive 
 373:arch/riscv/mach-gd32vf10x/bsp/gd32vf103_spi.c ****     \param[in]  spi_periph: SPIx(x=0,1,2)
 374:arch/riscv/mach-gd32vf10x/bsp/gd32vf103_spi.c ****     \param[in]  dma: SPI DMA mode
 375:arch/riscv/mach-gd32vf10x/bsp/gd32vf103_spi.c ****                 only one parameter can be selected which is shown as below:
 376:arch/riscv/mach-gd32vf10x/bsp/gd32vf103_spi.c ****       \arg        SPI_DMA_TRANSMIT: SPI transmit data using DMA
 377:arch/riscv/mach-gd32vf10x/bsp/gd32vf103_spi.c ****       \arg        SPI_DMA_RECEIVE: SPI receive data using DMA
 378:arch/riscv/mach-gd32vf10x/bsp/gd32vf103_spi.c ****     \param[out] none
 379:arch/riscv/mach-gd32vf10x/bsp/gd32vf103_spi.c ****     \retval     none
 380:arch/riscv/mach-gd32vf10x/bsp/gd32vf103_spi.c **** */
 381:arch/riscv/mach-gd32vf10x/bsp/gd32vf103_spi.c **** void spi_dma_enable(uint32_t spi_periph, uint8_t dma)
 382:arch/riscv/mach-gd32vf10x/bsp/gd32vf103_spi.c **** {
 633              		.loc 1 382 1 is_stmt 1
 634              		.cfi_startproc
 635              	.LVL62:
 383:arch/riscv/mach-gd32vf10x/bsp/gd32vf103_spi.c ****     if(SPI_DMA_TRANSMIT == dma){
 636              		.loc 1 383 5
 384:arch/riscv/mach-gd32vf10x/bsp/gd32vf103_spi.c ****         SPI_CTL1(spi_periph) |= (uint32_t)SPI_CTL1_DMATEN;
 637              		.loc 1 384 30 is_stmt 0
 638 0000 5C41     		lw	a5,4(a0)
 383:arch/riscv/mach-gd32vf10x/bsp/gd32vf103_spi.c ****     if(SPI_DMA_TRANSMIT == dma){
 639              		.loc 1 383 7
 640 0002 89E5     		bne	a1,zero,.L37
 641              		.loc 1 384 9 is_stmt 1
 642              		.loc 1 384 30 is_stmt 0
 643 0004 93E72700 		ori	a5,a5,2
 644 0008 5CC1     		sw	a5,4(a0)
 645 000a 8280     		ret
 646              	.L37:
 385:arch/riscv/mach-gd32vf10x/bsp/gd32vf103_spi.c ****     }else{
 386:arch/riscv/mach-gd32vf10x/bsp/gd32vf103_spi.c ****         SPI_CTL1(spi_periph) |= (uint32_t)SPI_CTL1_DMAREN;
 647              		.loc 1 386 9 is_stmt 1
 648              		.loc 1 386 30 is_stmt 0
 649 000c 93E71700 		ori	a5,a5,1
 650 0010 5CC1     		sw	a5,4(a0)
 387:arch/riscv/mach-gd32vf10x/bsp/gd32vf103_spi.c ****     }
 388:arch/riscv/mach-gd32vf10x/bsp/gd32vf103_spi.c **** }
 651              		.loc 1 388 1
 652 0012 8280     		ret
 653              		.cfi_endproc
 654              	.LFE15:
 656              		.section	.text.spi_dma_disable,"ax",@progbits
 657              		.align	1
 658              		.globl	spi_dma_disable
 660              	spi_dma_disable:
GAS LISTING C:\Users\test\AppData\Local\Temp\ccJ7WdPA.s 			page 20


 661              	.LFB16:
 389:arch/riscv/mach-gd32vf10x/bsp/gd32vf103_spi.c **** 
 390:arch/riscv/mach-gd32vf10x/bsp/gd32vf103_spi.c **** /*!
 391:arch/riscv/mach-gd32vf10x/bsp/gd32vf103_spi.c ****     \brief      disable SPI DMA send or receive 
 392:arch/riscv/mach-gd32vf10x/bsp/gd32vf103_spi.c ****     \param[in]  spi_periph: SPIx(x=0,1,2)
 393:arch/riscv/mach-gd32vf10x/bsp/gd32vf103_spi.c ****     \param[in]  dma: SPI DMA mode
 394:arch/riscv/mach-gd32vf10x/bsp/gd32vf103_spi.c ****                 only one parameter can be selected which is shown as below:
 395:arch/riscv/mach-gd32vf10x/bsp/gd32vf103_spi.c ****       \arg        SPI_DMA_TRANSMIT: SPI transmit data using DMA
 396:arch/riscv/mach-gd32vf10x/bsp/gd32vf103_spi.c ****       \arg        SPI_DMA_RECEIVE: SPI receive data using DMA
 397:arch/riscv/mach-gd32vf10x/bsp/gd32vf103_spi.c ****     \param[out] none
 398:arch/riscv/mach-gd32vf10x/bsp/gd32vf103_spi.c ****     \retval     none
 399:arch/riscv/mach-gd32vf10x/bsp/gd32vf103_spi.c **** */
 400:arch/riscv/mach-gd32vf10x/bsp/gd32vf103_spi.c **** void spi_dma_disable(uint32_t spi_periph, uint8_t dma)
 401:arch/riscv/mach-gd32vf10x/bsp/gd32vf103_spi.c **** {
 662              		.loc 1 401 1 is_stmt 1
 663              		.cfi_startproc
 664              	.LVL63:
 402:arch/riscv/mach-gd32vf10x/bsp/gd32vf103_spi.c ****     if(SPI_DMA_TRANSMIT == dma){
 665              		.loc 1 402 5
 403:arch/riscv/mach-gd32vf10x/bsp/gd32vf103_spi.c ****         SPI_CTL1(spi_periph) &= (uint32_t)(~SPI_CTL1_DMATEN);
 666              		.loc 1 403 30 is_stmt 0
 667 0000 5C41     		lw	a5,4(a0)
 402:arch/riscv/mach-gd32vf10x/bsp/gd32vf103_spi.c ****     if(SPI_DMA_TRANSMIT == dma){
 668              		.loc 1 402 7
 669 0002 81E5     		bne	a1,zero,.L40
 670              		.loc 1 403 9 is_stmt 1
 671              		.loc 1 403 30 is_stmt 0
 672 0004 F59B     		andi	a5,a5,-3
 673 0006 5CC1     		sw	a5,4(a0)
 674 0008 8280     		ret
 675              	.L40:
 404:arch/riscv/mach-gd32vf10x/bsp/gd32vf103_spi.c ****     }else{
 405:arch/riscv/mach-gd32vf10x/bsp/gd32vf103_spi.c ****         SPI_CTL1(spi_periph) &= (uint32_t)(~SPI_CTL1_DMAREN);
 676              		.loc 1 405 9 is_stmt 1
 677              		.loc 1 405 30 is_stmt 0
 678 000a F99B     		andi	a5,a5,-2
 679 000c 5CC1     		sw	a5,4(a0)
 406:arch/riscv/mach-gd32vf10x/bsp/gd32vf103_spi.c ****     }
 407:arch/riscv/mach-gd32vf10x/bsp/gd32vf103_spi.c **** }
 680              		.loc 1 407 1
 681 000e 8280     		ret
 682              		.cfi_endproc
 683              	.LFE16:
 685              		.section	.text.spi_i2s_data_frame_format_config,"ax",@progbits
 686              		.align	1
 687              		.globl	spi_i2s_data_frame_format_config
 689              	spi_i2s_data_frame_format_config:
 690              	.LFB17:
 408:arch/riscv/mach-gd32vf10x/bsp/gd32vf103_spi.c **** 
 409:arch/riscv/mach-gd32vf10x/bsp/gd32vf103_spi.c **** /*!
 410:arch/riscv/mach-gd32vf10x/bsp/gd32vf103_spi.c ****     \brief      configure SPI/I2S data frame format
 411:arch/riscv/mach-gd32vf10x/bsp/gd32vf103_spi.c ****     \param[in]  spi_periph: SPIx(x=0,1,2)
 412:arch/riscv/mach-gd32vf10x/bsp/gd32vf103_spi.c ****     \param[in]  frame_format: SPI frame size
 413:arch/riscv/mach-gd32vf10x/bsp/gd32vf103_spi.c ****                 only one parameter can be selected which is shown as below:
 414:arch/riscv/mach-gd32vf10x/bsp/gd32vf103_spi.c ****       \arg        SPI_FRAMESIZE_16BIT: SPI frame size is 16 bits
 415:arch/riscv/mach-gd32vf10x/bsp/gd32vf103_spi.c ****       \arg        SPI_FRAMESIZE_8BIT: SPI frame size is 8 bits
 416:arch/riscv/mach-gd32vf10x/bsp/gd32vf103_spi.c ****     \param[out] none
GAS LISTING C:\Users\test\AppData\Local\Temp\ccJ7WdPA.s 			page 21


 417:arch/riscv/mach-gd32vf10x/bsp/gd32vf103_spi.c ****     \retval     none
 418:arch/riscv/mach-gd32vf10x/bsp/gd32vf103_spi.c **** */
 419:arch/riscv/mach-gd32vf10x/bsp/gd32vf103_spi.c **** void spi_i2s_data_frame_format_config(uint32_t spi_periph, uint16_t frame_format)
 420:arch/riscv/mach-gd32vf10x/bsp/gd32vf103_spi.c **** {
 691              		.loc 1 420 1 is_stmt 1
 692              		.cfi_startproc
 693              	.LVL64:
 421:arch/riscv/mach-gd32vf10x/bsp/gd32vf103_spi.c ****     /* clear SPI_CTL0_FF16 bit */
 422:arch/riscv/mach-gd32vf10x/bsp/gd32vf103_spi.c ****     SPI_CTL0(spi_periph) &= (uint32_t)(~SPI_CTL0_FF16);
 694              		.loc 1 422 5
 695              		.loc 1 422 26 is_stmt 0
 696 0000 1C41     		lw	a5,0(a0)
 697 0002 7D77     		li	a4,-4096
 698 0004 1307F77F 		addi	a4,a4,2047
 699 0008 F98F     		and	a5,a5,a4
 700 000a 1CC1     		sw	a5,0(a0)
 423:arch/riscv/mach-gd32vf10x/bsp/gd32vf103_spi.c ****     /* configure SPI_CTL0_FF16 bit */
 424:arch/riscv/mach-gd32vf10x/bsp/gd32vf103_spi.c ****     SPI_CTL0(spi_periph) |= (uint32_t)frame_format;
 701              		.loc 1 424 5 is_stmt 1
 702              		.loc 1 424 26 is_stmt 0
 703 000c 1C41     		lw	a5,0(a0)
 704 000e DD8D     		or	a1,a1,a5
 705              	.LVL65:
 706 0010 0CC1     		sw	a1,0(a0)
 425:arch/riscv/mach-gd32vf10x/bsp/gd32vf103_spi.c **** }
 707              		.loc 1 425 1
 708 0012 8280     		ret
 709              		.cfi_endproc
 710              	.LFE17:
 712              		.section	.text.spi_i2s_data_transmit,"ax",@progbits
 713              		.align	1
 714              		.globl	spi_i2s_data_transmit
 716              	spi_i2s_data_transmit:
 717              	.LFB18:
 426:arch/riscv/mach-gd32vf10x/bsp/gd32vf103_spi.c **** 
 427:arch/riscv/mach-gd32vf10x/bsp/gd32vf103_spi.c **** /*!
 428:arch/riscv/mach-gd32vf10x/bsp/gd32vf103_spi.c ****     \brief      SPI transmit data
 429:arch/riscv/mach-gd32vf10x/bsp/gd32vf103_spi.c ****     \param[in]  spi_periph: SPIx(x=0,1,2)
 430:arch/riscv/mach-gd32vf10x/bsp/gd32vf103_spi.c ****     \param[in]  data: 16-bit data
 431:arch/riscv/mach-gd32vf10x/bsp/gd32vf103_spi.c ****     \param[out] none
 432:arch/riscv/mach-gd32vf10x/bsp/gd32vf103_spi.c ****     \retval     none
 433:arch/riscv/mach-gd32vf10x/bsp/gd32vf103_spi.c **** */
 434:arch/riscv/mach-gd32vf10x/bsp/gd32vf103_spi.c **** void spi_i2s_data_transmit(uint32_t spi_periph, uint16_t data)
 435:arch/riscv/mach-gd32vf10x/bsp/gd32vf103_spi.c **** {
 718              		.loc 1 435 1 is_stmt 1
 719              		.cfi_startproc
 720              	.LVL66:
 436:arch/riscv/mach-gd32vf10x/bsp/gd32vf103_spi.c ****     SPI_DATA(spi_periph) = (uint32_t)data;
 721              		.loc 1 436 5
 722              		.loc 1 436 26 is_stmt 0
 723 0000 4CC5     		sw	a1,12(a0)
 437:arch/riscv/mach-gd32vf10x/bsp/gd32vf103_spi.c **** }
 724              		.loc 1 437 1
 725 0002 8280     		ret
 726              		.cfi_endproc
 727              	.LFE18:
 729              		.section	.text.spi_i2s_data_receive,"ax",@progbits
GAS LISTING C:\Users\test\AppData\Local\Temp\ccJ7WdPA.s 			page 22


 730              		.align	1
 731              		.globl	spi_i2s_data_receive
 733              	spi_i2s_data_receive:
 734              	.LFB19:
 438:arch/riscv/mach-gd32vf10x/bsp/gd32vf103_spi.c **** 
 439:arch/riscv/mach-gd32vf10x/bsp/gd32vf103_spi.c **** /*!
 440:arch/riscv/mach-gd32vf10x/bsp/gd32vf103_spi.c ****     \brief      SPI receive data
 441:arch/riscv/mach-gd32vf10x/bsp/gd32vf103_spi.c ****     \param[in]  spi_periph: SPIx(x=0,1,2)
 442:arch/riscv/mach-gd32vf10x/bsp/gd32vf103_spi.c ****     \param[out] none
 443:arch/riscv/mach-gd32vf10x/bsp/gd32vf103_spi.c ****     \retval     16-bit data
 444:arch/riscv/mach-gd32vf10x/bsp/gd32vf103_spi.c **** */
 445:arch/riscv/mach-gd32vf10x/bsp/gd32vf103_spi.c **** uint16_t spi_i2s_data_receive(uint32_t spi_periph)
 446:arch/riscv/mach-gd32vf10x/bsp/gd32vf103_spi.c **** {
 735              		.loc 1 446 1 is_stmt 1
 736              		.cfi_startproc
 737              	.LVL67:
 447:arch/riscv/mach-gd32vf10x/bsp/gd32vf103_spi.c ****     return ((uint16_t)SPI_DATA(spi_periph));
 738              		.loc 1 447 5
 739              		.loc 1 447 23 is_stmt 0
 740 0000 4845     		lw	a0,12(a0)
 741              	.LVL68:
 448:arch/riscv/mach-gd32vf10x/bsp/gd32vf103_spi.c **** }
 742              		.loc 1 448 1
 743 0002 4205     		slli	a0,a0,16
 744 0004 4181     		srli	a0,a0,16
 745 0006 8280     		ret
 746              		.cfi_endproc
 747              	.LFE19:
 749              		.section	.text.spi_bidirectional_transfer_config,"ax",@progbits
 750              		.align	1
 751              		.globl	spi_bidirectional_transfer_config
 753              	spi_bidirectional_transfer_config:
 754              	.LFB20:
 449:arch/riscv/mach-gd32vf10x/bsp/gd32vf103_spi.c **** 
 450:arch/riscv/mach-gd32vf10x/bsp/gd32vf103_spi.c **** /*!
 451:arch/riscv/mach-gd32vf10x/bsp/gd32vf103_spi.c ****     \brief      configure SPI bidirectional transfer direction
 452:arch/riscv/mach-gd32vf10x/bsp/gd32vf103_spi.c ****     \param[in]  spi_periph: SPIx(x=0,1,2)
 453:arch/riscv/mach-gd32vf10x/bsp/gd32vf103_spi.c ****     \param[in]  transfer_direction: SPI transfer direction
 454:arch/riscv/mach-gd32vf10x/bsp/gd32vf103_spi.c ****                 only one parameter can be selected which is shown as below:
 455:arch/riscv/mach-gd32vf10x/bsp/gd32vf103_spi.c ****       \arg        SPI_BIDIRECTIONAL_TRANSMIT: SPI work in transmit-only mode
 456:arch/riscv/mach-gd32vf10x/bsp/gd32vf103_spi.c ****       \arg        SPI_BIDIRECTIONAL_RECEIVE: SPI work in receive-only mode
 457:arch/riscv/mach-gd32vf10x/bsp/gd32vf103_spi.c ****     \param[out] none
 458:arch/riscv/mach-gd32vf10x/bsp/gd32vf103_spi.c ****     \retval     none
 459:arch/riscv/mach-gd32vf10x/bsp/gd32vf103_spi.c **** */
 460:arch/riscv/mach-gd32vf10x/bsp/gd32vf103_spi.c **** void spi_bidirectional_transfer_config(uint32_t spi_periph, uint32_t transfer_direction)
 461:arch/riscv/mach-gd32vf10x/bsp/gd32vf103_spi.c **** {
 755              		.loc 1 461 1 is_stmt 1
 756              		.cfi_startproc
 757              	.LVL69:
 462:arch/riscv/mach-gd32vf10x/bsp/gd32vf103_spi.c ****     if(SPI_BIDIRECTIONAL_TRANSMIT == transfer_direction){
 758              		.loc 1 462 5
 759              		.loc 1 462 7 is_stmt 0
 760 0000 9167     		li	a5,16384
 761 0002 6388F500 		beq	a1,a5,.L48
 463:arch/riscv/mach-gd32vf10x/bsp/gd32vf103_spi.c ****         /* set the transmit-only mode */
 464:arch/riscv/mach-gd32vf10x/bsp/gd32vf103_spi.c ****         SPI_CTL0(spi_periph) |= (uint32_t)SPI_BIDIRECTIONAL_TRANSMIT;
 465:arch/riscv/mach-gd32vf10x/bsp/gd32vf103_spi.c ****     }else{
GAS LISTING C:\Users\test\AppData\Local\Temp\ccJ7WdPA.s 			page 23


 466:arch/riscv/mach-gd32vf10x/bsp/gd32vf103_spi.c ****         /* set the receive-only mode */
 467:arch/riscv/mach-gd32vf10x/bsp/gd32vf103_spi.c ****         SPI_CTL0(spi_periph) &= SPI_BIDIRECTIONAL_RECEIVE;
 762              		.loc 1 467 9 is_stmt 1
 763              		.loc 1 467 30 is_stmt 0
 764 0006 1C41     		lw	a5,0(a0)
 765 0008 7177     		li	a4,-16384
 766 000a 7D17     		addi	a4,a4,-1
 767 000c F98F     		and	a5,a5,a4
 768 000e 1CC1     		sw	a5,0(a0)
 468:arch/riscv/mach-gd32vf10x/bsp/gd32vf103_spi.c ****     }
 469:arch/riscv/mach-gd32vf10x/bsp/gd32vf103_spi.c **** }
 769              		.loc 1 469 1
 770 0010 8280     		ret
 771              	.L48:
 464:arch/riscv/mach-gd32vf10x/bsp/gd32vf103_spi.c ****     }else{
 772              		.loc 1 464 9 is_stmt 1
 464:arch/riscv/mach-gd32vf10x/bsp/gd32vf103_spi.c ****     }else{
 773              		.loc 1 464 30 is_stmt 0
 774 0012 1C41     		lw	a5,0(a0)
 775 0014 DD8D     		or	a1,a5,a1
 776              	.LVL70:
 777 0016 0CC1     		sw	a1,0(a0)
 778 0018 8280     		ret
 779              		.cfi_endproc
 780              	.LFE20:
 782              		.section	.text.spi_crc_polynomial_set,"ax",@progbits
 783              		.align	1
 784              		.globl	spi_crc_polynomial_set
 786              	spi_crc_polynomial_set:
 787              	.LFB21:
 470:arch/riscv/mach-gd32vf10x/bsp/gd32vf103_spi.c **** 
 471:arch/riscv/mach-gd32vf10x/bsp/gd32vf103_spi.c **** /*!
 472:arch/riscv/mach-gd32vf10x/bsp/gd32vf103_spi.c ****     \brief      set SPI CRC polynomial 
 473:arch/riscv/mach-gd32vf10x/bsp/gd32vf103_spi.c ****     \param[in]  spi_periph: SPIx(x=0,1,2)
 474:arch/riscv/mach-gd32vf10x/bsp/gd32vf103_spi.c ****     \param[in]  crc_poly: CRC polynomial value
 475:arch/riscv/mach-gd32vf10x/bsp/gd32vf103_spi.c ****     \param[out] none
 476:arch/riscv/mach-gd32vf10x/bsp/gd32vf103_spi.c ****     \retval     none
 477:arch/riscv/mach-gd32vf10x/bsp/gd32vf103_spi.c **** */
 478:arch/riscv/mach-gd32vf10x/bsp/gd32vf103_spi.c **** void spi_crc_polynomial_set(uint32_t spi_periph,uint16_t crc_poly)
 479:arch/riscv/mach-gd32vf10x/bsp/gd32vf103_spi.c **** {
 788              		.loc 1 479 1 is_stmt 1
 789              		.cfi_startproc
 790              	.LVL71:
 480:arch/riscv/mach-gd32vf10x/bsp/gd32vf103_spi.c ****     /* enable SPI CRC */
 481:arch/riscv/mach-gd32vf10x/bsp/gd32vf103_spi.c ****     SPI_CTL0(spi_periph) |= (uint32_t)SPI_CTL0_CRCEN;
 791              		.loc 1 481 5
 792              		.loc 1 481 26 is_stmt 0
 793 0000 1C41     		lw	a5,0(a0)
 794 0002 0967     		li	a4,8192
 795 0004 D98F     		or	a5,a5,a4
 796 0006 1CC1     		sw	a5,0(a0)
 482:arch/riscv/mach-gd32vf10x/bsp/gd32vf103_spi.c **** 
 483:arch/riscv/mach-gd32vf10x/bsp/gd32vf103_spi.c ****     /* set SPI CRC polynomial */
 484:arch/riscv/mach-gd32vf10x/bsp/gd32vf103_spi.c ****     SPI_CRCPOLY(spi_periph) = (uint32_t)crc_poly;
 797              		.loc 1 484 5 is_stmt 1
 798              		.loc 1 484 29 is_stmt 0
 799 0008 0CC9     		sw	a1,16(a0)
GAS LISTING C:\Users\test\AppData\Local\Temp\ccJ7WdPA.s 			page 24


 485:arch/riscv/mach-gd32vf10x/bsp/gd32vf103_spi.c **** }
 800              		.loc 1 485 1
 801 000a 8280     		ret
 802              		.cfi_endproc
 803              	.LFE21:
 805              		.section	.text.spi_crc_polynomial_get,"ax",@progbits
 806              		.align	1
 807              		.globl	spi_crc_polynomial_get
 809              	spi_crc_polynomial_get:
 810              	.LFB22:
 486:arch/riscv/mach-gd32vf10x/bsp/gd32vf103_spi.c **** 
 487:arch/riscv/mach-gd32vf10x/bsp/gd32vf103_spi.c **** /*!
 488:arch/riscv/mach-gd32vf10x/bsp/gd32vf103_spi.c ****     \brief      get SPI CRC polynomial 
 489:arch/riscv/mach-gd32vf10x/bsp/gd32vf103_spi.c ****     \param[in]  spi_periph: SPIx(x=0,1,2)
 490:arch/riscv/mach-gd32vf10x/bsp/gd32vf103_spi.c ****     \param[out] none
 491:arch/riscv/mach-gd32vf10x/bsp/gd32vf103_spi.c ****     \retval     16-bit CRC polynomial
 492:arch/riscv/mach-gd32vf10x/bsp/gd32vf103_spi.c **** */
 493:arch/riscv/mach-gd32vf10x/bsp/gd32vf103_spi.c **** uint16_t spi_crc_polynomial_get(uint32_t spi_periph)
 494:arch/riscv/mach-gd32vf10x/bsp/gd32vf103_spi.c **** {
 811              		.loc 1 494 1 is_stmt 1
 812              		.cfi_startproc
 813              	.LVL72:
 495:arch/riscv/mach-gd32vf10x/bsp/gd32vf103_spi.c ****     return ((uint16_t)SPI_CRCPOLY(spi_periph));
 814              		.loc 1 495 5
 815              		.loc 1 495 23 is_stmt 0
 816 0000 0849     		lw	a0,16(a0)
 817              	.LVL73:
 496:arch/riscv/mach-gd32vf10x/bsp/gd32vf103_spi.c **** }
 818              		.loc 1 496 1
 819 0002 4205     		slli	a0,a0,16
 820 0004 4181     		srli	a0,a0,16
 821 0006 8280     		ret
 822              		.cfi_endproc
 823              	.LFE22:
 825              		.section	.text.spi_crc_on,"ax",@progbits
 826              		.align	1
 827              		.globl	spi_crc_on
 829              	spi_crc_on:
 830              	.LFB23:
 497:arch/riscv/mach-gd32vf10x/bsp/gd32vf103_spi.c **** 
 498:arch/riscv/mach-gd32vf10x/bsp/gd32vf103_spi.c **** /*!
 499:arch/riscv/mach-gd32vf10x/bsp/gd32vf103_spi.c ****     \brief      turn on CRC function 
 500:arch/riscv/mach-gd32vf10x/bsp/gd32vf103_spi.c ****     \param[in]  spi_periph: SPIx(x=0,1,2)
 501:arch/riscv/mach-gd32vf10x/bsp/gd32vf103_spi.c ****     \param[out] none
 502:arch/riscv/mach-gd32vf10x/bsp/gd32vf103_spi.c ****     \retval     none
 503:arch/riscv/mach-gd32vf10x/bsp/gd32vf103_spi.c **** */
 504:arch/riscv/mach-gd32vf10x/bsp/gd32vf103_spi.c **** void spi_crc_on(uint32_t spi_periph)
 505:arch/riscv/mach-gd32vf10x/bsp/gd32vf103_spi.c **** {
 831              		.loc 1 505 1 is_stmt 1
 832              		.cfi_startproc
 833              	.LVL74:
 506:arch/riscv/mach-gd32vf10x/bsp/gd32vf103_spi.c ****     SPI_CTL0(spi_periph) |= (uint32_t)SPI_CTL0_CRCEN;
 834              		.loc 1 506 5
 835              		.loc 1 506 26 is_stmt 0
 836 0000 1C41     		lw	a5,0(a0)
 837 0002 0967     		li	a4,8192
 838 0004 D98F     		or	a5,a5,a4
GAS LISTING C:\Users\test\AppData\Local\Temp\ccJ7WdPA.s 			page 25


 839 0006 1CC1     		sw	a5,0(a0)
 507:arch/riscv/mach-gd32vf10x/bsp/gd32vf103_spi.c **** }
 840              		.loc 1 507 1
 841 0008 8280     		ret
 842              		.cfi_endproc
 843              	.LFE23:
 845              		.section	.text.spi_crc_off,"ax",@progbits
 846              		.align	1
 847              		.globl	spi_crc_off
 849              	spi_crc_off:
 850              	.LFB24:
 508:arch/riscv/mach-gd32vf10x/bsp/gd32vf103_spi.c **** 
 509:arch/riscv/mach-gd32vf10x/bsp/gd32vf103_spi.c **** /*!
 510:arch/riscv/mach-gd32vf10x/bsp/gd32vf103_spi.c ****     \brief      turn off CRC function 
 511:arch/riscv/mach-gd32vf10x/bsp/gd32vf103_spi.c ****     \param[in]  spi_periph: SPIx(x=0,1,2)
 512:arch/riscv/mach-gd32vf10x/bsp/gd32vf103_spi.c ****     \param[out] none
 513:arch/riscv/mach-gd32vf10x/bsp/gd32vf103_spi.c ****     \retval     none
 514:arch/riscv/mach-gd32vf10x/bsp/gd32vf103_spi.c **** */
 515:arch/riscv/mach-gd32vf10x/bsp/gd32vf103_spi.c **** void spi_crc_off(uint32_t spi_periph)
 516:arch/riscv/mach-gd32vf10x/bsp/gd32vf103_spi.c **** {
 851              		.loc 1 516 1 is_stmt 1
 852              		.cfi_startproc
 853              	.LVL75:
 517:arch/riscv/mach-gd32vf10x/bsp/gd32vf103_spi.c ****     SPI_CTL0(spi_periph) &= (uint32_t)(~SPI_CTL0_CRCEN);
 854              		.loc 1 517 5
 855              		.loc 1 517 26 is_stmt 0
 856 0000 1C41     		lw	a5,0(a0)
 857 0002 7977     		li	a4,-8192
 858 0004 7D17     		addi	a4,a4,-1
 859 0006 F98F     		and	a5,a5,a4
 860 0008 1CC1     		sw	a5,0(a0)
 518:arch/riscv/mach-gd32vf10x/bsp/gd32vf103_spi.c **** }
 861              		.loc 1 518 1
 862 000a 8280     		ret
 863              		.cfi_endproc
 864              	.LFE24:
 866              		.section	.text.spi_crc_next,"ax",@progbits
 867              		.align	1
 868              		.globl	spi_crc_next
 870              	spi_crc_next:
 871              	.LFB25:
 519:arch/riscv/mach-gd32vf10x/bsp/gd32vf103_spi.c **** 
 520:arch/riscv/mach-gd32vf10x/bsp/gd32vf103_spi.c **** /*!
 521:arch/riscv/mach-gd32vf10x/bsp/gd32vf103_spi.c ****     \brief      SPI next data is CRC value
 522:arch/riscv/mach-gd32vf10x/bsp/gd32vf103_spi.c ****     \param[in]  spi_periph: SPIx(x=0,1,2)
 523:arch/riscv/mach-gd32vf10x/bsp/gd32vf103_spi.c ****     \param[out] none
 524:arch/riscv/mach-gd32vf10x/bsp/gd32vf103_spi.c ****     \retval     none
 525:arch/riscv/mach-gd32vf10x/bsp/gd32vf103_spi.c **** */
 526:arch/riscv/mach-gd32vf10x/bsp/gd32vf103_spi.c **** void spi_crc_next(uint32_t spi_periph)
 527:arch/riscv/mach-gd32vf10x/bsp/gd32vf103_spi.c **** {
 872              		.loc 1 527 1 is_stmt 1
 873              		.cfi_startproc
 874              	.LVL76:
 528:arch/riscv/mach-gd32vf10x/bsp/gd32vf103_spi.c ****     SPI_CTL0(spi_periph) |= (uint32_t)SPI_CTL0_CRCNT;
 875              		.loc 1 528 5
 876              		.loc 1 528 26 is_stmt 0
 877 0000 1C41     		lw	a5,0(a0)
GAS LISTING C:\Users\test\AppData\Local\Temp\ccJ7WdPA.s 			page 26


 878 0002 0567     		li	a4,4096
 879 0004 D98F     		or	a5,a5,a4
 880 0006 1CC1     		sw	a5,0(a0)
 529:arch/riscv/mach-gd32vf10x/bsp/gd32vf103_spi.c **** }
 881              		.loc 1 529 1
 882 0008 8280     		ret
 883              		.cfi_endproc
 884              	.LFE25:
 886              		.section	.text.spi_crc_get,"ax",@progbits
 887              		.align	1
 888              		.globl	spi_crc_get
 890              	spi_crc_get:
 891              	.LFB26:
 530:arch/riscv/mach-gd32vf10x/bsp/gd32vf103_spi.c **** 
 531:arch/riscv/mach-gd32vf10x/bsp/gd32vf103_spi.c **** /*!
 532:arch/riscv/mach-gd32vf10x/bsp/gd32vf103_spi.c ****     \brief      get SPI CRC send value or receive value
 533:arch/riscv/mach-gd32vf10x/bsp/gd32vf103_spi.c ****     \param[in]  spi_periph: SPIx(x=0,1,2)
 534:arch/riscv/mach-gd32vf10x/bsp/gd32vf103_spi.c ****     \param[in]  crc: SPI crc value
 535:arch/riscv/mach-gd32vf10x/bsp/gd32vf103_spi.c ****                 only one parameter can be selected which is shown as below:
 536:arch/riscv/mach-gd32vf10x/bsp/gd32vf103_spi.c ****       \arg        SPI_CRC_TX: get transmit crc value
 537:arch/riscv/mach-gd32vf10x/bsp/gd32vf103_spi.c ****       \arg        SPI_CRC_RX: get receive crc value
 538:arch/riscv/mach-gd32vf10x/bsp/gd32vf103_spi.c ****     \param[out] none
 539:arch/riscv/mach-gd32vf10x/bsp/gd32vf103_spi.c ****     \retval     16-bit CRC value
 540:arch/riscv/mach-gd32vf10x/bsp/gd32vf103_spi.c **** */
 541:arch/riscv/mach-gd32vf10x/bsp/gd32vf103_spi.c **** uint16_t spi_crc_get(uint32_t spi_periph,uint8_t crc)
 542:arch/riscv/mach-gd32vf10x/bsp/gd32vf103_spi.c **** {
 892              		.loc 1 542 1 is_stmt 1
 893              		.cfi_startproc
 894              	.LVL77:
 543:arch/riscv/mach-gd32vf10x/bsp/gd32vf103_spi.c ****     if(SPI_CRC_TX == crc){
 895              		.loc 1 543 5
 896              		.loc 1 543 7 is_stmt 0
 897 0000 89E5     		bne	a1,zero,.L55
 544:arch/riscv/mach-gd32vf10x/bsp/gd32vf103_spi.c ****         return ((uint16_t)(SPI_TCRC(spi_periph)));
 898              		.loc 1 544 9 is_stmt 1
 899              		.loc 1 544 28 is_stmt 0
 900 0002 084D     		lw	a0,24(a0)
 901              	.LVL78:
 902              		.loc 1 544 17
 903 0004 4205     		slli	a0,a0,16
 904 0006 4181     		srli	a0,a0,16
 905 0008 8280     		ret
 906              	.LVL79:
 907              	.L55:
 545:arch/riscv/mach-gd32vf10x/bsp/gd32vf103_spi.c ****     }else{
 546:arch/riscv/mach-gd32vf10x/bsp/gd32vf103_spi.c ****         return ((uint16_t)(SPI_RCRC(spi_periph)));
 908              		.loc 1 546 9 is_stmt 1
 909              		.loc 1 546 28 is_stmt 0
 910 000a 4849     		lw	a0,20(a0)
 911              	.LVL80:
 912              		.loc 1 546 17
 913 000c 4205     		slli	a0,a0,16
 914 000e 4181     		srli	a0,a0,16
 547:arch/riscv/mach-gd32vf10x/bsp/gd32vf103_spi.c ****     }
 548:arch/riscv/mach-gd32vf10x/bsp/gd32vf103_spi.c **** }
 915              		.loc 1 548 1
 916 0010 8280     		ret
GAS LISTING C:\Users\test\AppData\Local\Temp\ccJ7WdPA.s 			page 27


 917              		.cfi_endproc
 918              	.LFE26:
 920              		.section	.text.spi_ti_mode_enable,"ax",@progbits
 921              		.align	1
 922              		.globl	spi_ti_mode_enable
 924              	spi_ti_mode_enable:
 925              	.LFB27:
 549:arch/riscv/mach-gd32vf10x/bsp/gd32vf103_spi.c **** 
 550:arch/riscv/mach-gd32vf10x/bsp/gd32vf103_spi.c **** /*!
 551:arch/riscv/mach-gd32vf10x/bsp/gd32vf103_spi.c ****     \brief      enable SPI TI mode
 552:arch/riscv/mach-gd32vf10x/bsp/gd32vf103_spi.c ****     \param[in]  spi_periph: SPIx(x=0,1,2)
 553:arch/riscv/mach-gd32vf10x/bsp/gd32vf103_spi.c ****     \param[out] none
 554:arch/riscv/mach-gd32vf10x/bsp/gd32vf103_spi.c ****     \retval     none
 555:arch/riscv/mach-gd32vf10x/bsp/gd32vf103_spi.c **** */
 556:arch/riscv/mach-gd32vf10x/bsp/gd32vf103_spi.c **** void spi_ti_mode_enable(uint32_t spi_periph)
 557:arch/riscv/mach-gd32vf10x/bsp/gd32vf103_spi.c **** {
 926              		.loc 1 557 1 is_stmt 1
 927              		.cfi_startproc
 928              	.LVL81:
 558:arch/riscv/mach-gd32vf10x/bsp/gd32vf103_spi.c ****     SPI_CTL1(spi_periph) |= (uint32_t)SPI_CTL1_TMOD;
 929              		.loc 1 558 5
 930              		.loc 1 558 26 is_stmt 0
 931 0000 5C41     		lw	a5,4(a0)
 932 0002 93E70701 		ori	a5,a5,16
 933 0006 5CC1     		sw	a5,4(a0)
 559:arch/riscv/mach-gd32vf10x/bsp/gd32vf103_spi.c **** }
 934              		.loc 1 559 1
 935 0008 8280     		ret
 936              		.cfi_endproc
 937              	.LFE27:
 939              		.section	.text.spi_ti_mode_disable,"ax",@progbits
 940              		.align	1
 941              		.globl	spi_ti_mode_disable
 943              	spi_ti_mode_disable:
 944              	.LFB28:
 560:arch/riscv/mach-gd32vf10x/bsp/gd32vf103_spi.c **** 
 561:arch/riscv/mach-gd32vf10x/bsp/gd32vf103_spi.c **** /*!
 562:arch/riscv/mach-gd32vf10x/bsp/gd32vf103_spi.c ****     \brief      disable SPI TI mode
 563:arch/riscv/mach-gd32vf10x/bsp/gd32vf103_spi.c ****     \param[in]  spi_periph: SPIx(x=0,1,2)
 564:arch/riscv/mach-gd32vf10x/bsp/gd32vf103_spi.c ****     \param[out] none
 565:arch/riscv/mach-gd32vf10x/bsp/gd32vf103_spi.c ****     \retval     none
 566:arch/riscv/mach-gd32vf10x/bsp/gd32vf103_spi.c **** */
 567:arch/riscv/mach-gd32vf10x/bsp/gd32vf103_spi.c **** void spi_ti_mode_disable(uint32_t spi_periph)
 568:arch/riscv/mach-gd32vf10x/bsp/gd32vf103_spi.c **** {
 945              		.loc 1 568 1 is_stmt 1
 946              		.cfi_startproc
 947              	.LVL82:
 569:arch/riscv/mach-gd32vf10x/bsp/gd32vf103_spi.c ****     SPI_CTL1(spi_periph) &= (uint32_t)(~SPI_CTL1_TMOD);
 948              		.loc 1 569 5
 949              		.loc 1 569 26 is_stmt 0
 950 0000 5C41     		lw	a5,4(a0)
 951 0002 BD9B     		andi	a5,a5,-17
 952 0004 5CC1     		sw	a5,4(a0)
 570:arch/riscv/mach-gd32vf10x/bsp/gd32vf103_spi.c **** }
 953              		.loc 1 570 1
 954 0006 8280     		ret
 955              		.cfi_endproc
GAS LISTING C:\Users\test\AppData\Local\Temp\ccJ7WdPA.s 			page 28


 956              	.LFE28:
 958              		.section	.text.spi_nssp_mode_enable,"ax",@progbits
 959              		.align	1
 960              		.globl	spi_nssp_mode_enable
 962              	spi_nssp_mode_enable:
 963              	.LFB29:
 571:arch/riscv/mach-gd32vf10x/bsp/gd32vf103_spi.c **** 
 572:arch/riscv/mach-gd32vf10x/bsp/gd32vf103_spi.c **** /*!
 573:arch/riscv/mach-gd32vf10x/bsp/gd32vf103_spi.c ****     \brief      enable SPI NSS pulse mode
 574:arch/riscv/mach-gd32vf10x/bsp/gd32vf103_spi.c ****     \param[in]  spi_periph: SPIx(x=0,1,2)
 575:arch/riscv/mach-gd32vf10x/bsp/gd32vf103_spi.c ****     \param[out] none
 576:arch/riscv/mach-gd32vf10x/bsp/gd32vf103_spi.c ****     \retval     none
 577:arch/riscv/mach-gd32vf10x/bsp/gd32vf103_spi.c **** */
 578:arch/riscv/mach-gd32vf10x/bsp/gd32vf103_spi.c **** void spi_nssp_mode_enable(uint32_t spi_periph)
 579:arch/riscv/mach-gd32vf10x/bsp/gd32vf103_spi.c **** {
 964              		.loc 1 579 1 is_stmt 1
 965              		.cfi_startproc
 966              	.LVL83:
 580:arch/riscv/mach-gd32vf10x/bsp/gd32vf103_spi.c ****     SPI_CTL1(spi_periph) |= (uint32_t)SPI_CTL1_NSSP;
 967              		.loc 1 580 5
 968              		.loc 1 580 26 is_stmt 0
 969 0000 5C41     		lw	a5,4(a0)
 970 0002 93E78700 		ori	a5,a5,8
 971 0006 5CC1     		sw	a5,4(a0)
 581:arch/riscv/mach-gd32vf10x/bsp/gd32vf103_spi.c **** }
 972              		.loc 1 581 1
 973 0008 8280     		ret
 974              		.cfi_endproc
 975              	.LFE29:
 977              		.section	.text.spi_nssp_mode_disable,"ax",@progbits
 978              		.align	1
 979              		.globl	spi_nssp_mode_disable
 981              	spi_nssp_mode_disable:
 982              	.LFB30:
 582:arch/riscv/mach-gd32vf10x/bsp/gd32vf103_spi.c **** 
 583:arch/riscv/mach-gd32vf10x/bsp/gd32vf103_spi.c **** /*!
 584:arch/riscv/mach-gd32vf10x/bsp/gd32vf103_spi.c ****     \brief      disable SPI NSS pulse mode
 585:arch/riscv/mach-gd32vf10x/bsp/gd32vf103_spi.c ****     \param[in]  spi_periph: SPIx(x=0,1,2)
 586:arch/riscv/mach-gd32vf10x/bsp/gd32vf103_spi.c ****     \param[out] none
 587:arch/riscv/mach-gd32vf10x/bsp/gd32vf103_spi.c ****     \retval     none
 588:arch/riscv/mach-gd32vf10x/bsp/gd32vf103_spi.c **** */
 589:arch/riscv/mach-gd32vf10x/bsp/gd32vf103_spi.c **** void spi_nssp_mode_disable(uint32_t spi_periph)
 590:arch/riscv/mach-gd32vf10x/bsp/gd32vf103_spi.c **** {
 983              		.loc 1 590 1 is_stmt 1
 984              		.cfi_startproc
 985              	.LVL84:
 591:arch/riscv/mach-gd32vf10x/bsp/gd32vf103_spi.c ****     SPI_CTL1(spi_periph) &= (uint32_t)(~SPI_CTL1_NSSP);
 986              		.loc 1 591 5
 987              		.loc 1 591 26 is_stmt 0
 988 0000 5C41     		lw	a5,4(a0)
 989 0002 DD9B     		andi	a5,a5,-9
 990 0004 5CC1     		sw	a5,4(a0)
 592:arch/riscv/mach-gd32vf10x/bsp/gd32vf103_spi.c **** }
 991              		.loc 1 592 1
 992 0006 8280     		ret
 993              		.cfi_endproc
 994              	.LFE30:
GAS LISTING C:\Users\test\AppData\Local\Temp\ccJ7WdPA.s 			page 29


 996              		.section	.text.spi_i2s_interrupt_enable,"ax",@progbits
 997              		.align	1
 998              		.globl	spi_i2s_interrupt_enable
 1000              	spi_i2s_interrupt_enable:
 1001              	.LFB31:
 593:arch/riscv/mach-gd32vf10x/bsp/gd32vf103_spi.c **** 
 594:arch/riscv/mach-gd32vf10x/bsp/gd32vf103_spi.c **** 
 595:arch/riscv/mach-gd32vf10x/bsp/gd32vf103_spi.c **** /*!
 596:arch/riscv/mach-gd32vf10x/bsp/gd32vf103_spi.c ****     \brief      enable SPI and I2S interrupt 
 597:arch/riscv/mach-gd32vf10x/bsp/gd32vf103_spi.c ****     \param[in]  spi_periph: SPIx(x=0,1,2)
 598:arch/riscv/mach-gd32vf10x/bsp/gd32vf103_spi.c ****     \param[in]  interrupt: SPI/I2S interrupt
 599:arch/riscv/mach-gd32vf10x/bsp/gd32vf103_spi.c ****                 only one parameter can be selected which is shown as below:
 600:arch/riscv/mach-gd32vf10x/bsp/gd32vf103_spi.c ****       \arg        SPI_I2S_INT_TBE: transmit buffer empty interrupt
 601:arch/riscv/mach-gd32vf10x/bsp/gd32vf103_spi.c ****       \arg        SPI_I2S_INT_RBNE: receive buffer not empty interrupt
 602:arch/riscv/mach-gd32vf10x/bsp/gd32vf103_spi.c ****       \arg        SPI_I2S_INT_ERR: CRC error,configuration error,reception overrun error,
 603:arch/riscv/mach-gd32vf10x/bsp/gd32vf103_spi.c ****                                    transmission underrun error and format error interrupt
 604:arch/riscv/mach-gd32vf10x/bsp/gd32vf103_spi.c ****     \param[out] none
 605:arch/riscv/mach-gd32vf10x/bsp/gd32vf103_spi.c ****     \retval     none
 606:arch/riscv/mach-gd32vf10x/bsp/gd32vf103_spi.c **** */
 607:arch/riscv/mach-gd32vf10x/bsp/gd32vf103_spi.c **** void spi_i2s_interrupt_enable(uint32_t spi_periph, uint8_t interrupt)
 608:arch/riscv/mach-gd32vf10x/bsp/gd32vf103_spi.c **** {
 1002              		.loc 1 608 1 is_stmt 1
 1003              		.cfi_startproc
 1004              	.LVL85:
 609:arch/riscv/mach-gd32vf10x/bsp/gd32vf103_spi.c ****     switch(interrupt){
 1005              		.loc 1 609 5
 1006 0000 8547     		li	a5,1
 1007 0002 638CF500 		beq	a1,a5,.L62
 1008 0006 99CD     		beq	a1,zero,.L63
 1009 0008 8947     		li	a5,2
 1010 000a 6397F500 		bne	a1,a5,.L66
 610:arch/riscv/mach-gd32vf10x/bsp/gd32vf103_spi.c ****     /* SPI/I2S transmit buffer empty interrupt */
 611:arch/riscv/mach-gd32vf10x/bsp/gd32vf103_spi.c ****     case SPI_I2S_INT_TBE:
 612:arch/riscv/mach-gd32vf10x/bsp/gd32vf103_spi.c ****         SPI_CTL1(spi_periph) |= (uint32_t)SPI_CTL1_TBEIE;
 613:arch/riscv/mach-gd32vf10x/bsp/gd32vf103_spi.c ****         break;
 614:arch/riscv/mach-gd32vf10x/bsp/gd32vf103_spi.c ****     /* SPI/I2S receive buffer not empty interrupt */
 615:arch/riscv/mach-gd32vf10x/bsp/gd32vf103_spi.c ****     case SPI_I2S_INT_RBNE:
 616:arch/riscv/mach-gd32vf10x/bsp/gd32vf103_spi.c ****         SPI_CTL1(spi_periph) |= (uint32_t)SPI_CTL1_RBNEIE;
 617:arch/riscv/mach-gd32vf10x/bsp/gd32vf103_spi.c ****         break;
 618:arch/riscv/mach-gd32vf10x/bsp/gd32vf103_spi.c ****     /* SPI/I2S error */
 619:arch/riscv/mach-gd32vf10x/bsp/gd32vf103_spi.c ****     case SPI_I2S_INT_ERR:
 620:arch/riscv/mach-gd32vf10x/bsp/gd32vf103_spi.c ****         SPI_CTL1(spi_periph) |= (uint32_t)SPI_CTL1_ERRIE;
 1011              		.loc 1 620 9
 1012              		.loc 1 620 30 is_stmt 0
 1013 000e 5C41     		lw	a5,4(a0)
 1014 0010 93E70702 		ori	a5,a5,32
 1015 0014 5CC1     		sw	a5,4(a0)
 621:arch/riscv/mach-gd32vf10x/bsp/gd32vf103_spi.c ****         break;
 1016              		.loc 1 621 9 is_stmt 1
 622:arch/riscv/mach-gd32vf10x/bsp/gd32vf103_spi.c ****     default:
 623:arch/riscv/mach-gd32vf10x/bsp/gd32vf103_spi.c ****         break;
 624:arch/riscv/mach-gd32vf10x/bsp/gd32vf103_spi.c ****     }
 625:arch/riscv/mach-gd32vf10x/bsp/gd32vf103_spi.c **** }
 1017              		.loc 1 625 1 is_stmt 0
 1018 0016 8280     		ret
 1019              	.L66:
 1020 0018 8280     		ret
GAS LISTING C:\Users\test\AppData\Local\Temp\ccJ7WdPA.s 			page 30


 1021              	.L62:
 616:arch/riscv/mach-gd32vf10x/bsp/gd32vf103_spi.c ****         break;
 1022              		.loc 1 616 9 is_stmt 1
 616:arch/riscv/mach-gd32vf10x/bsp/gd32vf103_spi.c ****         break;
 1023              		.loc 1 616 30 is_stmt 0
 1024 001a 5C41     		lw	a5,4(a0)
 1025 001c 93E70704 		ori	a5,a5,64
 1026 0020 5CC1     		sw	a5,4(a0)
 617:arch/riscv/mach-gd32vf10x/bsp/gd32vf103_spi.c ****     /* SPI/I2S error */
 1027              		.loc 1 617 9 is_stmt 1
 1028 0022 8280     		ret
 1029              	.L63:
 612:arch/riscv/mach-gd32vf10x/bsp/gd32vf103_spi.c ****         break;
 1030              		.loc 1 612 9
 612:arch/riscv/mach-gd32vf10x/bsp/gd32vf103_spi.c ****         break;
 1031              		.loc 1 612 30 is_stmt 0
 1032 0024 5C41     		lw	a5,4(a0)
 1033 0026 93E70708 		ori	a5,a5,128
 1034 002a 5CC1     		sw	a5,4(a0)
 613:arch/riscv/mach-gd32vf10x/bsp/gd32vf103_spi.c ****     /* SPI/I2S receive buffer not empty interrupt */
 1035              		.loc 1 613 9 is_stmt 1
 1036 002c 8280     		ret
 1037              		.cfi_endproc
 1038              	.LFE31:
 1040              		.section	.text.spi_i2s_interrupt_disable,"ax",@progbits
 1041              		.align	1
 1042              		.globl	spi_i2s_interrupt_disable
 1044              	spi_i2s_interrupt_disable:
 1045              	.LFB32:
 626:arch/riscv/mach-gd32vf10x/bsp/gd32vf103_spi.c **** 
 627:arch/riscv/mach-gd32vf10x/bsp/gd32vf103_spi.c **** /*!
 628:arch/riscv/mach-gd32vf10x/bsp/gd32vf103_spi.c ****     \brief      disable SPI and I2S interrupt 
 629:arch/riscv/mach-gd32vf10x/bsp/gd32vf103_spi.c ****     \param[in]  spi_periph: SPIx(x=0,1,2)
 630:arch/riscv/mach-gd32vf10x/bsp/gd32vf103_spi.c ****     \param[in]  interrupt: SPI/I2S interrupt
 631:arch/riscv/mach-gd32vf10x/bsp/gd32vf103_spi.c ****                 only one parameter can be selected which is shown as below:
 632:arch/riscv/mach-gd32vf10x/bsp/gd32vf103_spi.c ****       \arg        SPI_I2S_INT_TBE: transmit buffer empty interrupt
 633:arch/riscv/mach-gd32vf10x/bsp/gd32vf103_spi.c ****       \arg        SPI_I2S_INT_RBNE: receive buffer not empty interrupt
 634:arch/riscv/mach-gd32vf10x/bsp/gd32vf103_spi.c ****       \arg        SPI_I2S_INT_ERR: CRC error,configuration error,reception overrun error,
 635:arch/riscv/mach-gd32vf10x/bsp/gd32vf103_spi.c ****                                    transmission underrun error and format error interrupt
 636:arch/riscv/mach-gd32vf10x/bsp/gd32vf103_spi.c ****     \param[out] none
 637:arch/riscv/mach-gd32vf10x/bsp/gd32vf103_spi.c ****     \retval     none
 638:arch/riscv/mach-gd32vf10x/bsp/gd32vf103_spi.c **** */
 639:arch/riscv/mach-gd32vf10x/bsp/gd32vf103_spi.c **** void spi_i2s_interrupt_disable(uint32_t spi_periph, uint8_t interrupt)
 640:arch/riscv/mach-gd32vf10x/bsp/gd32vf103_spi.c **** {
 1046              		.loc 1 640 1
 1047              		.cfi_startproc
 1048              	.LVL86:
 641:arch/riscv/mach-gd32vf10x/bsp/gd32vf103_spi.c ****     switch(interrupt){
 1049              		.loc 1 641 5
 1050 0000 8547     		li	a5,1
 1051 0002 638CF500 		beq	a1,a5,.L68
 1052 0006 99CD     		beq	a1,zero,.L69
 1053 0008 8947     		li	a5,2
 1054 000a 6397F500 		bne	a1,a5,.L72
 642:arch/riscv/mach-gd32vf10x/bsp/gd32vf103_spi.c ****     /* SPI/I2S transmit buffer empty interrupt */
 643:arch/riscv/mach-gd32vf10x/bsp/gd32vf103_spi.c ****     case SPI_I2S_INT_TBE:
 644:arch/riscv/mach-gd32vf10x/bsp/gd32vf103_spi.c ****         SPI_CTL1(spi_periph) &= (uint32_t)(~SPI_CTL1_TBEIE);
GAS LISTING C:\Users\test\AppData\Local\Temp\ccJ7WdPA.s 			page 31


 645:arch/riscv/mach-gd32vf10x/bsp/gd32vf103_spi.c ****         break;
 646:arch/riscv/mach-gd32vf10x/bsp/gd32vf103_spi.c ****     /* SPI/I2S receive buffer not empty interrupt */
 647:arch/riscv/mach-gd32vf10x/bsp/gd32vf103_spi.c ****     case SPI_I2S_INT_RBNE:
 648:arch/riscv/mach-gd32vf10x/bsp/gd32vf103_spi.c ****         SPI_CTL1(spi_periph) &= (uint32_t)(~SPI_CTL1_RBNEIE);
 649:arch/riscv/mach-gd32vf10x/bsp/gd32vf103_spi.c ****         break;
 650:arch/riscv/mach-gd32vf10x/bsp/gd32vf103_spi.c ****     /* SPI/I2S error */
 651:arch/riscv/mach-gd32vf10x/bsp/gd32vf103_spi.c ****     case SPI_I2S_INT_ERR:
 652:arch/riscv/mach-gd32vf10x/bsp/gd32vf103_spi.c ****         SPI_CTL1(spi_periph) &= (uint32_t)(~SPI_CTL1_ERRIE);
 1055              		.loc 1 652 9
 1056              		.loc 1 652 30 is_stmt 0
 1057 000e 5C41     		lw	a5,4(a0)
 1058 0010 93F7F7FD 		andi	a5,a5,-33
 1059 0014 5CC1     		sw	a5,4(a0)
 653:arch/riscv/mach-gd32vf10x/bsp/gd32vf103_spi.c ****         break;
 1060              		.loc 1 653 9 is_stmt 1
 654:arch/riscv/mach-gd32vf10x/bsp/gd32vf103_spi.c ****     default:
 655:arch/riscv/mach-gd32vf10x/bsp/gd32vf103_spi.c ****         break;
 656:arch/riscv/mach-gd32vf10x/bsp/gd32vf103_spi.c ****     }
 657:arch/riscv/mach-gd32vf10x/bsp/gd32vf103_spi.c **** }
 1061              		.loc 1 657 1 is_stmt 0
 1062 0016 8280     		ret
 1063              	.L72:
 1064 0018 8280     		ret
 1065              	.L68:
 648:arch/riscv/mach-gd32vf10x/bsp/gd32vf103_spi.c ****         break;
 1066              		.loc 1 648 9 is_stmt 1
 648:arch/riscv/mach-gd32vf10x/bsp/gd32vf103_spi.c ****         break;
 1067              		.loc 1 648 30 is_stmt 0
 1068 001a 5C41     		lw	a5,4(a0)
 1069 001c 93F7F7FB 		andi	a5,a5,-65
 1070 0020 5CC1     		sw	a5,4(a0)
 649:arch/riscv/mach-gd32vf10x/bsp/gd32vf103_spi.c ****     /* SPI/I2S error */
 1071              		.loc 1 649 9 is_stmt 1
 1072 0022 8280     		ret
 1073              	.L69:
 644:arch/riscv/mach-gd32vf10x/bsp/gd32vf103_spi.c ****         break;
 1074              		.loc 1 644 9
 644:arch/riscv/mach-gd32vf10x/bsp/gd32vf103_spi.c ****         break;
 1075              		.loc 1 644 30 is_stmt 0
 1076 0024 5C41     		lw	a5,4(a0)
 1077 0026 93F7F7F7 		andi	a5,a5,-129
 1078 002a 5CC1     		sw	a5,4(a0)
 645:arch/riscv/mach-gd32vf10x/bsp/gd32vf103_spi.c ****     /* SPI/I2S receive buffer not empty interrupt */
 1079              		.loc 1 645 9 is_stmt 1
 1080 002c 8280     		ret
 1081              		.cfi_endproc
 1082              	.LFE32:
 1084              		.section	.text.spi_i2s_interrupt_flag_get,"ax",@progbits
 1085              		.align	1
 1086              		.globl	spi_i2s_interrupt_flag_get
 1088              	spi_i2s_interrupt_flag_get:
 1089              	.LFB33:
 658:arch/riscv/mach-gd32vf10x/bsp/gd32vf103_spi.c **** 
 659:arch/riscv/mach-gd32vf10x/bsp/gd32vf103_spi.c **** /*!
 660:arch/riscv/mach-gd32vf10x/bsp/gd32vf103_spi.c ****     \brief      get SPI and I2S interrupt flag status
 661:arch/riscv/mach-gd32vf10x/bsp/gd32vf103_spi.c ****     \param[in]  spi_periph: SPIx(x=0,1,2)
 662:arch/riscv/mach-gd32vf10x/bsp/gd32vf103_spi.c ****     \param[in]  interrupt: SPI/I2S interrupt flag status
GAS LISTING C:\Users\test\AppData\Local\Temp\ccJ7WdPA.s 			page 32


 663:arch/riscv/mach-gd32vf10x/bsp/gd32vf103_spi.c ****                 only one parameter can be selected which is shown as below:
 664:arch/riscv/mach-gd32vf10x/bsp/gd32vf103_spi.c ****       \arg        SPI_I2S_INT_FLAG_TBE: transmit buffer empty interrupt flag
 665:arch/riscv/mach-gd32vf10x/bsp/gd32vf103_spi.c ****       \arg        SPI_I2S_INT_FLAG_RBNE: receive buffer not empty interrupt flag
 666:arch/riscv/mach-gd32vf10x/bsp/gd32vf103_spi.c ****       \arg        SPI_I2S_INT_FLAG_RXORERR: overrun interrupt flag
 667:arch/riscv/mach-gd32vf10x/bsp/gd32vf103_spi.c ****       \arg        SPI_INT_FLAG_CONFERR: config error interrupt flag
 668:arch/riscv/mach-gd32vf10x/bsp/gd32vf103_spi.c ****       \arg        SPI_INT_FLAG_CRCERR: CRC error interrupt flag
 669:arch/riscv/mach-gd32vf10x/bsp/gd32vf103_spi.c ****       \arg        I2S_INT_FLAG_TXURERR: underrun error interrupt flag
 670:arch/riscv/mach-gd32vf10x/bsp/gd32vf103_spi.c ****       \arg        SPI_I2S_INT_FLAG_FERR: format error interrupt flag
 671:arch/riscv/mach-gd32vf10x/bsp/gd32vf103_spi.c ****     \param[out] none
 672:arch/riscv/mach-gd32vf10x/bsp/gd32vf103_spi.c ****     \retval     FlagStatus: SET or RESET
 673:arch/riscv/mach-gd32vf10x/bsp/gd32vf103_spi.c **** */
 674:arch/riscv/mach-gd32vf10x/bsp/gd32vf103_spi.c **** FlagStatus spi_i2s_interrupt_flag_get(uint32_t spi_periph, uint8_t interrupt)
 675:arch/riscv/mach-gd32vf10x/bsp/gd32vf103_spi.c **** {
 1090              		.loc 1 675 1
 1091              		.cfi_startproc
 1092              	.LVL87:
 676:arch/riscv/mach-gd32vf10x/bsp/gd32vf103_spi.c ****     uint32_t reg1 = SPI_STAT(spi_periph);
 1093              		.loc 1 676 5
 1094              		.loc 1 676 14 is_stmt 0
 1095 0000 1C45     		lw	a5,8(a0)
 1096              	.LVL88:
 677:arch/riscv/mach-gd32vf10x/bsp/gd32vf103_spi.c ****     uint32_t reg2 = SPI_CTL1(spi_periph);
 1097              		.loc 1 677 5 is_stmt 1
 1098              		.loc 1 677 14 is_stmt 0
 1099 0002 5441     		lw	a3,4(a0)
 1100              	.LVL89:
 678:arch/riscv/mach-gd32vf10x/bsp/gd32vf103_spi.c **** 
 679:arch/riscv/mach-gd32vf10x/bsp/gd32vf103_spi.c ****     switch(interrupt){
 1101              		.loc 1 679 5 is_stmt 1
 1102 0004 1947     		li	a4,6
 1103 0006 636DB700 		bgtu	a1,a4,.L74
 1104 000a 37070000 		lui	a4,%hi(.L76)
 1105 000e 13070700 		addi	a4,a4,%lo(.L76)
 1106 0012 8A05     		slli	a1,a1,2
 1107              	.LVL90:
 1108 0014 BA95     		add	a1,a1,a4
 1109 0016 9841     		lw	a4,0(a1)
 1110 0018 0287     		jr	a4
 1111              		.section	.rodata.spi_i2s_interrupt_flag_get,"a",@progbits
 1112              		.align	2
 1113              		.align	2
 1114              	.L76:
 1115 0000 00000000 		.word	.L82
 1116 0004 00000000 		.word	.L81
 1117 0008 00000000 		.word	.L80
 1118 000c 00000000 		.word	.L79
 1119 0010 00000000 		.word	.L78
 1120 0014 00000000 		.word	.L77
 1121 0018 00000000 		.word	.L75
 1122              		.section	.text.spi_i2s_interrupt_flag_get
 1123              	.L82:
 680:arch/riscv/mach-gd32vf10x/bsp/gd32vf103_spi.c ****     /* SPI/I2S transmit buffer empty interrupt */
 681:arch/riscv/mach-gd32vf10x/bsp/gd32vf103_spi.c ****     case SPI_I2S_INT_FLAG_TBE:
 682:arch/riscv/mach-gd32vf10x/bsp/gd32vf103_spi.c ****         reg1 = reg1 & SPI_STAT_TBE;
 1124              		.loc 1 682 9
 1125              		.loc 1 682 14 is_stmt 0
 1126 001a 898B     		andi	a5,a5,2
GAS LISTING C:\Users\test\AppData\Local\Temp\ccJ7WdPA.s 			page 33


 1127              	.LVL91:
 683:arch/riscv/mach-gd32vf10x/bsp/gd32vf103_spi.c ****         reg2 = reg2 & SPI_CTL1_TBEIE;
 1128              		.loc 1 683 9 is_stmt 1
 1129              		.loc 1 683 14 is_stmt 0
 1130 001c 93F60608 		andi	a3,a3,128
 1131              	.LVL92:
 684:arch/riscv/mach-gd32vf10x/bsp/gd32vf103_spi.c ****         break;
 1132              		.loc 1 684 9 is_stmt 1
 1133              	.L74:
 685:arch/riscv/mach-gd32vf10x/bsp/gd32vf103_spi.c ****     /* SPI/I2S receive buffer not empty interrupt */
 686:arch/riscv/mach-gd32vf10x/bsp/gd32vf103_spi.c ****     case SPI_I2S_INT_FLAG_RBNE:
 687:arch/riscv/mach-gd32vf10x/bsp/gd32vf103_spi.c ****         reg1 = reg1 & SPI_STAT_RBNE;
 688:arch/riscv/mach-gd32vf10x/bsp/gd32vf103_spi.c ****         reg2 = reg2 & SPI_CTL1_RBNEIE;
 689:arch/riscv/mach-gd32vf10x/bsp/gd32vf103_spi.c ****         break;
 690:arch/riscv/mach-gd32vf10x/bsp/gd32vf103_spi.c ****     /* SPI/I2S overrun interrupt */
 691:arch/riscv/mach-gd32vf10x/bsp/gd32vf103_spi.c ****     case SPI_I2S_INT_FLAG_RXORERR:
 692:arch/riscv/mach-gd32vf10x/bsp/gd32vf103_spi.c ****         reg1 = reg1 & SPI_STAT_RXORERR;
 693:arch/riscv/mach-gd32vf10x/bsp/gd32vf103_spi.c ****         reg2 = reg2 & SPI_CTL1_ERRIE;
 694:arch/riscv/mach-gd32vf10x/bsp/gd32vf103_spi.c ****         break;
 695:arch/riscv/mach-gd32vf10x/bsp/gd32vf103_spi.c ****     /* SPI config error interrupt */
 696:arch/riscv/mach-gd32vf10x/bsp/gd32vf103_spi.c ****     case SPI_INT_FLAG_CONFERR:
 697:arch/riscv/mach-gd32vf10x/bsp/gd32vf103_spi.c ****         reg1 = reg1 & SPI_STAT_CONFERR;
 698:arch/riscv/mach-gd32vf10x/bsp/gd32vf103_spi.c ****         reg2 = reg2 & SPI_CTL1_ERRIE;
 699:arch/riscv/mach-gd32vf10x/bsp/gd32vf103_spi.c ****         break;
 700:arch/riscv/mach-gd32vf10x/bsp/gd32vf103_spi.c ****     /* SPI CRC error interrupt */
 701:arch/riscv/mach-gd32vf10x/bsp/gd32vf103_spi.c ****     case SPI_INT_FLAG_CRCERR:
 702:arch/riscv/mach-gd32vf10x/bsp/gd32vf103_spi.c ****         reg1 = reg1 & SPI_STAT_CRCERR;
 703:arch/riscv/mach-gd32vf10x/bsp/gd32vf103_spi.c ****         reg2 = reg2 & SPI_CTL1_ERRIE;
 704:arch/riscv/mach-gd32vf10x/bsp/gd32vf103_spi.c ****         break;
 705:arch/riscv/mach-gd32vf10x/bsp/gd32vf103_spi.c ****     /* I2S underrun error interrupt */
 706:arch/riscv/mach-gd32vf10x/bsp/gd32vf103_spi.c ****     case I2S_INT_FLAG_TXURERR:
 707:arch/riscv/mach-gd32vf10x/bsp/gd32vf103_spi.c ****         reg1 = reg1 & SPI_STAT_TXURERR;
 708:arch/riscv/mach-gd32vf10x/bsp/gd32vf103_spi.c ****         reg2 = reg2 & SPI_CTL1_ERRIE;
 709:arch/riscv/mach-gd32vf10x/bsp/gd32vf103_spi.c ****         break;
 710:arch/riscv/mach-gd32vf10x/bsp/gd32vf103_spi.c ****     /* SPI/I2S format error interrupt */
 711:arch/riscv/mach-gd32vf10x/bsp/gd32vf103_spi.c ****     case SPI_I2S_INT_FLAG_FERR:
 712:arch/riscv/mach-gd32vf10x/bsp/gd32vf103_spi.c ****         reg1 = reg1 & SPI_STAT_FERR;
 713:arch/riscv/mach-gd32vf10x/bsp/gd32vf103_spi.c ****         reg2 = reg2 & SPI_CTL1_ERRIE;
 714:arch/riscv/mach-gd32vf10x/bsp/gd32vf103_spi.c ****         break;
 715:arch/riscv/mach-gd32vf10x/bsp/gd32vf103_spi.c ****     default:
 716:arch/riscv/mach-gd32vf10x/bsp/gd32vf103_spi.c ****         break;
 717:arch/riscv/mach-gd32vf10x/bsp/gd32vf103_spi.c ****     }
 718:arch/riscv/mach-gd32vf10x/bsp/gd32vf103_spi.c ****     /* get SPI/I2S interrupt flag status */
 719:arch/riscv/mach-gd32vf10x/bsp/gd32vf103_spi.c ****     if((0U != reg1) && (0U != reg2)){
 1134              		.loc 1 719 5
 1135              		.loc 1 719 7 is_stmt 0
 1136 0020 99C3     		beq	a5,zero,.L73
 1137              		.loc 1 719 21 discriminator 1
 1138 0022 B337D000 		snez	a5,a3
 1139              	.LVL93:
 1140              	.L73:
 720:arch/riscv/mach-gd32vf10x/bsp/gd32vf103_spi.c ****         return SET;
 721:arch/riscv/mach-gd32vf10x/bsp/gd32vf103_spi.c ****     }else{
 722:arch/riscv/mach-gd32vf10x/bsp/gd32vf103_spi.c ****         return RESET;
 723:arch/riscv/mach-gd32vf10x/bsp/gd32vf103_spi.c ****     }
 724:arch/riscv/mach-gd32vf10x/bsp/gd32vf103_spi.c **** }
 1141              		.loc 1 724 1
GAS LISTING C:\Users\test\AppData\Local\Temp\ccJ7WdPA.s 			page 34


 1142 0026 3E85     		mv	a0,a5
 1143              	.LVL94:
 1144 0028 8280     		ret
 1145              	.LVL95:
 1146              	.L77:
 707:arch/riscv/mach-gd32vf10x/bsp/gd32vf103_spi.c ****         reg2 = reg2 & SPI_CTL1_ERRIE;
 1147              		.loc 1 707 9 is_stmt 1
 707:arch/riscv/mach-gd32vf10x/bsp/gd32vf103_spi.c ****         reg2 = reg2 & SPI_CTL1_ERRIE;
 1148              		.loc 1 707 14 is_stmt 0
 1149 002a A18B     		andi	a5,a5,8
 1150              	.LVL96:
 708:arch/riscv/mach-gd32vf10x/bsp/gd32vf103_spi.c ****         break;
 1151              		.loc 1 708 9 is_stmt 1
 708:arch/riscv/mach-gd32vf10x/bsp/gd32vf103_spi.c ****         break;
 1152              		.loc 1 708 14 is_stmt 0
 1153 002c 93F60602 		andi	a3,a3,32
 1154              	.LVL97:
 709:arch/riscv/mach-gd32vf10x/bsp/gd32vf103_spi.c ****     /* SPI/I2S format error interrupt */
 1155              		.loc 1 709 9 is_stmt 1
 1156 0030 C5BF     		j	.L74
 1157              	.L75:
 712:arch/riscv/mach-gd32vf10x/bsp/gd32vf103_spi.c ****         reg2 = reg2 & SPI_CTL1_ERRIE;
 1158              		.loc 1 712 9
 712:arch/riscv/mach-gd32vf10x/bsp/gd32vf103_spi.c ****         reg2 = reg2 & SPI_CTL1_ERRIE;
 1159              		.loc 1 712 14 is_stmt 0
 1160 0032 93F70710 		andi	a5,a5,256
 1161              	.LVL98:
 713:arch/riscv/mach-gd32vf10x/bsp/gd32vf103_spi.c ****         break;
 1162              		.loc 1 713 9 is_stmt 1
 713:arch/riscv/mach-gd32vf10x/bsp/gd32vf103_spi.c ****         break;
 1163              		.loc 1 713 14 is_stmt 0
 1164 0036 93F60602 		andi	a3,a3,32
 1165              	.LVL99:
 714:arch/riscv/mach-gd32vf10x/bsp/gd32vf103_spi.c ****     default:
 1166              		.loc 1 714 9 is_stmt 1
 1167 003a DDB7     		j	.L74
 1168              	.L81:
 687:arch/riscv/mach-gd32vf10x/bsp/gd32vf103_spi.c ****         reg2 = reg2 & SPI_CTL1_RBNEIE;
 1169              		.loc 1 687 9
 687:arch/riscv/mach-gd32vf10x/bsp/gd32vf103_spi.c ****         reg2 = reg2 & SPI_CTL1_RBNEIE;
 1170              		.loc 1 687 14 is_stmt 0
 1171 003c 858B     		andi	a5,a5,1
 1172              	.LVL100:
 688:arch/riscv/mach-gd32vf10x/bsp/gd32vf103_spi.c ****         break;
 1173              		.loc 1 688 9 is_stmt 1
 688:arch/riscv/mach-gd32vf10x/bsp/gd32vf103_spi.c ****         break;
 1174              		.loc 1 688 14 is_stmt 0
 1175 003e 93F60604 		andi	a3,a3,64
 1176              	.LVL101:
 689:arch/riscv/mach-gd32vf10x/bsp/gd32vf103_spi.c ****     /* SPI/I2S overrun interrupt */
 1177              		.loc 1 689 9 is_stmt 1
 1178 0042 F9BF     		j	.L74
 1179              	.L80:
 692:arch/riscv/mach-gd32vf10x/bsp/gd32vf103_spi.c ****         reg2 = reg2 & SPI_CTL1_ERRIE;
 1180              		.loc 1 692 9
 692:arch/riscv/mach-gd32vf10x/bsp/gd32vf103_spi.c ****         reg2 = reg2 & SPI_CTL1_ERRIE;
 1181              		.loc 1 692 14 is_stmt 0
GAS LISTING C:\Users\test\AppData\Local\Temp\ccJ7WdPA.s 			page 35


 1182 0044 93F70704 		andi	a5,a5,64
 1183              	.LVL102:
 693:arch/riscv/mach-gd32vf10x/bsp/gd32vf103_spi.c ****         break;
 1184              		.loc 1 693 9 is_stmt 1
 693:arch/riscv/mach-gd32vf10x/bsp/gd32vf103_spi.c ****         break;
 1185              		.loc 1 693 14 is_stmt 0
 1186 0048 93F60602 		andi	a3,a3,32
 1187              	.LVL103:
 694:arch/riscv/mach-gd32vf10x/bsp/gd32vf103_spi.c ****     /* SPI config error interrupt */
 1188              		.loc 1 694 9 is_stmt 1
 1189 004c D1BF     		j	.L74
 1190              	.L79:
 697:arch/riscv/mach-gd32vf10x/bsp/gd32vf103_spi.c ****         reg2 = reg2 & SPI_CTL1_ERRIE;
 1191              		.loc 1 697 9
 697:arch/riscv/mach-gd32vf10x/bsp/gd32vf103_spi.c ****         reg2 = reg2 & SPI_CTL1_ERRIE;
 1192              		.loc 1 697 14 is_stmt 0
 1193 004e 93F70702 		andi	a5,a5,32
 1194              	.LVL104:
 698:arch/riscv/mach-gd32vf10x/bsp/gd32vf103_spi.c ****         break;
 1195              		.loc 1 698 9 is_stmt 1
 698:arch/riscv/mach-gd32vf10x/bsp/gd32vf103_spi.c ****         break;
 1196              		.loc 1 698 14 is_stmt 0
 1197 0052 93F60602 		andi	a3,a3,32
 1198              	.LVL105:
 699:arch/riscv/mach-gd32vf10x/bsp/gd32vf103_spi.c ****     /* SPI CRC error interrupt */
 1199              		.loc 1 699 9 is_stmt 1
 1200 0056 E9B7     		j	.L74
 1201              	.L78:
 702:arch/riscv/mach-gd32vf10x/bsp/gd32vf103_spi.c ****         reg2 = reg2 & SPI_CTL1_ERRIE;
 1202              		.loc 1 702 9
 702:arch/riscv/mach-gd32vf10x/bsp/gd32vf103_spi.c ****         reg2 = reg2 & SPI_CTL1_ERRIE;
 1203              		.loc 1 702 14 is_stmt 0
 1204 0058 C18B     		andi	a5,a5,16
 1205              	.LVL106:
 703:arch/riscv/mach-gd32vf10x/bsp/gd32vf103_spi.c ****         break;
 1206              		.loc 1 703 9 is_stmt 1
 703:arch/riscv/mach-gd32vf10x/bsp/gd32vf103_spi.c ****         break;
 1207              		.loc 1 703 14 is_stmt 0
 1208 005a 93F60602 		andi	a3,a3,32
 1209              	.LVL107:
 704:arch/riscv/mach-gd32vf10x/bsp/gd32vf103_spi.c ****     /* I2S underrun error interrupt */
 1210              		.loc 1 704 9 is_stmt 1
 1211 005e C9B7     		j	.L74
 1212              		.cfi_endproc
 1213              	.LFE33:
 1215              		.section	.text.spi_i2s_flag_get,"ax",@progbits
 1216              		.align	1
 1217              		.globl	spi_i2s_flag_get
 1219              	spi_i2s_flag_get:
 1220              	.LFB34:
 725:arch/riscv/mach-gd32vf10x/bsp/gd32vf103_spi.c **** 
 726:arch/riscv/mach-gd32vf10x/bsp/gd32vf103_spi.c **** /*!
 727:arch/riscv/mach-gd32vf10x/bsp/gd32vf103_spi.c ****     \brief      get SPI and I2S flag status
 728:arch/riscv/mach-gd32vf10x/bsp/gd32vf103_spi.c ****     \param[in]  spi_periph: SPIx(x=0,1,2)
 729:arch/riscv/mach-gd32vf10x/bsp/gd32vf103_spi.c ****     \param[in]  flag: SPI/I2S flag status
 730:arch/riscv/mach-gd32vf10x/bsp/gd32vf103_spi.c ****                 one or more parameters can be selected which are shown as below:
 731:arch/riscv/mach-gd32vf10x/bsp/gd32vf103_spi.c ****       \arg        SPI_FLAG_TBE: transmit buffer empty flag
GAS LISTING C:\Users\test\AppData\Local\Temp\ccJ7WdPA.s 			page 36


 732:arch/riscv/mach-gd32vf10x/bsp/gd32vf103_spi.c ****       \arg        SPI_FLAG_RBNE: receive buffer not empty flag
 733:arch/riscv/mach-gd32vf10x/bsp/gd32vf103_spi.c ****       \arg        SPI_FLAG_TRANS: transmit on-going flag
 734:arch/riscv/mach-gd32vf10x/bsp/gd32vf103_spi.c ****       \arg        SPI_FLAG_RXORERR: receive overrun error flag
 735:arch/riscv/mach-gd32vf10x/bsp/gd32vf103_spi.c ****       \arg        SPI_FLAG_CONFERR: mode config error flag
 736:arch/riscv/mach-gd32vf10x/bsp/gd32vf103_spi.c ****       \arg        SPI_FLAG_CRCERR: CRC error flag
 737:arch/riscv/mach-gd32vf10x/bsp/gd32vf103_spi.c ****       \arg        SPI_FLAG_FERR: format error interrupt flag
 738:arch/riscv/mach-gd32vf10x/bsp/gd32vf103_spi.c ****       \arg        I2S_FLAG_TBE: transmit buffer empty flag
 739:arch/riscv/mach-gd32vf10x/bsp/gd32vf103_spi.c ****       \arg        I2S_FLAG_RBNE: receive buffer not empty flag
 740:arch/riscv/mach-gd32vf10x/bsp/gd32vf103_spi.c ****       \arg        I2S_FLAG_TRANS: transmit on-going flag
 741:arch/riscv/mach-gd32vf10x/bsp/gd32vf103_spi.c ****       \arg        I2S_FLAG_RXORERR: overrun error flag
 742:arch/riscv/mach-gd32vf10x/bsp/gd32vf103_spi.c ****       \arg        I2S_FLAG_TXURERR: underrun error flag
 743:arch/riscv/mach-gd32vf10x/bsp/gd32vf103_spi.c ****       \arg        I2S_FLAG_CH: channel side flag
 744:arch/riscv/mach-gd32vf10x/bsp/gd32vf103_spi.c ****       \arg        I2S_FLAG_FERR: format error interrupt flag
 745:arch/riscv/mach-gd32vf10x/bsp/gd32vf103_spi.c ****     \param[out] none
 746:arch/riscv/mach-gd32vf10x/bsp/gd32vf103_spi.c ****     \retval     FlagStatus: SET or RESET
 747:arch/riscv/mach-gd32vf10x/bsp/gd32vf103_spi.c **** */
 748:arch/riscv/mach-gd32vf10x/bsp/gd32vf103_spi.c **** FlagStatus spi_i2s_flag_get(uint32_t spi_periph, uint32_t flag)
 749:arch/riscv/mach-gd32vf10x/bsp/gd32vf103_spi.c **** {
 1221              		.loc 1 749 1
 1222              		.cfi_startproc
 1223              	.LVL108:
 750:arch/riscv/mach-gd32vf10x/bsp/gd32vf103_spi.c ****     if(RESET != (SPI_STAT(spi_periph) & flag)){
 1224              		.loc 1 750 5
 1225              		.loc 1 750 18 is_stmt 0
 1226 0000 0845     		lw	a0,8(a0)
 1227              	.LVL109:
 1228              		.loc 1 750 39
 1229 0002 6D8D     		and	a0,a0,a1
 751:arch/riscv/mach-gd32vf10x/bsp/gd32vf103_spi.c ****         return SET;
 752:arch/riscv/mach-gd32vf10x/bsp/gd32vf103_spi.c ****     }else{
 753:arch/riscv/mach-gd32vf10x/bsp/gd32vf103_spi.c ****         return RESET;
 754:arch/riscv/mach-gd32vf10x/bsp/gd32vf103_spi.c ****     }
 755:arch/riscv/mach-gd32vf10x/bsp/gd32vf103_spi.c **** }
 1230              		.loc 1 755 1
 1231 0004 3335A000 		snez	a0,a0
 1232 0008 8280     		ret
 1233              		.cfi_endproc
 1234              	.LFE34:
 1236              		.section	.text.spi_crc_error_clear,"ax",@progbits
 1237              		.align	1
 1238              		.globl	spi_crc_error_clear
 1240              	spi_crc_error_clear:
 1241              	.LFB35:
 756:arch/riscv/mach-gd32vf10x/bsp/gd32vf103_spi.c **** 
 757:arch/riscv/mach-gd32vf10x/bsp/gd32vf103_spi.c **** /*!
 758:arch/riscv/mach-gd32vf10x/bsp/gd32vf103_spi.c ****     \brief      clear SPI CRC error flag status
 759:arch/riscv/mach-gd32vf10x/bsp/gd32vf103_spi.c ****     \param[in]  spi_periph: SPIx(x=0,1,2)
 760:arch/riscv/mach-gd32vf10x/bsp/gd32vf103_spi.c ****     \param[out] none
 761:arch/riscv/mach-gd32vf10x/bsp/gd32vf103_spi.c ****     \retval     none
 762:arch/riscv/mach-gd32vf10x/bsp/gd32vf103_spi.c **** */
 763:arch/riscv/mach-gd32vf10x/bsp/gd32vf103_spi.c **** void spi_crc_error_clear(uint32_t spi_periph)
 764:arch/riscv/mach-gd32vf10x/bsp/gd32vf103_spi.c **** {
 1242              		.loc 1 764 1 is_stmt 1
 1243              		.cfi_startproc
 1244              	.LVL110:
 765:arch/riscv/mach-gd32vf10x/bsp/gd32vf103_spi.c ****     SPI_STAT(spi_periph) &= (uint32_t)(~SPI_FLAG_CRCERR);
 1245              		.loc 1 765 5
GAS LISTING C:\Users\test\AppData\Local\Temp\ccJ7WdPA.s 			page 37


 1246              		.loc 1 765 26 is_stmt 0
 1247 0000 1C45     		lw	a5,8(a0)
 1248 0002 BD9B     		andi	a5,a5,-17
 1249 0004 1CC5     		sw	a5,8(a0)
 766:arch/riscv/mach-gd32vf10x/bsp/gd32vf103_spi.c **** }
 1250              		.loc 1 766 1
 1251 0006 8280     		ret
 1252              		.cfi_endproc
 1253              	.LFE35:
 1255              		.text
 1256              	.Letext0:
 1257              		.file 2 "d:\\risc_v_gcc\\riscv-none-embed\\include\\machine\\_default_types.h"
 1258              		.file 3 "d:\\risc_v_gcc\\riscv-none-embed\\include\\sys\\_stdint.h"
 1259              		.file 4 "arch/riscv/mach-gd32vf10x/system/gd32vf103.h"
 1260              		.file 5 "arch/riscv/mach-gd32vf10x/bsp/gd32vf103_rcu.h"
 1261              		.file 6 "arch/riscv/mach-gd32vf10x/bsp/gd32vf103_spi.h"
 1262              		.file 7 "arch/riscv/mach-gd32vf10x/system/system_gd32vf103.h"
GAS LISTING C:\Users\test\AppData\Local\Temp\ccJ7WdPA.s 			page 38

