GAS LISTING C:\Users\test\AppData\Local\Temp\ccP2CgRX.s 			page 1


   1              		.file	"gd32vf103_exmc.c"
   2              		.option nopic
   3              		.text
   4              	.Ltext0:
   5              		.cfi_sections	.debug_frame
   6              		.section	.text.exmc_norsram_deinit,"ax",@progbits
   7              		.align	1
   8              		.globl	exmc_norsram_deinit
  10              	exmc_norsram_deinit:
  11              	.LFB2:
  12              		.file 1 "arch/riscv/mach-gd32vf10x/bsp/gd32vf103_exmc.c"
   1:arch/riscv/mach-gd32vf10x/bsp/gd32vf103_exmc.c **** /*!
   2:arch/riscv/mach-gd32vf10x/bsp/gd32vf103_exmc.c ****     \file    gd32vf103_exmc.c
   3:arch/riscv/mach-gd32vf10x/bsp/gd32vf103_exmc.c ****     \brief   EXMC driver
   4:arch/riscv/mach-gd32vf10x/bsp/gd32vf103_exmc.c **** 
   5:arch/riscv/mach-gd32vf10x/bsp/gd32vf103_exmc.c ****     \version 2019-6-5, V1.0.0, firmware for GD32VF103
   6:arch/riscv/mach-gd32vf10x/bsp/gd32vf103_exmc.c **** */
   7:arch/riscv/mach-gd32vf10x/bsp/gd32vf103_exmc.c **** 
   8:arch/riscv/mach-gd32vf10x/bsp/gd32vf103_exmc.c **** /*
   9:arch/riscv/mach-gd32vf10x/bsp/gd32vf103_exmc.c ****     Copyright (c) 2019, GigaDevice Semiconductor Inc.
  10:arch/riscv/mach-gd32vf10x/bsp/gd32vf103_exmc.c **** 
  11:arch/riscv/mach-gd32vf10x/bsp/gd32vf103_exmc.c ****     Redistribution and use in source and binary forms, with or without modification,
  12:arch/riscv/mach-gd32vf10x/bsp/gd32vf103_exmc.c **** are permitted provided that the following conditions are met:
  13:arch/riscv/mach-gd32vf10x/bsp/gd32vf103_exmc.c **** 
  14:arch/riscv/mach-gd32vf10x/bsp/gd32vf103_exmc.c ****     1. Redistributions of source code must retain the above copyright notice, this
  15:arch/riscv/mach-gd32vf10x/bsp/gd32vf103_exmc.c ****        list of conditions and the following disclaimer.
  16:arch/riscv/mach-gd32vf10x/bsp/gd32vf103_exmc.c ****     2. Redistributions in binary form must reproduce the above copyright notice,
  17:arch/riscv/mach-gd32vf10x/bsp/gd32vf103_exmc.c ****        this list of conditions and the following disclaimer in the documentation
  18:arch/riscv/mach-gd32vf10x/bsp/gd32vf103_exmc.c ****        and/or other materials provided with the distribution.
  19:arch/riscv/mach-gd32vf10x/bsp/gd32vf103_exmc.c ****     3. Neither the name of the copyright holder nor the names of its contributors
  20:arch/riscv/mach-gd32vf10x/bsp/gd32vf103_exmc.c ****        may be used to endorse or promote products derived from this software without
  21:arch/riscv/mach-gd32vf10x/bsp/gd32vf103_exmc.c ****        specific prior written permission.
  22:arch/riscv/mach-gd32vf10x/bsp/gd32vf103_exmc.c **** 
  23:arch/riscv/mach-gd32vf10x/bsp/gd32vf103_exmc.c ****     THIS SOFTWARE IS PROVIDED BY THE COPYRIGHT HOLDERS AND CONTRIBUTORS "AS IS"
  24:arch/riscv/mach-gd32vf10x/bsp/gd32vf103_exmc.c **** AND ANY EXPRESS OR IMPLIED WARRANTIES, INCLUDING, BUT NOT LIMITED TO, THE IMPLIED
  25:arch/riscv/mach-gd32vf10x/bsp/gd32vf103_exmc.c **** WARRANTIES OF MERCHANTABILITY AND FITNESS FOR A PARTICULAR PURPOSE ARE DISCLAIMED.
  26:arch/riscv/mach-gd32vf10x/bsp/gd32vf103_exmc.c **** IN NO EVENT SHALL THE COPYRIGHT HOLDER OR CONTRIBUTORS BE LIABLE FOR ANY DIRECT,
  27:arch/riscv/mach-gd32vf10x/bsp/gd32vf103_exmc.c **** INDIRECT, INCIDENTAL, SPECIAL, EXEMPLARY, OR CONSEQUENTIAL DAMAGES (INCLUDING, BUT
  28:arch/riscv/mach-gd32vf10x/bsp/gd32vf103_exmc.c **** NOT LIMITED TO, PROCUREMENT OF SUBSTITUTE GOODS OR SERVICES; LOSS OF USE, DATA, OR
  29:arch/riscv/mach-gd32vf10x/bsp/gd32vf103_exmc.c **** PROFITS; OR BUSINESS INTERRUPTION) HOWEVER CAUSED AND ON ANY THEORY OF LIABILITY,
  30:arch/riscv/mach-gd32vf10x/bsp/gd32vf103_exmc.c **** WHETHER IN CONTRACT, STRICT LIABILITY, OR TORT (INCLUDING NEGLIGENCE OR OTHERWISE)
  31:arch/riscv/mach-gd32vf10x/bsp/gd32vf103_exmc.c **** ARISING IN ANY WAY OUT OF THE USE OF THIS SOFTWARE, EVEN IF ADVISED OF THE POSSIBILITY
  32:arch/riscv/mach-gd32vf10x/bsp/gd32vf103_exmc.c **** OF SUCH DAMAGE.
  33:arch/riscv/mach-gd32vf10x/bsp/gd32vf103_exmc.c **** */
  34:arch/riscv/mach-gd32vf10x/bsp/gd32vf103_exmc.c **** 
  35:arch/riscv/mach-gd32vf10x/bsp/gd32vf103_exmc.c **** #include "gd32vf103_exmc.h"
  36:arch/riscv/mach-gd32vf10x/bsp/gd32vf103_exmc.c **** 
  37:arch/riscv/mach-gd32vf10x/bsp/gd32vf103_exmc.c **** /* EXMC bank0 register reset value */
  38:arch/riscv/mach-gd32vf10x/bsp/gd32vf103_exmc.c **** #define BANK0_SNCTL0_REGION_RESET         ((uint32_t)0x000030DAU)
  39:arch/riscv/mach-gd32vf10x/bsp/gd32vf103_exmc.c **** #define BANK0_SNTCFG_RESET                ((uint32_t)0x0FFFFFFFU)
  40:arch/riscv/mach-gd32vf10x/bsp/gd32vf103_exmc.c **** 
  41:arch/riscv/mach-gd32vf10x/bsp/gd32vf103_exmc.c **** /* EXMC register bit offset */
  42:arch/riscv/mach-gd32vf10x/bsp/gd32vf103_exmc.c **** #define SNCTL_NRMUX_OFFSET                ((uint32_t)1U)
  43:arch/riscv/mach-gd32vf10x/bsp/gd32vf103_exmc.c **** #define SNCTL_WREN_OFFSET                 ((uint32_t)12U)
  44:arch/riscv/mach-gd32vf10x/bsp/gd32vf103_exmc.c **** #define SNCTL_NRWTEN_OFFSET               ((uint32_t)13U)
  45:arch/riscv/mach-gd32vf10x/bsp/gd32vf103_exmc.c **** #define SNCTL_ASYNCWAIT_OFFSET            ((uint32_t)15U)
  46:arch/riscv/mach-gd32vf10x/bsp/gd32vf103_exmc.c **** 
GAS LISTING C:\Users\test\AppData\Local\Temp\ccP2CgRX.s 			page 2


  47:arch/riscv/mach-gd32vf10x/bsp/gd32vf103_exmc.c **** #define SNTCFG_AHLD_OFFSET                ((uint32_t)4U)
  48:arch/riscv/mach-gd32vf10x/bsp/gd32vf103_exmc.c **** #define SNTCFG_DSET_OFFSET                ((uint32_t)8U)
  49:arch/riscv/mach-gd32vf10x/bsp/gd32vf103_exmc.c **** #define SNTCFG_BUSLAT_OFFSET              ((uint32_t)16U)
  50:arch/riscv/mach-gd32vf10x/bsp/gd32vf103_exmc.c **** 
  51:arch/riscv/mach-gd32vf10x/bsp/gd32vf103_exmc.c **** /*!
  52:arch/riscv/mach-gd32vf10x/bsp/gd32vf103_exmc.c ****     \brief      deinitialize EXMC NOR/SRAM region
  53:arch/riscv/mach-gd32vf10x/bsp/gd32vf103_exmc.c ****     \param[in]  norsram_region: select the region of bank0
  54:arch/riscv/mach-gd32vf10x/bsp/gd32vf103_exmc.c ****       \arg        EXMC_BANK0_NORSRAM_REGIONx(x=0)
  55:arch/riscv/mach-gd32vf10x/bsp/gd32vf103_exmc.c ****     \param[out] none
  56:arch/riscv/mach-gd32vf10x/bsp/gd32vf103_exmc.c ****     \retval     none
  57:arch/riscv/mach-gd32vf10x/bsp/gd32vf103_exmc.c **** */
  58:arch/riscv/mach-gd32vf10x/bsp/gd32vf103_exmc.c **** void exmc_norsram_deinit(uint32_t norsram_region)
  59:arch/riscv/mach-gd32vf10x/bsp/gd32vf103_exmc.c **** {
  13              		.loc 1 59 1
  14              		.cfi_startproc
  15              	.LVL0:
  60:arch/riscv/mach-gd32vf10x/bsp/gd32vf103_exmc.c ****     /* reset the registers */
  61:arch/riscv/mach-gd32vf10x/bsp/gd32vf103_exmc.c ****     if(EXMC_BANK0_NORSRAM_REGION0 == norsram_region){
  16              		.loc 1 61 5
  17              		.loc 1 61 7 is_stmt 0
  18 0000 19E5     		bne	a0,zero,.L2
  62:arch/riscv/mach-gd32vf10x/bsp/gd32vf103_exmc.c ****         EXMC_SNCTL(norsram_region) = BANK0_SNCTL0_REGION_RESET;
  19              		.loc 1 62 9 is_stmt 1
  20              		.loc 1 62 36 is_stmt 0
  21 0002 8D67     		li	a5,12288
  22 0004 370700A0 		li	a4,-1610612736
  23 0008 9387A70D 		addi	a5,a5,218
  24 000c 1CC3     		sw	a5,0(a4)
  25              	.L2:
  63:arch/riscv/mach-gd32vf10x/bsp/gd32vf103_exmc.c ****     }
  64:arch/riscv/mach-gd32vf10x/bsp/gd32vf103_exmc.c **** 
  65:arch/riscv/mach-gd32vf10x/bsp/gd32vf103_exmc.c ****     EXMC_SNTCFG(norsram_region) = BANK0_SNTCFG_RESET;
  26              		.loc 1 65 5 is_stmt 1
  27 000e B70700A0 		li	a5,-1610612736
  28 0012 9107     		addi	a5,a5,4
  29 0014 0E05     		slli	a0,a0,3
  30              	.LVL1:
  31 0016 3E95     		add	a0,a0,a5
  32              		.loc 1 65 33 is_stmt 0
  33 0018 B7070010 		li	a5,268435456
  34 001c FD17     		addi	a5,a5,-1
  35 001e 1CC1     		sw	a5,0(a0)
  66:arch/riscv/mach-gd32vf10x/bsp/gd32vf103_exmc.c **** }
  36              		.loc 1 66 1
  37 0020 8280     		ret
  38              		.cfi_endproc
  39              	.LFE2:
  41              		.section	.text.exmc_norsram_struct_para_init,"ax",@progbits
  42              		.align	1
  43              		.globl	exmc_norsram_struct_para_init
  45              	exmc_norsram_struct_para_init:
  46              	.LFB3:
  67:arch/riscv/mach-gd32vf10x/bsp/gd32vf103_exmc.c **** 
  68:arch/riscv/mach-gd32vf10x/bsp/gd32vf103_exmc.c **** /*!
  69:arch/riscv/mach-gd32vf10x/bsp/gd32vf103_exmc.c ****     \brief      initialize the structure exmc_norsram_parameter_struct
  70:arch/riscv/mach-gd32vf10x/bsp/gd32vf103_exmc.c ****     \param[in]  none
  71:arch/riscv/mach-gd32vf10x/bsp/gd32vf103_exmc.c ****     \param[out] exmc_norsram_init_struct: the initialized structure exmc_norsram_parameter_struct p
GAS LISTING C:\Users\test\AppData\Local\Temp\ccP2CgRX.s 			page 3


  72:arch/riscv/mach-gd32vf10x/bsp/gd32vf103_exmc.c ****     \retval     none
  73:arch/riscv/mach-gd32vf10x/bsp/gd32vf103_exmc.c **** */
  74:arch/riscv/mach-gd32vf10x/bsp/gd32vf103_exmc.c **** void exmc_norsram_struct_para_init(exmc_norsram_parameter_struct* exmc_norsram_init_struct)
  75:arch/riscv/mach-gd32vf10x/bsp/gd32vf103_exmc.c **** {
  47              		.loc 1 75 1 is_stmt 1
  48              		.cfi_startproc
  49              	.LVL2:
  76:arch/riscv/mach-gd32vf10x/bsp/gd32vf103_exmc.c ****     /* configure the structure with default value */
  77:arch/riscv/mach-gd32vf10x/bsp/gd32vf103_exmc.c ****     exmc_norsram_init_struct->norsram_region = EXMC_BANK0_NORSRAM_REGION0;
  50              		.loc 1 77 5
  78:arch/riscv/mach-gd32vf10x/bsp/gd32vf103_exmc.c ****     exmc_norsram_init_struct->address_data_mux = ENABLE;
  79:arch/riscv/mach-gd32vf10x/bsp/gd32vf103_exmc.c ****     exmc_norsram_init_struct->memory_type = EXMC_MEMORY_TYPE_SRAM;
  80:arch/riscv/mach-gd32vf10x/bsp/gd32vf103_exmc.c ****     exmc_norsram_init_struct->databus_width = EXMC_NOR_DATABUS_WIDTH_16B;
  81:arch/riscv/mach-gd32vf10x/bsp/gd32vf103_exmc.c ****     exmc_norsram_init_struct->nwait_polarity = EXMC_NWAIT_POLARITY_LOW;
  82:arch/riscv/mach-gd32vf10x/bsp/gd32vf103_exmc.c ****     exmc_norsram_init_struct->memory_write = ENABLE;
  83:arch/riscv/mach-gd32vf10x/bsp/gd32vf103_exmc.c ****     exmc_norsram_init_struct->nwait_signal = ENABLE;
  84:arch/riscv/mach-gd32vf10x/bsp/gd32vf103_exmc.c ****     exmc_norsram_init_struct->asyn_wait = DISABLE;
  85:arch/riscv/mach-gd32vf10x/bsp/gd32vf103_exmc.c **** 
  86:arch/riscv/mach-gd32vf10x/bsp/gd32vf103_exmc.c ****     /* read/write timing configure */
  87:arch/riscv/mach-gd32vf10x/bsp/gd32vf103_exmc.c ****     exmc_norsram_init_struct->read_write_timing->asyn_address_setuptime = 0xFU;
  51              		.loc 1 87 29 is_stmt 0
  52 0000 1C51     		lw	a5,32(a0)
  78:arch/riscv/mach-gd32vf10x/bsp/gd32vf103_exmc.c ****     exmc_norsram_init_struct->address_data_mux = ENABLE;
  53              		.loc 1 78 48
  54 0002 0547     		li	a4,1
  80:arch/riscv/mach-gd32vf10x/bsp/gd32vf103_exmc.c ****     exmc_norsram_init_struct->nwait_polarity = EXMC_NWAIT_POLARITY_LOW;
  55              		.loc 1 80 45
  56 0004 C146     		li	a3,16
  78:arch/riscv/mach-gd32vf10x/bsp/gd32vf103_exmc.c ****     exmc_norsram_init_struct->address_data_mux = ENABLE;
  57              		.loc 1 78 48
  58 0006 58CD     		sw	a4,28(a0)
  80:arch/riscv/mach-gd32vf10x/bsp/gd32vf103_exmc.c ****     exmc_norsram_init_struct->nwait_polarity = EXMC_NWAIT_POLARITY_LOW;
  59              		.loc 1 80 45
  60 0008 54C9     		sw	a3,20(a0)
  82:arch/riscv/mach-gd32vf10x/bsp/gd32vf103_exmc.c ****     exmc_norsram_init_struct->nwait_signal = ENABLE;
  61              		.loc 1 82 44
  62 000a 58C5     		sw	a4,12(a0)
  83:arch/riscv/mach-gd32vf10x/bsp/gd32vf103_exmc.c ****     exmc_norsram_init_struct->asyn_wait = DISABLE;
  63              		.loc 1 83 44
  64 000c 18C5     		sw	a4,8(a0)
  77:arch/riscv/mach-gd32vf10x/bsp/gd32vf103_exmc.c ****     exmc_norsram_init_struct->address_data_mux = ENABLE;
  65              		.loc 1 77 46
  66 000e 23200500 		sw	zero,0(a0)
  78:arch/riscv/mach-gd32vf10x/bsp/gd32vf103_exmc.c ****     exmc_norsram_init_struct->memory_type = EXMC_MEMORY_TYPE_SRAM;
  67              		.loc 1 78 5 is_stmt 1
  79:arch/riscv/mach-gd32vf10x/bsp/gd32vf103_exmc.c ****     exmc_norsram_init_struct->databus_width = EXMC_NOR_DATABUS_WIDTH_16B;
  68              		.loc 1 79 5
  79:arch/riscv/mach-gd32vf10x/bsp/gd32vf103_exmc.c ****     exmc_norsram_init_struct->databus_width = EXMC_NOR_DATABUS_WIDTH_16B;
  69              		.loc 1 79 43 is_stmt 0
  70 0012 232C0500 		sw	zero,24(a0)
  80:arch/riscv/mach-gd32vf10x/bsp/gd32vf103_exmc.c ****     exmc_norsram_init_struct->nwait_polarity = EXMC_NWAIT_POLARITY_LOW;
  71              		.loc 1 80 5 is_stmt 1
  81:arch/riscv/mach-gd32vf10x/bsp/gd32vf103_exmc.c ****     exmc_norsram_init_struct->memory_write = ENABLE;
  72              		.loc 1 81 5
  81:arch/riscv/mach-gd32vf10x/bsp/gd32vf103_exmc.c ****     exmc_norsram_init_struct->memory_write = ENABLE;
  73              		.loc 1 81 46 is_stmt 0
  74 0016 23280500 		sw	zero,16(a0)
GAS LISTING C:\Users\test\AppData\Local\Temp\ccP2CgRX.s 			page 4


  82:arch/riscv/mach-gd32vf10x/bsp/gd32vf103_exmc.c ****     exmc_norsram_init_struct->nwait_signal = ENABLE;
  75              		.loc 1 82 5 is_stmt 1
  83:arch/riscv/mach-gd32vf10x/bsp/gd32vf103_exmc.c ****     exmc_norsram_init_struct->asyn_wait = DISABLE;
  76              		.loc 1 83 5
  84:arch/riscv/mach-gd32vf10x/bsp/gd32vf103_exmc.c **** 
  77              		.loc 1 84 5
  84:arch/riscv/mach-gd32vf10x/bsp/gd32vf103_exmc.c **** 
  78              		.loc 1 84 41 is_stmt 0
  79 001a 23220500 		sw	zero,4(a0)
  80              		.loc 1 87 5 is_stmt 1
  81              		.loc 1 87 73 is_stmt 0
  82 001e 3D47     		li	a4,15
  88:arch/riscv/mach-gd32vf10x/bsp/gd32vf103_exmc.c ****     exmc_norsram_init_struct->read_write_timing->asyn_address_holdtime = 0xFU;
  89:arch/riscv/mach-gd32vf10x/bsp/gd32vf103_exmc.c ****     exmc_norsram_init_struct->read_write_timing->asyn_data_setuptime = 0xFFU;
  83              		.loc 1 89 70
  84 0020 9306F00F 		li	a3,255
  87:arch/riscv/mach-gd32vf10x/bsp/gd32vf103_exmc.c ****     exmc_norsram_init_struct->read_write_timing->asyn_address_holdtime = 0xFU;
  85              		.loc 1 87 73
  86 0024 D8C7     		sw	a4,12(a5)
  88:arch/riscv/mach-gd32vf10x/bsp/gd32vf103_exmc.c ****     exmc_norsram_init_struct->read_write_timing->asyn_address_holdtime = 0xFU;
  87              		.loc 1 88 5 is_stmt 1
  88:arch/riscv/mach-gd32vf10x/bsp/gd32vf103_exmc.c ****     exmc_norsram_init_struct->read_write_timing->asyn_address_holdtime = 0xFU;
  88              		.loc 1 88 72 is_stmt 0
  89 0026 98C7     		sw	a4,8(a5)
  90              		.loc 1 89 5 is_stmt 1
  91              		.loc 1 89 70 is_stmt 0
  92 0028 D4C3     		sw	a3,4(a5)
  90:arch/riscv/mach-gd32vf10x/bsp/gd32vf103_exmc.c ****     exmc_norsram_init_struct->read_write_timing->bus_latency = 0xFU;
  93              		.loc 1 90 5 is_stmt 1
  94              		.loc 1 90 62 is_stmt 0
  95 002a 98C3     		sw	a4,0(a5)
  91:arch/riscv/mach-gd32vf10x/bsp/gd32vf103_exmc.c **** }
  96              		.loc 1 91 1
  97 002c 8280     		ret
  98              		.cfi_endproc
  99              	.LFE3:
 101              		.section	.text.exmc_norsram_init,"ax",@progbits
 102              		.align	1
 103              		.globl	exmc_norsram_init
 105              	exmc_norsram_init:
 106              	.LFB4:
  92:arch/riscv/mach-gd32vf10x/bsp/gd32vf103_exmc.c **** 
  93:arch/riscv/mach-gd32vf10x/bsp/gd32vf103_exmc.c **** /*!
  94:arch/riscv/mach-gd32vf10x/bsp/gd32vf103_exmc.c ****     \brief      initialize EXMC NOR/SRAM region
  95:arch/riscv/mach-gd32vf10x/bsp/gd32vf103_exmc.c ****     \param[in]  exmc_norsram_parameter_struct: configure the EXMC NOR/SRAM parameter
  96:arch/riscv/mach-gd32vf10x/bsp/gd32vf103_exmc.c ****                   norsram_region: EXMC_BANK0_NORSRAM_REGIONx,x=0
  97:arch/riscv/mach-gd32vf10x/bsp/gd32vf103_exmc.c ****                   asyn_wait: ENABLE or DISABLE
  98:arch/riscv/mach-gd32vf10x/bsp/gd32vf103_exmc.c ****                   nwait_signal: ENABLE or DISABLE
  99:arch/riscv/mach-gd32vf10x/bsp/gd32vf103_exmc.c ****                   memory_write: ENABLE or DISABLE
 100:arch/riscv/mach-gd32vf10x/bsp/gd32vf103_exmc.c ****                   nwait_polarity: EXMC_NWAIT_POLARITY_LOW,EXMC_NWAIT_POLARITY_HIGH
 101:arch/riscv/mach-gd32vf10x/bsp/gd32vf103_exmc.c ****                   databus_width: EXMC_NOR_DATABUS_WIDTH_8B,EXMC_NOR_DATABUS_WIDTH_16B
 102:arch/riscv/mach-gd32vf10x/bsp/gd32vf103_exmc.c ****                   memory_type: EXMC_MEMORY_TYPE_SRAM,EXMC_MEMORY_TYPE_PSRAM,EXMC_MEMORY_TYPE_NOR
 103:arch/riscv/mach-gd32vf10x/bsp/gd32vf103_exmc.c ****                   address_data_mux: ENABLE
 104:arch/riscv/mach-gd32vf10x/bsp/gd32vf103_exmc.c ****                   read_write_timing: structure exmc_norsram_timing_parameter_struct set the time
 105:arch/riscv/mach-gd32vf10x/bsp/gd32vf103_exmc.c ****     \param[out] none
 106:arch/riscv/mach-gd32vf10x/bsp/gd32vf103_exmc.c ****     \retval     none
 107:arch/riscv/mach-gd32vf10x/bsp/gd32vf103_exmc.c **** */
GAS LISTING C:\Users\test\AppData\Local\Temp\ccP2CgRX.s 			page 5


 108:arch/riscv/mach-gd32vf10x/bsp/gd32vf103_exmc.c **** void exmc_norsram_init(exmc_norsram_parameter_struct* exmc_norsram_init_struct)
 109:arch/riscv/mach-gd32vf10x/bsp/gd32vf103_exmc.c **** {
 107              		.loc 1 109 1 is_stmt 1
 108              		.cfi_startproc
 109              	.LVL3:
 110:arch/riscv/mach-gd32vf10x/bsp/gd32vf103_exmc.c ****     uint32_t snctl = 0x00000000U, sntcfg = 0x00000000U;
 110              		.loc 1 110 5
 111:arch/riscv/mach-gd32vf10x/bsp/gd32vf103_exmc.c **** 
 112:arch/riscv/mach-gd32vf10x/bsp/gd32vf103_exmc.c ****     /* get the register value */
 113:arch/riscv/mach-gd32vf10x/bsp/gd32vf103_exmc.c ****     snctl = EXMC_SNCTL(exmc_norsram_init_struct->norsram_region);
 111              		.loc 1 113 5
 114:arch/riscv/mach-gd32vf10x/bsp/gd32vf103_exmc.c **** 
 115:arch/riscv/mach-gd32vf10x/bsp/gd32vf103_exmc.c ****     /* clear relative bits */
 116:arch/riscv/mach-gd32vf10x/bsp/gd32vf103_exmc.c ****     snctl &= ((uint32_t)~(EXMC_SNCTL_NREN | EXMC_SNCTL_NRTP | EXMC_SNCTL_NRW | EXMC_SNCTL_NRWTPOL |
 117:arch/riscv/mach-gd32vf10x/bsp/gd32vf103_exmc.c ****                           EXMC_SNCTL_WREN | EXMC_SNCTL_NRWTEN | EXMC_SNCTL_ASYNCWAIT | EXMC_SNCTL_N
 118:arch/riscv/mach-gd32vf10x/bsp/gd32vf103_exmc.c **** 
 119:arch/riscv/mach-gd32vf10x/bsp/gd32vf103_exmc.c ****     snctl |= (uint32_t)(exmc_norsram_init_struct->address_data_mux << SNCTL_NRMUX_OFFSET) |
 120:arch/riscv/mach-gd32vf10x/bsp/gd32vf103_exmc.c ****                         exmc_norsram_init_struct->memory_type |
 121:arch/riscv/mach-gd32vf10x/bsp/gd32vf103_exmc.c ****                         exmc_norsram_init_struct->databus_width |
 122:arch/riscv/mach-gd32vf10x/bsp/gd32vf103_exmc.c ****                         exmc_norsram_init_struct->nwait_polarity |
 123:arch/riscv/mach-gd32vf10x/bsp/gd32vf103_exmc.c ****                        (exmc_norsram_init_struct->memory_write << SNCTL_WREN_OFFSET) |
 124:arch/riscv/mach-gd32vf10x/bsp/gd32vf103_exmc.c ****                        (exmc_norsram_init_struct->nwait_signal << SNCTL_NRWTEN_OFFSET) |
 125:arch/riscv/mach-gd32vf10x/bsp/gd32vf103_exmc.c ****                        (exmc_norsram_init_struct->asyn_wait << SNCTL_ASYNCWAIT_OFFSET);
 126:arch/riscv/mach-gd32vf10x/bsp/gd32vf103_exmc.c **** 
 127:arch/riscv/mach-gd32vf10x/bsp/gd32vf103_exmc.c ****     sntcfg = (uint32_t)((exmc_norsram_init_struct->read_write_timing->asyn_address_setuptime - 1U )
 112              		.loc 1 127 50 is_stmt 0
 113 0000 1051     		lw	a2,32(a0)
 120:arch/riscv/mach-gd32vf10x/bsp/gd32vf103_exmc.c ****                         exmc_norsram_init_struct->databus_width |
 114              		.loc 1 120 49
 115 0002 83288501 		lw	a7,24(a0)
 121:arch/riscv/mach-gd32vf10x/bsp/gd32vf103_exmc.c ****                         exmc_norsram_init_struct->nwait_polarity |
 116              		.loc 1 121 65
 117 0006 5849     		lw	a4,20(a0)
 113:arch/riscv/mach-gd32vf10x/bsp/gd32vf103_exmc.c **** 
 118              		.loc 1 113 13
 119 0008 03230500 		lw	t1,0(a0)
 121:arch/riscv/mach-gd32vf10x/bsp/gd32vf103_exmc.c ****                         exmc_norsram_init_struct->nwait_polarity |
 120              		.loc 1 121 65
 121 000c 032E0501 		lw	t3,16(a0)
 128:arch/riscv/mach-gd32vf10x/bsp/gd32vf103_exmc.c ****                        (((exmc_norsram_init_struct->read_write_timing->asyn_address_holdtime - 1U )
 122              		.loc 1 128 94
 123 0010 1446     		lw	a3,8(a2)
 119:arch/riscv/mach-gd32vf10x/bsp/gd32vf103_exmc.c ****                         exmc_norsram_init_struct->memory_type |
 124              		.loc 1 119 68
 125 0012 5C4D     		lw	a5,28(a0)
 129:arch/riscv/mach-gd32vf10x/bsp/gd32vf103_exmc.c ****                        (((exmc_norsram_init_struct->read_write_timing->asyn_data_setuptime - 1U ) <
 126              		.loc 1 129 92
 127 0014 4C42     		lw	a1,4(a2)
 113:arch/riscv/mach-gd32vf10x/bsp/gd32vf103_exmc.c **** 
 128              		.loc 1 113 13
 129 0016 37080014 		li	a6,335544320
 121:arch/riscv/mach-gd32vf10x/bsp/gd32vf103_exmc.c ****                         exmc_norsram_init_struct->nwait_polarity |
 130              		.loc 1 121 65
 131 001a 33E7E800 		or	a4,a7,a4
 132 001e 3367C701 		or	a4,a4,t3
 113:arch/riscv/mach-gd32vf10x/bsp/gd32vf103_exmc.c **** 
 133              		.loc 1 113 13
GAS LISTING C:\Users\test\AppData\Local\Temp\ccP2CgRX.s 			page 6


 134 0022 1A98     		add	a6,a6,t1
 128:arch/riscv/mach-gd32vf10x/bsp/gd32vf103_exmc.c ****                        (((exmc_norsram_init_struct->read_write_timing->asyn_data_setuptime - 1U ) <
 135              		.loc 1 128 94
 136 0024 FD16     		addi	a3,a3,-1
 127:arch/riscv/mach-gd32vf10x/bsp/gd32vf103_exmc.c ****                        (((exmc_norsram_init_struct->read_write_timing->asyn_address_holdtime - 1U )
 137              		.loc 1 127 94
 138 0026 0323C600 		lw	t1,12(a2)
 123:arch/riscv/mach-gd32vf10x/bsp/gd32vf103_exmc.c ****                        (exmc_norsram_init_struct->nwait_signal << SNCTL_NRWTEN_OFFSET) |
 139              		.loc 1 123 64
 140 002a 832FC500 		lw	t6,12(a0)
 119:arch/riscv/mach-gd32vf10x/bsp/gd32vf103_exmc.c ****                         exmc_norsram_init_struct->memory_type |
 141              		.loc 1 119 68
 142 002e 8607     		slli	a5,a5,1
 130:arch/riscv/mach-gd32vf10x/bsp/gd32vf103_exmc.c ****                        (((exmc_norsram_init_struct->read_write_timing->bus_latency - 1U ) << SNTCFG
 143              		.loc 1 130 84
 144 0030 1042     		lw	a2,0(a2)
 121:arch/riscv/mach-gd32vf10x/bsp/gd32vf103_exmc.c ****                         exmc_norsram_init_struct->nwait_polarity |
 145              		.loc 1 121 65
 146 0032 D98F     		or	a5,a4,a5
 124:arch/riscv/mach-gd32vf10x/bsp/gd32vf103_exmc.c ****                        (exmc_norsram_init_struct->asyn_wait << SNCTL_ASYNCWAIT_OFFSET);
 147              		.loc 1 124 64
 148 0034 032F8500 		lw	t5,8(a0)
 128:arch/riscv/mach-gd32vf10x/bsp/gd32vf103_exmc.c ****                        (((exmc_norsram_init_struct->read_write_timing->asyn_data_setuptime - 1U ) <
 149              		.loc 1 128 101
 150 0038 13974600 		slli	a4,a3,4
 129:arch/riscv/mach-gd32vf10x/bsp/gd32vf103_exmc.c ****                        (((exmc_norsram_init_struct->read_write_timing->bus_latency - 1U ) << SNTCFG
 151              		.loc 1 129 92
 152 003c FD15     		addi	a1,a1,-1
 129:arch/riscv/mach-gd32vf10x/bsp/gd32vf103_exmc.c ****                        (((exmc_norsram_init_struct->read_write_timing->bus_latency - 1U ) << SNTCFG
 153              		.loc 1 129 123
 154 003e C166     		li	a3,65536
 155 0040 FD16     		addi	a3,a3,-1
 113:arch/riscv/mach-gd32vf10x/bsp/gd32vf103_exmc.c **** 
 156              		.loc 1 113 13
 157 0042 0E08     		slli	a6,a6,3
 125:arch/riscv/mach-gd32vf10x/bsp/gd32vf103_exmc.c **** 
 158              		.loc 1 125 61
 159 0044 832E4500 		lw	t4,4(a0)
 129:arch/riscv/mach-gd32vf10x/bsp/gd32vf103_exmc.c ****                        (((exmc_norsram_init_struct->read_write_timing->bus_latency - 1U ) << SNTCFG
 160              		.loc 1 129 99
 161 0048 A205     		slli	a1,a1,8
 129:arch/riscv/mach-gd32vf10x/bsp/gd32vf103_exmc.c ****                        (((exmc_norsram_init_struct->read_write_timing->bus_latency - 1U ) << SNTCFG
 162              		.loc 1 129 123
 163 004a F58D     		and	a1,a1,a3
 113:arch/riscv/mach-gd32vf10x/bsp/gd32vf103_exmc.c **** 
 164              		.loc 1 113 11
 165 004c 032E0800 		lw	t3,0(a6)
 166              	.LVL4:
 116:arch/riscv/mach-gd32vf10x/bsp/gd32vf103_exmc.c ****                           EXMC_SNCTL_WREN | EXMC_SNCTL_NRWTEN | EXMC_SNCTL_ASYNCWAIT | EXMC_SNCTL_N
 167              		.loc 1 116 5 is_stmt 1
 123:arch/riscv/mach-gd32vf10x/bsp/gd32vf103_exmc.c ****                        (exmc_norsram_init_struct->nwait_signal << SNCTL_NRWTEN_OFFSET) |
 168              		.loc 1 123 64 is_stmt 0
 169 0050 B20F     		slli	t6,t6,12
 128:arch/riscv/mach-gd32vf10x/bsp/gd32vf103_exmc.c ****                        (((exmc_norsram_init_struct->read_write_timing->asyn_data_setuptime - 1U ) <
 170              		.loc 1 128 125
 171 0052 1377F70F 		andi	a4,a4,255
 127:arch/riscv/mach-gd32vf10x/bsp/gd32vf103_exmc.c ****                        (((exmc_norsram_init_struct->read_write_timing->asyn_address_holdtime - 1U )
GAS LISTING C:\Users\test\AppData\Local\Temp\ccP2CgRX.s 			page 7


 172              		.loc 1 127 94
 173 0056 7D13     		addi	t1,t1,-1
 174              		.loc 1 130 84
 175 0058 9306F6FF 		addi	a3,a2,-1
 128:arch/riscv/mach-gd32vf10x/bsp/gd32vf103_exmc.c ****                        (((exmc_norsram_init_struct->read_write_timing->asyn_data_setuptime - 1U ) <
 176              		.loc 1 128 146
 177 005c 4D8F     		or	a4,a4,a1
 127:arch/riscv/mach-gd32vf10x/bsp/gd32vf103_exmc.c ****                        (((exmc_norsram_init_struct->read_write_timing->asyn_address_holdtime - 1U )
 178              		.loc 1 127 14
 179 005e 1376F300 		andi	a2,t1,15
 122:arch/riscv/mach-gd32vf10x/bsp/gd32vf103_exmc.c ****                        (exmc_norsram_init_struct->memory_write << SNCTL_WREN_OFFSET) |
 180              		.loc 1 122 66
 181 0062 B3E7F701 		or	a5,a5,t6
 124:arch/riscv/mach-gd32vf10x/bsp/gd32vf103_exmc.c ****                        (exmc_norsram_init_struct->asyn_wait << SNCTL_ASYNCWAIT_OFFSET);
 182              		.loc 1 124 64
 183 0066 360F     		slli	t5,t5,13
 116:arch/riscv/mach-gd32vf10x/bsp/gd32vf103_exmc.c ****                           EXMC_SNCTL_WREN | EXMC_SNCTL_NRWTEN | EXMC_SNCTL_ASYNCWAIT | EXMC_SNCTL_N
 184              		.loc 1 116 11
 185 0068 D575     		li	a1,-45056
 128:arch/riscv/mach-gd32vf10x/bsp/gd32vf103_exmc.c ****                        (((exmc_norsram_init_struct->read_write_timing->asyn_data_setuptime - 1U ) <
 186              		.loc 1 128 146
 187 006a 518F     		or	a4,a4,a2
 123:arch/riscv/mach-gd32vf10x/bsp/gd32vf103_exmc.c ****                        (exmc_norsram_init_struct->nwait_signal << SNCTL_NRWTEN_OFFSET) |
 188              		.loc 1 123 86
 189 006c B3E7E701 		or	a5,a5,t5
 190              		.loc 1 130 117
 191 0070 37060F00 		li	a2,983040
 125:arch/riscv/mach-gd32vf10x/bsp/gd32vf103_exmc.c **** 
 192              		.loc 1 125 61
 193 0074 BE0E     		slli	t4,t4,15
 194              		.loc 1 130 91
 195 0076 C206     		slli	a3,a3,16
 116:arch/riscv/mach-gd32vf10x/bsp/gd32vf103_exmc.c ****                           EXMC_SNCTL_WREN | EXMC_SNCTL_NRWTEN | EXMC_SNCTL_ASYNCWAIT | EXMC_SNCTL_N
 196              		.loc 1 116 11
 197 0078 938515D8 		addi	a1,a1,-639
 198              		.loc 1 130 117
 199 007c F18E     		and	a3,a3,a2
 116:arch/riscv/mach-gd32vf10x/bsp/gd32vf103_exmc.c ****                           EXMC_SNCTL_WREN | EXMC_SNCTL_NRWTEN | EXMC_SNCTL_ASYNCWAIT | EXMC_SNCTL_N
 200              		.loc 1 116 11
 201 007e B375BE00 		and	a1,t3,a1
 202              	.LVL5:
 119:arch/riscv/mach-gd32vf10x/bsp/gd32vf103_exmc.c ****                         exmc_norsram_init_struct->memory_type |
 203              		.loc 1 119 5 is_stmt 1
 124:arch/riscv/mach-gd32vf10x/bsp/gd32vf103_exmc.c ****                        (exmc_norsram_init_struct->asyn_wait << SNCTL_ASYNCWAIT_OFFSET);
 204              		.loc 1 124 88 is_stmt 0
 205 0082 B3E7D701 		or	a5,a5,t4
 131:arch/riscv/mach-gd32vf10x/bsp/gd32vf103_exmc.c **** 
 132:arch/riscv/mach-gd32vf10x/bsp/gd32vf103_exmc.c ****     /* nor flash access enable */
 133:arch/riscv/mach-gd32vf10x/bsp/gd32vf103_exmc.c ****     if(EXMC_MEMORY_TYPE_NOR == exmc_norsram_init_struct->memory_type){
 206              		.loc 1 133 7
 207 0086 2146     		li	a2,8
 119:arch/riscv/mach-gd32vf10x/bsp/gd32vf103_exmc.c ****                         exmc_norsram_init_struct->memory_type |
 208              		.loc 1 119 11
 209 0088 CD8F     		or	a5,a5,a1
 210              	.LVL6:
 127:arch/riscv/mach-gd32vf10x/bsp/gd32vf103_exmc.c ****                        (((exmc_norsram_init_struct->read_write_timing->asyn_address_holdtime - 1U )
 211              		.loc 1 127 5 is_stmt 1
GAS LISTING C:\Users\test\AppData\Local\Temp\ccP2CgRX.s 			page 8


 127:arch/riscv/mach-gd32vf10x/bsp/gd32vf103_exmc.c ****                        (((exmc_norsram_init_struct->read_write_timing->asyn_address_holdtime - 1U )
 212              		.loc 1 127 12 is_stmt 0
 213 008a 558F     		or	a4,a4,a3
 214              	.LVL7:
 215              		.loc 1 133 5 is_stmt 1
 216              		.loc 1 133 7 is_stmt 0
 217 008c 6394C800 		bne	a7,a2,.L6
 134:arch/riscv/mach-gd32vf10x/bsp/gd32vf103_exmc.c ****         snctl |= (uint32_t)EXMC_SNCTL_NREN;
 218              		.loc 1 134 9 is_stmt 1
 219              		.loc 1 134 15 is_stmt 0
 220 0090 93E70704 		ori	a5,a5,64
 221              	.LVL8:
 222              	.L6:
 135:arch/riscv/mach-gd32vf10x/bsp/gd32vf103_exmc.c ****     }
 136:arch/riscv/mach-gd32vf10x/bsp/gd32vf103_exmc.c **** 
 137:arch/riscv/mach-gd32vf10x/bsp/gd32vf103_exmc.c ****     /* configure the registers */
 138:arch/riscv/mach-gd32vf10x/bsp/gd32vf103_exmc.c ****     EXMC_SNCTL(exmc_norsram_init_struct->norsram_region) = snctl;
 223              		.loc 1 138 5 is_stmt 1
 224              		.loc 1 138 58 is_stmt 0
 225 0094 2320F800 		sw	a5,0(a6)
 139:arch/riscv/mach-gd32vf10x/bsp/gd32vf103_exmc.c ****     EXMC_SNTCFG(exmc_norsram_init_struct->norsram_region) = sntcfg;
 226              		.loc 1 139 5 is_stmt 1
 227 0098 1C41     		lw	a5,0(a0)
 228              	.LVL9:
 229 009a B70600A0 		li	a3,-1610612736
 230 009e 9106     		addi	a3,a3,4
 231 00a0 8E07     		slli	a5,a5,3
 232 00a2 B697     		add	a5,a5,a3
 233              		.loc 1 139 59 is_stmt 0
 234 00a4 98C3     		sw	a4,0(a5)
 235              	.LVL10:
 140:arch/riscv/mach-gd32vf10x/bsp/gd32vf103_exmc.c **** }
 236              		.loc 1 140 1
 237 00a6 8280     		ret
 238              		.cfi_endproc
 239              	.LFE4:
 241              		.section	.text.exmc_norsram_enable,"ax",@progbits
 242              		.align	1
 243              		.globl	exmc_norsram_enable
 245              	exmc_norsram_enable:
 246              	.LFB5:
 141:arch/riscv/mach-gd32vf10x/bsp/gd32vf103_exmc.c **** 
 142:arch/riscv/mach-gd32vf10x/bsp/gd32vf103_exmc.c **** /*!
 143:arch/riscv/mach-gd32vf10x/bsp/gd32vf103_exmc.c ****     \brief      enable EXMC NOR/PSRAM bank region
 144:arch/riscv/mach-gd32vf10x/bsp/gd32vf103_exmc.c ****     \param[in]  norsram_region: specify the region of NOR/PSRAM bank
 145:arch/riscv/mach-gd32vf10x/bsp/gd32vf103_exmc.c ****       \arg        EXMC_BANK0_NORSRAM_REGIONx(x=0)
 146:arch/riscv/mach-gd32vf10x/bsp/gd32vf103_exmc.c ****     \param[out] none
 147:arch/riscv/mach-gd32vf10x/bsp/gd32vf103_exmc.c ****     \retval     none
 148:arch/riscv/mach-gd32vf10x/bsp/gd32vf103_exmc.c **** */
 149:arch/riscv/mach-gd32vf10x/bsp/gd32vf103_exmc.c **** void exmc_norsram_enable(uint32_t norsram_region)
 150:arch/riscv/mach-gd32vf10x/bsp/gd32vf103_exmc.c **** {
 247              		.loc 1 150 1 is_stmt 1
 248              		.cfi_startproc
 249              	.LVL11:
 151:arch/riscv/mach-gd32vf10x/bsp/gd32vf103_exmc.c ****     EXMC_SNCTL(norsram_region) |= (uint32_t)EXMC_SNCTL_NRBKEN;
 250              		.loc 1 151 5
 251              		.loc 1 151 32 is_stmt 0
GAS LISTING C:\Users\test\AppData\Local\Temp\ccP2CgRX.s 			page 9


 252 0000 B7070014 		li	a5,335544320
 253 0004 3E95     		add	a0,a0,a5
 254              	.LVL12:
 255 0006 0E05     		slli	a0,a0,3
 256              	.LVL13:
 257 0008 1C41     		lw	a5,0(a0)
 258 000a 93E71700 		ori	a5,a5,1
 259 000e 1CC1     		sw	a5,0(a0)
 152:arch/riscv/mach-gd32vf10x/bsp/gd32vf103_exmc.c **** }
 260              		.loc 1 152 1
 261 0010 8280     		ret
 262              		.cfi_endproc
 263              	.LFE5:
 265              		.section	.text.exmc_norsram_disable,"ax",@progbits
 266              		.align	1
 267              		.globl	exmc_norsram_disable
 269              	exmc_norsram_disable:
 270              	.LFB6:
 153:arch/riscv/mach-gd32vf10x/bsp/gd32vf103_exmc.c **** 
 154:arch/riscv/mach-gd32vf10x/bsp/gd32vf103_exmc.c **** /*!
 155:arch/riscv/mach-gd32vf10x/bsp/gd32vf103_exmc.c ****     \brief      disable EXMC NOR/PSRAM bank region
 156:arch/riscv/mach-gd32vf10x/bsp/gd32vf103_exmc.c ****     \param[in]  norsram_region: specify the region of NOR/PSRAM bank
 157:arch/riscv/mach-gd32vf10x/bsp/gd32vf103_exmc.c ****       \arg        EXMC_BANK0_NORSRAM_REGIONx(x=0)
 158:arch/riscv/mach-gd32vf10x/bsp/gd32vf103_exmc.c ****     \param[out] none
 159:arch/riscv/mach-gd32vf10x/bsp/gd32vf103_exmc.c ****     \retval     none
 160:arch/riscv/mach-gd32vf10x/bsp/gd32vf103_exmc.c **** */
 161:arch/riscv/mach-gd32vf10x/bsp/gd32vf103_exmc.c **** void exmc_norsram_disable(uint32_t norsram_region)
 162:arch/riscv/mach-gd32vf10x/bsp/gd32vf103_exmc.c **** {
 271              		.loc 1 162 1 is_stmt 1
 272              		.cfi_startproc
 273              	.LVL14:
 163:arch/riscv/mach-gd32vf10x/bsp/gd32vf103_exmc.c ****     EXMC_SNCTL(norsram_region) &= ~(uint32_t)EXMC_SNCTL_NRBKEN;
 274              		.loc 1 163 5
 275              		.loc 1 163 32 is_stmt 0
 276 0000 B7070014 		li	a5,335544320
 277 0004 3E95     		add	a0,a0,a5
 278              	.LVL15:
 279 0006 0E05     		slli	a0,a0,3
 280              	.LVL16:
 281 0008 1C41     		lw	a5,0(a0)
 282 000a F99B     		andi	a5,a5,-2
 283 000c 1CC1     		sw	a5,0(a0)
 164:arch/riscv/mach-gd32vf10x/bsp/gd32vf103_exmc.c **** }
 284              		.loc 1 164 1
 285 000e 8280     		ret
 286              		.cfi_endproc
 287              	.LFE6:
 289              		.text
 290              	.Letext0:
 291              		.file 2 "d:\\risc_v_gcc\\riscv-none-embed\\include\\machine\\_default_types.h"
 292              		.file 3 "d:\\risc_v_gcc\\riscv-none-embed\\include\\sys\\_stdint.h"
 293              		.file 4 "arch/riscv/mach-gd32vf10x/bsp/gd32vf103_exmc.h"
 294              		.file 5 "arch/riscv/mach-gd32vf10x/system/system_gd32vf103.h"
 295              		.file 6 "arch/riscv/mach-gd32vf10x/system/gd32vf103.h"
GAS LISTING C:\Users\test\AppData\Local\Temp\ccP2CgRX.s 			page 10


DEFINED SYMBOLS
                            *ABS*:0000000000000000 gd32vf103_exmc.c
C:\Users\test\AppData\Local\Temp\ccP2CgRX.s:10     .text.exmc_norsram_deinit:0000000000000000 exmc_norsram_deinit
C:\Users\test\AppData\Local\Temp\ccP2CgRX.s:14     .text.exmc_norsram_deinit:0000000000000000 .L0 
C:\Users\test\AppData\Local\Temp\ccP2CgRX.s:16     .text.exmc_norsram_deinit:0000000000000000 .L0 
C:\Users\test\AppData\Local\Temp\ccP2CgRX.s:17     .text.exmc_norsram_deinit:0000000000000000 .L0 
C:\Users\test\AppData\Local\Temp\ccP2CgRX.s:18     .text.exmc_norsram_deinit:0000000000000000 .L0 
C:\Users\test\AppData\Local\Temp\ccP2CgRX.s:20     .text.exmc_norsram_deinit:0000000000000002 .L0 
C:\Users\test\AppData\Local\Temp\ccP2CgRX.s:21     .text.exmc_norsram_deinit:0000000000000002 .L0 
C:\Users\test\AppData\Local\Temp\ccP2CgRX.s:27     .text.exmc_norsram_deinit:000000000000000e .L0 
C:\Users\test\AppData\Local\Temp\ccP2CgRX.s:33     .text.exmc_norsram_deinit:0000000000000018 .L0 
C:\Users\test\AppData\Local\Temp\ccP2CgRX.s:37     .text.exmc_norsram_deinit:0000000000000020 .L0 
C:\Users\test\AppData\Local\Temp\ccP2CgRX.s:38     .text.exmc_norsram_deinit:0000000000000022 .L0 
C:\Users\test\AppData\Local\Temp\ccP2CgRX.s:45     .text.exmc_norsram_struct_para_init:0000000000000000 exmc_norsram_struct_para_init
C:\Users\test\AppData\Local\Temp\ccP2CgRX.s:48     .text.exmc_norsram_struct_para_init:0000000000000000 .L0 
C:\Users\test\AppData\Local\Temp\ccP2CgRX.s:50     .text.exmc_norsram_struct_para_init:0000000000000000 .L0 
C:\Users\test\AppData\Local\Temp\ccP2CgRX.s:51     .text.exmc_norsram_struct_para_init:0000000000000000 .L0 
C:\Users\test\AppData\Local\Temp\ccP2CgRX.s:52     .text.exmc_norsram_struct_para_init:0000000000000000 .L0 
C:\Users\test\AppData\Local\Temp\ccP2CgRX.s:54     .text.exmc_norsram_struct_para_init:0000000000000002 .L0 
C:\Users\test\AppData\Local\Temp\ccP2CgRX.s:56     .text.exmc_norsram_struct_para_init:0000000000000004 .L0 
C:\Users\test\AppData\Local\Temp\ccP2CgRX.s:58     .text.exmc_norsram_struct_para_init:0000000000000006 .L0 
C:\Users\test\AppData\Local\Temp\ccP2CgRX.s:60     .text.exmc_norsram_struct_para_init:0000000000000008 .L0 
C:\Users\test\AppData\Local\Temp\ccP2CgRX.s:62     .text.exmc_norsram_struct_para_init:000000000000000a .L0 
C:\Users\test\AppData\Local\Temp\ccP2CgRX.s:64     .text.exmc_norsram_struct_para_init:000000000000000c .L0 
C:\Users\test\AppData\Local\Temp\ccP2CgRX.s:66     .text.exmc_norsram_struct_para_init:000000000000000e .L0 
C:\Users\test\AppData\Local\Temp\ccP2CgRX.s:68     .text.exmc_norsram_struct_para_init:0000000000000012 .L0 
C:\Users\test\AppData\Local\Temp\ccP2CgRX.s:69     .text.exmc_norsram_struct_para_init:0000000000000012 .L0 
C:\Users\test\AppData\Local\Temp\ccP2CgRX.s:70     .text.exmc_norsram_struct_para_init:0000000000000012 .L0 
C:\Users\test\AppData\Local\Temp\ccP2CgRX.s:72     .text.exmc_norsram_struct_para_init:0000000000000016 .L0 
C:\Users\test\AppData\Local\Temp\ccP2CgRX.s:73     .text.exmc_norsram_struct_para_init:0000000000000016 .L0 
C:\Users\test\AppData\Local\Temp\ccP2CgRX.s:74     .text.exmc_norsram_struct_para_init:0000000000000016 .L0 
C:\Users\test\AppData\Local\Temp\ccP2CgRX.s:76     .text.exmc_norsram_struct_para_init:000000000000001a .L0 
C:\Users\test\AppData\Local\Temp\ccP2CgRX.s:77     .text.exmc_norsram_struct_para_init:000000000000001a .L0 
C:\Users\test\AppData\Local\Temp\ccP2CgRX.s:78     .text.exmc_norsram_struct_para_init:000000000000001a .L0 
C:\Users\test\AppData\Local\Temp\ccP2CgRX.s:79     .text.exmc_norsram_struct_para_init:000000000000001a .L0 
C:\Users\test\AppData\Local\Temp\ccP2CgRX.s:81     .text.exmc_norsram_struct_para_init:000000000000001e .L0 
C:\Users\test\AppData\Local\Temp\ccP2CgRX.s:82     .text.exmc_norsram_struct_para_init:000000000000001e .L0 
C:\Users\test\AppData\Local\Temp\ccP2CgRX.s:84     .text.exmc_norsram_struct_para_init:0000000000000020 .L0 
C:\Users\test\AppData\Local\Temp\ccP2CgRX.s:86     .text.exmc_norsram_struct_para_init:0000000000000024 .L0 
C:\Users\test\AppData\Local\Temp\ccP2CgRX.s:88     .text.exmc_norsram_struct_para_init:0000000000000026 .L0 
C:\Users\test\AppData\Local\Temp\ccP2CgRX.s:89     .text.exmc_norsram_struct_para_init:0000000000000026 .L0 
C:\Users\test\AppData\Local\Temp\ccP2CgRX.s:91     .text.exmc_norsram_struct_para_init:0000000000000028 .L0 
C:\Users\test\AppData\Local\Temp\ccP2CgRX.s:92     .text.exmc_norsram_struct_para_init:0000000000000028 .L0 
C:\Users\test\AppData\Local\Temp\ccP2CgRX.s:94     .text.exmc_norsram_struct_para_init:000000000000002a .L0 
C:\Users\test\AppData\Local\Temp\ccP2CgRX.s:95     .text.exmc_norsram_struct_para_init:000000000000002a .L0 
C:\Users\test\AppData\Local\Temp\ccP2CgRX.s:97     .text.exmc_norsram_struct_para_init:000000000000002c .L0 
C:\Users\test\AppData\Local\Temp\ccP2CgRX.s:98     .text.exmc_norsram_struct_para_init:000000000000002e .L0 
C:\Users\test\AppData\Local\Temp\ccP2CgRX.s:105    .text.exmc_norsram_init:0000000000000000 exmc_norsram_init
C:\Users\test\AppData\Local\Temp\ccP2CgRX.s:108    .text.exmc_norsram_init:0000000000000000 .L0 
C:\Users\test\AppData\Local\Temp\ccP2CgRX.s:110    .text.exmc_norsram_init:0000000000000000 .L0 
C:\Users\test\AppData\Local\Temp\ccP2CgRX.s:111    .text.exmc_norsram_init:0000000000000000 .L0 
C:\Users\test\AppData\Local\Temp\ccP2CgRX.s:112    .text.exmc_norsram_init:0000000000000000 .L0 
C:\Users\test\AppData\Local\Temp\ccP2CgRX.s:113    .text.exmc_norsram_init:0000000000000000 .L0 
C:\Users\test\AppData\Local\Temp\ccP2CgRX.s:115    .text.exmc_norsram_init:0000000000000002 .L0 
C:\Users\test\AppData\Local\Temp\ccP2CgRX.s:117    .text.exmc_norsram_init:0000000000000006 .L0 
C:\Users\test\AppData\Local\Temp\ccP2CgRX.s:119    .text.exmc_norsram_init:0000000000000008 .L0 
C:\Users\test\AppData\Local\Temp\ccP2CgRX.s:121    .text.exmc_norsram_init:000000000000000c .L0 
GAS LISTING C:\Users\test\AppData\Local\Temp\ccP2CgRX.s 			page 11


C:\Users\test\AppData\Local\Temp\ccP2CgRX.s:123    .text.exmc_norsram_init:0000000000000010 .L0 
C:\Users\test\AppData\Local\Temp\ccP2CgRX.s:125    .text.exmc_norsram_init:0000000000000012 .L0 
C:\Users\test\AppData\Local\Temp\ccP2CgRX.s:127    .text.exmc_norsram_init:0000000000000014 .L0 
C:\Users\test\AppData\Local\Temp\ccP2CgRX.s:129    .text.exmc_norsram_init:0000000000000016 .L0 
C:\Users\test\AppData\Local\Temp\ccP2CgRX.s:131    .text.exmc_norsram_init:000000000000001a .L0 
C:\Users\test\AppData\Local\Temp\ccP2CgRX.s:134    .text.exmc_norsram_init:0000000000000022 .L0 
C:\Users\test\AppData\Local\Temp\ccP2CgRX.s:136    .text.exmc_norsram_init:0000000000000024 .L0 
C:\Users\test\AppData\Local\Temp\ccP2CgRX.s:138    .text.exmc_norsram_init:0000000000000026 .L0 
C:\Users\test\AppData\Local\Temp\ccP2CgRX.s:140    .text.exmc_norsram_init:000000000000002a .L0 
C:\Users\test\AppData\Local\Temp\ccP2CgRX.s:142    .text.exmc_norsram_init:000000000000002e .L0 
C:\Users\test\AppData\Local\Temp\ccP2CgRX.s:144    .text.exmc_norsram_init:0000000000000030 .L0 
C:\Users\test\AppData\Local\Temp\ccP2CgRX.s:146    .text.exmc_norsram_init:0000000000000032 .L0 
C:\Users\test\AppData\Local\Temp\ccP2CgRX.s:148    .text.exmc_norsram_init:0000000000000034 .L0 
C:\Users\test\AppData\Local\Temp\ccP2CgRX.s:150    .text.exmc_norsram_init:0000000000000038 .L0 
C:\Users\test\AppData\Local\Temp\ccP2CgRX.s:152    .text.exmc_norsram_init:000000000000003c .L0 
C:\Users\test\AppData\Local\Temp\ccP2CgRX.s:154    .text.exmc_norsram_init:000000000000003e .L0 
C:\Users\test\AppData\Local\Temp\ccP2CgRX.s:157    .text.exmc_norsram_init:0000000000000042 .L0 
C:\Users\test\AppData\Local\Temp\ccP2CgRX.s:159    .text.exmc_norsram_init:0000000000000044 .L0 
C:\Users\test\AppData\Local\Temp\ccP2CgRX.s:161    .text.exmc_norsram_init:0000000000000048 .L0 
C:\Users\test\AppData\Local\Temp\ccP2CgRX.s:163    .text.exmc_norsram_init:000000000000004a .L0 
C:\Users\test\AppData\Local\Temp\ccP2CgRX.s:165    .text.exmc_norsram_init:000000000000004c .L0 
C:\Users\test\AppData\Local\Temp\ccP2CgRX.s:168    .text.exmc_norsram_init:0000000000000050 .L0 
C:\Users\test\AppData\Local\Temp\ccP2CgRX.s:169    .text.exmc_norsram_init:0000000000000050 .L0 
C:\Users\test\AppData\Local\Temp\ccP2CgRX.s:171    .text.exmc_norsram_init:0000000000000052 .L0 
C:\Users\test\AppData\Local\Temp\ccP2CgRX.s:173    .text.exmc_norsram_init:0000000000000056 .L0 
C:\Users\test\AppData\Local\Temp\ccP2CgRX.s:175    .text.exmc_norsram_init:0000000000000058 .L0 
C:\Users\test\AppData\Local\Temp\ccP2CgRX.s:177    .text.exmc_norsram_init:000000000000005c .L0 
C:\Users\test\AppData\Local\Temp\ccP2CgRX.s:179    .text.exmc_norsram_init:000000000000005e .L0 
C:\Users\test\AppData\Local\Temp\ccP2CgRX.s:181    .text.exmc_norsram_init:0000000000000062 .L0 
C:\Users\test\AppData\Local\Temp\ccP2CgRX.s:183    .text.exmc_norsram_init:0000000000000066 .L0 
C:\Users\test\AppData\Local\Temp\ccP2CgRX.s:185    .text.exmc_norsram_init:0000000000000068 .L0 
C:\Users\test\AppData\Local\Temp\ccP2CgRX.s:187    .text.exmc_norsram_init:000000000000006a .L0 
C:\Users\test\AppData\Local\Temp\ccP2CgRX.s:189    .text.exmc_norsram_init:000000000000006c .L0 
C:\Users\test\AppData\Local\Temp\ccP2CgRX.s:191    .text.exmc_norsram_init:0000000000000070 .L0 
C:\Users\test\AppData\Local\Temp\ccP2CgRX.s:193    .text.exmc_norsram_init:0000000000000074 .L0 
C:\Users\test\AppData\Local\Temp\ccP2CgRX.s:195    .text.exmc_norsram_init:0000000000000076 .L0 
C:\Users\test\AppData\Local\Temp\ccP2CgRX.s:197    .text.exmc_norsram_init:0000000000000078 .L0 
C:\Users\test\AppData\Local\Temp\ccP2CgRX.s:199    .text.exmc_norsram_init:000000000000007c .L0 
C:\Users\test\AppData\Local\Temp\ccP2CgRX.s:201    .text.exmc_norsram_init:000000000000007e .L0 
C:\Users\test\AppData\Local\Temp\ccP2CgRX.s:204    .text.exmc_norsram_init:0000000000000082 .L0 
C:\Users\test\AppData\Local\Temp\ccP2CgRX.s:205    .text.exmc_norsram_init:0000000000000082 .L0 
C:\Users\test\AppData\Local\Temp\ccP2CgRX.s:207    .text.exmc_norsram_init:0000000000000086 .L0 
C:\Users\test\AppData\Local\Temp\ccP2CgRX.s:209    .text.exmc_norsram_init:0000000000000088 .L0 
C:\Users\test\AppData\Local\Temp\ccP2CgRX.s:212    .text.exmc_norsram_init:000000000000008a .L0 
C:\Users\test\AppData\Local\Temp\ccP2CgRX.s:213    .text.exmc_norsram_init:000000000000008a .L0 
C:\Users\test\AppData\Local\Temp\ccP2CgRX.s:216    .text.exmc_norsram_init:000000000000008c .L0 
C:\Users\test\AppData\Local\Temp\ccP2CgRX.s:217    .text.exmc_norsram_init:000000000000008c .L0 
C:\Users\test\AppData\Local\Temp\ccP2CgRX.s:219    .text.exmc_norsram_init:0000000000000090 .L0 
C:\Users\test\AppData\Local\Temp\ccP2CgRX.s:220    .text.exmc_norsram_init:0000000000000090 .L0 
C:\Users\test\AppData\Local\Temp\ccP2CgRX.s:224    .text.exmc_norsram_init:0000000000000094 .L0 
C:\Users\test\AppData\Local\Temp\ccP2CgRX.s:225    .text.exmc_norsram_init:0000000000000094 .L0 
C:\Users\test\AppData\Local\Temp\ccP2CgRX.s:227    .text.exmc_norsram_init:0000000000000098 .L0 
C:\Users\test\AppData\Local\Temp\ccP2CgRX.s:234    .text.exmc_norsram_init:00000000000000a4 .L0 
C:\Users\test\AppData\Local\Temp\ccP2CgRX.s:237    .text.exmc_norsram_init:00000000000000a6 .L0 
C:\Users\test\AppData\Local\Temp\ccP2CgRX.s:238    .text.exmc_norsram_init:00000000000000a8 .L0 
C:\Users\test\AppData\Local\Temp\ccP2CgRX.s:245    .text.exmc_norsram_enable:0000000000000000 exmc_norsram_enable
C:\Users\test\AppData\Local\Temp\ccP2CgRX.s:248    .text.exmc_norsram_enable:0000000000000000 .L0 
GAS LISTING C:\Users\test\AppData\Local\Temp\ccP2CgRX.s 			page 12


C:\Users\test\AppData\Local\Temp\ccP2CgRX.s:250    .text.exmc_norsram_enable:0000000000000000 .L0 
C:\Users\test\AppData\Local\Temp\ccP2CgRX.s:251    .text.exmc_norsram_enable:0000000000000000 .L0 
C:\Users\test\AppData\Local\Temp\ccP2CgRX.s:252    .text.exmc_norsram_enable:0000000000000000 .L0 
C:\Users\test\AppData\Local\Temp\ccP2CgRX.s:261    .text.exmc_norsram_enable:0000000000000010 .L0 
C:\Users\test\AppData\Local\Temp\ccP2CgRX.s:262    .text.exmc_norsram_enable:0000000000000012 .L0 
C:\Users\test\AppData\Local\Temp\ccP2CgRX.s:269    .text.exmc_norsram_disable:0000000000000000 exmc_norsram_disable
C:\Users\test\AppData\Local\Temp\ccP2CgRX.s:272    .text.exmc_norsram_disable:0000000000000000 .L0 
C:\Users\test\AppData\Local\Temp\ccP2CgRX.s:274    .text.exmc_norsram_disable:0000000000000000 .L0 
C:\Users\test\AppData\Local\Temp\ccP2CgRX.s:275    .text.exmc_norsram_disable:0000000000000000 .L0 
C:\Users\test\AppData\Local\Temp\ccP2CgRX.s:276    .text.exmc_norsram_disable:0000000000000000 .L0 
C:\Users\test\AppData\Local\Temp\ccP2CgRX.s:285    .text.exmc_norsram_disable:000000000000000e .L0 
C:\Users\test\AppData\Local\Temp\ccP2CgRX.s:286    .text.exmc_norsram_disable:0000000000000010 .L0 
C:\Users\test\AppData\Local\Temp\ccP2CgRX.s:41     .text.exmc_norsram_deinit:0000000000000022 .L0 
C:\Users\test\AppData\Local\Temp\ccP2CgRX.s:101    .text.exmc_norsram_struct_para_init:000000000000002e .L0 
C:\Users\test\AppData\Local\Temp\ccP2CgRX.s:241    .text.exmc_norsram_init:00000000000000a8 .L0 
C:\Users\test\AppData\Local\Temp\ccP2CgRX.s:265    .text.exmc_norsram_enable:0000000000000012 .L0 
C:\Users\test\AppData\Local\Temp\ccP2CgRX.s:289    .text.exmc_norsram_disable:0000000000000010 .L0 
                     .debug_frame:0000000000000000 .L0 
C:\Users\test\AppData\Local\Temp\ccP2CgRX.s:25     .text.exmc_norsram_deinit:000000000000000e .L2
C:\Users\test\AppData\Local\Temp\ccP2CgRX.s:222    .text.exmc_norsram_init:0000000000000094 .L6
C:\Users\test\AppData\Local\Temp\ccP2CgRX.s:662    .debug_abbrev:0000000000000000 .Ldebug_abbrev0
C:\Users\test\AppData\Local\Temp\ccP2CgRX.s:1045   .debug_str:000000000000000e .LASF35
C:\Users\test\AppData\Local\Temp\ccP2CgRX.s:1069   .debug_str:000000000000013e .LASF36
C:\Users\test\AppData\Local\Temp\ccP2CgRX.s:1075   .debug_str:000000000000018b .LASF37
C:\Users\test\AppData\Local\Temp\ccP2CgRX.s:1027   .debug_ranges:0000000000000000 .Ldebug_ranges0
C:\Users\test\AppData\Local\Temp\ccP2CgRX.s:1041   .debug_line:0000000000000000 .Ldebug_line0
C:\Users\test\AppData\Local\Temp\ccP2CgRX.s:1083   .debug_str:00000000000001e1 .LASF0
C:\Users\test\AppData\Local\Temp\ccP2CgRX.s:1059   .debug_str:00000000000000eb .LASF1
C:\Users\test\AppData\Local\Temp\ccP2CgRX.s:1061   .debug_str:00000000000000f7 .LASF2
C:\Users\test\AppData\Local\Temp\ccP2CgRX.s:1105   .debug_str:00000000000002c1 .LASF3
C:\Users\test\AppData\Local\Temp\ccP2CgRX.s:1067   .debug_str:000000000000012b .LASF4
C:\Users\test\AppData\Local\Temp\ccP2CgRX.s:1111   .debug_str:00000000000002eb .LASF5
C:\Users\test\AppData\Local\Temp\ccP2CgRX.s:1079   .debug_str:00000000000001d0 .LASF9
C:\Users\test\AppData\Local\Temp\ccP2CgRX.s:1063   .debug_str:0000000000000105 .LASF6
C:\Users\test\AppData\Local\Temp\ccP2CgRX.s:1043   .debug_str:0000000000000000 .LASF7
C:\Users\test\AppData\Local\Temp\ccP2CgRX.s:1085   .debug_str:00000000000001ee .LASF8
C:\Users\test\AppData\Local\Temp\ccP2CgRX.s:1109   .debug_str:00000000000002e2 .LASF10
C:\Users\test\AppData\Local\Temp\ccP2CgRX.s:1099   .debug_str:000000000000027d .LASF38
C:\Users\test\AppData\Local\Temp\ccP2CgRX.s:1117   .debug_str:000000000000030c .LASF11
C:\Users\test\AppData\Local\Temp\ccP2CgRX.s:1057   .debug_str:00000000000000e4 .LASF12
C:\Users\test\AppData\Local\Temp\ccP2CgRX.s:1087   .debug_str:0000000000000205 .LASF13
C:\Users\test\AppData\Local\Temp\ccP2CgRX.s:1095   .debug_str:000000000000025d .LASF14
C:\Users\test\AppData\Local\Temp\ccP2CgRX.s:1103   .debug_str:00000000000002ab .LASF15
C:\Users\test\AppData\Local\Temp\ccP2CgRX.s:1107   .debug_str:00000000000002cb .LASF16
C:\Users\test\AppData\Local\Temp\ccP2CgRX.s:1091   .debug_str:0000000000000226 .LASF17
C:\Users\test\AppData\Local\Temp\ccP2CgRX.s:1055   .debug_str:00000000000000d5 .LASF18
C:\Users\test\AppData\Local\Temp\ccP2CgRX.s:1073   .debug_str:0000000000000181 .LASF19
C:\Users\test\AppData\Local\Temp\ccP2CgRX.s:1119   .debug_str:0000000000000314 .LASF20
C:\Users\test\AppData\Local\Temp\ccP2CgRX.s:1121   .debug_str:0000000000000321 .LASF21
C:\Users\test\AppData\Local\Temp\ccP2CgRX.s:1049   .debug_str:00000000000000a6 .LASF22
C:\Users\test\AppData\Local\Temp\ccP2CgRX.s:1053   .debug_str:00000000000000c7 .LASF23
C:\Users\test\AppData\Local\Temp\ccP2CgRX.s:1097   .debug_str:0000000000000271 .LASF24
C:\Users\test\AppData\Local\Temp\ccP2CgRX.s:1115   .debug_str:00000000000002fb .LASF25
C:\Users\test\AppData\Local\Temp\ccP2CgRX.s:1051   .debug_str:00000000000000b5 .LASF26
C:\Users\test\AppData\Local\Temp\ccP2CgRX.s:1101   .debug_str:000000000000028d .LASF27
C:\Users\test\AppData\Local\Temp\ccP2CgRX.s:1089   .debug_str:0000000000000211 .LASF28
C:\Users\test\AppData\Local\Temp\ccP2CgRX.s:270    .text.exmc_norsram_disable:0000000000000000 .LFB6
GAS LISTING C:\Users\test\AppData\Local\Temp\ccP2CgRX.s 			page 13


C:\Users\test\AppData\Local\Temp\ccP2CgRX.s:287    .text.exmc_norsram_disable:0000000000000010 .LFE6
C:\Users\test\AppData\Local\Temp\ccP2CgRX.s:915    .debug_loc:0000000000000000 .LLST4
C:\Users\test\AppData\Local\Temp\ccP2CgRX.s:1071   .debug_str:000000000000016d .LASF29
C:\Users\test\AppData\Local\Temp\ccP2CgRX.s:246    .text.exmc_norsram_enable:0000000000000000 .LFB5
C:\Users\test\AppData\Local\Temp\ccP2CgRX.s:263    .text.exmc_norsram_enable:0000000000000012 .LFE5
C:\Users\test\AppData\Local\Temp\ccP2CgRX.s:935    .debug_loc:0000000000000032 .LLST3
C:\Users\test\AppData\Local\Temp\ccP2CgRX.s:1093   .debug_str:000000000000024b .LASF30
C:\Users\test\AppData\Local\Temp\ccP2CgRX.s:106    .text.exmc_norsram_init:0000000000000000 .LFB4
C:\Users\test\AppData\Local\Temp\ccP2CgRX.s:239    .text.exmc_norsram_init:00000000000000a8 .LFE4
C:\Users\test\AppData\Local\Temp\ccP2CgRX.s:1077   .debug_str:00000000000001b7 .LASF31
C:\Users\test\AppData\Local\Temp\ccP2CgRX.s:1081   .debug_str:00000000000001db .LASF32
C:\Users\test\AppData\Local\Temp\ccP2CgRX.s:955    .debug_loc:0000000000000064 .LLST1
C:\Users\test\AppData\Local\Temp\ccP2CgRX.s:1113   .debug_str:00000000000002f4 .LASF33
C:\Users\test\AppData\Local\Temp\ccP2CgRX.s:980    .debug_loc:00000000000000a5 .LLST2
C:\Users\test\AppData\Local\Temp\ccP2CgRX.s:1047   .debug_str:0000000000000088 .LASF34
C:\Users\test\AppData\Local\Temp\ccP2CgRX.s:46     .text.exmc_norsram_struct_para_init:0000000000000000 .LFB3
C:\Users\test\AppData\Local\Temp\ccP2CgRX.s:99     .text.exmc_norsram_struct_para_init:000000000000002e .LFE3
C:\Users\test\AppData\Local\Temp\ccP2CgRX.s:1065   .debug_str:0000000000000117 .LASF39
C:\Users\test\AppData\Local\Temp\ccP2CgRX.s:11     .text.exmc_norsram_deinit:0000000000000000 .LFB2
C:\Users\test\AppData\Local\Temp\ccP2CgRX.s:39     .text.exmc_norsram_deinit:0000000000000022 .LFE2
C:\Users\test\AppData\Local\Temp\ccP2CgRX.s:992    .debug_loc:00000000000000c4 .LLST0
C:\Users\test\AppData\Local\Temp\ccP2CgRX.s:273    .text.exmc_norsram_disable:0000000000000000 .LVL14
C:\Users\test\AppData\Local\Temp\ccP2CgRX.s:278    .text.exmc_norsram_disable:0000000000000006 .LVL15
C:\Users\test\AppData\Local\Temp\ccP2CgRX.s:280    .text.exmc_norsram_disable:0000000000000008 .LVL16
C:\Users\test\AppData\Local\Temp\ccP2CgRX.s:249    .text.exmc_norsram_enable:0000000000000000 .LVL11
C:\Users\test\AppData\Local\Temp\ccP2CgRX.s:254    .text.exmc_norsram_enable:0000000000000006 .LVL12
C:\Users\test\AppData\Local\Temp\ccP2CgRX.s:256    .text.exmc_norsram_enable:0000000000000008 .LVL13
C:\Users\test\AppData\Local\Temp\ccP2CgRX.s:109    .text.exmc_norsram_init:0000000000000000 .LVL3
C:\Users\test\AppData\Local\Temp\ccP2CgRX.s:166    .text.exmc_norsram_init:0000000000000050 .LVL4
C:\Users\test\AppData\Local\Temp\ccP2CgRX.s:202    .text.exmc_norsram_init:0000000000000082 .LVL5
C:\Users\test\AppData\Local\Temp\ccP2CgRX.s:210    .text.exmc_norsram_init:000000000000008a .LVL6
C:\Users\test\AppData\Local\Temp\ccP2CgRX.s:228    .text.exmc_norsram_init:000000000000009a .LVL9
C:\Users\test\AppData\Local\Temp\ccP2CgRX.s:235    .text.exmc_norsram_init:00000000000000a6 .LVL10
C:\Users\test\AppData\Local\Temp\ccP2CgRX.s:214    .text.exmc_norsram_init:000000000000008c .LVL7
C:\Users\test\AppData\Local\Temp\ccP2CgRX.s:15     .text.exmc_norsram_deinit:0000000000000000 .LVL0
C:\Users\test\AppData\Local\Temp\ccP2CgRX.s:30     .text.exmc_norsram_deinit:0000000000000016 .LVL1
C:\Users\test\AppData\Local\Temp\ccP2CgRX.s:297    .debug_info:0000000000000000 .Ldebug_info0

NO UNDEFINED SYMBOLS
