GAS LISTING C:\Users\test\AppData\Local\Temp\cc0O9IID.s 			page 1


   1              		.file	"gd32vf103_fmc.c"
   2              		.option nopic
   3              		.text
   4              	.Ltext0:
   5              		.cfi_sections	.debug_frame
   6              		.section	.text.fmc_wscnt_set,"ax",@progbits
   7              		.align	1
   8              		.globl	fmc_wscnt_set
  10              	fmc_wscnt_set:
  11              	.LFB2:
  12              		.file 1 "arch/riscv/mach-gd32vf10x/bsp/gd32vf103_fmc.c"
   1:arch/riscv/mach-gd32vf10x/bsp/gd32vf103_fmc.c **** /*!
   2:arch/riscv/mach-gd32vf10x/bsp/gd32vf103_fmc.c ****     \file  gd32vf103_fmc.c
   3:arch/riscv/mach-gd32vf10x/bsp/gd32vf103_fmc.c ****     \brief FMC driver
   4:arch/riscv/mach-gd32vf10x/bsp/gd32vf103_fmc.c **** 
   5:arch/riscv/mach-gd32vf10x/bsp/gd32vf103_fmc.c ****     \version 2019-6-5, V1.0.0, firmware for GD32VF103
   6:arch/riscv/mach-gd32vf10x/bsp/gd32vf103_fmc.c **** */
   7:arch/riscv/mach-gd32vf10x/bsp/gd32vf103_fmc.c **** 
   8:arch/riscv/mach-gd32vf10x/bsp/gd32vf103_fmc.c **** /*
   9:arch/riscv/mach-gd32vf10x/bsp/gd32vf103_fmc.c ****     Copyright (c) 2019, GigaDevice Semiconductor Inc.
  10:arch/riscv/mach-gd32vf10x/bsp/gd32vf103_fmc.c **** 
  11:arch/riscv/mach-gd32vf10x/bsp/gd32vf103_fmc.c ****     Redistribution and use in source and binary forms, with or without modification,
  12:arch/riscv/mach-gd32vf10x/bsp/gd32vf103_fmc.c **** are permitted provided that the following conditions are met:
  13:arch/riscv/mach-gd32vf10x/bsp/gd32vf103_fmc.c **** 
  14:arch/riscv/mach-gd32vf10x/bsp/gd32vf103_fmc.c ****     1. Redistributions of source code must retain the above copyright notice, this
  15:arch/riscv/mach-gd32vf10x/bsp/gd32vf103_fmc.c ****        list of conditions and the following disclaimer.
  16:arch/riscv/mach-gd32vf10x/bsp/gd32vf103_fmc.c ****     2. Redistributions in binary form must reproduce the above copyright notice,
  17:arch/riscv/mach-gd32vf10x/bsp/gd32vf103_fmc.c ****        this list of conditions and the following disclaimer in the documentation
  18:arch/riscv/mach-gd32vf10x/bsp/gd32vf103_fmc.c ****        and/or other materials provided with the distribution.
  19:arch/riscv/mach-gd32vf10x/bsp/gd32vf103_fmc.c ****     3. Neither the name of the copyright holder nor the names of its contributors
  20:arch/riscv/mach-gd32vf10x/bsp/gd32vf103_fmc.c ****        may be used to endorse or promote products derived from this software without
  21:arch/riscv/mach-gd32vf10x/bsp/gd32vf103_fmc.c ****        specific prior written permission.
  22:arch/riscv/mach-gd32vf10x/bsp/gd32vf103_fmc.c **** 
  23:arch/riscv/mach-gd32vf10x/bsp/gd32vf103_fmc.c ****     THIS SOFTWARE IS PROVIDED BY THE COPYRIGHT HOLDERS AND CONTRIBUTORS "AS IS"
  24:arch/riscv/mach-gd32vf10x/bsp/gd32vf103_fmc.c **** AND ANY EXPRESS OR IMPLIED WARRANTIES, INCLUDING, BUT NOT LIMITED TO, THE IMPLIED
  25:arch/riscv/mach-gd32vf10x/bsp/gd32vf103_fmc.c **** WARRANTIES OF MERCHANTABILITY AND FITNESS FOR A PARTICULAR PURPOSE ARE DISCLAIMED.
  26:arch/riscv/mach-gd32vf10x/bsp/gd32vf103_fmc.c **** IN NO EVENT SHALL THE COPYRIGHT HOLDER OR CONTRIBUTORS BE LIABLE FOR ANY DIRECT,
  27:arch/riscv/mach-gd32vf10x/bsp/gd32vf103_fmc.c **** INDIRECT, INCIDENTAL, SPECIAL, EXEMPLARY, OR CONSEQUENTIAL DAMAGES (INCLUDING, BUT
  28:arch/riscv/mach-gd32vf10x/bsp/gd32vf103_fmc.c **** NOT LIMITED TO, PROCUREMENT OF SUBSTITUTE GOODS OR SERVICES; LOSS OF USE, DATA, OR
  29:arch/riscv/mach-gd32vf10x/bsp/gd32vf103_fmc.c **** PROFITS; OR BUSINESS INTERRUPTION) HOWEVER CAUSED AND ON ANY THEORY OF LIABILITY,
  30:arch/riscv/mach-gd32vf10x/bsp/gd32vf103_fmc.c **** WHETHER IN CONTRACT, STRICT LIABILITY, OR TORT (INCLUDING NEGLIGENCE OR OTHERWISE)
  31:arch/riscv/mach-gd32vf10x/bsp/gd32vf103_fmc.c **** ARISING IN ANY WAY OUT OF THE USE OF THIS SOFTWARE, EVEN IF ADVISED OF THE POSSIBILITY
  32:arch/riscv/mach-gd32vf10x/bsp/gd32vf103_fmc.c **** OF SUCH DAMAGE.
  33:arch/riscv/mach-gd32vf10x/bsp/gd32vf103_fmc.c **** */
  34:arch/riscv/mach-gd32vf10x/bsp/gd32vf103_fmc.c **** 
  35:arch/riscv/mach-gd32vf10x/bsp/gd32vf103_fmc.c **** #include "gd32vf103_fmc.h"
  36:arch/riscv/mach-gd32vf10x/bsp/gd32vf103_fmc.c **** 
  37:arch/riscv/mach-gd32vf10x/bsp/gd32vf103_fmc.c **** /*!
  38:arch/riscv/mach-gd32vf10x/bsp/gd32vf103_fmc.c ****     \brief      set the wait state counter value
  39:arch/riscv/mach-gd32vf10x/bsp/gd32vf103_fmc.c ****     \param[in]  wscnt£ºwait state counter value
  40:arch/riscv/mach-gd32vf10x/bsp/gd32vf103_fmc.c ****       \arg        WS_WSCNT_0: FMC 0 wait state
  41:arch/riscv/mach-gd32vf10x/bsp/gd32vf103_fmc.c ****       \arg        WS_WSCNT_1: FMC 1 wait state
  42:arch/riscv/mach-gd32vf10x/bsp/gd32vf103_fmc.c ****       \arg        WS_WSCNT_2: FMC 2 wait state
  43:arch/riscv/mach-gd32vf10x/bsp/gd32vf103_fmc.c ****     \param[out] none
  44:arch/riscv/mach-gd32vf10x/bsp/gd32vf103_fmc.c ****     \retval     none
  45:arch/riscv/mach-gd32vf10x/bsp/gd32vf103_fmc.c ****  */
  46:arch/riscv/mach-gd32vf10x/bsp/gd32vf103_fmc.c **** void fmc_wscnt_set(uint32_t wscnt)
GAS LISTING C:\Users\test\AppData\Local\Temp\cc0O9IID.s 			page 2


  47:arch/riscv/mach-gd32vf10x/bsp/gd32vf103_fmc.c **** {
  13              		.loc 1 47 1
  14              		.cfi_startproc
  15              	.LVL0:
  48:arch/riscv/mach-gd32vf10x/bsp/gd32vf103_fmc.c ****     uint32_t reg;
  16              		.loc 1 48 5
  49:arch/riscv/mach-gd32vf10x/bsp/gd32vf103_fmc.c **** 
  50:arch/riscv/mach-gd32vf10x/bsp/gd32vf103_fmc.c ****     reg = FMC_WS;
  17              		.loc 1 50 5
  18              		.loc 1 50 9 is_stmt 0
  19 0000 37270240 		li	a4,1073881088
  20 0004 1C43     		lw	a5,0(a4)
  21              	.LVL1:
  51:arch/riscv/mach-gd32vf10x/bsp/gd32vf103_fmc.c ****     /* set the wait state counter value */
  52:arch/riscv/mach-gd32vf10x/bsp/gd32vf103_fmc.c ****     reg &= ~FMC_WS_WSCNT;
  22              		.loc 1 52 5 is_stmt 1
  53:arch/riscv/mach-gd32vf10x/bsp/gd32vf103_fmc.c ****     FMC_WS = (reg | wscnt);
  23              		.loc 1 53 5
  52:arch/riscv/mach-gd32vf10x/bsp/gd32vf103_fmc.c ****     FMC_WS = (reg | wscnt);
  24              		.loc 1 52 9 is_stmt 0
  25 0006 E19B     		andi	a5,a5,-8
  26              	.LVL2:
  27              		.loc 1 53 19
  28 0008 5D8D     		or	a0,a5,a0
  29              	.LVL3:
  30              		.loc 1 53 12
  31 000a 08C3     		sw	a0,0(a4)
  54:arch/riscv/mach-gd32vf10x/bsp/gd32vf103_fmc.c **** }
  32              		.loc 1 54 1
  33 000c 8280     		ret
  34              		.cfi_endproc
  35              	.LFE2:
  37              		.section	.text.fmc_unlock,"ax",@progbits
  38              		.align	1
  39              		.globl	fmc_unlock
  41              	fmc_unlock:
  42              	.LFB3:
  55:arch/riscv/mach-gd32vf10x/bsp/gd32vf103_fmc.c **** 
  56:arch/riscv/mach-gd32vf10x/bsp/gd32vf103_fmc.c **** /*!
  57:arch/riscv/mach-gd32vf10x/bsp/gd32vf103_fmc.c ****     \brief      unlock the main FMC operation
  58:arch/riscv/mach-gd32vf10x/bsp/gd32vf103_fmc.c ****     \param[in]  none
  59:arch/riscv/mach-gd32vf10x/bsp/gd32vf103_fmc.c ****     \param[out] none
  60:arch/riscv/mach-gd32vf10x/bsp/gd32vf103_fmc.c ****     \retval     none
  61:arch/riscv/mach-gd32vf10x/bsp/gd32vf103_fmc.c ****  */
  62:arch/riscv/mach-gd32vf10x/bsp/gd32vf103_fmc.c **** void fmc_unlock(void)
  63:arch/riscv/mach-gd32vf10x/bsp/gd32vf103_fmc.c **** {
  43              		.loc 1 63 1 is_stmt 1
  44              		.cfi_startproc
  64:arch/riscv/mach-gd32vf10x/bsp/gd32vf103_fmc.c ****     if((RESET != (FMC_CTL0 & FMC_CTL0_LK))){
  45              		.loc 1 64 5
  46              		.loc 1 64 19 is_stmt 0
  47 0000 37270240 		li	a4,1073881088
  48 0004 1C4B     		lw	a5,16(a4)
  49              		.loc 1 64 28
  50 0006 93F70708 		andi	a5,a5,128
  51              		.loc 1 64 7
  52 000a 99CB     		beq	a5,zero,.L3
GAS LISTING C:\Users\test\AppData\Local\Temp\cc0O9IID.s 			page 3


  65:arch/riscv/mach-gd32vf10x/bsp/gd32vf103_fmc.c ****         /* write the FMC unlock key */
  66:arch/riscv/mach-gd32vf10x/bsp/gd32vf103_fmc.c ****         FMC_KEY0 = UNLOCK_KEY0;
  53              		.loc 1 66 9 is_stmt 1
  54              		.loc 1 66 18 is_stmt 0
  55 000c B7076745 		li	a5,1164378112
  56 0010 93873712 		addi	a5,a5,291
  57 0014 5CC3     		sw	a5,4(a4)
  67:arch/riscv/mach-gd32vf10x/bsp/gd32vf103_fmc.c ****         FMC_KEY0 = UNLOCK_KEY1;
  58              		.loc 1 67 9 is_stmt 1
  59              		.loc 1 67 18 is_stmt 0
  60 0016 B797EFCD 		li	a5,-839938048
  61 001a 9387B79A 		addi	a5,a5,-1621
  62 001e 5CC3     		sw	a5,4(a4)
  63              	.L3:
  68:arch/riscv/mach-gd32vf10x/bsp/gd32vf103_fmc.c ****     }
  69:arch/riscv/mach-gd32vf10x/bsp/gd32vf103_fmc.c **** }
  64              		.loc 1 69 1
  65 0020 8280     		ret
  66              		.cfi_endproc
  67              	.LFE3:
  69              		.section	.text.fmc_lock,"ax",@progbits
  70              		.align	1
  71              		.globl	fmc_lock
  73              	fmc_lock:
  74              	.LFB4:
  70:arch/riscv/mach-gd32vf10x/bsp/gd32vf103_fmc.c **** 
  71:arch/riscv/mach-gd32vf10x/bsp/gd32vf103_fmc.c **** /*!
  72:arch/riscv/mach-gd32vf10x/bsp/gd32vf103_fmc.c ****     \brief      lock the main FMC operation
  73:arch/riscv/mach-gd32vf10x/bsp/gd32vf103_fmc.c ****     \param[in]  none
  74:arch/riscv/mach-gd32vf10x/bsp/gd32vf103_fmc.c ****     \param[out] none
  75:arch/riscv/mach-gd32vf10x/bsp/gd32vf103_fmc.c ****     \retval     none
  76:arch/riscv/mach-gd32vf10x/bsp/gd32vf103_fmc.c ****  */
  77:arch/riscv/mach-gd32vf10x/bsp/gd32vf103_fmc.c **** void fmc_lock(void)
  78:arch/riscv/mach-gd32vf10x/bsp/gd32vf103_fmc.c **** {
  75              		.loc 1 78 1 is_stmt 1
  76              		.cfi_startproc
  79:arch/riscv/mach-gd32vf10x/bsp/gd32vf103_fmc.c ****     /* set the LK bit */
  80:arch/riscv/mach-gd32vf10x/bsp/gd32vf103_fmc.c ****     FMC_CTL0 |= FMC_CTL0_LK;
  77              		.loc 1 80 5
  78              		.loc 1 80 14 is_stmt 0
  79 0000 37270240 		li	a4,1073881088
  80 0004 1C4B     		lw	a5,16(a4)
  81 0006 93E70708 		ori	a5,a5,128
  82 000a 1CCB     		sw	a5,16(a4)
  81:arch/riscv/mach-gd32vf10x/bsp/gd32vf103_fmc.c **** }
  83              		.loc 1 81 1
  84 000c 8280     		ret
  85              		.cfi_endproc
  86              	.LFE4:
  88              		.section	.text.ob_unlock,"ax",@progbits
  89              		.align	1
  90              		.globl	ob_unlock
  92              	ob_unlock:
  93              	.LFB9:
  82:arch/riscv/mach-gd32vf10x/bsp/gd32vf103_fmc.c **** 
  83:arch/riscv/mach-gd32vf10x/bsp/gd32vf103_fmc.c **** 
  84:arch/riscv/mach-gd32vf10x/bsp/gd32vf103_fmc.c **** /*!
GAS LISTING C:\Users\test\AppData\Local\Temp\cc0O9IID.s 			page 4


  85:arch/riscv/mach-gd32vf10x/bsp/gd32vf103_fmc.c ****     \brief      FMC erase page
  86:arch/riscv/mach-gd32vf10x/bsp/gd32vf103_fmc.c ****     \param[in]  page_address: the page address to be erased.
  87:arch/riscv/mach-gd32vf10x/bsp/gd32vf103_fmc.c ****     \param[out] none
  88:arch/riscv/mach-gd32vf10x/bsp/gd32vf103_fmc.c ****     \retval     state of FMC, refer to fmc_state_enum
  89:arch/riscv/mach-gd32vf10x/bsp/gd32vf103_fmc.c ****  */
  90:arch/riscv/mach-gd32vf10x/bsp/gd32vf103_fmc.c **** fmc_state_enum fmc_page_erase(uint32_t page_address)
  91:arch/riscv/mach-gd32vf10x/bsp/gd32vf103_fmc.c **** {
  92:arch/riscv/mach-gd32vf10x/bsp/gd32vf103_fmc.c ****     fmc_state_enum fmc_state;
  93:arch/riscv/mach-gd32vf10x/bsp/gd32vf103_fmc.c ****     fmc_state = fmc_ready_wait(FMC_TIMEOUT_COUNT);
  94:arch/riscv/mach-gd32vf10x/bsp/gd32vf103_fmc.c ****     /* if the last operation is completed, start page erase */
  95:arch/riscv/mach-gd32vf10x/bsp/gd32vf103_fmc.c ****     if (FMC_READY == fmc_state) {
  96:arch/riscv/mach-gd32vf10x/bsp/gd32vf103_fmc.c ****         FMC_CTL0 |= FMC_CTL0_PER;
  97:arch/riscv/mach-gd32vf10x/bsp/gd32vf103_fmc.c ****         FMC_ADDR0 = page_address;
  98:arch/riscv/mach-gd32vf10x/bsp/gd32vf103_fmc.c ****         FMC_CTL0 |= FMC_CTL0_START;
  99:arch/riscv/mach-gd32vf10x/bsp/gd32vf103_fmc.c ****         /* wait for the FMC ready */
 100:arch/riscv/mach-gd32vf10x/bsp/gd32vf103_fmc.c ****         fmc_state = fmc_ready_wait(FMC_TIMEOUT_COUNT);
 101:arch/riscv/mach-gd32vf10x/bsp/gd32vf103_fmc.c ****         /* reset the PER bit */
 102:arch/riscv/mach-gd32vf10x/bsp/gd32vf103_fmc.c ****         FMC_CTL0 &= ~FMC_CTL0_PER;
 103:arch/riscv/mach-gd32vf10x/bsp/gd32vf103_fmc.c ****     }
 104:arch/riscv/mach-gd32vf10x/bsp/gd32vf103_fmc.c ****     /* return the FMC state */
 105:arch/riscv/mach-gd32vf10x/bsp/gd32vf103_fmc.c ****     return fmc_state;
 106:arch/riscv/mach-gd32vf10x/bsp/gd32vf103_fmc.c **** }
 107:arch/riscv/mach-gd32vf10x/bsp/gd32vf103_fmc.c **** 
 108:arch/riscv/mach-gd32vf10x/bsp/gd32vf103_fmc.c **** /*!
 109:arch/riscv/mach-gd32vf10x/bsp/gd32vf103_fmc.c ****     \brief      FMC erase whole chip
 110:arch/riscv/mach-gd32vf10x/bsp/gd32vf103_fmc.c ****     \param[in]  none
 111:arch/riscv/mach-gd32vf10x/bsp/gd32vf103_fmc.c ****     \param[out] none
 112:arch/riscv/mach-gd32vf10x/bsp/gd32vf103_fmc.c ****     \retval     state of FMC, refer to fmc_state_enum
 113:arch/riscv/mach-gd32vf10x/bsp/gd32vf103_fmc.c ****  */
 114:arch/riscv/mach-gd32vf10x/bsp/gd32vf103_fmc.c **** fmc_state_enum fmc_mass_erase(void)
 115:arch/riscv/mach-gd32vf10x/bsp/gd32vf103_fmc.c **** {
 116:arch/riscv/mach-gd32vf10x/bsp/gd32vf103_fmc.c ****     fmc_state_enum fmc_state;
 117:arch/riscv/mach-gd32vf10x/bsp/gd32vf103_fmc.c ****         fmc_state = fmc_ready_wait(FMC_TIMEOUT_COUNT);
 118:arch/riscv/mach-gd32vf10x/bsp/gd32vf103_fmc.c **** 
 119:arch/riscv/mach-gd32vf10x/bsp/gd32vf103_fmc.c ****         if(FMC_READY == fmc_state){
 120:arch/riscv/mach-gd32vf10x/bsp/gd32vf103_fmc.c ****             /* start whole chip erase */
 121:arch/riscv/mach-gd32vf10x/bsp/gd32vf103_fmc.c ****             FMC_CTL0 |= FMC_CTL0_MER;
 122:arch/riscv/mach-gd32vf10x/bsp/gd32vf103_fmc.c ****             FMC_CTL0 |= FMC_CTL0_START;
 123:arch/riscv/mach-gd32vf10x/bsp/gd32vf103_fmc.c ****             /* wait for the FMC ready */
 124:arch/riscv/mach-gd32vf10x/bsp/gd32vf103_fmc.c ****             fmc_state = fmc_ready_wait(FMC_TIMEOUT_COUNT);
 125:arch/riscv/mach-gd32vf10x/bsp/gd32vf103_fmc.c ****             /* reset the MER bit */
 126:arch/riscv/mach-gd32vf10x/bsp/gd32vf103_fmc.c ****             FMC_CTL0 &= ~FMC_CTL0_MER;
 127:arch/riscv/mach-gd32vf10x/bsp/gd32vf103_fmc.c ****         }
 128:arch/riscv/mach-gd32vf10x/bsp/gd32vf103_fmc.c ****     /* return the FMC state  */
 129:arch/riscv/mach-gd32vf10x/bsp/gd32vf103_fmc.c ****     return fmc_state;
 130:arch/riscv/mach-gd32vf10x/bsp/gd32vf103_fmc.c **** }
 131:arch/riscv/mach-gd32vf10x/bsp/gd32vf103_fmc.c **** 
 132:arch/riscv/mach-gd32vf10x/bsp/gd32vf103_fmc.c **** /*!
 133:arch/riscv/mach-gd32vf10x/bsp/gd32vf103_fmc.c ****     \brief      FMC program a word at the corresponding address
 134:arch/riscv/mach-gd32vf10x/bsp/gd32vf103_fmc.c ****     \param[in]  address: address to program
 135:arch/riscv/mach-gd32vf10x/bsp/gd32vf103_fmc.c ****     \param[in]  data: word to program
 136:arch/riscv/mach-gd32vf10x/bsp/gd32vf103_fmc.c ****     \param[out] none
 137:arch/riscv/mach-gd32vf10x/bsp/gd32vf103_fmc.c ****     \retval     state of FMC, refer to fmc_state_enum
 138:arch/riscv/mach-gd32vf10x/bsp/gd32vf103_fmc.c ****  */
 139:arch/riscv/mach-gd32vf10x/bsp/gd32vf103_fmc.c **** fmc_state_enum fmc_word_program(uint32_t address, uint32_t data)
 140:arch/riscv/mach-gd32vf10x/bsp/gd32vf103_fmc.c **** {
 141:arch/riscv/mach-gd32vf10x/bsp/gd32vf103_fmc.c ****     fmc_state_enum fmc_state = FMC_READY;
GAS LISTING C:\Users\test\AppData\Local\Temp\cc0O9IID.s 			page 5


 142:arch/riscv/mach-gd32vf10x/bsp/gd32vf103_fmc.c ****     fmc_state = fmc_ready_wait(FMC_TIMEOUT_COUNT);
 143:arch/riscv/mach-gd32vf10x/bsp/gd32vf103_fmc.c **** 
 144:arch/riscv/mach-gd32vf10x/bsp/gd32vf103_fmc.c ****     if(FMC_READY == fmc_state){
 145:arch/riscv/mach-gd32vf10x/bsp/gd32vf103_fmc.c ****         /* set the PG bit to start program */
 146:arch/riscv/mach-gd32vf10x/bsp/gd32vf103_fmc.c ****         FMC_CTL0 |= FMC_CTL0_PG;
 147:arch/riscv/mach-gd32vf10x/bsp/gd32vf103_fmc.c ****         REG32(address) = data;
 148:arch/riscv/mach-gd32vf10x/bsp/gd32vf103_fmc.c ****         /* wait for the FMC ready */
 149:arch/riscv/mach-gd32vf10x/bsp/gd32vf103_fmc.c ****         fmc_state = fmc_ready_wait(FMC_TIMEOUT_COUNT);
 150:arch/riscv/mach-gd32vf10x/bsp/gd32vf103_fmc.c ****         /* reset the PG bit */
 151:arch/riscv/mach-gd32vf10x/bsp/gd32vf103_fmc.c ****         FMC_CTL0 &= ~FMC_CTL0_PG;
 152:arch/riscv/mach-gd32vf10x/bsp/gd32vf103_fmc.c ****     }
 153:arch/riscv/mach-gd32vf10x/bsp/gd32vf103_fmc.c ****     /* return the FMC state */
 154:arch/riscv/mach-gd32vf10x/bsp/gd32vf103_fmc.c ****     return fmc_state;
 155:arch/riscv/mach-gd32vf10x/bsp/gd32vf103_fmc.c **** }
 156:arch/riscv/mach-gd32vf10x/bsp/gd32vf103_fmc.c **** /*
 157:arch/riscv/mach-gd32vf10x/bsp/gd32vf103_fmc.c ****     \brief      FMC program a half word at the corresponding address
 158:arch/riscv/mach-gd32vf10x/bsp/gd32vf103_fmc.c ****     \param[in]  address: address to program
 159:arch/riscv/mach-gd32vf10x/bsp/gd32vf103_fmc.c ****     \param[in]  data: halfword to program
 160:arch/riscv/mach-gd32vf10x/bsp/gd32vf103_fmc.c ****     \param[out] none
 161:arch/riscv/mach-gd32vf10x/bsp/gd32vf103_fmc.c ****     \retval     state of FMC, refer to fmc_state_enum
 162:arch/riscv/mach-gd32vf10x/bsp/gd32vf103_fmc.c **** */
 163:arch/riscv/mach-gd32vf10x/bsp/gd32vf103_fmc.c **** fmc_state_enum fmc_halfword_program(uint32_t address, uint16_t data)
 164:arch/riscv/mach-gd32vf10x/bsp/gd32vf103_fmc.c **** {
 165:arch/riscv/mach-gd32vf10x/bsp/gd32vf103_fmc.c ****     fmc_state_enum fmc_state = FMC_READY;
 166:arch/riscv/mach-gd32vf10x/bsp/gd32vf103_fmc.c ****     fmc_state = fmc_ready_wait(FMC_TIMEOUT_COUNT);
 167:arch/riscv/mach-gd32vf10x/bsp/gd32vf103_fmc.c **** 
 168:arch/riscv/mach-gd32vf10x/bsp/gd32vf103_fmc.c ****     if(FMC_READY == fmc_state){
 169:arch/riscv/mach-gd32vf10x/bsp/gd32vf103_fmc.c ****         /* set the PG bit to start program */
 170:arch/riscv/mach-gd32vf10x/bsp/gd32vf103_fmc.c ****         FMC_CTL0 |= FMC_CTL0_PG;
 171:arch/riscv/mach-gd32vf10x/bsp/gd32vf103_fmc.c ****         REG16(address) = data;
 172:arch/riscv/mach-gd32vf10x/bsp/gd32vf103_fmc.c ****         /* wait for the FMC ready */
 173:arch/riscv/mach-gd32vf10x/bsp/gd32vf103_fmc.c ****         fmc_state = fmc_ready_wait(FMC_TIMEOUT_COUNT);
 174:arch/riscv/mach-gd32vf10x/bsp/gd32vf103_fmc.c ****         /* reset the PG bit */
 175:arch/riscv/mach-gd32vf10x/bsp/gd32vf103_fmc.c ****         FMC_CTL0 &= ~FMC_CTL0_PG;
 176:arch/riscv/mach-gd32vf10x/bsp/gd32vf103_fmc.c ****     }
 177:arch/riscv/mach-gd32vf10x/bsp/gd32vf103_fmc.c ****     /* return the FMC state */
 178:arch/riscv/mach-gd32vf10x/bsp/gd32vf103_fmc.c ****     return fmc_state;
 179:arch/riscv/mach-gd32vf10x/bsp/gd32vf103_fmc.c **** }
 180:arch/riscv/mach-gd32vf10x/bsp/gd32vf103_fmc.c **** 
 181:arch/riscv/mach-gd32vf10x/bsp/gd32vf103_fmc.c **** /*!
 182:arch/riscv/mach-gd32vf10x/bsp/gd32vf103_fmc.c ****     \brief      unlock the option byte operation
 183:arch/riscv/mach-gd32vf10x/bsp/gd32vf103_fmc.c ****     \param[in]  none
 184:arch/riscv/mach-gd32vf10x/bsp/gd32vf103_fmc.c ****     \param[out] none
 185:arch/riscv/mach-gd32vf10x/bsp/gd32vf103_fmc.c ****     \retval     none
 186:arch/riscv/mach-gd32vf10x/bsp/gd32vf103_fmc.c ****  */
 187:arch/riscv/mach-gd32vf10x/bsp/gd32vf103_fmc.c **** void ob_unlock(void)
 188:arch/riscv/mach-gd32vf10x/bsp/gd32vf103_fmc.c **** {
  94              		.loc 1 188 1 is_stmt 1
  95              		.cfi_startproc
 189:arch/riscv/mach-gd32vf10x/bsp/gd32vf103_fmc.c ****     if(RESET == (FMC_CTL0 & FMC_CTL0_OBWEN)){
  96              		.loc 1 189 5
  97              		.loc 1 189 18 is_stmt 0
  98 0000 37270240 		li	a4,1073881088
  99 0004 1C4B     		lw	a5,16(a4)
 100              		.loc 1 189 27
 101 0006 93F70720 		andi	a5,a5,512
 102              		.loc 1 189 7
GAS LISTING C:\Users\test\AppData\Local\Temp\cc0O9IID.s 			page 6


 103 000a 99EB     		bne	a5,zero,.L10
 190:arch/riscv/mach-gd32vf10x/bsp/gd32vf103_fmc.c ****         /* write the FMC key */
 191:arch/riscv/mach-gd32vf10x/bsp/gd32vf103_fmc.c ****         FMC_OBKEY = UNLOCK_KEY0;
 104              		.loc 1 191 9 is_stmt 1
 105              		.loc 1 191 19 is_stmt 0
 106 000c B7076745 		li	a5,1164378112
 107 0010 93873712 		addi	a5,a5,291
 108 0014 1CC7     		sw	a5,8(a4)
 192:arch/riscv/mach-gd32vf10x/bsp/gd32vf103_fmc.c ****         FMC_OBKEY = UNLOCK_KEY1;
 109              		.loc 1 192 9 is_stmt 1
 110              		.loc 1 192 19 is_stmt 0
 111 0016 B797EFCD 		li	a5,-839938048
 112 001a 9387B79A 		addi	a5,a5,-1621
 113 001e 1CC7     		sw	a5,8(a4)
 114              	.L10:
 193:arch/riscv/mach-gd32vf10x/bsp/gd32vf103_fmc.c ****     }
 194:arch/riscv/mach-gd32vf10x/bsp/gd32vf103_fmc.c **** 
 195:arch/riscv/mach-gd32vf10x/bsp/gd32vf103_fmc.c ****     /* wait until OBWEN bit is set by hardware */
 196:arch/riscv/mach-gd32vf10x/bsp/gd32vf103_fmc.c ****     while (RESET == (FMC_CTL0 & FMC_CTL0_OBWEN)) {
 115              		.loc 1 196 22 discriminator 1
 116 0020 37270240 		li	a4,1073881088
 117              	.L11:
 197:arch/riscv/mach-gd32vf10x/bsp/gd32vf103_fmc.c ****     }
 118              		.loc 1 197 5 is_stmt 1 discriminator 1
 196:arch/riscv/mach-gd32vf10x/bsp/gd32vf103_fmc.c ****     }
 119              		.loc 1 196 22 is_stmt 0 discriminator 1
 120 0024 1C4B     		lw	a5,16(a4)
 196:arch/riscv/mach-gd32vf10x/bsp/gd32vf103_fmc.c ****     }
 121              		.loc 1 196 31 discriminator 1
 122 0026 93F70720 		andi	a5,a5,512
 196:arch/riscv/mach-gd32vf10x/bsp/gd32vf103_fmc.c ****     }
 123              		.loc 1 196 11 discriminator 1
 124 002a EDDF     		beq	a5,zero,.L11
 198:arch/riscv/mach-gd32vf10x/bsp/gd32vf103_fmc.c **** }
 125              		.loc 1 198 1
 126 002c 8280     		ret
 127              		.cfi_endproc
 128              	.LFE9:
 130              		.section	.text.ob_lock,"ax",@progbits
 131              		.align	1
 132              		.globl	ob_lock
 134              	ob_lock:
 135              	.LFB10:
 199:arch/riscv/mach-gd32vf10x/bsp/gd32vf103_fmc.c **** 
 200:arch/riscv/mach-gd32vf10x/bsp/gd32vf103_fmc.c **** /*!
 201:arch/riscv/mach-gd32vf10x/bsp/gd32vf103_fmc.c ****     \brief      lock the option byte operation
 202:arch/riscv/mach-gd32vf10x/bsp/gd32vf103_fmc.c ****     \param[in]  none
 203:arch/riscv/mach-gd32vf10x/bsp/gd32vf103_fmc.c ****     \param[out] none
 204:arch/riscv/mach-gd32vf10x/bsp/gd32vf103_fmc.c ****     \retval     none
 205:arch/riscv/mach-gd32vf10x/bsp/gd32vf103_fmc.c ****  */
 206:arch/riscv/mach-gd32vf10x/bsp/gd32vf103_fmc.c **** void ob_lock(void)
 207:arch/riscv/mach-gd32vf10x/bsp/gd32vf103_fmc.c **** {
 136              		.loc 1 207 1 is_stmt 1
 137              		.cfi_startproc
 208:arch/riscv/mach-gd32vf10x/bsp/gd32vf103_fmc.c ****     /* reset the OBWEN bit */
 209:arch/riscv/mach-gd32vf10x/bsp/gd32vf103_fmc.c ****     FMC_CTL0 &= ~FMC_CTL0_OBWEN;
 138              		.loc 1 209 5
GAS LISTING C:\Users\test\AppData\Local\Temp\cc0O9IID.s 			page 7


 139              		.loc 1 209 14 is_stmt 0
 140 0000 37270240 		li	a4,1073881088
 141 0004 1C4B     		lw	a5,16(a4)
 142 0006 93F7F7DF 		andi	a5,a5,-513
 143 000a 1CCB     		sw	a5,16(a4)
 210:arch/riscv/mach-gd32vf10x/bsp/gd32vf103_fmc.c **** }
 144              		.loc 1 210 1
 145 000c 8280     		ret
 146              		.cfi_endproc
 147              	.LFE10:
 149              		.section	.text.ob_user_get,"ax",@progbits
 150              		.align	1
 151              		.globl	ob_user_get
 153              	ob_user_get:
 154              	.LFB16:
 211:arch/riscv/mach-gd32vf10x/bsp/gd32vf103_fmc.c **** 
 212:arch/riscv/mach-gd32vf10x/bsp/gd32vf103_fmc.c **** /*!
 213:arch/riscv/mach-gd32vf10x/bsp/gd32vf103_fmc.c ****     \brief      erase the FMC option byte
 214:arch/riscv/mach-gd32vf10x/bsp/gd32vf103_fmc.c ****     unlock the FMC_CTL0 and option byte before calling this function
 215:arch/riscv/mach-gd32vf10x/bsp/gd32vf103_fmc.c ****     \param[in]  none
 216:arch/riscv/mach-gd32vf10x/bsp/gd32vf103_fmc.c ****     \param[out] none
 217:arch/riscv/mach-gd32vf10x/bsp/gd32vf103_fmc.c ****     \retval     state of FMC, refer to fmc_state_enum
 218:arch/riscv/mach-gd32vf10x/bsp/gd32vf103_fmc.c ****  */
 219:arch/riscv/mach-gd32vf10x/bsp/gd32vf103_fmc.c **** fmc_state_enum ob_erase(void)
 220:arch/riscv/mach-gd32vf10x/bsp/gd32vf103_fmc.c **** {
 221:arch/riscv/mach-gd32vf10x/bsp/gd32vf103_fmc.c ****     uint16_t temp_spc = FMC_NSPC;
 222:arch/riscv/mach-gd32vf10x/bsp/gd32vf103_fmc.c **** 
 223:arch/riscv/mach-gd32vf10x/bsp/gd32vf103_fmc.c ****     fmc_state_enum fmc_state = fmc_ready_wait(FMC_TIMEOUT_COUNT);
 224:arch/riscv/mach-gd32vf10x/bsp/gd32vf103_fmc.c **** 
 225:arch/riscv/mach-gd32vf10x/bsp/gd32vf103_fmc.c ****     /* check the option byte security protection value */
 226:arch/riscv/mach-gd32vf10x/bsp/gd32vf103_fmc.c ****     if(RESET != ob_spc_get()){
 227:arch/riscv/mach-gd32vf10x/bsp/gd32vf103_fmc.c ****         temp_spc = FMC_USPC;
 228:arch/riscv/mach-gd32vf10x/bsp/gd32vf103_fmc.c ****     }
 229:arch/riscv/mach-gd32vf10x/bsp/gd32vf103_fmc.c **** 
 230:arch/riscv/mach-gd32vf10x/bsp/gd32vf103_fmc.c ****     if(FMC_READY == fmc_state){
 231:arch/riscv/mach-gd32vf10x/bsp/gd32vf103_fmc.c **** 
 232:arch/riscv/mach-gd32vf10x/bsp/gd32vf103_fmc.c ****         /* start erase the option byte */
 233:arch/riscv/mach-gd32vf10x/bsp/gd32vf103_fmc.c ****         FMC_CTL0 |= FMC_CTL0_OBER;
 234:arch/riscv/mach-gd32vf10x/bsp/gd32vf103_fmc.c ****         FMC_CTL0 |= FMC_CTL0_START;
 235:arch/riscv/mach-gd32vf10x/bsp/gd32vf103_fmc.c **** 
 236:arch/riscv/mach-gd32vf10x/bsp/gd32vf103_fmc.c ****         /* wait for the FMC ready */
 237:arch/riscv/mach-gd32vf10x/bsp/gd32vf103_fmc.c ****         fmc_state = fmc_ready_wait(FMC_TIMEOUT_COUNT);
 238:arch/riscv/mach-gd32vf10x/bsp/gd32vf103_fmc.c **** 
 239:arch/riscv/mach-gd32vf10x/bsp/gd32vf103_fmc.c ****         if(FMC_READY == fmc_state){
 240:arch/riscv/mach-gd32vf10x/bsp/gd32vf103_fmc.c ****             /* reset the OBER bit */
 241:arch/riscv/mach-gd32vf10x/bsp/gd32vf103_fmc.c ****             FMC_CTL0 &= ~FMC_CTL0_OBER;
 242:arch/riscv/mach-gd32vf10x/bsp/gd32vf103_fmc.c ****             /* set the OBPG bit */
 243:arch/riscv/mach-gd32vf10x/bsp/gd32vf103_fmc.c ****             FMC_CTL0 |= FMC_CTL0_OBPG;
 244:arch/riscv/mach-gd32vf10x/bsp/gd32vf103_fmc.c ****             /* no security protection */
 245:arch/riscv/mach-gd32vf10x/bsp/gd32vf103_fmc.c ****             OB_SPC = (uint16_t) temp_spc;
 246:arch/riscv/mach-gd32vf10x/bsp/gd32vf103_fmc.c ****             /* wait for the FMC ready */
 247:arch/riscv/mach-gd32vf10x/bsp/gd32vf103_fmc.c ****             fmc_state = fmc_ready_wait(FMC_TIMEOUT_COUNT);
 248:arch/riscv/mach-gd32vf10x/bsp/gd32vf103_fmc.c ****             if (FMC_TOERR != fmc_state) {
 249:arch/riscv/mach-gd32vf10x/bsp/gd32vf103_fmc.c ****                 /* reset the OBPG bit */
 250:arch/riscv/mach-gd32vf10x/bsp/gd32vf103_fmc.c ****                 FMC_CTL0 &= ~FMC_CTL0_OBPG;
 251:arch/riscv/mach-gd32vf10x/bsp/gd32vf103_fmc.c ****             }
 252:arch/riscv/mach-gd32vf10x/bsp/gd32vf103_fmc.c ****         }else{
GAS LISTING C:\Users\test\AppData\Local\Temp\cc0O9IID.s 			page 8


 253:arch/riscv/mach-gd32vf10x/bsp/gd32vf103_fmc.c ****             if(FMC_TOERR != fmc_state){
 254:arch/riscv/mach-gd32vf10x/bsp/gd32vf103_fmc.c ****                 /* reset the OBPG bit */
 255:arch/riscv/mach-gd32vf10x/bsp/gd32vf103_fmc.c ****                 FMC_CTL0 &= ~FMC_CTL0_OBPG;
 256:arch/riscv/mach-gd32vf10x/bsp/gd32vf103_fmc.c ****             }
 257:arch/riscv/mach-gd32vf10x/bsp/gd32vf103_fmc.c ****         }
 258:arch/riscv/mach-gd32vf10x/bsp/gd32vf103_fmc.c ****     }
 259:arch/riscv/mach-gd32vf10x/bsp/gd32vf103_fmc.c ****     /* return the FMC state */
 260:arch/riscv/mach-gd32vf10x/bsp/gd32vf103_fmc.c ****     return fmc_state;
 261:arch/riscv/mach-gd32vf10x/bsp/gd32vf103_fmc.c **** }
 262:arch/riscv/mach-gd32vf10x/bsp/gd32vf103_fmc.c **** 
 263:arch/riscv/mach-gd32vf10x/bsp/gd32vf103_fmc.c **** /*!
 264:arch/riscv/mach-gd32vf10x/bsp/gd32vf103_fmc.c ****     \brief      enable write protection
 265:arch/riscv/mach-gd32vf10x/bsp/gd32vf103_fmc.c ****     \param[in]  ob_wp: specify sector to be write protected, set the bit to 1 if
 266:arch/riscv/mach-gd32vf10x/bsp/gd32vf103_fmc.c ****     you want to protect the corresponding pages. meanwhile, sector
 267:arch/riscv/mach-gd32vf10x/bsp/gd32vf103_fmc.c ****     macro could used to set specific sector write protected.
 268:arch/riscv/mach-gd32vf10x/bsp/gd32vf103_fmc.c ****     one or more parameters can be selected which are shown as below:
 269:arch/riscv/mach-gd32vf10x/bsp/gd32vf103_fmc.c ****       \arg        OB_WPx(x = 0..31): write protect specify sector
 270:arch/riscv/mach-gd32vf10x/bsp/gd32vf103_fmc.c ****       \arg        OB_WP_ALL: write protect all sector
 271:arch/riscv/mach-gd32vf10x/bsp/gd32vf103_fmc.c ****     \param[out] none
 272:arch/riscv/mach-gd32vf10x/bsp/gd32vf103_fmc.c ****     \retval     state of FMC, refer to fmc_state_enum
 273:arch/riscv/mach-gd32vf10x/bsp/gd32vf103_fmc.c ****  */
 274:arch/riscv/mach-gd32vf10x/bsp/gd32vf103_fmc.c **** fmc_state_enum ob_write_protection_enable(uint32_t ob_wp)
 275:arch/riscv/mach-gd32vf10x/bsp/gd32vf103_fmc.c **** {
 276:arch/riscv/mach-gd32vf10x/bsp/gd32vf103_fmc.c ****     uint16_t temp_wp0, temp_wp1, temp_wp2, temp_wp3;
 277:arch/riscv/mach-gd32vf10x/bsp/gd32vf103_fmc.c **** 
 278:arch/riscv/mach-gd32vf10x/bsp/gd32vf103_fmc.c ****     fmc_state_enum fmc_state = fmc_ready_wait(FMC_TIMEOUT_COUNT);
 279:arch/riscv/mach-gd32vf10x/bsp/gd32vf103_fmc.c **** 
 280:arch/riscv/mach-gd32vf10x/bsp/gd32vf103_fmc.c ****     ob_wp = (uint32_t) (~ob_wp);
 281:arch/riscv/mach-gd32vf10x/bsp/gd32vf103_fmc.c ****     temp_wp0 = (uint16_t) (ob_wp & OB_WP0_WP0);
 282:arch/riscv/mach-gd32vf10x/bsp/gd32vf103_fmc.c ****     temp_wp1 = (uint16_t) ((ob_wp & OB_WP1_WP1) >> 8U);
 283:arch/riscv/mach-gd32vf10x/bsp/gd32vf103_fmc.c ****     temp_wp2 = (uint16_t) ((ob_wp & OB_WP2_WP2) >> 16U);
 284:arch/riscv/mach-gd32vf10x/bsp/gd32vf103_fmc.c ****     temp_wp3 = (uint16_t) ((ob_wp & OB_WP3_WP3) >> 24U);
 285:arch/riscv/mach-gd32vf10x/bsp/gd32vf103_fmc.c **** 
 286:arch/riscv/mach-gd32vf10x/bsp/gd32vf103_fmc.c ****     if(FMC_READY == fmc_state){
 287:arch/riscv/mach-gd32vf10x/bsp/gd32vf103_fmc.c **** 
 288:arch/riscv/mach-gd32vf10x/bsp/gd32vf103_fmc.c ****         /* set the OBPG bit*/
 289:arch/riscv/mach-gd32vf10x/bsp/gd32vf103_fmc.c ****         FMC_CTL0 |= FMC_CTL0_OBPG;
 290:arch/riscv/mach-gd32vf10x/bsp/gd32vf103_fmc.c **** 
 291:arch/riscv/mach-gd32vf10x/bsp/gd32vf103_fmc.c ****         if(0xFFU != temp_wp0){
 292:arch/riscv/mach-gd32vf10x/bsp/gd32vf103_fmc.c ****             OB_WP0 = temp_wp0;
 293:arch/riscv/mach-gd32vf10x/bsp/gd32vf103_fmc.c **** 
 294:arch/riscv/mach-gd32vf10x/bsp/gd32vf103_fmc.c ****             /* wait for the FMC ready */
 295:arch/riscv/mach-gd32vf10x/bsp/gd32vf103_fmc.c ****             fmc_state = fmc_ready_wait(FMC_TIMEOUT_COUNT);
 296:arch/riscv/mach-gd32vf10x/bsp/gd32vf103_fmc.c ****         }
 297:arch/riscv/mach-gd32vf10x/bsp/gd32vf103_fmc.c ****         if((FMC_READY == fmc_state) && (0xFFU != temp_wp1)){
 298:arch/riscv/mach-gd32vf10x/bsp/gd32vf103_fmc.c ****             OB_WP1 = temp_wp1;
 299:arch/riscv/mach-gd32vf10x/bsp/gd32vf103_fmc.c **** 
 300:arch/riscv/mach-gd32vf10x/bsp/gd32vf103_fmc.c ****             /* wait for the FMC ready */
 301:arch/riscv/mach-gd32vf10x/bsp/gd32vf103_fmc.c ****             fmc_state = fmc_ready_wait(FMC_TIMEOUT_COUNT);
 302:arch/riscv/mach-gd32vf10x/bsp/gd32vf103_fmc.c ****         }
 303:arch/riscv/mach-gd32vf10x/bsp/gd32vf103_fmc.c ****         if((FMC_READY == fmc_state) && (0xFFU != temp_wp2)){
 304:arch/riscv/mach-gd32vf10x/bsp/gd32vf103_fmc.c ****             OB_WP2 = temp_wp2;
 305:arch/riscv/mach-gd32vf10x/bsp/gd32vf103_fmc.c **** 
 306:arch/riscv/mach-gd32vf10x/bsp/gd32vf103_fmc.c ****             /* wait for the FMC ready */
 307:arch/riscv/mach-gd32vf10x/bsp/gd32vf103_fmc.c ****             fmc_state = fmc_ready_wait(FMC_TIMEOUT_COUNT);
 308:arch/riscv/mach-gd32vf10x/bsp/gd32vf103_fmc.c ****         }
 309:arch/riscv/mach-gd32vf10x/bsp/gd32vf103_fmc.c ****         if((FMC_READY == fmc_state) && (0xFFU != temp_wp3)){
GAS LISTING C:\Users\test\AppData\Local\Temp\cc0O9IID.s 			page 9


 310:arch/riscv/mach-gd32vf10x/bsp/gd32vf103_fmc.c ****             OB_WP3 = temp_wp3;
 311:arch/riscv/mach-gd32vf10x/bsp/gd32vf103_fmc.c **** 
 312:arch/riscv/mach-gd32vf10x/bsp/gd32vf103_fmc.c ****             /* wait for the FMC ready */
 313:arch/riscv/mach-gd32vf10x/bsp/gd32vf103_fmc.c ****             fmc_state = fmc_ready_wait(FMC_TIMEOUT_COUNT);
 314:arch/riscv/mach-gd32vf10x/bsp/gd32vf103_fmc.c ****         }
 315:arch/riscv/mach-gd32vf10x/bsp/gd32vf103_fmc.c ****         if(FMC_TOERR != fmc_state){
 316:arch/riscv/mach-gd32vf10x/bsp/gd32vf103_fmc.c ****             /* reset the OBPG bit */
 317:arch/riscv/mach-gd32vf10x/bsp/gd32vf103_fmc.c ****             FMC_CTL0 &= ~FMC_CTL0_OBPG;
 318:arch/riscv/mach-gd32vf10x/bsp/gd32vf103_fmc.c ****         }
 319:arch/riscv/mach-gd32vf10x/bsp/gd32vf103_fmc.c ****     }
 320:arch/riscv/mach-gd32vf10x/bsp/gd32vf103_fmc.c ****     /* return the FMC state */
 321:arch/riscv/mach-gd32vf10x/bsp/gd32vf103_fmc.c ****     return fmc_state;
 322:arch/riscv/mach-gd32vf10x/bsp/gd32vf103_fmc.c **** }
 323:arch/riscv/mach-gd32vf10x/bsp/gd32vf103_fmc.c **** 
 324:arch/riscv/mach-gd32vf10x/bsp/gd32vf103_fmc.c **** /*!
 325:arch/riscv/mach-gd32vf10x/bsp/gd32vf103_fmc.c ****     \brief      configure security protection
 326:arch/riscv/mach-gd32vf10x/bsp/gd32vf103_fmc.c ****     \param[in]  ob_spc: specify security protection
 327:arch/riscv/mach-gd32vf10x/bsp/gd32vf103_fmc.c ****     only one parameter can be selected which is shown as below:
 328:arch/riscv/mach-gd32vf10x/bsp/gd32vf103_fmc.c ****       \arg        FMC_NSPC: no security protection
 329:arch/riscv/mach-gd32vf10x/bsp/gd32vf103_fmc.c ****       \arg        FMC_USPC: under security protection
 330:arch/riscv/mach-gd32vf10x/bsp/gd32vf103_fmc.c ****     \param[out] none
 331:arch/riscv/mach-gd32vf10x/bsp/gd32vf103_fmc.c ****     \retval     state of FMC, refer to fmc_state_enum
 332:arch/riscv/mach-gd32vf10x/bsp/gd32vf103_fmc.c ****  */
 333:arch/riscv/mach-gd32vf10x/bsp/gd32vf103_fmc.c **** fmc_state_enum ob_security_protection_config(uint8_t ob_spc)
 334:arch/riscv/mach-gd32vf10x/bsp/gd32vf103_fmc.c **** {
 335:arch/riscv/mach-gd32vf10x/bsp/gd32vf103_fmc.c ****     fmc_state_enum fmc_state = fmc_ready_wait(FMC_TIMEOUT_COUNT);
 336:arch/riscv/mach-gd32vf10x/bsp/gd32vf103_fmc.c **** 
 337:arch/riscv/mach-gd32vf10x/bsp/gd32vf103_fmc.c ****     if(FMC_READY == fmc_state){
 338:arch/riscv/mach-gd32vf10x/bsp/gd32vf103_fmc.c ****         FMC_CTL0 |= FMC_CTL0_OBER;
 339:arch/riscv/mach-gd32vf10x/bsp/gd32vf103_fmc.c ****         FMC_CTL0 |= FMC_CTL0_START;
 340:arch/riscv/mach-gd32vf10x/bsp/gd32vf103_fmc.c **** 
 341:arch/riscv/mach-gd32vf10x/bsp/gd32vf103_fmc.c ****         /* wait for the FMC ready */
 342:arch/riscv/mach-gd32vf10x/bsp/gd32vf103_fmc.c ****         fmc_state = fmc_ready_wait(FMC_TIMEOUT_COUNT);
 343:arch/riscv/mach-gd32vf10x/bsp/gd32vf103_fmc.c **** 
 344:arch/riscv/mach-gd32vf10x/bsp/gd32vf103_fmc.c ****         if(FMC_READY == fmc_state){
 345:arch/riscv/mach-gd32vf10x/bsp/gd32vf103_fmc.c ****             /* reset the OBER bit */
 346:arch/riscv/mach-gd32vf10x/bsp/gd32vf103_fmc.c ****             FMC_CTL0 &= ~FMC_CTL0_OBER;
 347:arch/riscv/mach-gd32vf10x/bsp/gd32vf103_fmc.c **** 
 348:arch/riscv/mach-gd32vf10x/bsp/gd32vf103_fmc.c ****             /* start the option byte program */
 349:arch/riscv/mach-gd32vf10x/bsp/gd32vf103_fmc.c ****             FMC_CTL0 |= FMC_CTL0_OBPG;
 350:arch/riscv/mach-gd32vf10x/bsp/gd32vf103_fmc.c **** 
 351:arch/riscv/mach-gd32vf10x/bsp/gd32vf103_fmc.c ****             OB_SPC = (uint16_t) ob_spc;
 352:arch/riscv/mach-gd32vf10x/bsp/gd32vf103_fmc.c **** 
 353:arch/riscv/mach-gd32vf10x/bsp/gd32vf103_fmc.c ****             /* wait for the FMC ready */
 354:arch/riscv/mach-gd32vf10x/bsp/gd32vf103_fmc.c ****             fmc_state = fmc_ready_wait(FMC_TIMEOUT_COUNT);
 355:arch/riscv/mach-gd32vf10x/bsp/gd32vf103_fmc.c **** 
 356:arch/riscv/mach-gd32vf10x/bsp/gd32vf103_fmc.c ****             if (FMC_TOERR != fmc_state) {
 357:arch/riscv/mach-gd32vf10x/bsp/gd32vf103_fmc.c ****                 /* reset the OBPG bit */
 358:arch/riscv/mach-gd32vf10x/bsp/gd32vf103_fmc.c ****                 FMC_CTL0 &= ~FMC_CTL0_OBPG;
 359:arch/riscv/mach-gd32vf10x/bsp/gd32vf103_fmc.c ****             }
 360:arch/riscv/mach-gd32vf10x/bsp/gd32vf103_fmc.c ****         }else{
 361:arch/riscv/mach-gd32vf10x/bsp/gd32vf103_fmc.c ****             if (FMC_TOERR != fmc_state) {
 362:arch/riscv/mach-gd32vf10x/bsp/gd32vf103_fmc.c ****                 /* reset the OBER bit */
 363:arch/riscv/mach-gd32vf10x/bsp/gd32vf103_fmc.c ****                 FMC_CTL0 &= ~FMC_CTL0_OBER;
 364:arch/riscv/mach-gd32vf10x/bsp/gd32vf103_fmc.c ****             }
 365:arch/riscv/mach-gd32vf10x/bsp/gd32vf103_fmc.c ****         }
 366:arch/riscv/mach-gd32vf10x/bsp/gd32vf103_fmc.c ****     }
GAS LISTING C:\Users\test\AppData\Local\Temp\cc0O9IID.s 			page 10


 367:arch/riscv/mach-gd32vf10x/bsp/gd32vf103_fmc.c ****     /* return the FMC state */
 368:arch/riscv/mach-gd32vf10x/bsp/gd32vf103_fmc.c ****     return fmc_state;
 369:arch/riscv/mach-gd32vf10x/bsp/gd32vf103_fmc.c **** }
 370:arch/riscv/mach-gd32vf10x/bsp/gd32vf103_fmc.c **** 
 371:arch/riscv/mach-gd32vf10x/bsp/gd32vf103_fmc.c **** /*!
 372:arch/riscv/mach-gd32vf10x/bsp/gd32vf103_fmc.c ****     \brief      program the FMC user option byte
 373:arch/riscv/mach-gd32vf10x/bsp/gd32vf103_fmc.c ****     \param[in]  ob_fwdgt: option byte watchdog value
 374:arch/riscv/mach-gd32vf10x/bsp/gd32vf103_fmc.c ****       \arg        OB_FWDGT_SW: software free watchdog
 375:arch/riscv/mach-gd32vf10x/bsp/gd32vf103_fmc.c ****      \arg        OB_FWDGT_HW: hardware free watchdog
 376:arch/riscv/mach-gd32vf10x/bsp/gd32vf103_fmc.c ****     \param[in]  ob_deepsleep: option byte deepsleep reset value
 377:arch/riscv/mach-gd32vf10x/bsp/gd32vf103_fmc.c ****       \arg        OB_DEEPSLEEP_NRST: no reset when entering deepsleep mode
 378:arch/riscv/mach-gd32vf10x/bsp/gd32vf103_fmc.c ****       \arg        OB_DEEPSLEEP_RST: generate a reset instead of entering deepsleep mode
 379:arch/riscv/mach-gd32vf10x/bsp/gd32vf103_fmc.c ****     \param[in]  ob_stdby:option byte standby reset value
 380:arch/riscv/mach-gd32vf10x/bsp/gd32vf103_fmc.c ****        \arg        OB_STDBY_NRST: no reset when entering standby mode
 381:arch/riscv/mach-gd32vf10x/bsp/gd32vf103_fmc.c ****       \arg        OB_STDBY_RST: generate a reset instead of entering standby mode
 382:arch/riscv/mach-gd32vf10x/bsp/gd32vf103_fmc.c ****     \param[in]  ob_boot: specifies the option byte boot bank value
 383:arch/riscv/mach-gd32vf10x/bsp/gd32vf103_fmc.c ****       \arg        OB_BOOT_B0: boot from bank0
 384:arch/riscv/mach-gd32vf10x/bsp/gd32vf103_fmc.c ****     \param[out] none
 385:arch/riscv/mach-gd32vf10x/bsp/gd32vf103_fmc.c ****     \retval     state of FMC, refer to fmc_state_enum
 386:arch/riscv/mach-gd32vf10x/bsp/gd32vf103_fmc.c ****  */
 387:arch/riscv/mach-gd32vf10x/bsp/gd32vf103_fmc.c **** fmc_state_enum ob_user_write(uint8_t ob_fwdgt, uint8_t ob_deepsleep, uint8_t ob_stdby, uint8_t ob_b
 388:arch/riscv/mach-gd32vf10x/bsp/gd32vf103_fmc.c **** {
 389:arch/riscv/mach-gd32vf10x/bsp/gd32vf103_fmc.c ****     fmc_state_enum fmc_state = FMC_READY;
 390:arch/riscv/mach-gd32vf10x/bsp/gd32vf103_fmc.c ****     uint8_t temp;
 391:arch/riscv/mach-gd32vf10x/bsp/gd32vf103_fmc.c **** 
 392:arch/riscv/mach-gd32vf10x/bsp/gd32vf103_fmc.c ****     /* wait for the FMC ready */
 393:arch/riscv/mach-gd32vf10x/bsp/gd32vf103_fmc.c ****     fmc_state = fmc_ready_wait(FMC_TIMEOUT_COUNT);
 394:arch/riscv/mach-gd32vf10x/bsp/gd32vf103_fmc.c **** 
 395:arch/riscv/mach-gd32vf10x/bsp/gd32vf103_fmc.c ****     if(FMC_READY == fmc_state){
 396:arch/riscv/mach-gd32vf10x/bsp/gd32vf103_fmc.c ****         /* set the OBPG bit*/
 397:arch/riscv/mach-gd32vf10x/bsp/gd32vf103_fmc.c ****         FMC_CTL0 |= FMC_CTL0_OBPG;
 398:arch/riscv/mach-gd32vf10x/bsp/gd32vf103_fmc.c **** 
 399:arch/riscv/mach-gd32vf10x/bsp/gd32vf103_fmc.c ****         temp = ((uint8_t)((uint8_t)((uint8_t)(ob_boot | ob_fwdgt) | ob_deepsleep) | ob_stdby) | OB_
 400:arch/riscv/mach-gd32vf10x/bsp/gd32vf103_fmc.c ****         OB_USER = (uint16_t) temp;
 401:arch/riscv/mach-gd32vf10x/bsp/gd32vf103_fmc.c **** 
 402:arch/riscv/mach-gd32vf10x/bsp/gd32vf103_fmc.c ****         /* wait for the FMC ready */
 403:arch/riscv/mach-gd32vf10x/bsp/gd32vf103_fmc.c ****         fmc_state = fmc_ready_wait(FMC_TIMEOUT_COUNT);
 404:arch/riscv/mach-gd32vf10x/bsp/gd32vf103_fmc.c **** 
 405:arch/riscv/mach-gd32vf10x/bsp/gd32vf103_fmc.c ****         if(FMC_TOERR != fmc_state){
 406:arch/riscv/mach-gd32vf10x/bsp/gd32vf103_fmc.c ****             /* reset the OBPG bit */
 407:arch/riscv/mach-gd32vf10x/bsp/gd32vf103_fmc.c ****             FMC_CTL0 &= ~FMC_CTL0_OBPG;
 408:arch/riscv/mach-gd32vf10x/bsp/gd32vf103_fmc.c ****         }
 409:arch/riscv/mach-gd32vf10x/bsp/gd32vf103_fmc.c ****     }
 410:arch/riscv/mach-gd32vf10x/bsp/gd32vf103_fmc.c ****     /* return the FMC state */
 411:arch/riscv/mach-gd32vf10x/bsp/gd32vf103_fmc.c ****     return fmc_state;
 412:arch/riscv/mach-gd32vf10x/bsp/gd32vf103_fmc.c **** }
 413:arch/riscv/mach-gd32vf10x/bsp/gd32vf103_fmc.c **** 
 414:arch/riscv/mach-gd32vf10x/bsp/gd32vf103_fmc.c **** /*!
 415:arch/riscv/mach-gd32vf10x/bsp/gd32vf103_fmc.c ****     \brief      program option bytes data
 416:arch/riscv/mach-gd32vf10x/bsp/gd32vf103_fmc.c ****     \param[in]  address: the option bytes address to be programmed
 417:arch/riscv/mach-gd32vf10x/bsp/gd32vf103_fmc.c ****     \param[in]  data: the byte to be programmed
 418:arch/riscv/mach-gd32vf10x/bsp/gd32vf103_fmc.c ****     \param[out] none
 419:arch/riscv/mach-gd32vf10x/bsp/gd32vf103_fmc.c ****     \retval     state of FMC, refer to fmc_state_enum
 420:arch/riscv/mach-gd32vf10x/bsp/gd32vf103_fmc.c ****  */
 421:arch/riscv/mach-gd32vf10x/bsp/gd32vf103_fmc.c **** fmc_state_enum ob_data_program(uint32_t address, uint8_t data) {
 422:arch/riscv/mach-gd32vf10x/bsp/gd32vf103_fmc.c ****     fmc_state_enum fmc_state = fmc_ready_wait(FMC_TIMEOUT_COUNT);
 423:arch/riscv/mach-gd32vf10x/bsp/gd32vf103_fmc.c **** 
GAS LISTING C:\Users\test\AppData\Local\Temp\cc0O9IID.s 			page 11


 424:arch/riscv/mach-gd32vf10x/bsp/gd32vf103_fmc.c ****     if(FMC_READY == fmc_state){
 425:arch/riscv/mach-gd32vf10x/bsp/gd32vf103_fmc.c ****         /* set the OBPG bit */
 426:arch/riscv/mach-gd32vf10x/bsp/gd32vf103_fmc.c ****         FMC_CTL0 |= FMC_CTL0_OBPG;
 427:arch/riscv/mach-gd32vf10x/bsp/gd32vf103_fmc.c ****         REG16(address) = data;
 428:arch/riscv/mach-gd32vf10x/bsp/gd32vf103_fmc.c **** 
 429:arch/riscv/mach-gd32vf10x/bsp/gd32vf103_fmc.c ****         /* wait for the FMC ready */
 430:arch/riscv/mach-gd32vf10x/bsp/gd32vf103_fmc.c ****         fmc_state = fmc_ready_wait(FMC_TIMEOUT_COUNT);
 431:arch/riscv/mach-gd32vf10x/bsp/gd32vf103_fmc.c **** 
 432:arch/riscv/mach-gd32vf10x/bsp/gd32vf103_fmc.c ****         if(FMC_TOERR != fmc_state){
 433:arch/riscv/mach-gd32vf10x/bsp/gd32vf103_fmc.c ****             /* reset the OBPG bit */
 434:arch/riscv/mach-gd32vf10x/bsp/gd32vf103_fmc.c ****             FMC_CTL0 &= ~FMC_CTL0_OBPG;
 435:arch/riscv/mach-gd32vf10x/bsp/gd32vf103_fmc.c ****         }
 436:arch/riscv/mach-gd32vf10x/bsp/gd32vf103_fmc.c ****     }
 437:arch/riscv/mach-gd32vf10x/bsp/gd32vf103_fmc.c ****     /* return the FMC state */
 438:arch/riscv/mach-gd32vf10x/bsp/gd32vf103_fmc.c ****     return fmc_state;
 439:arch/riscv/mach-gd32vf10x/bsp/gd32vf103_fmc.c **** }
 440:arch/riscv/mach-gd32vf10x/bsp/gd32vf103_fmc.c **** 
 441:arch/riscv/mach-gd32vf10x/bsp/gd32vf103_fmc.c **** /*!
 442:arch/riscv/mach-gd32vf10x/bsp/gd32vf103_fmc.c ****     \brief      get the FMC user option byte
 443:arch/riscv/mach-gd32vf10x/bsp/gd32vf103_fmc.c ****     \param[in]  none
 444:arch/riscv/mach-gd32vf10x/bsp/gd32vf103_fmc.c ****     \param[out] none
 445:arch/riscv/mach-gd32vf10x/bsp/gd32vf103_fmc.c ****     \retval     the FMC user option byte values
 446:arch/riscv/mach-gd32vf10x/bsp/gd32vf103_fmc.c ****  */
 447:arch/riscv/mach-gd32vf10x/bsp/gd32vf103_fmc.c **** uint8_t ob_user_get(void)
 448:arch/riscv/mach-gd32vf10x/bsp/gd32vf103_fmc.c **** {
 155              		.loc 1 448 1 is_stmt 1
 156              		.cfi_startproc
 449:arch/riscv/mach-gd32vf10x/bsp/gd32vf103_fmc.c ****     /* return the FMC user option byte value */
 450:arch/riscv/mach-gd32vf10x/bsp/gd32vf103_fmc.c ****     return (uint8_t) (FMC_OBSTAT >> 2U);
 157              		.loc 1 450 5
 158              		.loc 1 450 23 is_stmt 0
 159 0000 B7270240 		li	a5,1073881088
 160 0004 C84F     		lw	a0,28(a5)
 161              		.loc 1 450 34
 162 0006 0981     		srli	a0,a0,2
 451:arch/riscv/mach-gd32vf10x/bsp/gd32vf103_fmc.c **** }
 163              		.loc 1 451 1
 164 0008 1375F50F 		andi	a0,a0,0xff
 165 000c 8280     		ret
 166              		.cfi_endproc
 167              	.LFE16:
 169              		.section	.text.ob_data_get,"ax",@progbits
 170              		.align	1
 171              		.globl	ob_data_get
 173              	ob_data_get:
 174              	.LFB17:
 452:arch/riscv/mach-gd32vf10x/bsp/gd32vf103_fmc.c **** 
 453:arch/riscv/mach-gd32vf10x/bsp/gd32vf103_fmc.c **** /*!
 454:arch/riscv/mach-gd32vf10x/bsp/gd32vf103_fmc.c ****     \brief      get OB_DATA in register FMC_OBSTAT
 455:arch/riscv/mach-gd32vf10x/bsp/gd32vf103_fmc.c ****     \param[in]  none
 456:arch/riscv/mach-gd32vf10x/bsp/gd32vf103_fmc.c ****     \param[out] none
 457:arch/riscv/mach-gd32vf10x/bsp/gd32vf103_fmc.c ****     \retval     ob_data
 458:arch/riscv/mach-gd32vf10x/bsp/gd32vf103_fmc.c ****  */
 459:arch/riscv/mach-gd32vf10x/bsp/gd32vf103_fmc.c **** uint16_t ob_data_get(void)
 460:arch/riscv/mach-gd32vf10x/bsp/gd32vf103_fmc.c **** {
 175              		.loc 1 460 1 is_stmt 1
 176              		.cfi_startproc
GAS LISTING C:\Users\test\AppData\Local\Temp\cc0O9IID.s 			page 12


 461:arch/riscv/mach-gd32vf10x/bsp/gd32vf103_fmc.c ****     return (uint16_t) (FMC_OBSTAT >> 10U);
 177              		.loc 1 461 5
 178              		.loc 1 461 24 is_stmt 0
 179 0000 B7270240 		li	a5,1073881088
 180 0004 C84F     		lw	a0,28(a5)
 181              		.loc 1 461 35
 182 0006 2981     		srli	a0,a0,10
 462:arch/riscv/mach-gd32vf10x/bsp/gd32vf103_fmc.c **** }
 183              		.loc 1 462 1
 184 0008 4205     		slli	a0,a0,16
 185 000a 4181     		srli	a0,a0,16
 186 000c 8280     		ret
 187              		.cfi_endproc
 188              	.LFE17:
 190              		.section	.text.ob_write_protection_get,"ax",@progbits
 191              		.align	1
 192              		.globl	ob_write_protection_get
 194              	ob_write_protection_get:
 195              	.LFB18:
 463:arch/riscv/mach-gd32vf10x/bsp/gd32vf103_fmc.c **** 
 464:arch/riscv/mach-gd32vf10x/bsp/gd32vf103_fmc.c **** /*!
 465:arch/riscv/mach-gd32vf10x/bsp/gd32vf103_fmc.c ****     \brief      get the FMC option byte write protection
 466:arch/riscv/mach-gd32vf10x/bsp/gd32vf103_fmc.c ****     \param[in]  none
 467:arch/riscv/mach-gd32vf10x/bsp/gd32vf103_fmc.c ****     \param[out] none
 468:arch/riscv/mach-gd32vf10x/bsp/gd32vf103_fmc.c ****     \retval     the FMC write protection option byte value
 469:arch/riscv/mach-gd32vf10x/bsp/gd32vf103_fmc.c ****  */
 470:arch/riscv/mach-gd32vf10x/bsp/gd32vf103_fmc.c **** uint32_t ob_write_protection_get(void)
 471:arch/riscv/mach-gd32vf10x/bsp/gd32vf103_fmc.c **** {
 196              		.loc 1 471 1 is_stmt 1
 197              		.cfi_startproc
 472:arch/riscv/mach-gd32vf10x/bsp/gd32vf103_fmc.c ****     /* return the FMC write protection option byte value */
 473:arch/riscv/mach-gd32vf10x/bsp/gd32vf103_fmc.c ****     return FMC_WP;
 198              		.loc 1 473 5
 199              		.loc 1 473 12 is_stmt 0
 200 0000 B7270240 		li	a5,1073881088
 201 0004 8853     		lw	a0,32(a5)
 474:arch/riscv/mach-gd32vf10x/bsp/gd32vf103_fmc.c **** }
 202              		.loc 1 474 1
 203 0006 8280     		ret
 204              		.cfi_endproc
 205              	.LFE18:
 207              		.section	.text.ob_spc_get,"ax",@progbits
 208              		.align	1
 209              		.globl	ob_spc_get
 211              	ob_spc_get:
 212              	.LFB19:
 475:arch/riscv/mach-gd32vf10x/bsp/gd32vf103_fmc.c **** 
 476:arch/riscv/mach-gd32vf10x/bsp/gd32vf103_fmc.c **** /*!
 477:arch/riscv/mach-gd32vf10x/bsp/gd32vf103_fmc.c ****     \brief      get the FMC option byte security protection
 478:arch/riscv/mach-gd32vf10x/bsp/gd32vf103_fmc.c ****     \param[in]  none
 479:arch/riscv/mach-gd32vf10x/bsp/gd32vf103_fmc.c ****     \param[out] none
 480:arch/riscv/mach-gd32vf10x/bsp/gd32vf103_fmc.c ****     \retval     FlagStatus: SET or RESET
 481:arch/riscv/mach-gd32vf10x/bsp/gd32vf103_fmc.c ****  */
 482:arch/riscv/mach-gd32vf10x/bsp/gd32vf103_fmc.c **** FlagStatus ob_spc_get(void)
 483:arch/riscv/mach-gd32vf10x/bsp/gd32vf103_fmc.c **** {
 213              		.loc 1 483 1 is_stmt 1
 214              		.cfi_startproc
GAS LISTING C:\Users\test\AppData\Local\Temp\cc0O9IID.s 			page 13


 484:arch/riscv/mach-gd32vf10x/bsp/gd32vf103_fmc.c ****     FlagStatus spc_state = RESET;
 215              		.loc 1 484 5
 216              	.LVL4:
 485:arch/riscv/mach-gd32vf10x/bsp/gd32vf103_fmc.c **** 
 486:arch/riscv/mach-gd32vf10x/bsp/gd32vf103_fmc.c ****     if(RESET != (FMC_OBSTAT & FMC_OBSTAT_SPC)){
 217              		.loc 1 486 5
 218              		.loc 1 486 18 is_stmt 0
 219 0000 B7270240 		li	a5,1073881088
 220 0004 C84F     		lw	a0,28(a5)
 221              	.LVL5:
 487:arch/riscv/mach-gd32vf10x/bsp/gd32vf103_fmc.c ****         spc_state = SET;
 488:arch/riscv/mach-gd32vf10x/bsp/gd32vf103_fmc.c ****     }else{
 489:arch/riscv/mach-gd32vf10x/bsp/gd32vf103_fmc.c ****         spc_state = RESET;
 490:arch/riscv/mach-gd32vf10x/bsp/gd32vf103_fmc.c ****     }
 491:arch/riscv/mach-gd32vf10x/bsp/gd32vf103_fmc.c ****     return spc_state;
 222              		.loc 1 491 5 is_stmt 1
 486:arch/riscv/mach-gd32vf10x/bsp/gd32vf103_fmc.c ****         spc_state = SET;
 223              		.loc 1 486 7 is_stmt 0
 224 0006 0581     		srli	a0,a0,1
 225              	.LVL6:
 492:arch/riscv/mach-gd32vf10x/bsp/gd32vf103_fmc.c **** }
 226              		.loc 1 492 1
 227 0008 0589     		andi	a0,a0,1
 228 000a 8280     		ret
 229              		.cfi_endproc
 230              	.LFE19:
 232              		.section	.text.fmc_interrupt_enable,"ax",@progbits
 233              		.align	1
 234              		.globl	fmc_interrupt_enable
 236              	fmc_interrupt_enable:
 237              	.LFB20:
 493:arch/riscv/mach-gd32vf10x/bsp/gd32vf103_fmc.c **** 
 494:arch/riscv/mach-gd32vf10x/bsp/gd32vf103_fmc.c **** /*!
 495:arch/riscv/mach-gd32vf10x/bsp/gd32vf103_fmc.c ****     \brief      enable FMC interrupt
 496:arch/riscv/mach-gd32vf10x/bsp/gd32vf103_fmc.c ****     \param[in]  interrupt: the FMC interrupt source
 497:arch/riscv/mach-gd32vf10x/bsp/gd32vf103_fmc.c ****     only one parameter can be selected which is shown as below:
 498:arch/riscv/mach-gd32vf10x/bsp/gd32vf103_fmc.c ****       \arg        FMC_INT_END: enable FMC end of program interrupt
 499:arch/riscv/mach-gd32vf10x/bsp/gd32vf103_fmc.c ****       \arg        FMC_INT_ERR: enable FMC error interrupt
 500:arch/riscv/mach-gd32vf10x/bsp/gd32vf103_fmc.c ****     \param[out] none
 501:arch/riscv/mach-gd32vf10x/bsp/gd32vf103_fmc.c ****     \retval     none
 502:arch/riscv/mach-gd32vf10x/bsp/gd32vf103_fmc.c ****  */
 503:arch/riscv/mach-gd32vf10x/bsp/gd32vf103_fmc.c **** void fmc_interrupt_enable(uint32_t interrupt)
 504:arch/riscv/mach-gd32vf10x/bsp/gd32vf103_fmc.c **** {
 238              		.loc 1 504 1 is_stmt 1
 239              		.cfi_startproc
 240              	.LVL7:
 505:arch/riscv/mach-gd32vf10x/bsp/gd32vf103_fmc.c ****     FMC_REG_VAL(interrupt) |= BIT(FMC_BIT_POS(interrupt));
 241              		.loc 1 505 5
 242              		.loc 1 505 28 is_stmt 0
 243 0000 B7270240 		li	a5,1073881088
 244 0004 13576500 		srli	a4,a0,6
 245 0008 3E97     		add	a4,a4,a5
 246 000a 1443     		lw	a3,0(a4)
 247              		.loc 1 505 31
 248 000c 8547     		li	a5,1
 249 000e B397A700 		sll	a5,a5,a0
 250              		.loc 1 505 28
GAS LISTING C:\Users\test\AppData\Local\Temp\cc0O9IID.s 			page 14


 251 0012 D58F     		or	a5,a5,a3
 252 0014 1CC3     		sw	a5,0(a4)
 506:arch/riscv/mach-gd32vf10x/bsp/gd32vf103_fmc.c **** }
 253              		.loc 1 506 1
 254 0016 8280     		ret
 255              		.cfi_endproc
 256              	.LFE20:
 258              		.section	.text.fmc_interrupt_disable,"ax",@progbits
 259              		.align	1
 260              		.globl	fmc_interrupt_disable
 262              	fmc_interrupt_disable:
 263              	.LFB21:
 507:arch/riscv/mach-gd32vf10x/bsp/gd32vf103_fmc.c **** 
 508:arch/riscv/mach-gd32vf10x/bsp/gd32vf103_fmc.c **** /*!
 509:arch/riscv/mach-gd32vf10x/bsp/gd32vf103_fmc.c ****     \brief      disable FMC interrupt
 510:arch/riscv/mach-gd32vf10x/bsp/gd32vf103_fmc.c ****     \param[in]  interrupt: the FMC interrupt source
 511:arch/riscv/mach-gd32vf10x/bsp/gd32vf103_fmc.c ****     only one parameter can be selected which is shown as below:
 512:arch/riscv/mach-gd32vf10x/bsp/gd32vf103_fmc.c ****       \arg        FMC_INT_END: enable FMC end of program interrupt
 513:arch/riscv/mach-gd32vf10x/bsp/gd32vf103_fmc.c ****       \arg        FMC_INT_ERR: enable FMC error interrupt
 514:arch/riscv/mach-gd32vf10x/bsp/gd32vf103_fmc.c ****     \param[out] none
 515:arch/riscv/mach-gd32vf10x/bsp/gd32vf103_fmc.c ****     \retval     none
 516:arch/riscv/mach-gd32vf10x/bsp/gd32vf103_fmc.c ****  */
 517:arch/riscv/mach-gd32vf10x/bsp/gd32vf103_fmc.c **** void fmc_interrupt_disable(uint32_t interrupt)
 518:arch/riscv/mach-gd32vf10x/bsp/gd32vf103_fmc.c **** {
 264              		.loc 1 518 1 is_stmt 1
 265              		.cfi_startproc
 266              	.LVL8:
 519:arch/riscv/mach-gd32vf10x/bsp/gd32vf103_fmc.c ****     FMC_REG_VAL(interrupt) &= ~BIT(FMC_BIT_POS(interrupt));
 267              		.loc 1 519 5
 268              		.loc 1 519 28 is_stmt 0
 269 0000 B7270240 		li	a5,1073881088
 270 0004 13576500 		srli	a4,a0,6
 271 0008 3E97     		add	a4,a4,a5
 272 000a 1443     		lw	a3,0(a4)
 273              		.loc 1 519 32
 274 000c 8547     		li	a5,1
 275 000e B397A700 		sll	a5,a5,a0
 276              		.loc 1 519 31
 277 0012 93C7F7FF 		not	a5,a5
 278              		.loc 1 519 28
 279 0016 F58F     		and	a5,a5,a3
 280 0018 1CC3     		sw	a5,0(a4)
 520:arch/riscv/mach-gd32vf10x/bsp/gd32vf103_fmc.c **** }
 281              		.loc 1 520 1
 282 001a 8280     		ret
 283              		.cfi_endproc
 284              	.LFE21:
 286              		.section	.text.fmc_flag_get,"ax",@progbits
 287              		.align	1
 288              		.globl	fmc_flag_get
 290              	fmc_flag_get:
 291              	.LFB22:
 521:arch/riscv/mach-gd32vf10x/bsp/gd32vf103_fmc.c **** 
 522:arch/riscv/mach-gd32vf10x/bsp/gd32vf103_fmc.c **** /*!
 523:arch/riscv/mach-gd32vf10x/bsp/gd32vf103_fmc.c ****     \brief      check flag is set or not
 524:arch/riscv/mach-gd32vf10x/bsp/gd32vf103_fmc.c ****     \param[in]  flag: check FMC flag
 525:arch/riscv/mach-gd32vf10x/bsp/gd32vf103_fmc.c ****     only one parameter can be selected which is shown as below:
GAS LISTING C:\Users\test\AppData\Local\Temp\cc0O9IID.s 			page 15


 526:arch/riscv/mach-gd32vf10x/bsp/gd32vf103_fmc.c ****       \arg        FMC_FLAG_BUSY: FMC busy flag bit
 527:arch/riscv/mach-gd32vf10x/bsp/gd32vf103_fmc.c ****       \arg        FMC_FLAG_PGERR: FMC operation error flag bit
 528:arch/riscv/mach-gd32vf10x/bsp/gd32vf103_fmc.c ****       \arg        FMC_FLAG_WPERR: FMC erase/program protection error flag bit
 529:arch/riscv/mach-gd32vf10x/bsp/gd32vf103_fmc.c ****       \arg        FMC_FLAG_END: FMC end of operation flag bit
 530:arch/riscv/mach-gd32vf10x/bsp/gd32vf103_fmc.c ****       \arg        FMC_FLAG_OBERR: FMC option bytes read error flag bit
 531:arch/riscv/mach-gd32vf10x/bsp/gd32vf103_fmc.c ****     \param[out] none
 532:arch/riscv/mach-gd32vf10x/bsp/gd32vf103_fmc.c ****     \retval     FlagStatus: SET or RESET
 533:arch/riscv/mach-gd32vf10x/bsp/gd32vf103_fmc.c ****  */
 534:arch/riscv/mach-gd32vf10x/bsp/gd32vf103_fmc.c **** FlagStatus fmc_flag_get(uint32_t flag)
 535:arch/riscv/mach-gd32vf10x/bsp/gd32vf103_fmc.c **** {
 292              		.loc 1 535 1 is_stmt 1
 293              		.cfi_startproc
 294              	.LVL9:
 536:arch/riscv/mach-gd32vf10x/bsp/gd32vf103_fmc.c ****     if(RESET != (FMC_REG_VAL(flag) & BIT(FMC_BIT_POS(flag)))){
 295              		.loc 1 536 5
 296              		.loc 1 536 18 is_stmt 0
 297 0000 13576500 		srli	a4,a0,6
 298 0004 B7270240 		li	a5,1073881088
 299 0008 3E97     		add	a4,a4,a5
 300 000a 1C43     		lw	a5,0(a4)
 301              		.loc 1 536 14
 302 000c 33D5A700 		srl	a0,a5,a0
 303              	.LVL10:
 537:arch/riscv/mach-gd32vf10x/bsp/gd32vf103_fmc.c ****         return SET;
 538:arch/riscv/mach-gd32vf10x/bsp/gd32vf103_fmc.c ****     } else {
 539:arch/riscv/mach-gd32vf10x/bsp/gd32vf103_fmc.c ****         return RESET;
 540:arch/riscv/mach-gd32vf10x/bsp/gd32vf103_fmc.c ****     }
 541:arch/riscv/mach-gd32vf10x/bsp/gd32vf103_fmc.c **** }
 304              		.loc 1 541 1
 305 0010 0589     		andi	a0,a0,1
 306 0012 8280     		ret
 307              		.cfi_endproc
 308              	.LFE22:
 310              		.section	.text.fmc_flag_clear,"ax",@progbits
 311              		.align	1
 312              		.globl	fmc_flag_clear
 314              	fmc_flag_clear:
 315              	.LFB23:
 542:arch/riscv/mach-gd32vf10x/bsp/gd32vf103_fmc.c **** 
 543:arch/riscv/mach-gd32vf10x/bsp/gd32vf103_fmc.c **** /*!
 544:arch/riscv/mach-gd32vf10x/bsp/gd32vf103_fmc.c ****  \brief      clear the FMC flag
 545:arch/riscv/mach-gd32vf10x/bsp/gd32vf103_fmc.c ****  \param[in]  flag: clear FMC flag
 546:arch/riscv/mach-gd32vf10x/bsp/gd32vf103_fmc.c ****  only one parameter can be selected which is shown as below:
 547:arch/riscv/mach-gd32vf10x/bsp/gd32vf103_fmc.c ****  \arg        FMC_FLAG_PGERR: FMC operation error flag bit
 548:arch/riscv/mach-gd32vf10x/bsp/gd32vf103_fmc.c ****  \arg        FMC_FLAG_WPERR: FMC erase/program protection error flag bit
 549:arch/riscv/mach-gd32vf10x/bsp/gd32vf103_fmc.c ****  \arg        FMC_FLAG_END: FMC end of operation flag bit
 550:arch/riscv/mach-gd32vf10x/bsp/gd32vf103_fmc.c ****  \param[out] none
 551:arch/riscv/mach-gd32vf10x/bsp/gd32vf103_fmc.c ****  \retval     none
 552:arch/riscv/mach-gd32vf10x/bsp/gd32vf103_fmc.c ****  */
 553:arch/riscv/mach-gd32vf10x/bsp/gd32vf103_fmc.c **** void fmc_flag_clear(uint32_t flag)
 554:arch/riscv/mach-gd32vf10x/bsp/gd32vf103_fmc.c **** {
 316              		.loc 1 554 1 is_stmt 1
 317              		.cfi_startproc
 318              	.LVL11:
 555:arch/riscv/mach-gd32vf10x/bsp/gd32vf103_fmc.c ****     FMC_REG_VAL(flag) = (!FMC_REG_VAL(flag)) | BIT(FMC_BIT_POS(flag));
 319              		.loc 1 555 5
 320              		.loc 1 555 27 is_stmt 0
GAS LISTING C:\Users\test\AppData\Local\Temp\cc0O9IID.s 			page 16


 321 0000 B7270240 		li	a5,1073881088
 322 0004 13576500 		srli	a4,a0,6
 323 0008 3E97     		add	a4,a4,a5
 324 000a 1443     		lw	a3,0(a4)
 325              		.loc 1 555 48
 326 000c 8547     		li	a5,1
 327 000e B397A700 		sll	a5,a5,a0
 328              		.loc 1 555 26
 329 0012 93B61600 		seqz	a3,a3
 330              		.loc 1 555 46
 331 0016 D58F     		or	a5,a5,a3
 332              		.loc 1 555 23
 333 0018 1CC3     		sw	a5,0(a4)
 556:arch/riscv/mach-gd32vf10x/bsp/gd32vf103_fmc.c **** }
 334              		.loc 1 556 1
 335 001a 8280     		ret
 336              		.cfi_endproc
 337              	.LFE23:
 339              		.section	.text.fmc_interrupt_flag_get,"ax",@progbits
 340              		.align	1
 341              		.globl	fmc_interrupt_flag_get
 343              	fmc_interrupt_flag_get:
 344              	.LFB24:
 557:arch/riscv/mach-gd32vf10x/bsp/gd32vf103_fmc.c **** 
 558:arch/riscv/mach-gd32vf10x/bsp/gd32vf103_fmc.c **** /*!
 559:arch/riscv/mach-gd32vf10x/bsp/gd32vf103_fmc.c ****     \brief      get FMC interrupt flag state
 560:arch/riscv/mach-gd32vf10x/bsp/gd32vf103_fmc.c ****     \param[in]  flag: FMC interrupt flags, refer to fmc_interrupt_flag_enum
 561:arch/riscv/mach-gd32vf10x/bsp/gd32vf103_fmc.c ****     only one parameter can be selected which is shown as below:
 562:arch/riscv/mach-gd32vf10x/bsp/gd32vf103_fmc.c ****       \arg        FMC_INT_FLAG_PGERR: FMC operation error interrupt flag bit
 563:arch/riscv/mach-gd32vf10x/bsp/gd32vf103_fmc.c ****       \arg        FMC_INT_FLAG_WPERR: FMC erase/program protection error interrupt flag bit
 564:arch/riscv/mach-gd32vf10x/bsp/gd32vf103_fmc.c ****       \arg        FMC_INT_FLAG_END: FMC end of operation interrupt flag bit
 565:arch/riscv/mach-gd32vf10x/bsp/gd32vf103_fmc.c ****     \param[out] none
 566:arch/riscv/mach-gd32vf10x/bsp/gd32vf103_fmc.c ****     \retval     FlagStatus: SET or RESET
 567:arch/riscv/mach-gd32vf10x/bsp/gd32vf103_fmc.c ****  */
 568:arch/riscv/mach-gd32vf10x/bsp/gd32vf103_fmc.c **** FlagStatus fmc_interrupt_flag_get(fmc_interrupt_flag_enum flag)
 569:arch/riscv/mach-gd32vf10x/bsp/gd32vf103_fmc.c **** {
 345              		.loc 1 569 1 is_stmt 1
 346              		.cfi_startproc
 347              	.LVL12:
 570:arch/riscv/mach-gd32vf10x/bsp/gd32vf103_fmc.c ****     FlagStatus ret1 = RESET;
 348              		.loc 1 570 5
 571:arch/riscv/mach-gd32vf10x/bsp/gd32vf103_fmc.c ****     FlagStatus ret2 = RESET;
 349              		.loc 1 571 5
 572:arch/riscv/mach-gd32vf10x/bsp/gd32vf103_fmc.c **** 
 573:arch/riscv/mach-gd32vf10x/bsp/gd32vf103_fmc.c ****     if(FMC_STAT0_REG_OFFSET == FMC_REG_OFFSET_GET(flag)){
 350              		.loc 1 573 5
 351              		.loc 1 573 32 is_stmt 0
 352 0000 1357C500 		srli	a4,a0,12
 353              		.loc 1 573 7
 354 0004 B147     		li	a5,12
 355 0006 6315F702 		bne	a4,a5,.L25
 574:arch/riscv/mach-gd32vf10x/bsp/gd32vf103_fmc.c ****         /* get the staus of interrupt flag */
 575:arch/riscv/mach-gd32vf10x/bsp/gd32vf103_fmc.c ****         ret1 = (FlagStatus) (FMC_REG_VALS(flag) & BIT(FMC_BIT_POS0(flag)));
 356              		.loc 1 575 9 is_stmt 1
 357              		.loc 1 575 30 is_stmt 0
 358 000a B7260240 		li	a3,1073881088
 359 000e D046     		lw	a2,12(a3)
GAS LISTING C:\Users\test\AppData\Local\Temp\cc0O9IID.s 			page 17


 360              		.loc 1 575 51
 361 0010 93576500 		srli	a5,a0,6
 362 0014 0547     		li	a4,1
 363 0016 B317F700 		sll	a5,a4,a5
 576:arch/riscv/mach-gd32vf10x/bsp/gd32vf103_fmc.c ****         /* get the staus of interrupt enale bit */
 577:arch/riscv/mach-gd32vf10x/bsp/gd32vf103_fmc.c ****         ret2 = (FlagStatus) (FMC_CTL0 & BIT(FMC_BIT_POS1(flag)));
 364              		.loc 1 577 30
 365 001a 944A     		lw	a3,16(a3)
 575:arch/riscv/mach-gd32vf10x/bsp/gd32vf103_fmc.c ****         /* get the staus of interrupt enale bit */
 366              		.loc 1 575 14
 367 001c F18F     		and	a5,a5,a2
 368              	.LVL13:
 369              		.loc 1 577 9 is_stmt 1
 578:arch/riscv/mach-gd32vf10x/bsp/gd32vf103_fmc.c ****     }
 579:arch/riscv/mach-gd32vf10x/bsp/gd32vf103_fmc.c **** 
 580:arch/riscv/mach-gd32vf10x/bsp/gd32vf103_fmc.c ****     if(ret1 && ret2){
 370              		.loc 1 580 5
 371              		.loc 1 580 7 is_stmt 0
 372 001e 99C7     		beq	a5,zero,.L23
 577:arch/riscv/mach-gd32vf10x/bsp/gd32vf103_fmc.c ****     }
 373              		.loc 1 577 41 discriminator 1
 374 0020 3315A700 		sll	a0,a4,a0
 375              	.LVL14:
 577:arch/riscv/mach-gd32vf10x/bsp/gd32vf103_fmc.c ****     }
 376              		.loc 1 577 14 discriminator 1
 377 0024 B377D500 		and	a5,a0,a3
 378              	.LVL15:
 379              		.loc 1 580 13 discriminator 1
 380 0028 B337F000 		snez	a5,a5
 381              	.L23:
 581:arch/riscv/mach-gd32vf10x/bsp/gd32vf103_fmc.c ****         return SET;
 582:arch/riscv/mach-gd32vf10x/bsp/gd32vf103_fmc.c ****     }else{
 583:arch/riscv/mach-gd32vf10x/bsp/gd32vf103_fmc.c ****         return RESET;
 584:arch/riscv/mach-gd32vf10x/bsp/gd32vf103_fmc.c ****     }
 585:arch/riscv/mach-gd32vf10x/bsp/gd32vf103_fmc.c **** }
 382              		.loc 1 585 1
 383 002c 3E85     		mv	a0,a5
 384 002e 8280     		ret
 385              	.LVL16:
 386              	.L25:
 583:arch/riscv/mach-gd32vf10x/bsp/gd32vf103_fmc.c ****     }
 387              		.loc 1 583 16
 388 0030 8147     		li	a5,0
 389              		.loc 1 585 1
 390 0032 3E85     		mv	a0,a5
 391              	.LVL17:
 392 0034 8280     		ret
 393              		.cfi_endproc
 394              	.LFE24:
 396              		.section	.text.fmc_interrupt_flag_clear,"ax",@progbits
 397              		.align	1
 398              		.globl	fmc_interrupt_flag_clear
 400              	fmc_interrupt_flag_clear:
 401              	.LFB25:
 586:arch/riscv/mach-gd32vf10x/bsp/gd32vf103_fmc.c **** 
 587:arch/riscv/mach-gd32vf10x/bsp/gd32vf103_fmc.c **** /*!
 588:arch/riscv/mach-gd32vf10x/bsp/gd32vf103_fmc.c ****     \brief      clear FMC interrupt flag state
GAS LISTING C:\Users\test\AppData\Local\Temp\cc0O9IID.s 			page 18


 589:arch/riscv/mach-gd32vf10x/bsp/gd32vf103_fmc.c ****     \param[in]  flag: FMC interrupt flags, refer to can_interrupt_flag_enum
 590:arch/riscv/mach-gd32vf10x/bsp/gd32vf103_fmc.c ****     only one parameter can be selected which is shown as below:
 591:arch/riscv/mach-gd32vf10x/bsp/gd32vf103_fmc.c ****       \arg        FMC_INT_FLAG_PGERR: FMC operation error interrupt flag bit
 592:arch/riscv/mach-gd32vf10x/bsp/gd32vf103_fmc.c ****       \arg        FMC_INT_FLAG_WPERR: FMC erase/program protection error interrupt flag bit
 593:arch/riscv/mach-gd32vf10x/bsp/gd32vf103_fmc.c ****       \arg        FMC_INT_FLAG_END: FMC end of operation interrupt flag bit
 594:arch/riscv/mach-gd32vf10x/bsp/gd32vf103_fmc.c ****      \param[out] none
 595:arch/riscv/mach-gd32vf10x/bsp/gd32vf103_fmc.c ****      \retval     none
 596:arch/riscv/mach-gd32vf10x/bsp/gd32vf103_fmc.c ****  */
 597:arch/riscv/mach-gd32vf10x/bsp/gd32vf103_fmc.c **** void fmc_interrupt_flag_clear(fmc_interrupt_flag_enum flag)
 598:arch/riscv/mach-gd32vf10x/bsp/gd32vf103_fmc.c **** {
 402              		.loc 1 598 1 is_stmt 1
 403              		.cfi_startproc
 404              	.LVL18:
 599:arch/riscv/mach-gd32vf10x/bsp/gd32vf103_fmc.c ****     FMC_REG_VALS(flag) |= BIT(FMC_BIT_POS0(flag));
 405              		.loc 1 599 5
 406              		.loc 1 599 24 is_stmt 0
 407 0000 9357C500 		srli	a5,a0,12
 408 0004 37270240 		li	a4,1073881088
 409 0008 BA97     		add	a5,a5,a4
 410 000a 9443     		lw	a3,0(a5)
 411              		.loc 1 599 27
 412 000c 13576500 		srli	a4,a0,6
 413 0010 0545     		li	a0,1
 414              	.LVL19:
 415 0012 3315E500 		sll	a0,a0,a4
 416              		.loc 1 599 24
 417 0016 558D     		or	a0,a0,a3
 418 0018 88C3     		sw	a0,0(a5)
 600:arch/riscv/mach-gd32vf10x/bsp/gd32vf103_fmc.c **** }
 419              		.loc 1 600 1
 420 001a 8280     		ret
 421              		.cfi_endproc
 422              	.LFE25:
 424              		.section	.text.fmc_state_get,"ax",@progbits
 425              		.align	1
 426              		.globl	fmc_state_get
 428              	fmc_state_get:
 429              	.LFB26:
 601:arch/riscv/mach-gd32vf10x/bsp/gd32vf103_fmc.c **** 
 602:arch/riscv/mach-gd32vf10x/bsp/gd32vf103_fmc.c **** /*!
 603:arch/riscv/mach-gd32vf10x/bsp/gd32vf103_fmc.c ****     \brief      get the FMC state
 604:arch/riscv/mach-gd32vf10x/bsp/gd32vf103_fmc.c ****     \param[in]  none
 605:arch/riscv/mach-gd32vf10x/bsp/gd32vf103_fmc.c ****     \param[out] none
 606:arch/riscv/mach-gd32vf10x/bsp/gd32vf103_fmc.c ****     \retval     state of FMC, refer to fmc_state_enum
 607:arch/riscv/mach-gd32vf10x/bsp/gd32vf103_fmc.c ****  */
 608:arch/riscv/mach-gd32vf10x/bsp/gd32vf103_fmc.c **** fmc_state_enum fmc_state_get(void)
 609:arch/riscv/mach-gd32vf10x/bsp/gd32vf103_fmc.c **** {
 430              		.loc 1 609 1 is_stmt 1
 431              		.cfi_startproc
 610:arch/riscv/mach-gd32vf10x/bsp/gd32vf103_fmc.c ****     fmc_state_enum fmc_state = FMC_READY;
 432              		.loc 1 610 5
 433              	.LVL20:
 611:arch/riscv/mach-gd32vf10x/bsp/gd32vf103_fmc.c **** 
 612:arch/riscv/mach-gd32vf10x/bsp/gd32vf103_fmc.c ****     if((uint32_t) 0x00U != (FMC_STAT0 & FMC_STAT0_BUSY)){
 434              		.loc 1 612 5
 435              		.loc 1 612 29 is_stmt 0
 436 0000 B7270240 		li	a5,1073881088
GAS LISTING C:\Users\test\AppData\Local\Temp\cc0O9IID.s 			page 19


 437 0004 C847     		lw	a0,12(a5)
 438              		.loc 1 612 39
 439 0006 0589     		andi	a0,a0,1
 440              		.loc 1 612 7
 441 0008 01E9     		bne	a0,zero,.L30
 613:arch/riscv/mach-gd32vf10x/bsp/gd32vf103_fmc.c ****         fmc_state = FMC_BUSY;
 614:arch/riscv/mach-gd32vf10x/bsp/gd32vf103_fmc.c ****     }else{
 615:arch/riscv/mach-gd32vf10x/bsp/gd32vf103_fmc.c ****         if((uint32_t) 0x00U != (FMC_STAT0 & FMC_STAT0_WPERR)){
 442              		.loc 1 615 9 is_stmt 1
 443              		.loc 1 615 33 is_stmt 0
 444 000a D847     		lw	a4,12(a5)
 616:arch/riscv/mach-gd32vf10x/bsp/gd32vf103_fmc.c ****             fmc_state = FMC_WPERR;
 445              		.loc 1 616 23
 446 000c 0D45     		li	a0,3
 615:arch/riscv/mach-gd32vf10x/bsp/gd32vf103_fmc.c ****             fmc_state = FMC_WPERR;
 447              		.loc 1 615 43
 448 000e 418B     		andi	a4,a4,16
 615:arch/riscv/mach-gd32vf10x/bsp/gd32vf103_fmc.c ****             fmc_state = FMC_WPERR;
 449              		.loc 1 615 11
 450 0010 01E7     		bne	a4,zero,.L30
 451              	.LBB52:
 452              	.LBB53:
 617:arch/riscv/mach-gd32vf10x/bsp/gd32vf103_fmc.c ****         }else{
 618:arch/riscv/mach-gd32vf10x/bsp/gd32vf103_fmc.c ****             if((uint32_t) 0x00U != (FMC_STAT0 & (FMC_STAT0_PGERR))){
 453              		.loc 1 618 13 is_stmt 1
 454              		.loc 1 618 37 is_stmt 0
 455 0012 C847     		lw	a0,12(a5)
 456              		.loc 1 618 47
 457 0014 1189     		andi	a0,a0,4
 458              		.loc 1 618 15
 459 0016 11E1     		bne	a0,zero,.L36
 460              	.L30:
 461              	.LBE53:
 462              	.LBE52:
 619:arch/riscv/mach-gd32vf10x/bsp/gd32vf103_fmc.c ****                 fmc_state = FMC_PGERR;
 620:arch/riscv/mach-gd32vf10x/bsp/gd32vf103_fmc.c ****             }
 621:arch/riscv/mach-gd32vf10x/bsp/gd32vf103_fmc.c ****         }
 622:arch/riscv/mach-gd32vf10x/bsp/gd32vf103_fmc.c ****     }
 623:arch/riscv/mach-gd32vf10x/bsp/gd32vf103_fmc.c ****     /* return the FMC state */
 624:arch/riscv/mach-gd32vf10x/bsp/gd32vf103_fmc.c ****     return fmc_state;
 625:arch/riscv/mach-gd32vf10x/bsp/gd32vf103_fmc.c **** }
 463              		.loc 1 625 1
 464 0018 8280     		ret
 465              	.L36:
 466              	.LBB55:
 467              	.LBB54:
 619:arch/riscv/mach-gd32vf10x/bsp/gd32vf103_fmc.c ****                 fmc_state = FMC_PGERR;
 468              		.loc 1 619 27
 469 001a 0945     		li	a0,2
 470              	.LBE54:
 471              	.LBE55:
 472              		.loc 1 625 1
 473 001c 8280     		ret
 474              		.cfi_endproc
 475              	.LFE26:
 477              		.section	.text.fmc_page_erase,"ax",@progbits
 478              		.align	1
GAS LISTING C:\Users\test\AppData\Local\Temp\cc0O9IID.s 			page 20


 479              		.globl	fmc_page_erase
 481              	fmc_page_erase:
 482              	.LFB5:
  91:arch/riscv/mach-gd32vf10x/bsp/gd32vf103_fmc.c ****     fmc_state_enum fmc_state;
 483              		.loc 1 91 1 is_stmt 1
 484              		.cfi_startproc
 485              	.LVL21:
  92:arch/riscv/mach-gd32vf10x/bsp/gd32vf103_fmc.c ****     fmc_state = fmc_ready_wait(FMC_TIMEOUT_COUNT);
 486              		.loc 1 92 5
  93:arch/riscv/mach-gd32vf10x/bsp/gd32vf103_fmc.c ****     /* if the last operation is completed, start page erase */
 487              		.loc 1 93 5
 488              	.LBB56:
 489              	.LBB57:
 626:arch/riscv/mach-gd32vf10x/bsp/gd32vf103_fmc.c **** 
 627:arch/riscv/mach-gd32vf10x/bsp/gd32vf103_fmc.c **** /*!
 628:arch/riscv/mach-gd32vf10x/bsp/gd32vf103_fmc.c ****     \brief      check whether FMC is ready or not
 629:arch/riscv/mach-gd32vf10x/bsp/gd32vf103_fmc.c ****     \param[in]  timeout: count of loop
 630:arch/riscv/mach-gd32vf10x/bsp/gd32vf103_fmc.c ****     \param[out] none
 631:arch/riscv/mach-gd32vf10x/bsp/gd32vf103_fmc.c ****     \retval     state of FMC, refer to fmc_state_enum
 632:arch/riscv/mach-gd32vf10x/bsp/gd32vf103_fmc.c ****  */
 633:arch/riscv/mach-gd32vf10x/bsp/gd32vf103_fmc.c **** fmc_state_enum fmc_ready_wait(uint32_t timeout)
 634:arch/riscv/mach-gd32vf10x/bsp/gd32vf103_fmc.c **** {
 635:arch/riscv/mach-gd32vf10x/bsp/gd32vf103_fmc.c ****     fmc_state_enum fmc_state = FMC_BUSY;
 490              		.loc 1 635 5
 491              	.LBE57:
 492              	.LBE56:
  91:arch/riscv/mach-gd32vf10x/bsp/gd32vf103_fmc.c ****     fmc_state_enum fmc_state;
 493              		.loc 1 91 1 is_stmt 0
 494 0000 4111     		addi	sp,sp,-16
 495              	.LCFI0:
 496              		.cfi_def_cfa_offset 16
 497 0002 22C4     		sw	s0,8(sp)
 498 0004 26C2     		sw	s1,4(sp)
 499 0006 4AC0     		sw	s2,0(sp)
 500 0008 06C6     		sw	ra,12(sp)
 501              		.cfi_offset 8, -8
 502              		.cfi_offset 9, -12
 503              		.cfi_offset 18, -16
 504              		.cfi_offset 1, -4
  91:arch/riscv/mach-gd32vf10x/bsp/gd32vf103_fmc.c ****     fmc_state_enum fmc_state;
 505              		.loc 1 91 1
 506 000a 2A89     		mv	s2,a0
 507 000c 37040F00 		li	s0,983040
 508              	.LBB60:
 509              	.LBB58:
 636:arch/riscv/mach-gd32vf10x/bsp/gd32vf103_fmc.c **** 
 637:arch/riscv/mach-gd32vf10x/bsp/gd32vf103_fmc.c ****     /* wait for FMC ready */
 638:arch/riscv/mach-gd32vf10x/bsp/gd32vf103_fmc.c ****     do{
 639:arch/riscv/mach-gd32vf10x/bsp/gd32vf103_fmc.c ****         /* get FMC state */
 640:arch/riscv/mach-gd32vf10x/bsp/gd32vf103_fmc.c ****         fmc_state = fmc_state_get();
 641:arch/riscv/mach-gd32vf10x/bsp/gd32vf103_fmc.c ****         timeout--;
 642:arch/riscv/mach-gd32vf10x/bsp/gd32vf103_fmc.c ****     }while((FMC_BUSY == fmc_state) && (0x00U != timeout));
 510              		.loc 1 642 5
 511 0010 8544     		li	s1,1
 512 0012 11A0     		j	.L39
 513              	.LVL22:
 514              	.L48:
GAS LISTING C:\Users\test\AppData\Local\Temp\cc0O9IID.s 			page 21


 515              		.loc 1 642 36
 516 0014 21CC     		beq	s0,zero,.L47
 517              	.LVL23:
 518              	.L39:
 638:arch/riscv/mach-gd32vf10x/bsp/gd32vf103_fmc.c ****         /* get FMC state */
 519              		.loc 1 638 5 is_stmt 1
 640:arch/riscv/mach-gd32vf10x/bsp/gd32vf103_fmc.c ****         timeout--;
 520              		.loc 1 640 9
 640:arch/riscv/mach-gd32vf10x/bsp/gd32vf103_fmc.c ****         timeout--;
 521              		.loc 1 640 21 is_stmt 0
 522 0016 97000000 		call	fmc_state_get
 522      E7800000 
 523              	.LVL24:
 641:arch/riscv/mach-gd32vf10x/bsp/gd32vf103_fmc.c ****     }while((FMC_BUSY == fmc_state) && (0x00U != timeout));
 524              		.loc 1 641 9 is_stmt 1
 525 001e 7D14     		addi	s0,s0,-1
 526              	.LVL25:
 527              		.loc 1 642 5 is_stmt 0
 528 0020 E30A95FE 		beq	a0,s1,.L48
 643:arch/riscv/mach-gd32vf10x/bsp/gd32vf103_fmc.c **** 
 644:arch/riscv/mach-gd32vf10x/bsp/gd32vf103_fmc.c ****     if(FMC_BUSY == fmc_state){
 529              		.loc 1 644 5 is_stmt 1
 645:arch/riscv/mach-gd32vf10x/bsp/gd32vf103_fmc.c ****         fmc_state = FMC_TOERR;
 646:arch/riscv/mach-gd32vf10x/bsp/gd32vf103_fmc.c ****     }
 647:arch/riscv/mach-gd32vf10x/bsp/gd32vf103_fmc.c ****     /* return the FMC state */
 648:arch/riscv/mach-gd32vf10x/bsp/gd32vf103_fmc.c ****     return fmc_state;
 530              		.loc 1 648 5
 531              	.LVL26:
 532              	.LBE58:
 533              	.LBE60:
  95:arch/riscv/mach-gd32vf10x/bsp/gd32vf103_fmc.c ****         FMC_CTL0 |= FMC_CTL0_PER;
 534              		.loc 1 95 5
  95:arch/riscv/mach-gd32vf10x/bsp/gd32vf103_fmc.c ****         FMC_CTL0 |= FMC_CTL0_PER;
 535              		.loc 1 95 8 is_stmt 0
 536 0024 15ED     		bne	a0,zero,.L37
  96:arch/riscv/mach-gd32vf10x/bsp/gd32vf103_fmc.c ****         FMC_ADDR0 = page_address;
 537              		.loc 1 96 9 is_stmt 1
  96:arch/riscv/mach-gd32vf10x/bsp/gd32vf103_fmc.c ****         FMC_ADDR0 = page_address;
 538              		.loc 1 96 18 is_stmt 0
 539 0026 B7270240 		li	a5,1073881088
 540 002a 984B     		lw	a4,16(a5)
  98:arch/riscv/mach-gd32vf10x/bsp/gd32vf103_fmc.c ****         /* wait for the FMC ready */
 541              		.loc 1 98 18
 542 002c 37040F00 		li	s0,983040
 543              	.LBB61:
 544              	.LBB62:
 642:arch/riscv/mach-gd32vf10x/bsp/gd32vf103_fmc.c **** 
 545              		.loc 1 642 5
 546 0030 8544     		li	s1,1
 547              	.LBE62:
 548              	.LBE61:
  96:arch/riscv/mach-gd32vf10x/bsp/gd32vf103_fmc.c ****         FMC_ADDR0 = page_address;
 549              		.loc 1 96 18
 550 0032 13672700 		ori	a4,a4,2
 551 0036 98CB     		sw	a4,16(a5)
  97:arch/riscv/mach-gd32vf10x/bsp/gd32vf103_fmc.c ****         FMC_CTL0 |= FMC_CTL0_START;
 552              		.loc 1 97 9 is_stmt 1
GAS LISTING C:\Users\test\AppData\Local\Temp\cc0O9IID.s 			page 22


  97:arch/riscv/mach-gd32vf10x/bsp/gd32vf103_fmc.c ****         FMC_CTL0 |= FMC_CTL0_START;
 553              		.loc 1 97 19 is_stmt 0
 554 0038 23AA2701 		sw	s2,20(a5)
  98:arch/riscv/mach-gd32vf10x/bsp/gd32vf103_fmc.c ****         /* wait for the FMC ready */
 555              		.loc 1 98 9 is_stmt 1
  98:arch/riscv/mach-gd32vf10x/bsp/gd32vf103_fmc.c ****         /* wait for the FMC ready */
 556              		.loc 1 98 18 is_stmt 0
 557 003c 984B     		lw	a4,16(a5)
 558 003e 13670704 		ori	a4,a4,64
 559 0042 98CB     		sw	a4,16(a5)
 100:arch/riscv/mach-gd32vf10x/bsp/gd32vf103_fmc.c ****         /* reset the PER bit */
 560              		.loc 1 100 9 is_stmt 1
 561              	.LVL27:
 562              	.LBB65:
 563              	.LBB63:
 635:arch/riscv/mach-gd32vf10x/bsp/gd32vf103_fmc.c **** 
 564              		.loc 1 635 5
 565 0044 11A0     		j	.L42
 566              	.LVL28:
 567              	.L50:
 642:arch/riscv/mach-gd32vf10x/bsp/gd32vf103_fmc.c **** 
 568              		.loc 1 642 36 is_stmt 0
 569 0046 15C8     		beq	s0,zero,.L49
 570              	.LVL29:
 571              	.L42:
 638:arch/riscv/mach-gd32vf10x/bsp/gd32vf103_fmc.c ****         /* get FMC state */
 572              		.loc 1 638 5 is_stmt 1
 640:arch/riscv/mach-gd32vf10x/bsp/gd32vf103_fmc.c ****         timeout--;
 573              		.loc 1 640 9
 640:arch/riscv/mach-gd32vf10x/bsp/gd32vf103_fmc.c ****         timeout--;
 574              		.loc 1 640 21 is_stmt 0
 575 0048 97000000 		call	fmc_state_get
 575      E7800000 
 576              	.LVL30:
 641:arch/riscv/mach-gd32vf10x/bsp/gd32vf103_fmc.c ****     }while((FMC_BUSY == fmc_state) && (0x00U != timeout));
 577              		.loc 1 641 9 is_stmt 1
 578 0050 7D14     		addi	s0,s0,-1
 579              	.LVL31:
 642:arch/riscv/mach-gd32vf10x/bsp/gd32vf103_fmc.c **** 
 580              		.loc 1 642 5 is_stmt 0
 581 0052 E30A95FE 		beq	a0,s1,.L50
 582              		.loc 1 648 5 is_stmt 1
 583              	.LVL32:
 584              	.LBE63:
 585              	.LBE65:
 102:arch/riscv/mach-gd32vf10x/bsp/gd32vf103_fmc.c ****     }
 586              		.loc 1 102 9
 102:arch/riscv/mach-gd32vf10x/bsp/gd32vf103_fmc.c ****     }
 587              		.loc 1 102 18 is_stmt 0
 588 0056 37270240 		li	a4,1073881088
 589 005a 1C4B     		lw	a5,16(a4)
 590 005c F59B     		andi	a5,a5,-3
 591 005e 1CCB     		sw	a5,16(a4)
 105:arch/riscv/mach-gd32vf10x/bsp/gd32vf103_fmc.c **** }
 592              		.loc 1 105 5 is_stmt 1
 593              	.L37:
 106:arch/riscv/mach-gd32vf10x/bsp/gd32vf103_fmc.c **** 
GAS LISTING C:\Users\test\AppData\Local\Temp\cc0O9IID.s 			page 23


 594              		.loc 1 106 1 is_stmt 0
 595 0060 B240     		lw	ra,12(sp)
 596              		.cfi_remember_state
 597              		.cfi_restore 1
 598 0062 2244     		lw	s0,8(sp)
 599              		.cfi_restore 8
 600 0064 9244     		lw	s1,4(sp)
 601              		.cfi_restore 9
 602 0066 0249     		lw	s2,0(sp)
 603              		.cfi_restore 18
 604              	.LVL33:
 605 0068 4101     		addi	sp,sp,16
 606              	.LCFI1:
 607              		.cfi_def_cfa_offset 0
 608 006a 8280     		jr	ra
 609              	.LVL34:
 610              	.L47:
 611              	.LCFI2:
 612              		.cfi_restore_state
 613 006c B240     		lw	ra,12(sp)
 614              		.cfi_remember_state
 615              		.cfi_restore 1
 616 006e 2244     		lw	s0,8(sp)
 617              		.cfi_restore 8
 618              	.LVL35:
 619 0070 9244     		lw	s1,4(sp)
 620              		.cfi_restore 9
 621 0072 0249     		lw	s2,0(sp)
 622              		.cfi_restore 18
 623              	.LVL36:
 624              	.LBB66:
 625              	.LBB59:
 645:arch/riscv/mach-gd32vf10x/bsp/gd32vf103_fmc.c ****     }
 626              		.loc 1 645 19
 627 0074 1145     		li	a0,4
 628              	.LVL37:
 629              	.LBE59:
 630              	.LBE66:
 106:arch/riscv/mach-gd32vf10x/bsp/gd32vf103_fmc.c **** 
 631              		.loc 1 106 1
 632 0076 4101     		addi	sp,sp,16
 633              	.LCFI3:
 634              		.cfi_def_cfa_offset 0
 635 0078 8280     		jr	ra
 636              	.LVL38:
 637              	.L49:
 638              	.LCFI4:
 639              		.cfi_restore_state
 102:arch/riscv/mach-gd32vf10x/bsp/gd32vf103_fmc.c ****     }
 640              		.loc 1 102 18
 641 007a 37270240 		li	a4,1073881088
 642 007e 1C4B     		lw	a5,16(a4)
 643              	.LBB67:
 644              	.LBB64:
 645:arch/riscv/mach-gd32vf10x/bsp/gd32vf103_fmc.c ****     }
 645              		.loc 1 645 19
 646 0080 1145     		li	a0,4
GAS LISTING C:\Users\test\AppData\Local\Temp\cc0O9IID.s 			page 24


 647              	.LVL39:
 648              		.loc 1 648 5 is_stmt 1
 649              	.LBE64:
 650              	.LBE67:
 102:arch/riscv/mach-gd32vf10x/bsp/gd32vf103_fmc.c ****     }
 651              		.loc 1 102 9
 102:arch/riscv/mach-gd32vf10x/bsp/gd32vf103_fmc.c ****     }
 652              		.loc 1 102 18 is_stmt 0
 653 0082 F59B     		andi	a5,a5,-3
 654 0084 1CCB     		sw	a5,16(a4)
 105:arch/riscv/mach-gd32vf10x/bsp/gd32vf103_fmc.c **** }
 655              		.loc 1 105 5 is_stmt 1
 656 0086 E9BF     		j	.L37
 657              		.cfi_endproc
 658              	.LFE5:
 660              		.section	.text.fmc_mass_erase,"ax",@progbits
 661              		.align	1
 662              		.globl	fmc_mass_erase
 664              	fmc_mass_erase:
 665              	.LFB6:
 115:arch/riscv/mach-gd32vf10x/bsp/gd32vf103_fmc.c ****     fmc_state_enum fmc_state;
 666              		.loc 1 115 1
 667              		.cfi_startproc
 116:arch/riscv/mach-gd32vf10x/bsp/gd32vf103_fmc.c ****         fmc_state = fmc_ready_wait(FMC_TIMEOUT_COUNT);
 668              		.loc 1 116 5
 117:arch/riscv/mach-gd32vf10x/bsp/gd32vf103_fmc.c **** 
 669              		.loc 1 117 9
 670              	.LVL40:
 671              	.LBB68:
 672              	.LBB69:
 635:arch/riscv/mach-gd32vf10x/bsp/gd32vf103_fmc.c **** 
 673              		.loc 1 635 5
 674              	.LBE69:
 675              	.LBE68:
 115:arch/riscv/mach-gd32vf10x/bsp/gd32vf103_fmc.c ****     fmc_state_enum fmc_state;
 676              		.loc 1 115 1 is_stmt 0
 677 0000 4111     		addi	sp,sp,-16
 678              	.LCFI5:
 679              		.cfi_def_cfa_offset 16
 680 0002 22C4     		sw	s0,8(sp)
 681 0004 26C2     		sw	s1,4(sp)
 682 0006 06C6     		sw	ra,12(sp)
 683              		.cfi_offset 8, -8
 684              		.cfi_offset 9, -12
 685              		.cfi_offset 1, -4
 115:arch/riscv/mach-gd32vf10x/bsp/gd32vf103_fmc.c ****     fmc_state_enum fmc_state;
 686              		.loc 1 115 1
 687 0008 37040F00 		li	s0,983040
 688              	.LBB72:
 689              	.LBB70:
 642:arch/riscv/mach-gd32vf10x/bsp/gd32vf103_fmc.c **** 
 690              		.loc 1 642 5
 691 000c 8544     		li	s1,1
 692 000e 11A0     		j	.L53
 693              	.LVL41:
 694              	.L62:
 642:arch/riscv/mach-gd32vf10x/bsp/gd32vf103_fmc.c **** 
GAS LISTING C:\Users\test\AppData\Local\Temp\cc0O9IID.s 			page 25


 695              		.loc 1 642 36
 696 0010 29C8     		beq	s0,zero,.L61
 697              	.LVL42:
 698              	.L53:
 638:arch/riscv/mach-gd32vf10x/bsp/gd32vf103_fmc.c ****         /* get FMC state */
 699              		.loc 1 638 5 is_stmt 1
 640:arch/riscv/mach-gd32vf10x/bsp/gd32vf103_fmc.c ****         timeout--;
 700              		.loc 1 640 9
 640:arch/riscv/mach-gd32vf10x/bsp/gd32vf103_fmc.c ****         timeout--;
 701              		.loc 1 640 21 is_stmt 0
 702 0012 97000000 		call	fmc_state_get
 702      E7800000 
 703              	.LVL43:
 641:arch/riscv/mach-gd32vf10x/bsp/gd32vf103_fmc.c ****     }while((FMC_BUSY == fmc_state) && (0x00U != timeout));
 704              		.loc 1 641 9 is_stmt 1
 705 001a 7D14     		addi	s0,s0,-1
 706              	.LVL44:
 642:arch/riscv/mach-gd32vf10x/bsp/gd32vf103_fmc.c **** 
 707              		.loc 1 642 5 is_stmt 0
 708 001c E30A95FE 		beq	a0,s1,.L62
 644:arch/riscv/mach-gd32vf10x/bsp/gd32vf103_fmc.c ****         fmc_state = FMC_TOERR;
 709              		.loc 1 644 5 is_stmt 1
 710              		.loc 1 648 5
 711              	.LVL45:
 712              	.LBE70:
 713              	.LBE72:
 119:arch/riscv/mach-gd32vf10x/bsp/gd32vf103_fmc.c ****             /* start whole chip erase */
 714              		.loc 1 119 9
 119:arch/riscv/mach-gd32vf10x/bsp/gd32vf103_fmc.c ****             /* start whole chip erase */
 715              		.loc 1 119 11 is_stmt 0
 716 0020 05ED     		bne	a0,zero,.L51
 121:arch/riscv/mach-gd32vf10x/bsp/gd32vf103_fmc.c ****             FMC_CTL0 |= FMC_CTL0_START;
 717              		.loc 1 121 13 is_stmt 1
 121:arch/riscv/mach-gd32vf10x/bsp/gd32vf103_fmc.c ****             FMC_CTL0 |= FMC_CTL0_START;
 718              		.loc 1 121 22 is_stmt 0
 719 0022 B7270240 		li	a5,1073881088
 720 0026 984B     		lw	a4,16(a5)
 122:arch/riscv/mach-gd32vf10x/bsp/gd32vf103_fmc.c ****             /* wait for the FMC ready */
 721              		.loc 1 122 22
 722 0028 37040F00 		li	s0,983040
 723              	.LBB73:
 724              	.LBB74:
 642:arch/riscv/mach-gd32vf10x/bsp/gd32vf103_fmc.c **** 
 725              		.loc 1 642 5
 726 002c 8544     		li	s1,1
 727              	.LBE74:
 728              	.LBE73:
 121:arch/riscv/mach-gd32vf10x/bsp/gd32vf103_fmc.c ****             FMC_CTL0 |= FMC_CTL0_START;
 729              		.loc 1 121 22
 730 002e 13674700 		ori	a4,a4,4
 731 0032 98CB     		sw	a4,16(a5)
 122:arch/riscv/mach-gd32vf10x/bsp/gd32vf103_fmc.c ****             /* wait for the FMC ready */
 732              		.loc 1 122 13 is_stmt 1
 122:arch/riscv/mach-gd32vf10x/bsp/gd32vf103_fmc.c ****             /* wait for the FMC ready */
 733              		.loc 1 122 22 is_stmt 0
 734 0034 984B     		lw	a4,16(a5)
 735 0036 13670704 		ori	a4,a4,64
GAS LISTING C:\Users\test\AppData\Local\Temp\cc0O9IID.s 			page 26


 736 003a 98CB     		sw	a4,16(a5)
 124:arch/riscv/mach-gd32vf10x/bsp/gd32vf103_fmc.c ****             /* reset the MER bit */
 737              		.loc 1 124 13 is_stmt 1
 738              	.LVL46:
 739              	.LBB77:
 740              	.LBB75:
 635:arch/riscv/mach-gd32vf10x/bsp/gd32vf103_fmc.c **** 
 741              		.loc 1 635 5
 742 003c 11A0     		j	.L56
 743              	.LVL47:
 744              	.L64:
 642:arch/riscv/mach-gd32vf10x/bsp/gd32vf103_fmc.c **** 
 745              		.loc 1 642 36 is_stmt 0
 746 003e 05C8     		beq	s0,zero,.L63
 747              	.LVL48:
 748              	.L56:
 638:arch/riscv/mach-gd32vf10x/bsp/gd32vf103_fmc.c ****         /* get FMC state */
 749              		.loc 1 638 5 is_stmt 1
 640:arch/riscv/mach-gd32vf10x/bsp/gd32vf103_fmc.c ****         timeout--;
 750              		.loc 1 640 9
 640:arch/riscv/mach-gd32vf10x/bsp/gd32vf103_fmc.c ****         timeout--;
 751              		.loc 1 640 21 is_stmt 0
 752 0040 97000000 		call	fmc_state_get
 752      E7800000 
 753              	.LVL49:
 641:arch/riscv/mach-gd32vf10x/bsp/gd32vf103_fmc.c ****     }while((FMC_BUSY == fmc_state) && (0x00U != timeout));
 754              		.loc 1 641 9 is_stmt 1
 755 0048 7D14     		addi	s0,s0,-1
 756              	.LVL50:
 642:arch/riscv/mach-gd32vf10x/bsp/gd32vf103_fmc.c **** 
 757              		.loc 1 642 5 is_stmt 0
 758 004a E30A95FE 		beq	a0,s1,.L64
 759              		.loc 1 648 5 is_stmt 1
 760              	.LVL51:
 761              	.LBE75:
 762              	.LBE77:
 126:arch/riscv/mach-gd32vf10x/bsp/gd32vf103_fmc.c ****         }
 763              		.loc 1 126 13
 126:arch/riscv/mach-gd32vf10x/bsp/gd32vf103_fmc.c ****         }
 764              		.loc 1 126 22 is_stmt 0
 765 004e 37270240 		li	a4,1073881088
 766 0052 1C4B     		lw	a5,16(a4)
 767 0054 ED9B     		andi	a5,a5,-5
 768 0056 1CCB     		sw	a5,16(a4)
 129:arch/riscv/mach-gd32vf10x/bsp/gd32vf103_fmc.c **** }
 769              		.loc 1 129 5 is_stmt 1
 770              	.L51:
 130:arch/riscv/mach-gd32vf10x/bsp/gd32vf103_fmc.c **** 
 771              		.loc 1 130 1 is_stmt 0
 772 0058 B240     		lw	ra,12(sp)
 773              		.cfi_remember_state
 774              		.cfi_restore 1
 775 005a 2244     		lw	s0,8(sp)
 776              		.cfi_restore 8
 777 005c 9244     		lw	s1,4(sp)
 778              		.cfi_restore 9
 779 005e 4101     		addi	sp,sp,16
GAS LISTING C:\Users\test\AppData\Local\Temp\cc0O9IID.s 			page 27


 780              	.LCFI6:
 781              		.cfi_def_cfa_offset 0
 782 0060 8280     		jr	ra
 783              	.LVL52:
 784              	.L61:
 785              	.LCFI7:
 786              		.cfi_restore_state
 787 0062 B240     		lw	ra,12(sp)
 788              		.cfi_remember_state
 789              		.cfi_restore 1
 790 0064 2244     		lw	s0,8(sp)
 791              		.cfi_restore 8
 792              	.LVL53:
 793 0066 9244     		lw	s1,4(sp)
 794              		.cfi_restore 9
 795              	.LBB78:
 796              	.LBB71:
 645:arch/riscv/mach-gd32vf10x/bsp/gd32vf103_fmc.c ****     }
 797              		.loc 1 645 19
 798 0068 1145     		li	a0,4
 799              	.LVL54:
 800              	.LBE71:
 801              	.LBE78:
 130:arch/riscv/mach-gd32vf10x/bsp/gd32vf103_fmc.c **** 
 802              		.loc 1 130 1
 803 006a 4101     		addi	sp,sp,16
 804              	.LCFI8:
 805              		.cfi_def_cfa_offset 0
 806 006c 8280     		jr	ra
 807              	.LVL55:
 808              	.L63:
 809              	.LCFI9:
 810              		.cfi_restore_state
 126:arch/riscv/mach-gd32vf10x/bsp/gd32vf103_fmc.c ****         }
 811              		.loc 1 126 22
 812 006e 37270240 		li	a4,1073881088
 813 0072 1C4B     		lw	a5,16(a4)
 814              	.LBB79:
 815              	.LBB76:
 645:arch/riscv/mach-gd32vf10x/bsp/gd32vf103_fmc.c ****     }
 816              		.loc 1 645 19
 817 0074 1145     		li	a0,4
 818              	.LVL56:
 819              		.loc 1 648 5 is_stmt 1
 820              	.LBE76:
 821              	.LBE79:
 126:arch/riscv/mach-gd32vf10x/bsp/gd32vf103_fmc.c ****         }
 822              		.loc 1 126 13
 126:arch/riscv/mach-gd32vf10x/bsp/gd32vf103_fmc.c ****         }
 823              		.loc 1 126 22 is_stmt 0
 824 0076 ED9B     		andi	a5,a5,-5
 825 0078 1CCB     		sw	a5,16(a4)
 129:arch/riscv/mach-gd32vf10x/bsp/gd32vf103_fmc.c **** }
 826              		.loc 1 129 5 is_stmt 1
 827 007a F9BF     		j	.L51
 828              		.cfi_endproc
 829              	.LFE6:
GAS LISTING C:\Users\test\AppData\Local\Temp\cc0O9IID.s 			page 28


 831              		.section	.text.fmc_word_program,"ax",@progbits
 832              		.align	1
 833              		.globl	fmc_word_program
 835              	fmc_word_program:
 836              	.LFB7:
 140:arch/riscv/mach-gd32vf10x/bsp/gd32vf103_fmc.c ****     fmc_state_enum fmc_state = FMC_READY;
 837              		.loc 1 140 1
 838              		.cfi_startproc
 839              	.LVL57:
 141:arch/riscv/mach-gd32vf10x/bsp/gd32vf103_fmc.c ****     fmc_state = fmc_ready_wait(FMC_TIMEOUT_COUNT);
 840              		.loc 1 141 5
 142:arch/riscv/mach-gd32vf10x/bsp/gd32vf103_fmc.c **** 
 841              		.loc 1 142 5
 842              	.LBB80:
 843              	.LBB81:
 635:arch/riscv/mach-gd32vf10x/bsp/gd32vf103_fmc.c **** 
 844              		.loc 1 635 5
 845              	.LBE81:
 846              	.LBE80:
 140:arch/riscv/mach-gd32vf10x/bsp/gd32vf103_fmc.c ****     fmc_state_enum fmc_state = FMC_READY;
 847              		.loc 1 140 1 is_stmt 0
 848 0000 0111     		addi	sp,sp,-32
 849              	.LCFI10:
 850              		.cfi_def_cfa_offset 32
 851 0002 22CC     		sw	s0,24(sp)
 852 0004 26CA     		sw	s1,20(sp)
 853 0006 4AC8     		sw	s2,16(sp)
 854 0008 4EC6     		sw	s3,12(sp)
 855 000a 06CE     		sw	ra,28(sp)
 856              		.cfi_offset 8, -8
 857              		.cfi_offset 9, -12
 858              		.cfi_offset 18, -16
 859              		.cfi_offset 19, -20
 860              		.cfi_offset 1, -4
 140:arch/riscv/mach-gd32vf10x/bsp/gd32vf103_fmc.c ****     fmc_state_enum fmc_state = FMC_READY;
 861              		.loc 1 140 1
 862 000c 2A89     		mv	s2,a0
 863 000e AE89     		mv	s3,a1
 864 0010 37040F00 		li	s0,983040
 865              	.LBB84:
 866              	.LBB82:
 642:arch/riscv/mach-gd32vf10x/bsp/gd32vf103_fmc.c **** 
 867              		.loc 1 642 5
 868 0014 8544     		li	s1,1
 869 0016 11A0     		j	.L67
 870              	.LVL58:
 871              	.L76:
 642:arch/riscv/mach-gd32vf10x/bsp/gd32vf103_fmc.c **** 
 872              		.loc 1 642 36
 873 0018 29C8     		beq	s0,zero,.L75
 874              	.LVL59:
 875              	.L67:
 638:arch/riscv/mach-gd32vf10x/bsp/gd32vf103_fmc.c ****         /* get FMC state */
 876              		.loc 1 638 5 is_stmt 1
 640:arch/riscv/mach-gd32vf10x/bsp/gd32vf103_fmc.c ****         timeout--;
 877              		.loc 1 640 9
 640:arch/riscv/mach-gd32vf10x/bsp/gd32vf103_fmc.c ****         timeout--;
GAS LISTING C:\Users\test\AppData\Local\Temp\cc0O9IID.s 			page 29


 878              		.loc 1 640 21 is_stmt 0
 879 001a 97000000 		call	fmc_state_get
 879      E7800000 
 880              	.LVL60:
 641:arch/riscv/mach-gd32vf10x/bsp/gd32vf103_fmc.c ****     }while((FMC_BUSY == fmc_state) && (0x00U != timeout));
 881              		.loc 1 641 9 is_stmt 1
 882 0022 7D14     		addi	s0,s0,-1
 883              	.LVL61:
 642:arch/riscv/mach-gd32vf10x/bsp/gd32vf103_fmc.c **** 
 884              		.loc 1 642 5 is_stmt 0
 885 0024 E30A95FE 		beq	a0,s1,.L76
 644:arch/riscv/mach-gd32vf10x/bsp/gd32vf103_fmc.c ****         fmc_state = FMC_TOERR;
 886              		.loc 1 644 5 is_stmt 1
 887              		.loc 1 648 5
 888              	.LVL62:
 889              	.LBE82:
 890              	.LBE84:
 144:arch/riscv/mach-gd32vf10x/bsp/gd32vf103_fmc.c ****         /* set the PG bit to start program */
 891              		.loc 1 144 5
 144:arch/riscv/mach-gd32vf10x/bsp/gd32vf103_fmc.c ****         /* set the PG bit to start program */
 892              		.loc 1 144 7 is_stmt 0
 893 0028 15E9     		bne	a0,zero,.L65
 146:arch/riscv/mach-gd32vf10x/bsp/gd32vf103_fmc.c ****         REG32(address) = data;
 894              		.loc 1 146 9 is_stmt 1
 146:arch/riscv/mach-gd32vf10x/bsp/gd32vf103_fmc.c ****         REG32(address) = data;
 895              		.loc 1 146 18 is_stmt 0
 896 002a 37270240 		li	a4,1073881088
 897 002e 1C4B     		lw	a5,16(a4)
 147:arch/riscv/mach-gd32vf10x/bsp/gd32vf103_fmc.c ****         /* wait for the FMC ready */
 898              		.loc 1 147 24
 899 0030 37040F00 		li	s0,983040
 900              	.LBB85:
 901              	.LBB86:
 642:arch/riscv/mach-gd32vf10x/bsp/gd32vf103_fmc.c **** 
 902              		.loc 1 642 5
 903 0034 8544     		li	s1,1
 904              	.LBE86:
 905              	.LBE85:
 146:arch/riscv/mach-gd32vf10x/bsp/gd32vf103_fmc.c ****         REG32(address) = data;
 906              		.loc 1 146 18
 907 0036 93E71700 		ori	a5,a5,1
 908 003a 1CCB     		sw	a5,16(a4)
 147:arch/riscv/mach-gd32vf10x/bsp/gd32vf103_fmc.c ****         /* wait for the FMC ready */
 909              		.loc 1 147 9 is_stmt 1
 147:arch/riscv/mach-gd32vf10x/bsp/gd32vf103_fmc.c ****         /* wait for the FMC ready */
 910              		.loc 1 147 24 is_stmt 0
 911 003c 23203901 		sw	s3,0(s2)
 149:arch/riscv/mach-gd32vf10x/bsp/gd32vf103_fmc.c ****         /* reset the PG bit */
 912              		.loc 1 149 9 is_stmt 1
 913              	.LVL63:
 914              	.LBB89:
 915              	.LBB87:
 635:arch/riscv/mach-gd32vf10x/bsp/gd32vf103_fmc.c **** 
 916              		.loc 1 635 5
 917 0040 11A0     		j	.L70
 918              	.LVL64:
 919              	.L78:
GAS LISTING C:\Users\test\AppData\Local\Temp\cc0O9IID.s 			page 30


 642:arch/riscv/mach-gd32vf10x/bsp/gd32vf103_fmc.c **** 
 920              		.loc 1 642 36 is_stmt 0
 921 0042 05CC     		beq	s0,zero,.L77
 922              	.LVL65:
 923              	.L70:
 638:arch/riscv/mach-gd32vf10x/bsp/gd32vf103_fmc.c ****         /* get FMC state */
 924              		.loc 1 638 5 is_stmt 1
 640:arch/riscv/mach-gd32vf10x/bsp/gd32vf103_fmc.c ****         timeout--;
 925              		.loc 1 640 9
 640:arch/riscv/mach-gd32vf10x/bsp/gd32vf103_fmc.c ****         timeout--;
 926              		.loc 1 640 21 is_stmt 0
 927 0044 97000000 		call	fmc_state_get
 927      E7800000 
 928              	.LVL66:
 641:arch/riscv/mach-gd32vf10x/bsp/gd32vf103_fmc.c ****     }while((FMC_BUSY == fmc_state) && (0x00U != timeout));
 929              		.loc 1 641 9 is_stmt 1
 930 004c 7D14     		addi	s0,s0,-1
 931              	.LVL67:
 642:arch/riscv/mach-gd32vf10x/bsp/gd32vf103_fmc.c **** 
 932              		.loc 1 642 5 is_stmt 0
 933 004e E30A95FE 		beq	a0,s1,.L78
 934              		.loc 1 648 5 is_stmt 1
 935              	.LVL68:
 936              	.LBE87:
 937              	.LBE89:
 151:arch/riscv/mach-gd32vf10x/bsp/gd32vf103_fmc.c ****     }
 938              		.loc 1 151 9
 151:arch/riscv/mach-gd32vf10x/bsp/gd32vf103_fmc.c ****     }
 939              		.loc 1 151 18 is_stmt 0
 940 0052 37270240 		li	a4,1073881088
 941 0056 1C4B     		lw	a5,16(a4)
 942 0058 F99B     		andi	a5,a5,-2
 943 005a 1CCB     		sw	a5,16(a4)
 154:arch/riscv/mach-gd32vf10x/bsp/gd32vf103_fmc.c **** }
 944              		.loc 1 154 5 is_stmt 1
 945              	.L65:
 155:arch/riscv/mach-gd32vf10x/bsp/gd32vf103_fmc.c **** /*
 946              		.loc 1 155 1 is_stmt 0
 947 005c F240     		lw	ra,28(sp)
 948              		.cfi_remember_state
 949              		.cfi_restore 1
 950 005e 6244     		lw	s0,24(sp)
 951              		.cfi_restore 8
 952 0060 D244     		lw	s1,20(sp)
 953              		.cfi_restore 9
 954 0062 4249     		lw	s2,16(sp)
 955              		.cfi_restore 18
 956              	.LVL69:
 957 0064 B249     		lw	s3,12(sp)
 958              		.cfi_restore 19
 959              	.LVL70:
 960 0066 0561     		addi	sp,sp,32
 961              	.LCFI11:
 962              		.cfi_def_cfa_offset 0
 963 0068 8280     		jr	ra
 964              	.LVL71:
 965              	.L75:
GAS LISTING C:\Users\test\AppData\Local\Temp\cc0O9IID.s 			page 31


 966              	.LCFI12:
 967              		.cfi_restore_state
 968 006a F240     		lw	ra,28(sp)
 969              		.cfi_remember_state
 970              		.cfi_restore 1
 971 006c 6244     		lw	s0,24(sp)
 972              		.cfi_restore 8
 973              	.LVL72:
 974 006e D244     		lw	s1,20(sp)
 975              		.cfi_restore 9
 976 0070 4249     		lw	s2,16(sp)
 977              		.cfi_restore 18
 978              	.LVL73:
 979 0072 B249     		lw	s3,12(sp)
 980              		.cfi_restore 19
 981              	.LVL74:
 982              	.LBB90:
 983              	.LBB83:
 645:arch/riscv/mach-gd32vf10x/bsp/gd32vf103_fmc.c ****     }
 984              		.loc 1 645 19
 985 0074 1145     		li	a0,4
 986              	.LVL75:
 987              	.LBE83:
 988              	.LBE90:
 155:arch/riscv/mach-gd32vf10x/bsp/gd32vf103_fmc.c **** /*
 989              		.loc 1 155 1
 990 0076 0561     		addi	sp,sp,32
 991              	.LCFI13:
 992              		.cfi_def_cfa_offset 0
 993 0078 8280     		jr	ra
 994              	.LVL76:
 995              	.L77:
 996              	.LCFI14:
 997              		.cfi_restore_state
 151:arch/riscv/mach-gd32vf10x/bsp/gd32vf103_fmc.c ****     }
 998              		.loc 1 151 18
 999 007a 37270240 		li	a4,1073881088
 1000 007e 1C4B     		lw	a5,16(a4)
 1001              	.LBB91:
 1002              	.LBB88:
 645:arch/riscv/mach-gd32vf10x/bsp/gd32vf103_fmc.c ****     }
 1003              		.loc 1 645 19
 1004 0080 1145     		li	a0,4
 1005              	.LVL77:
 1006              		.loc 1 648 5 is_stmt 1
 1007              	.LBE88:
 1008              	.LBE91:
 151:arch/riscv/mach-gd32vf10x/bsp/gd32vf103_fmc.c ****     }
 1009              		.loc 1 151 9
 151:arch/riscv/mach-gd32vf10x/bsp/gd32vf103_fmc.c ****     }
 1010              		.loc 1 151 18 is_stmt 0
 1011 0082 F99B     		andi	a5,a5,-2
 1012 0084 1CCB     		sw	a5,16(a4)
 154:arch/riscv/mach-gd32vf10x/bsp/gd32vf103_fmc.c **** }
 1013              		.loc 1 154 5 is_stmt 1
 1014 0086 D9BF     		j	.L65
 1015              		.cfi_endproc
GAS LISTING C:\Users\test\AppData\Local\Temp\cc0O9IID.s 			page 32


 1016              	.LFE7:
 1018              		.section	.text.fmc_halfword_program,"ax",@progbits
 1019              		.align	1
 1020              		.globl	fmc_halfword_program
 1022              	fmc_halfword_program:
 1023              	.LFB8:
 164:arch/riscv/mach-gd32vf10x/bsp/gd32vf103_fmc.c ****     fmc_state_enum fmc_state = FMC_READY;
 1024              		.loc 1 164 1
 1025              		.cfi_startproc
 1026              	.LVL78:
 165:arch/riscv/mach-gd32vf10x/bsp/gd32vf103_fmc.c ****     fmc_state = fmc_ready_wait(FMC_TIMEOUT_COUNT);
 1027              		.loc 1 165 5
 166:arch/riscv/mach-gd32vf10x/bsp/gd32vf103_fmc.c **** 
 1028              		.loc 1 166 5
 1029              	.LBB92:
 1030              	.LBB93:
 635:arch/riscv/mach-gd32vf10x/bsp/gd32vf103_fmc.c **** 
 1031              		.loc 1 635 5
 1032              	.LBE93:
 1033              	.LBE92:
 164:arch/riscv/mach-gd32vf10x/bsp/gd32vf103_fmc.c ****     fmc_state_enum fmc_state = FMC_READY;
 1034              		.loc 1 164 1 is_stmt 0
 1035 0000 0111     		addi	sp,sp,-32
 1036              	.LCFI15:
 1037              		.cfi_def_cfa_offset 32
 1038 0002 22CC     		sw	s0,24(sp)
 1039 0004 26CA     		sw	s1,20(sp)
 1040 0006 4AC8     		sw	s2,16(sp)
 1041 0008 4EC6     		sw	s3,12(sp)
 1042 000a 06CE     		sw	ra,28(sp)
 1043              		.cfi_offset 8, -8
 1044              		.cfi_offset 9, -12
 1045              		.cfi_offset 18, -16
 1046              		.cfi_offset 19, -20
 1047              		.cfi_offset 1, -4
 164:arch/riscv/mach-gd32vf10x/bsp/gd32vf103_fmc.c ****     fmc_state_enum fmc_state = FMC_READY;
 1048              		.loc 1 164 1
 1049 000c 2A89     		mv	s2,a0
 1050 000e AE89     		mv	s3,a1
 1051 0010 37040F00 		li	s0,983040
 1052              	.LBB96:
 1053              	.LBB94:
 642:arch/riscv/mach-gd32vf10x/bsp/gd32vf103_fmc.c **** 
 1054              		.loc 1 642 5
 1055 0014 8544     		li	s1,1
 1056 0016 11A0     		j	.L81
 1057              	.LVL79:
 1058              	.L90:
 642:arch/riscv/mach-gd32vf10x/bsp/gd32vf103_fmc.c **** 
 1059              		.loc 1 642 36
 1060 0018 29C8     		beq	s0,zero,.L89
 1061              	.LVL80:
 1062              	.L81:
 638:arch/riscv/mach-gd32vf10x/bsp/gd32vf103_fmc.c ****         /* get FMC state */
 1063              		.loc 1 638 5 is_stmt 1
 640:arch/riscv/mach-gd32vf10x/bsp/gd32vf103_fmc.c ****         timeout--;
 1064              		.loc 1 640 9
GAS LISTING C:\Users\test\AppData\Local\Temp\cc0O9IID.s 			page 33


 640:arch/riscv/mach-gd32vf10x/bsp/gd32vf103_fmc.c ****         timeout--;
 1065              		.loc 1 640 21 is_stmt 0
 1066 001a 97000000 		call	fmc_state_get
 1066      E7800000 
 1067              	.LVL81:
 641:arch/riscv/mach-gd32vf10x/bsp/gd32vf103_fmc.c ****     }while((FMC_BUSY == fmc_state) && (0x00U != timeout));
 1068              		.loc 1 641 9 is_stmt 1
 1069 0022 7D14     		addi	s0,s0,-1
 1070              	.LVL82:
 642:arch/riscv/mach-gd32vf10x/bsp/gd32vf103_fmc.c **** 
 1071              		.loc 1 642 5 is_stmt 0
 1072 0024 E30A95FE 		beq	a0,s1,.L90
 644:arch/riscv/mach-gd32vf10x/bsp/gd32vf103_fmc.c ****         fmc_state = FMC_TOERR;
 1073              		.loc 1 644 5 is_stmt 1
 1074              		.loc 1 648 5
 1075              	.LVL83:
 1076              	.LBE94:
 1077              	.LBE96:
 168:arch/riscv/mach-gd32vf10x/bsp/gd32vf103_fmc.c ****         /* set the PG bit to start program */
 1078              		.loc 1 168 5
 168:arch/riscv/mach-gd32vf10x/bsp/gd32vf103_fmc.c ****         /* set the PG bit to start program */
 1079              		.loc 1 168 7 is_stmt 0
 1080 0028 15E9     		bne	a0,zero,.L79
 170:arch/riscv/mach-gd32vf10x/bsp/gd32vf103_fmc.c ****         REG16(address) = data;
 1081              		.loc 1 170 9 is_stmt 1
 170:arch/riscv/mach-gd32vf10x/bsp/gd32vf103_fmc.c ****         REG16(address) = data;
 1082              		.loc 1 170 18 is_stmt 0
 1083 002a 37270240 		li	a4,1073881088
 1084 002e 1C4B     		lw	a5,16(a4)
 171:arch/riscv/mach-gd32vf10x/bsp/gd32vf103_fmc.c ****         /* wait for the FMC ready */
 1085              		.loc 1 171 24
 1086 0030 37040F00 		li	s0,983040
 1087              	.LBB97:
 1088              	.LBB98:
 642:arch/riscv/mach-gd32vf10x/bsp/gd32vf103_fmc.c **** 
 1089              		.loc 1 642 5
 1090 0034 8544     		li	s1,1
 1091              	.LBE98:
 1092              	.LBE97:
 170:arch/riscv/mach-gd32vf10x/bsp/gd32vf103_fmc.c ****         REG16(address) = data;
 1093              		.loc 1 170 18
 1094 0036 93E71700 		ori	a5,a5,1
 1095 003a 1CCB     		sw	a5,16(a4)
 171:arch/riscv/mach-gd32vf10x/bsp/gd32vf103_fmc.c ****         /* wait for the FMC ready */
 1096              		.loc 1 171 9 is_stmt 1
 171:arch/riscv/mach-gd32vf10x/bsp/gd32vf103_fmc.c ****         /* wait for the FMC ready */
 1097              		.loc 1 171 24 is_stmt 0
 1098 003c 23103901 		sh	s3,0(s2)
 173:arch/riscv/mach-gd32vf10x/bsp/gd32vf103_fmc.c ****         /* reset the PG bit */
 1099              		.loc 1 173 9 is_stmt 1
 1100              	.LVL84:
 1101              	.LBB101:
 1102              	.LBB99:
 635:arch/riscv/mach-gd32vf10x/bsp/gd32vf103_fmc.c **** 
 1103              		.loc 1 635 5
 1104 0040 11A0     		j	.L84
 1105              	.LVL85:
GAS LISTING C:\Users\test\AppData\Local\Temp\cc0O9IID.s 			page 34


 1106              	.L92:
 642:arch/riscv/mach-gd32vf10x/bsp/gd32vf103_fmc.c **** 
 1107              		.loc 1 642 36 is_stmt 0
 1108 0042 05CC     		beq	s0,zero,.L91
 1109              	.LVL86:
 1110              	.L84:
 638:arch/riscv/mach-gd32vf10x/bsp/gd32vf103_fmc.c ****         /* get FMC state */
 1111              		.loc 1 638 5 is_stmt 1
 640:arch/riscv/mach-gd32vf10x/bsp/gd32vf103_fmc.c ****         timeout--;
 1112              		.loc 1 640 9
 640:arch/riscv/mach-gd32vf10x/bsp/gd32vf103_fmc.c ****         timeout--;
 1113              		.loc 1 640 21 is_stmt 0
 1114 0044 97000000 		call	fmc_state_get
 1114      E7800000 
 1115              	.LVL87:
 641:arch/riscv/mach-gd32vf10x/bsp/gd32vf103_fmc.c ****     }while((FMC_BUSY == fmc_state) && (0x00U != timeout));
 1116              		.loc 1 641 9 is_stmt 1
 1117 004c 7D14     		addi	s0,s0,-1
 1118              	.LVL88:
 642:arch/riscv/mach-gd32vf10x/bsp/gd32vf103_fmc.c **** 
 1119              		.loc 1 642 5 is_stmt 0
 1120 004e E30A95FE 		beq	a0,s1,.L92
 1121              		.loc 1 648 5 is_stmt 1
 1122              	.LVL89:
 1123              	.LBE99:
 1124              	.LBE101:
 175:arch/riscv/mach-gd32vf10x/bsp/gd32vf103_fmc.c ****     }
 1125              		.loc 1 175 9
 175:arch/riscv/mach-gd32vf10x/bsp/gd32vf103_fmc.c ****     }
 1126              		.loc 1 175 18 is_stmt 0
 1127 0052 37270240 		li	a4,1073881088
 1128 0056 1C4B     		lw	a5,16(a4)
 1129 0058 F99B     		andi	a5,a5,-2
 1130 005a 1CCB     		sw	a5,16(a4)
 178:arch/riscv/mach-gd32vf10x/bsp/gd32vf103_fmc.c **** }
 1131              		.loc 1 178 5 is_stmt 1
 1132              	.L79:
 179:arch/riscv/mach-gd32vf10x/bsp/gd32vf103_fmc.c **** 
 1133              		.loc 1 179 1 is_stmt 0
 1134 005c F240     		lw	ra,28(sp)
 1135              		.cfi_remember_state
 1136              		.cfi_restore 1
 1137 005e 6244     		lw	s0,24(sp)
 1138              		.cfi_restore 8
 1139 0060 D244     		lw	s1,20(sp)
 1140              		.cfi_restore 9
 1141 0062 4249     		lw	s2,16(sp)
 1142              		.cfi_restore 18
 1143              	.LVL90:
 1144 0064 B249     		lw	s3,12(sp)
 1145              		.cfi_restore 19
 1146 0066 0561     		addi	sp,sp,32
 1147              	.LCFI16:
 1148              		.cfi_def_cfa_offset 0
 1149 0068 8280     		jr	ra
 1150              	.LVL91:
 1151              	.L89:
GAS LISTING C:\Users\test\AppData\Local\Temp\cc0O9IID.s 			page 35


 1152              	.LCFI17:
 1153              		.cfi_restore_state
 1154 006a F240     		lw	ra,28(sp)
 1155              		.cfi_remember_state
 1156              		.cfi_restore 1
 1157 006c 6244     		lw	s0,24(sp)
 1158              		.cfi_restore 8
 1159              	.LVL92:
 1160 006e D244     		lw	s1,20(sp)
 1161              		.cfi_restore 9
 1162 0070 4249     		lw	s2,16(sp)
 1163              		.cfi_restore 18
 1164              	.LVL93:
 1165 0072 B249     		lw	s3,12(sp)
 1166              		.cfi_restore 19
 1167              	.LBB102:
 1168              	.LBB95:
 645:arch/riscv/mach-gd32vf10x/bsp/gd32vf103_fmc.c ****     }
 1169              		.loc 1 645 19
 1170 0074 1145     		li	a0,4
 1171              	.LVL94:
 1172              	.LBE95:
 1173              	.LBE102:
 179:arch/riscv/mach-gd32vf10x/bsp/gd32vf103_fmc.c **** 
 1174              		.loc 1 179 1
 1175 0076 0561     		addi	sp,sp,32
 1176              	.LCFI18:
 1177              		.cfi_def_cfa_offset 0
 1178 0078 8280     		jr	ra
 1179              	.LVL95:
 1180              	.L91:
 1181              	.LCFI19:
 1182              		.cfi_restore_state
 175:arch/riscv/mach-gd32vf10x/bsp/gd32vf103_fmc.c ****     }
 1183              		.loc 1 175 18
 1184 007a 37270240 		li	a4,1073881088
 1185 007e 1C4B     		lw	a5,16(a4)
 1186              	.LBB103:
 1187              	.LBB100:
 645:arch/riscv/mach-gd32vf10x/bsp/gd32vf103_fmc.c ****     }
 1188              		.loc 1 645 19
 1189 0080 1145     		li	a0,4
 1190              	.LVL96:
 1191              		.loc 1 648 5 is_stmt 1
 1192              	.LBE100:
 1193              	.LBE103:
 175:arch/riscv/mach-gd32vf10x/bsp/gd32vf103_fmc.c ****     }
 1194              		.loc 1 175 9
 175:arch/riscv/mach-gd32vf10x/bsp/gd32vf103_fmc.c ****     }
 1195              		.loc 1 175 18 is_stmt 0
 1196 0082 F99B     		andi	a5,a5,-2
 1197 0084 1CCB     		sw	a5,16(a4)
 178:arch/riscv/mach-gd32vf10x/bsp/gd32vf103_fmc.c **** }
 1198              		.loc 1 178 5 is_stmt 1
 1199 0086 D9BF     		j	.L79
 1200              		.cfi_endproc
 1201              	.LFE8:
GAS LISTING C:\Users\test\AppData\Local\Temp\cc0O9IID.s 			page 36


 1203              		.section	.text.ob_erase,"ax",@progbits
 1204              		.align	1
 1205              		.globl	ob_erase
 1207              	ob_erase:
 1208              	.LFB11:
 220:arch/riscv/mach-gd32vf10x/bsp/gd32vf103_fmc.c ****     uint16_t temp_spc = FMC_NSPC;
 1209              		.loc 1 220 1
 1210              		.cfi_startproc
 221:arch/riscv/mach-gd32vf10x/bsp/gd32vf103_fmc.c **** 
 1211              		.loc 1 221 5
 1212              	.LVL97:
 223:arch/riscv/mach-gd32vf10x/bsp/gd32vf103_fmc.c **** 
 1213              		.loc 1 223 5
 1214              	.LBB104:
 1215              	.LBB105:
 635:arch/riscv/mach-gd32vf10x/bsp/gd32vf103_fmc.c **** 
 1216              		.loc 1 635 5
 1217              	.LBE105:
 1218              	.LBE104:
 220:arch/riscv/mach-gd32vf10x/bsp/gd32vf103_fmc.c ****     uint16_t temp_spc = FMC_NSPC;
 1219              		.loc 1 220 1 is_stmt 0
 1220 0000 4111     		addi	sp,sp,-16
 1221              	.LCFI20:
 1222              		.cfi_def_cfa_offset 16
 1223 0002 22C4     		sw	s0,8(sp)
 1224 0004 26C2     		sw	s1,4(sp)
 1225 0006 06C6     		sw	ra,12(sp)
 1226 0008 4AC0     		sw	s2,0(sp)
 1227              		.cfi_offset 8, -8
 1228              		.cfi_offset 9, -12
 1229              		.cfi_offset 1, -4
 1230              		.cfi_offset 18, -16
 220:arch/riscv/mach-gd32vf10x/bsp/gd32vf103_fmc.c ****     uint16_t temp_spc = FMC_NSPC;
 1231              		.loc 1 220 1
 1232 000a 37040F00 		li	s0,983040
 1233              	.LBB109:
 1234              	.LBB106:
 642:arch/riscv/mach-gd32vf10x/bsp/gd32vf103_fmc.c **** 
 1235              		.loc 1 642 5
 1236 000e 8544     		li	s1,1
 1237 0010 11A0     		j	.L95
 1238              	.LVL98:
 1239              	.L119:
 642:arch/riscv/mach-gd32vf10x/bsp/gd32vf103_fmc.c **** 
 1240              		.loc 1 642 36
 1241 0012 51CC     		beq	s0,zero,.L118
 1242              	.LVL99:
 1243              	.L95:
 638:arch/riscv/mach-gd32vf10x/bsp/gd32vf103_fmc.c ****         /* get FMC state */
 1244              		.loc 1 638 5 is_stmt 1
 640:arch/riscv/mach-gd32vf10x/bsp/gd32vf103_fmc.c ****         timeout--;
 1245              		.loc 1 640 9
 640:arch/riscv/mach-gd32vf10x/bsp/gd32vf103_fmc.c ****         timeout--;
 1246              		.loc 1 640 21 is_stmt 0
 1247 0014 97000000 		call	fmc_state_get
 1247      E7800000 
 1248              	.LVL100:
GAS LISTING C:\Users\test\AppData\Local\Temp\cc0O9IID.s 			page 37


 641:arch/riscv/mach-gd32vf10x/bsp/gd32vf103_fmc.c ****     }while((FMC_BUSY == fmc_state) && (0x00U != timeout));
 1249              		.loc 1 641 9 is_stmt 1
 1250 001c 7D14     		addi	s0,s0,-1
 1251              	.LVL101:
 642:arch/riscv/mach-gd32vf10x/bsp/gd32vf103_fmc.c **** 
 1252              		.loc 1 642 5 is_stmt 0
 1253 001e E30A95FE 		beq	a0,s1,.L119
 644:arch/riscv/mach-gd32vf10x/bsp/gd32vf103_fmc.c ****         fmc_state = FMC_TOERR;
 1254              		.loc 1 644 5 is_stmt 1
 1255              		.loc 1 648 5
 1256              	.LVL102:
 1257              	.LBE106:
 1258              	.LBE109:
 226:arch/riscv/mach-gd32vf10x/bsp/gd32vf103_fmc.c ****         temp_spc = FMC_USPC;
 1259              		.loc 1 226 5
 1260              	.LBB110:
 1261              	.LBB111:
 484:arch/riscv/mach-gd32vf10x/bsp/gd32vf103_fmc.c **** 
 1262              		.loc 1 484 5
 486:arch/riscv/mach-gd32vf10x/bsp/gd32vf103_fmc.c ****         spc_state = SET;
 1263              		.loc 1 486 5
 486:arch/riscv/mach-gd32vf10x/bsp/gd32vf103_fmc.c ****         spc_state = SET;
 1264              		.loc 1 486 18 is_stmt 0
 1265 0022 B7270240 		li	a5,1073881088
 1266 0026 C44F     		lw	s1,28(a5)
 1267              	.LBE111:
 1268              	.LBE110:
 221:arch/riscv/mach-gd32vf10x/bsp/gd32vf103_fmc.c **** 
 1269              		.loc 1 221 14
 1270 0028 FA04     		slli	s1,s1,30
 1271 002a FD84     		srai	s1,s1,31
 1272 002c D988     		andi	s1,s1,22
 1273 002e 9384540A 		addi	s1,s1,165
 1274              	.LVL103:
 230:arch/riscv/mach-gd32vf10x/bsp/gd32vf103_fmc.c **** 
 1275              		.loc 1 230 5 is_stmt 1
 230:arch/riscv/mach-gd32vf10x/bsp/gd32vf103_fmc.c **** 
 1276              		.loc 1 230 7 is_stmt 0
 1277 0032 25E9     		bne	a0,zero,.L93
 233:arch/riscv/mach-gd32vf10x/bsp/gd32vf103_fmc.c ****         FMC_CTL0 |= FMC_CTL0_START;
 1278              		.loc 1 233 9 is_stmt 1
 233:arch/riscv/mach-gd32vf10x/bsp/gd32vf103_fmc.c ****         FMC_CTL0 |= FMC_CTL0_START;
 1279              		.loc 1 233 18 is_stmt 0
 1280 0034 984B     		lw	a4,16(a5)
 234:arch/riscv/mach-gd32vf10x/bsp/gd32vf103_fmc.c **** 
 1281              		.loc 1 234 18
 1282 0036 37040F00 		li	s0,983040
 1283              	.LBB113:
 1284              	.LBB114:
 642:arch/riscv/mach-gd32vf10x/bsp/gd32vf103_fmc.c **** 
 1285              		.loc 1 642 5
 1286 003a 0549     		li	s2,1
 1287              	.LBE114:
 1288              	.LBE113:
 233:arch/riscv/mach-gd32vf10x/bsp/gd32vf103_fmc.c ****         FMC_CTL0 |= FMC_CTL0_START;
 1289              		.loc 1 233 18
 1290 003c 13670702 		ori	a4,a4,32
GAS LISTING C:\Users\test\AppData\Local\Temp\cc0O9IID.s 			page 38


 1291 0040 98CB     		sw	a4,16(a5)
 234:arch/riscv/mach-gd32vf10x/bsp/gd32vf103_fmc.c **** 
 1292              		.loc 1 234 9 is_stmt 1
 234:arch/riscv/mach-gd32vf10x/bsp/gd32vf103_fmc.c **** 
 1293              		.loc 1 234 18 is_stmt 0
 1294 0042 984B     		lw	a4,16(a5)
 1295 0044 13670704 		ori	a4,a4,64
 1296 0048 98CB     		sw	a4,16(a5)
 237:arch/riscv/mach-gd32vf10x/bsp/gd32vf103_fmc.c **** 
 1297              		.loc 1 237 9 is_stmt 1
 1298              	.LVL104:
 1299              	.LBB116:
 1300              	.LBB115:
 635:arch/riscv/mach-gd32vf10x/bsp/gd32vf103_fmc.c **** 
 1301              		.loc 1 635 5
 1302 004a 11A0     		j	.L99
 1303              	.LVL105:
 1304              	.L120:
 642:arch/riscv/mach-gd32vf10x/bsp/gd32vf103_fmc.c **** 
 1305              		.loc 1 642 36 is_stmt 0
 1306 004c 25C4     		beq	s0,zero,.L117
 1307              	.LVL106:
 1308              	.L99:
 638:arch/riscv/mach-gd32vf10x/bsp/gd32vf103_fmc.c ****         /* get FMC state */
 1309              		.loc 1 638 5 is_stmt 1
 640:arch/riscv/mach-gd32vf10x/bsp/gd32vf103_fmc.c ****         timeout--;
 1310              		.loc 1 640 9
 640:arch/riscv/mach-gd32vf10x/bsp/gd32vf103_fmc.c ****         timeout--;
 1311              		.loc 1 640 21 is_stmt 0
 1312 004e 97000000 		call	fmc_state_get
 1312      E7800000 
 1313              	.LVL107:
 641:arch/riscv/mach-gd32vf10x/bsp/gd32vf103_fmc.c ****     }while((FMC_BUSY == fmc_state) && (0x00U != timeout));
 1314              		.loc 1 641 9 is_stmt 1
 1315 0056 7D14     		addi	s0,s0,-1
 1316              	.LVL108:
 642:arch/riscv/mach-gd32vf10x/bsp/gd32vf103_fmc.c **** 
 1317              		.loc 1 642 5 is_stmt 0
 1318 0058 E30A25FF 		beq	a0,s2,.L120
 644:arch/riscv/mach-gd32vf10x/bsp/gd32vf103_fmc.c ****         fmc_state = FMC_TOERR;
 1319              		.loc 1 644 5 is_stmt 1
 1320              		.loc 1 648 5
 1321              	.LVL109:
 1322              	.LBE115:
 1323              	.LBE116:
 239:arch/riscv/mach-gd32vf10x/bsp/gd32vf103_fmc.c ****             /* reset the OBER bit */
 1324              		.loc 1 239 9
 239:arch/riscv/mach-gd32vf10x/bsp/gd32vf103_fmc.c ****             /* reset the OBER bit */
 1325              		.loc 1 239 11 is_stmt 0
 1326 005c 1DE9     		bne	a0,zero,.L113
 241:arch/riscv/mach-gd32vf10x/bsp/gd32vf103_fmc.c ****             /* set the OBPG bit */
 1327              		.loc 1 241 13 is_stmt 1
 241:arch/riscv/mach-gd32vf10x/bsp/gd32vf103_fmc.c ****             /* set the OBPG bit */
 1328              		.loc 1 241 22 is_stmt 0
 1329 005e B7270240 		li	a5,1073881088
 1330 0062 984B     		lw	a4,16(a5)
 245:arch/riscv/mach-gd32vf10x/bsp/gd32vf103_fmc.c ****             /* wait for the FMC ready */
GAS LISTING C:\Users\test\AppData\Local\Temp\cc0O9IID.s 			page 39


 1331              		.loc 1 245 20
 1332 0064 37040F00 		li	s0,983040
 1333              	.LBB117:
 1334              	.LBB118:
 642:arch/riscv/mach-gd32vf10x/bsp/gd32vf103_fmc.c **** 
 1335              		.loc 1 642 5
 1336 0068 0549     		li	s2,1
 1337              	.LBE118:
 1338              	.LBE117:
 241:arch/riscv/mach-gd32vf10x/bsp/gd32vf103_fmc.c ****             /* set the OBPG bit */
 1339              		.loc 1 241 22
 1340 006a 1377F7FD 		andi	a4,a4,-33
 1341 006e 98CB     		sw	a4,16(a5)
 243:arch/riscv/mach-gd32vf10x/bsp/gd32vf103_fmc.c ****             /* no security protection */
 1342              		.loc 1 243 13 is_stmt 1
 243:arch/riscv/mach-gd32vf10x/bsp/gd32vf103_fmc.c ****             /* no security protection */
 1343              		.loc 1 243 22 is_stmt 0
 1344 0070 984B     		lw	a4,16(a5)
 1345 0072 13670701 		ori	a4,a4,16
 1346 0076 98CB     		sw	a4,16(a5)
 245:arch/riscv/mach-gd32vf10x/bsp/gd32vf103_fmc.c ****             /* wait for the FMC ready */
 1347              		.loc 1 245 13 is_stmt 1
 245:arch/riscv/mach-gd32vf10x/bsp/gd32vf103_fmc.c ****             /* wait for the FMC ready */
 1348              		.loc 1 245 20 is_stmt 0
 1349 0078 B7070020 		li	a5,536870912
 1350 007c 23909780 		sh	s1,-2048(a5)
 247:arch/riscv/mach-gd32vf10x/bsp/gd32vf103_fmc.c ****             if (FMC_TOERR != fmc_state) {
 1351              		.loc 1 247 13 is_stmt 1
 1352              	.LVL110:
 1353              	.LBB120:
 1354              	.LBB119:
 635:arch/riscv/mach-gd32vf10x/bsp/gd32vf103_fmc.c **** 
 1355              		.loc 1 635 5
 1356 0080 11A0     		j	.L101
 1357              	.LVL111:
 1358              	.L121:
 642:arch/riscv/mach-gd32vf10x/bsp/gd32vf103_fmc.c **** 
 1359              		.loc 1 642 36 is_stmt 0
 1360 0082 0DC8     		beq	s0,zero,.L117
 1361              	.LVL112:
 1362              	.L101:
 638:arch/riscv/mach-gd32vf10x/bsp/gd32vf103_fmc.c ****         /* get FMC state */
 1363              		.loc 1 638 5 is_stmt 1
 640:arch/riscv/mach-gd32vf10x/bsp/gd32vf103_fmc.c ****         timeout--;
 1364              		.loc 1 640 9
 640:arch/riscv/mach-gd32vf10x/bsp/gd32vf103_fmc.c ****         timeout--;
 1365              		.loc 1 640 21 is_stmt 0
 1366 0084 97000000 		call	fmc_state_get
 1366      E7800000 
 1367              	.LVL113:
 641:arch/riscv/mach-gd32vf10x/bsp/gd32vf103_fmc.c ****     }while((FMC_BUSY == fmc_state) && (0x00U != timeout));
 1368              		.loc 1 641 9 is_stmt 1
 1369 008c 7D14     		addi	s0,s0,-1
 1370              	.LVL114:
 642:arch/riscv/mach-gd32vf10x/bsp/gd32vf103_fmc.c **** 
 1371              		.loc 1 642 5 is_stmt 0
 1372 008e E30A25FF 		beq	a0,s2,.L121
GAS LISTING C:\Users\test\AppData\Local\Temp\cc0O9IID.s 			page 40


 1373              	.LVL115:
 1374              	.L113:
 1375              	.LBE119:
 1376              	.LBE120:
 253:arch/riscv/mach-gd32vf10x/bsp/gd32vf103_fmc.c ****                 /* reset the OBPG bit */
 1377              		.loc 1 253 13 is_stmt 1
 253:arch/riscv/mach-gd32vf10x/bsp/gd32vf103_fmc.c ****                 /* reset the OBPG bit */
 1378              		.loc 1 253 15 is_stmt 0
 1379 0092 9147     		li	a5,4
 1380 0094 6307F500 		beq	a0,a5,.L93
 255:arch/riscv/mach-gd32vf10x/bsp/gd32vf103_fmc.c ****             }
 1381              		.loc 1 255 17 is_stmt 1
 255:arch/riscv/mach-gd32vf10x/bsp/gd32vf103_fmc.c ****             }
 1382              		.loc 1 255 26 is_stmt 0
 1383 0098 37270240 		li	a4,1073881088
 1384 009c 1C4B     		lw	a5,16(a4)
 1385 009e BD9B     		andi	a5,a5,-17
 1386 00a0 1CCB     		sw	a5,16(a4)
 1387              	.LVL116:
 260:arch/riscv/mach-gd32vf10x/bsp/gd32vf103_fmc.c **** }
 1388              		.loc 1 260 5 is_stmt 1
 1389              	.L93:
 261:arch/riscv/mach-gd32vf10x/bsp/gd32vf103_fmc.c **** 
 1390              		.loc 1 261 1 is_stmt 0
 1391 00a2 B240     		lw	ra,12(sp)
 1392              		.cfi_remember_state
 1393              		.cfi_restore 1
 1394 00a4 2244     		lw	s0,8(sp)
 1395              		.cfi_restore 8
 1396 00a6 9244     		lw	s1,4(sp)
 1397              		.cfi_restore 9
 1398              	.LVL117:
 1399 00a8 0249     		lw	s2,0(sp)
 1400              		.cfi_restore 18
 1401 00aa 4101     		addi	sp,sp,16
 1402              	.LCFI21:
 1403              		.cfi_def_cfa_offset 0
 1404 00ac 8280     		jr	ra
 1405              	.LVL118:
 1406              	.L118:
 1407              	.LCFI22:
 1408              		.cfi_restore_state
 1409              	.LBB121:
 1410              	.LBB107:
 644:arch/riscv/mach-gd32vf10x/bsp/gd32vf103_fmc.c ****         fmc_state = FMC_TOERR;
 1411              		.loc 1 644 5 is_stmt 1
 645:arch/riscv/mach-gd32vf10x/bsp/gd32vf103_fmc.c ****     }
 1412              		.loc 1 645 9
 1413              		.loc 1 648 5
 1414              	.LBE107:
 1415              	.LBE121:
 226:arch/riscv/mach-gd32vf10x/bsp/gd32vf103_fmc.c ****         temp_spc = FMC_USPC;
 1416              		.loc 1 226 5
 1417              	.LBB122:
 1418              	.LBB112:
 484:arch/riscv/mach-gd32vf10x/bsp/gd32vf103_fmc.c **** 
 1419              		.loc 1 484 5
GAS LISTING C:\Users\test\AppData\Local\Temp\cc0O9IID.s 			page 41


 486:arch/riscv/mach-gd32vf10x/bsp/gd32vf103_fmc.c ****         spc_state = SET;
 1420              		.loc 1 486 5
 486:arch/riscv/mach-gd32vf10x/bsp/gd32vf103_fmc.c ****         spc_state = SET;
 1421              		.loc 1 486 18 is_stmt 0
 1422 00ae B7270240 		li	a5,1073881088
 1423 00b2 DC4F     		lw	a5,28(a5)
 1424              	.LVL119:
 1425              	.L117:
 1426              	.LBE112:
 1427              	.LBE122:
 261:arch/riscv/mach-gd32vf10x/bsp/gd32vf103_fmc.c **** 
 1428              		.loc 1 261 1
 1429 00b4 B240     		lw	ra,12(sp)
 1430              		.cfi_restore 1
 1431 00b6 2244     		lw	s0,8(sp)
 1432              		.cfi_restore 8
 1433 00b8 9244     		lw	s1,4(sp)
 1434              		.cfi_restore 9
 1435 00ba 0249     		lw	s2,0(sp)
 1436              		.cfi_restore 18
 1437              	.LBB123:
 1438              	.LBB108:
 645:arch/riscv/mach-gd32vf10x/bsp/gd32vf103_fmc.c ****     }
 1439              		.loc 1 645 19
 1440 00bc 1145     		li	a0,4
 1441              	.LBE108:
 1442              	.LBE123:
 261:arch/riscv/mach-gd32vf10x/bsp/gd32vf103_fmc.c **** 
 1443              		.loc 1 261 1
 1444 00be 4101     		addi	sp,sp,16
 1445              	.LCFI23:
 1446              		.cfi_def_cfa_offset 0
 1447 00c0 8280     		jr	ra
 1448              		.cfi_endproc
 1449              	.LFE11:
 1451              		.section	.text.ob_write_protection_enable,"ax",@progbits
 1452              		.align	1
 1453              		.globl	ob_write_protection_enable
 1455              	ob_write_protection_enable:
 1456              	.LFB12:
 275:arch/riscv/mach-gd32vf10x/bsp/gd32vf103_fmc.c ****     uint16_t temp_wp0, temp_wp1, temp_wp2, temp_wp3;
 1457              		.loc 1 275 1 is_stmt 1
 1458              		.cfi_startproc
 1459              	.LVL120:
 276:arch/riscv/mach-gd32vf10x/bsp/gd32vf103_fmc.c **** 
 1460              		.loc 1 276 5
 278:arch/riscv/mach-gd32vf10x/bsp/gd32vf103_fmc.c **** 
 1461              		.loc 1 278 5
 1462              	.LBB124:
 1463              	.LBB125:
 635:arch/riscv/mach-gd32vf10x/bsp/gd32vf103_fmc.c **** 
 1464              		.loc 1 635 5
 1465              	.LBE125:
 1466              	.LBE124:
 275:arch/riscv/mach-gd32vf10x/bsp/gd32vf103_fmc.c ****     uint16_t temp_wp0, temp_wp1, temp_wp2, temp_wp3;
 1467              		.loc 1 275 1 is_stmt 0
 1468 0000 0111     		addi	sp,sp,-32
GAS LISTING C:\Users\test\AppData\Local\Temp\cc0O9IID.s 			page 42


 1469              	.LCFI24:
 1470              		.cfi_def_cfa_offset 32
 1471 0002 22CC     		sw	s0,24(sp)
 1472 0004 4AC8     		sw	s2,16(sp)
 1473 0006 4EC6     		sw	s3,12(sp)
 1474 0008 06CE     		sw	ra,28(sp)
 1475 000a 26CA     		sw	s1,20(sp)
 1476              		.cfi_offset 8, -8
 1477              		.cfi_offset 18, -16
 1478              		.cfi_offset 19, -20
 1479              		.cfi_offset 1, -4
 1480              		.cfi_offset 9, -12
 275:arch/riscv/mach-gd32vf10x/bsp/gd32vf103_fmc.c ****     uint16_t temp_wp0, temp_wp1, temp_wp2, temp_wp3;
 1481              		.loc 1 275 1
 1482 000c AA89     		mv	s3,a0
 1483 000e 37040F00 		li	s0,983040
 1484              	.LBB128:
 1485              	.LBB126:
 642:arch/riscv/mach-gd32vf10x/bsp/gd32vf103_fmc.c **** 
 1486              		.loc 1 642 5
 1487 0012 0549     		li	s2,1
 1488 0014 11A0     		j	.L124
 1489              	.LVL121:
 1490              	.L157:
 642:arch/riscv/mach-gd32vf10x/bsp/gd32vf103_fmc.c **** 
 1491              		.loc 1 642 36
 1492 0016 35C8     		beq	s0,zero,.L129
 1493              	.LVL122:
 1494              	.L124:
 638:arch/riscv/mach-gd32vf10x/bsp/gd32vf103_fmc.c ****         /* get FMC state */
 1495              		.loc 1 638 5 is_stmt 1
 640:arch/riscv/mach-gd32vf10x/bsp/gd32vf103_fmc.c ****         timeout--;
 1496              		.loc 1 640 9
 640:arch/riscv/mach-gd32vf10x/bsp/gd32vf103_fmc.c ****         timeout--;
 1497              		.loc 1 640 21 is_stmt 0
 1498 0018 97000000 		call	fmc_state_get
 1498      E7800000 
 1499              	.LVL123:
 1500 0020 AA84     		mv	s1,a0
 1501              	.LVL124:
 641:arch/riscv/mach-gd32vf10x/bsp/gd32vf103_fmc.c ****     }while((FMC_BUSY == fmc_state) && (0x00U != timeout));
 1502              		.loc 1 641 9 is_stmt 1
 1503 0022 7D14     		addi	s0,s0,-1
 1504              	.LVL125:
 642:arch/riscv/mach-gd32vf10x/bsp/gd32vf103_fmc.c **** 
 1505              		.loc 1 642 5 is_stmt 0
 1506 0024 E30925FF 		beq	a0,s2,.L157
 644:arch/riscv/mach-gd32vf10x/bsp/gd32vf103_fmc.c ****         fmc_state = FMC_TOERR;
 1507              		.loc 1 644 5 is_stmt 1
 1508              		.loc 1 648 5
 1509              	.LVL126:
 1510              	.LBE126:
 1511              	.LBE128:
 280:arch/riscv/mach-gd32vf10x/bsp/gd32vf103_fmc.c ****     temp_wp0 = (uint16_t) (ob_wp & OB_WP0_WP0);
 1512              		.loc 1 280 5
 281:arch/riscv/mach-gd32vf10x/bsp/gd32vf103_fmc.c ****     temp_wp1 = (uint16_t) ((ob_wp & OB_WP1_WP1) >> 8U);
 1513              		.loc 1 281 5
GAS LISTING C:\Users\test\AppData\Local\Temp\cc0O9IID.s 			page 43


 282:arch/riscv/mach-gd32vf10x/bsp/gd32vf103_fmc.c ****     temp_wp2 = (uint16_t) ((ob_wp & OB_WP2_WP2) >> 16U);
 1514              		.loc 1 282 5
 283:arch/riscv/mach-gd32vf10x/bsp/gd32vf103_fmc.c ****     temp_wp3 = (uint16_t) ((ob_wp & OB_WP3_WP3) >> 24U);
 1515              		.loc 1 283 5
 284:arch/riscv/mach-gd32vf10x/bsp/gd32vf103_fmc.c **** 
 1516              		.loc 1 284 5
 286:arch/riscv/mach-gd32vf10x/bsp/gd32vf103_fmc.c **** 
 1517              		.loc 1 286 5
 286:arch/riscv/mach-gd32vf10x/bsp/gd32vf103_fmc.c **** 
 1518              		.loc 1 286 7 is_stmt 0
 1519 0028 29E9     		bne	a0,zero,.L122
 289:arch/riscv/mach-gd32vf10x/bsp/gd32vf103_fmc.c **** 
 1520              		.loc 1 289 18
 1521 002a 37270240 		li	a4,1073881088
 1522 002e 1C4B     		lw	a5,16(a4)
 280:arch/riscv/mach-gd32vf10x/bsp/gd32vf103_fmc.c ****     temp_wp0 = (uint16_t) (ob_wp & OB_WP0_WP0);
 1523              		.loc 1 280 11
 1524 0030 13C9F9FF 		not	s2,s3
 1525              	.LVL127:
 281:arch/riscv/mach-gd32vf10x/bsp/gd32vf103_fmc.c ****     temp_wp1 = (uint16_t) ((ob_wp & OB_WP1_WP1) >> 8U);
 1526              		.loc 1 281 14
 1527 0034 9376F90F 		andi	a3,s2,0xff
 289:arch/riscv/mach-gd32vf10x/bsp/gd32vf103_fmc.c **** 
 1528              		.loc 1 289 9 is_stmt 1
 289:arch/riscv/mach-gd32vf10x/bsp/gd32vf103_fmc.c **** 
 1529              		.loc 1 289 18 is_stmt 0
 1530 0038 93E70701 		ori	a5,a5,16
 1531 003c 1CCB     		sw	a5,16(a4)
 291:arch/riscv/mach-gd32vf10x/bsp/gd32vf103_fmc.c ****             OB_WP0 = temp_wp0;
 1532              		.loc 1 291 9 is_stmt 1
 291:arch/riscv/mach-gd32vf10x/bsp/gd32vf103_fmc.c ****             OB_WP0 = temp_wp0;
 1533              		.loc 1 291 11 is_stmt 0
 1534 003e 9307F00F 		li	a5,255
 1535 0042 638DF604 		beq	a3,a5,.L126
 292:arch/riscv/mach-gd32vf10x/bsp/gd32vf103_fmc.c **** 
 1536              		.loc 1 292 13 is_stmt 1
 292:arch/riscv/mach-gd32vf10x/bsp/gd32vf103_fmc.c **** 
 1537              		.loc 1 292 20 is_stmt 0
 1538 0046 B7070020 		li	a5,536870912
 1539 004a 2394D780 		sh	a3,-2040(a5)
 295:arch/riscv/mach-gd32vf10x/bsp/gd32vf103_fmc.c ****         }
 1540              		.loc 1 295 13 is_stmt 1
 1541              	.LVL128:
 1542              	.LBB129:
 1543              	.LBB130:
 635:arch/riscv/mach-gd32vf10x/bsp/gd32vf103_fmc.c **** 
 1544              		.loc 1 635 5
 1545              	.LBE130:
 1546              	.LBE129:
 292:arch/riscv/mach-gd32vf10x/bsp/gd32vf103_fmc.c **** 
 1547              		.loc 1 292 20 is_stmt 0
 1548 004e 37040F00 		li	s0,983040
 1549              	.LBB132:
 1550              	.LBB131:
 642:arch/riscv/mach-gd32vf10x/bsp/gd32vf103_fmc.c **** 
 1551              		.loc 1 642 5
 1552 0052 8549     		li	s3,1
GAS LISTING C:\Users\test\AppData\Local\Temp\cc0O9IID.s 			page 44


 1553 0054 11A0     		j	.L128
 1554              	.LVL129:
 1555              	.L158:
 642:arch/riscv/mach-gd32vf10x/bsp/gd32vf103_fmc.c **** 
 1556              		.loc 1 642 36
 1557 0056 15C8     		beq	s0,zero,.L129
 1558              	.LVL130:
 1559              	.L128:
 638:arch/riscv/mach-gd32vf10x/bsp/gd32vf103_fmc.c ****         /* get FMC state */
 1560              		.loc 1 638 5 is_stmt 1
 640:arch/riscv/mach-gd32vf10x/bsp/gd32vf103_fmc.c ****         timeout--;
 1561              		.loc 1 640 9
 640:arch/riscv/mach-gd32vf10x/bsp/gd32vf103_fmc.c ****         timeout--;
 1562              		.loc 1 640 21 is_stmt 0
 1563 0058 97000000 		call	fmc_state_get
 1563      E7800000 
 1564              	.LVL131:
 641:arch/riscv/mach-gd32vf10x/bsp/gd32vf103_fmc.c ****     }while((FMC_BUSY == fmc_state) && (0x00U != timeout));
 1565              		.loc 1 641 9 is_stmt 1
 1566 0060 7D14     		addi	s0,s0,-1
 1567              	.LVL132:
 642:arch/riscv/mach-gd32vf10x/bsp/gd32vf103_fmc.c **** 
 1568              		.loc 1 642 5 is_stmt 0
 1569 0062 E30A35FF 		beq	a0,s3,.L158
 644:arch/riscv/mach-gd32vf10x/bsp/gd32vf103_fmc.c ****         fmc_state = FMC_TOERR;
 1570              		.loc 1 644 5 is_stmt 1
 1571              	.LVL133:
 1572              	.LBE131:
 1573              	.LBE132:
 297:arch/riscv/mach-gd32vf10x/bsp/gd32vf103_fmc.c ****             OB_WP1 = temp_wp1;
 1574              		.loc 1 297 9
 297:arch/riscv/mach-gd32vf10x/bsp/gd32vf103_fmc.c ****             OB_WP1 = temp_wp1;
 1575              		.loc 1 297 11 is_stmt 0
 1576 0066 1DC9     		beq	a0,zero,.L126
 1577              	.LVL134:
 1578              	.L156:
 1579 0068 AA84     		mv	s1,a0
 1580              	.LVL135:
 1581              	.L136:
 315:arch/riscv/mach-gd32vf10x/bsp/gd32vf103_fmc.c ****             /* reset the OBPG bit */
 1582              		.loc 1 315 9 is_stmt 1
 315:arch/riscv/mach-gd32vf10x/bsp/gd32vf103_fmc.c ****             /* reset the OBPG bit */
 1583              		.loc 1 315 11 is_stmt 0
 1584 006a 9147     		li	a5,4
 1585 006c 638FF400 		beq	s1,a5,.L129
 1586              	.LVL136:
 1587              	.L135:
 317:arch/riscv/mach-gd32vf10x/bsp/gd32vf103_fmc.c ****         }
 1588              		.loc 1 317 13 is_stmt 1
 317:arch/riscv/mach-gd32vf10x/bsp/gd32vf103_fmc.c ****         }
 1589              		.loc 1 317 22 is_stmt 0
 1590 0070 37270240 		li	a4,1073881088
 1591 0074 1C4B     		lw	a5,16(a4)
 1592 0076 BD9B     		andi	a5,a5,-17
 1593 0078 1CCB     		sw	a5,16(a4)
 1594              	.LVL137:
 321:arch/riscv/mach-gd32vf10x/bsp/gd32vf103_fmc.c **** }
GAS LISTING C:\Users\test\AppData\Local\Temp\cc0O9IID.s 			page 45


 1595              		.loc 1 321 5 is_stmt 1
 1596              	.L122:
 322:arch/riscv/mach-gd32vf10x/bsp/gd32vf103_fmc.c **** 
 1597              		.loc 1 322 1 is_stmt 0
 1598 007a F240     		lw	ra,28(sp)
 1599              		.cfi_remember_state
 1600              		.cfi_restore 1
 1601 007c 6244     		lw	s0,24(sp)
 1602              		.cfi_restore 8
 1603 007e 2685     		mv	a0,s1
 1604 0080 4249     		lw	s2,16(sp)
 1605              		.cfi_restore 18
 1606 0082 D244     		lw	s1,20(sp)
 1607              		.cfi_restore 9
 1608              	.LVL138:
 1609 0084 B249     		lw	s3,12(sp)
 1610              		.cfi_restore 19
 1611 0086 0561     		addi	sp,sp,32
 1612              	.LCFI25:
 1613              		.cfi_def_cfa_offset 0
 1614 0088 8280     		jr	ra
 1615              	.LVL139:
 1616              	.L129:
 1617              	.LCFI26:
 1618              		.cfi_restore_state
 1619 008a F240     		lw	ra,28(sp)
 1620              		.cfi_remember_state
 1621              		.cfi_restore 1
 1622 008c 6244     		lw	s0,24(sp)
 1623              		.cfi_restore 8
 1624              	.LBB133:
 1625              	.LBB127:
 645:arch/riscv/mach-gd32vf10x/bsp/gd32vf103_fmc.c ****     }
 1626              		.loc 1 645 19
 1627 008e 9144     		li	s1,4
 1628              	.LBE127:
 1629              	.LBE133:
 322:arch/riscv/mach-gd32vf10x/bsp/gd32vf103_fmc.c **** 
 1630              		.loc 1 322 1
 1631 0090 2685     		mv	a0,s1
 1632 0092 4249     		lw	s2,16(sp)
 1633              		.cfi_restore 18
 1634 0094 D244     		lw	s1,20(sp)
 1635              		.cfi_restore 9
 1636 0096 B249     		lw	s3,12(sp)
 1637              		.cfi_restore 19
 1638 0098 0561     		addi	sp,sp,32
 1639              	.LCFI27:
 1640              		.cfi_def_cfa_offset 0
 1641 009a 8280     		jr	ra
 1642              	.LVL140:
 1643              	.L126:
 1644              	.LCFI28:
 1645              		.cfi_restore_state
 282:arch/riscv/mach-gd32vf10x/bsp/gd32vf103_fmc.c ****     temp_wp2 = (uint16_t) ((ob_wp & OB_WP2_WP2) >> 16U);
 1646              		.loc 1 282 49
 1647 009c 93578900 		srli	a5,s2,8
GAS LISTING C:\Users\test\AppData\Local\Temp\cc0O9IID.s 			page 46


 282:arch/riscv/mach-gd32vf10x/bsp/gd32vf103_fmc.c ****     temp_wp2 = (uint16_t) ((ob_wp & OB_WP2_WP2) >> 16U);
 1648              		.loc 1 282 14
 1649 00a0 93F7F70F 		andi	a5,a5,0xff
 297:arch/riscv/mach-gd32vf10x/bsp/gd32vf103_fmc.c ****             OB_WP1 = temp_wp1;
 1650              		.loc 1 297 37
 1651 00a4 1307F00F 		li	a4,255
 1652 00a8 6383E702 		beq	a5,a4,.L130
 298:arch/riscv/mach-gd32vf10x/bsp/gd32vf103_fmc.c **** 
 1653              		.loc 1 298 13 is_stmt 1
 298:arch/riscv/mach-gd32vf10x/bsp/gd32vf103_fmc.c **** 
 1654              		.loc 1 298 20 is_stmt 0
 1655 00ac 37070020 		li	a4,536870912
 1656 00b0 2315F780 		sh	a5,-2038(a4)
 301:arch/riscv/mach-gd32vf10x/bsp/gd32vf103_fmc.c ****         }
 1657              		.loc 1 301 13 is_stmt 1
 1658              	.LVL141:
 1659              	.LBB134:
 1660              	.LBB135:
 635:arch/riscv/mach-gd32vf10x/bsp/gd32vf103_fmc.c **** 
 1661              		.loc 1 635 5
 1662              	.LBE135:
 1663              	.LBE134:
 298:arch/riscv/mach-gd32vf10x/bsp/gd32vf103_fmc.c **** 
 1664              		.loc 1 298 20 is_stmt 0
 1665 00b4 37040F00 		li	s0,983040
 1666              	.LBB137:
 1667              	.LBB136:
 642:arch/riscv/mach-gd32vf10x/bsp/gd32vf103_fmc.c **** 
 1668              		.loc 1 642 5
 1669 00b8 8549     		li	s3,1
 1670 00ba 11A0     		j	.L132
 1671              	.LVL142:
 1672              	.L159:
 642:arch/riscv/mach-gd32vf10x/bsp/gd32vf103_fmc.c **** 
 1673              		.loc 1 642 36
 1674 00bc 79D4     		beq	s0,zero,.L129
 1675              	.LVL143:
 1676              	.L132:
 638:arch/riscv/mach-gd32vf10x/bsp/gd32vf103_fmc.c ****         /* get FMC state */
 1677              		.loc 1 638 5 is_stmt 1
 640:arch/riscv/mach-gd32vf10x/bsp/gd32vf103_fmc.c ****         timeout--;
 1678              		.loc 1 640 9
 640:arch/riscv/mach-gd32vf10x/bsp/gd32vf103_fmc.c ****         timeout--;
 1679              		.loc 1 640 21 is_stmt 0
 1680 00be 97000000 		call	fmc_state_get
 1680      E7800000 
 1681              	.LVL144:
 641:arch/riscv/mach-gd32vf10x/bsp/gd32vf103_fmc.c ****     }while((FMC_BUSY == fmc_state) && (0x00U != timeout));
 1682              		.loc 1 641 9 is_stmt 1
 1683 00c6 7D14     		addi	s0,s0,-1
 1684              	.LVL145:
 642:arch/riscv/mach-gd32vf10x/bsp/gd32vf103_fmc.c **** 
 1685              		.loc 1 642 5 is_stmt 0
 1686 00c8 E30A35FF 		beq	a0,s3,.L159
 644:arch/riscv/mach-gd32vf10x/bsp/gd32vf103_fmc.c ****         fmc_state = FMC_TOERR;
 1687              		.loc 1 644 5 is_stmt 1
 1688              	.LVL146:
GAS LISTING C:\Users\test\AppData\Local\Temp\cc0O9IID.s 			page 47


 1689              	.LBE136:
 1690              	.LBE137:
 303:arch/riscv/mach-gd32vf10x/bsp/gd32vf103_fmc.c ****             OB_WP2 = temp_wp2;
 1691              		.loc 1 303 9
 303:arch/riscv/mach-gd32vf10x/bsp/gd32vf103_fmc.c ****             OB_WP2 = temp_wp2;
 1692              		.loc 1 303 11 is_stmt 0
 1693 00cc 51FD     		bne	a0,zero,.L156
 1694              	.LVL147:
 1695              	.L130:
 283:arch/riscv/mach-gd32vf10x/bsp/gd32vf103_fmc.c ****     temp_wp3 = (uint16_t) ((ob_wp & OB_WP3_WP3) >> 24U);
 1696              		.loc 1 283 49
 1697 00ce 93570901 		srli	a5,s2,16
 283:arch/riscv/mach-gd32vf10x/bsp/gd32vf103_fmc.c ****     temp_wp3 = (uint16_t) ((ob_wp & OB_WP3_WP3) >> 24U);
 1698              		.loc 1 283 14
 1699 00d2 93F7F70F 		andi	a5,a5,0xff
 303:arch/riscv/mach-gd32vf10x/bsp/gd32vf103_fmc.c ****             OB_WP2 = temp_wp2;
 1700              		.loc 1 303 37
 1701 00d6 1307F00F 		li	a4,255
 1702 00da 6383E702 		beq	a5,a4,.L138
 304:arch/riscv/mach-gd32vf10x/bsp/gd32vf103_fmc.c **** 
 1703              		.loc 1 304 13 is_stmt 1
 304:arch/riscv/mach-gd32vf10x/bsp/gd32vf103_fmc.c **** 
 1704              		.loc 1 304 20 is_stmt 0
 1705 00de 37070020 		li	a4,536870912
 1706 00e2 2316F780 		sh	a5,-2036(a4)
 307:arch/riscv/mach-gd32vf10x/bsp/gd32vf103_fmc.c ****         }
 1707              		.loc 1 307 13 is_stmt 1
 1708              	.LVL148:
 1709              	.LBB138:
 1710              	.LBB139:
 635:arch/riscv/mach-gd32vf10x/bsp/gd32vf103_fmc.c **** 
 1711              		.loc 1 635 5
 1712              	.LBE139:
 1713              	.LBE138:
 304:arch/riscv/mach-gd32vf10x/bsp/gd32vf103_fmc.c **** 
 1714              		.loc 1 304 20 is_stmt 0
 1715 00e6 37040F00 		li	s0,983040
 1716              	.LBB141:
 1717              	.LBB140:
 642:arch/riscv/mach-gd32vf10x/bsp/gd32vf103_fmc.c **** 
 1718              		.loc 1 642 5
 1719 00ea 8549     		li	s3,1
 1720 00ec 11A0     		j	.L134
 1721              	.LVL149:
 1722              	.L160:
 642:arch/riscv/mach-gd32vf10x/bsp/gd32vf103_fmc.c **** 
 1723              		.loc 1 642 36
 1724 00ee 51DC     		beq	s0,zero,.L129
 1725              	.LVL150:
 1726              	.L134:
 638:arch/riscv/mach-gd32vf10x/bsp/gd32vf103_fmc.c ****         /* get FMC state */
 1727              		.loc 1 638 5 is_stmt 1
 640:arch/riscv/mach-gd32vf10x/bsp/gd32vf103_fmc.c ****         timeout--;
 1728              		.loc 1 640 9
 640:arch/riscv/mach-gd32vf10x/bsp/gd32vf103_fmc.c ****         timeout--;
 1729              		.loc 1 640 21 is_stmt 0
 1730 00f0 97000000 		call	fmc_state_get
GAS LISTING C:\Users\test\AppData\Local\Temp\cc0O9IID.s 			page 48


 1730      E7800000 
 1731              	.LVL151:
 641:arch/riscv/mach-gd32vf10x/bsp/gd32vf103_fmc.c ****     }while((FMC_BUSY == fmc_state) && (0x00U != timeout));
 1732              		.loc 1 641 9 is_stmt 1
 1733 00f8 7D14     		addi	s0,s0,-1
 1734              	.LVL152:
 642:arch/riscv/mach-gd32vf10x/bsp/gd32vf103_fmc.c **** 
 1735              		.loc 1 642 5 is_stmt 0
 1736 00fa E30A35FF 		beq	a0,s3,.L160
 644:arch/riscv/mach-gd32vf10x/bsp/gd32vf103_fmc.c ****         fmc_state = FMC_TOERR;
 1737              		.loc 1 644 5 is_stmt 1
 1738              	.LVL153:
 1739              	.LBE140:
 1740              	.LBE141:
 309:arch/riscv/mach-gd32vf10x/bsp/gd32vf103_fmc.c ****             OB_WP3 = temp_wp3;
 1741              		.loc 1 309 9
 309:arch/riscv/mach-gd32vf10x/bsp/gd32vf103_fmc.c ****             OB_WP3 = temp_wp3;
 1742              		.loc 1 309 11 is_stmt 0
 1743 00fe 2DF5     		bne	a0,zero,.L156
 1744              	.LVL154:
 1745              	.L138:
 284:arch/riscv/mach-gd32vf10x/bsp/gd32vf103_fmc.c **** 
 1746              		.loc 1 284 49
 1747 0100 13598901 		srli	s2,s2,24
 1748              	.LVL155:
 309:arch/riscv/mach-gd32vf10x/bsp/gd32vf103_fmc.c ****             OB_WP3 = temp_wp3;
 1749              		.loc 1 309 37
 1750 0104 9307F00F 		li	a5,255
 1751 0108 E304F9F6 		beq	s2,a5,.L135
 310:arch/riscv/mach-gd32vf10x/bsp/gd32vf103_fmc.c **** 
 1752              		.loc 1 310 13 is_stmt 1
 284:arch/riscv/mach-gd32vf10x/bsp/gd32vf103_fmc.c **** 
 1753              		.loc 1 284 14 is_stmt 0
 1754 010c 4209     		slli	s2,s2,16
 1755 010e 13590901 		srli	s2,s2,16
 310:arch/riscv/mach-gd32vf10x/bsp/gd32vf103_fmc.c **** 
 1756              		.loc 1 310 20
 1757 0112 B7070020 		li	a5,536870912
 1758 0116 23972781 		sh	s2,-2034(a5)
 313:arch/riscv/mach-gd32vf10x/bsp/gd32vf103_fmc.c ****         }
 1759              		.loc 1 313 13 is_stmt 1
 1760              	.LVL156:
 1761              	.LBB142:
 1762              	.LBB143:
 635:arch/riscv/mach-gd32vf10x/bsp/gd32vf103_fmc.c **** 
 1763              		.loc 1 635 5
 1764              	.LBE143:
 1765              	.LBE142:
 310:arch/riscv/mach-gd32vf10x/bsp/gd32vf103_fmc.c **** 
 1766              		.loc 1 310 20 is_stmt 0
 1767 011a 37040F00 		li	s0,983040
 1768              	.LBB145:
 1769              	.LBB144:
 642:arch/riscv/mach-gd32vf10x/bsp/gd32vf103_fmc.c **** 
 1770              		.loc 1 642 5
 1771 011e 0549     		li	s2,1
 1772 0120 11A0     		j	.L137
GAS LISTING C:\Users\test\AppData\Local\Temp\cc0O9IID.s 			page 49


 1773              	.LVL157:
 1774              	.L161:
 642:arch/riscv/mach-gd32vf10x/bsp/gd32vf103_fmc.c **** 
 1775              		.loc 1 642 36
 1776 0122 25D4     		beq	s0,zero,.L129
 1777              	.LVL158:
 1778              	.L137:
 638:arch/riscv/mach-gd32vf10x/bsp/gd32vf103_fmc.c ****         /* get FMC state */
 1779              		.loc 1 638 5 is_stmt 1
 640:arch/riscv/mach-gd32vf10x/bsp/gd32vf103_fmc.c ****         timeout--;
 1780              		.loc 1 640 9
 640:arch/riscv/mach-gd32vf10x/bsp/gd32vf103_fmc.c ****         timeout--;
 1781              		.loc 1 640 21 is_stmt 0
 1782 0124 97000000 		call	fmc_state_get
 1782      E7800000 
 1783              	.LVL159:
 1784 012c AA84     		mv	s1,a0
 1785              	.LVL160:
 641:arch/riscv/mach-gd32vf10x/bsp/gd32vf103_fmc.c ****     }while((FMC_BUSY == fmc_state) && (0x00U != timeout));
 1786              		.loc 1 641 9 is_stmt 1
 1787 012e 7D14     		addi	s0,s0,-1
 1788              	.LVL161:
 642:arch/riscv/mach-gd32vf10x/bsp/gd32vf103_fmc.c **** 
 1789              		.loc 1 642 5 is_stmt 0
 1790 0130 E30925FF 		beq	a0,s2,.L161
 1791 0134 1DBF     		j	.L136
 1792              	.LBE144:
 1793              	.LBE145:
 1794              		.cfi_endproc
 1795              	.LFE12:
 1797              		.section	.text.ob_security_protection_config,"ax",@progbits
 1798              		.align	1
 1799              		.globl	ob_security_protection_config
 1801              	ob_security_protection_config:
 1802              	.LFB13:
 334:arch/riscv/mach-gd32vf10x/bsp/gd32vf103_fmc.c ****     fmc_state_enum fmc_state = fmc_ready_wait(FMC_TIMEOUT_COUNT);
 1803              		.loc 1 334 1 is_stmt 1
 1804              		.cfi_startproc
 1805              	.LVL162:
 335:arch/riscv/mach-gd32vf10x/bsp/gd32vf103_fmc.c **** 
 1806              		.loc 1 335 5
 1807              	.LBB146:
 1808              	.LBB147:
 635:arch/riscv/mach-gd32vf10x/bsp/gd32vf103_fmc.c **** 
 1809              		.loc 1 635 5
 1810              	.LBE147:
 1811              	.LBE146:
 334:arch/riscv/mach-gd32vf10x/bsp/gd32vf103_fmc.c ****     fmc_state_enum fmc_state = fmc_ready_wait(FMC_TIMEOUT_COUNT);
 1812              		.loc 1 334 1 is_stmt 0
 1813 0000 4111     		addi	sp,sp,-16
 1814              	.LCFI29:
 1815              		.cfi_def_cfa_offset 16
 1816 0002 22C4     		sw	s0,8(sp)
 1817 0004 26C2     		sw	s1,4(sp)
 1818 0006 4AC0     		sw	s2,0(sp)
 1819 0008 06C6     		sw	ra,12(sp)
 1820              		.cfi_offset 8, -8
GAS LISTING C:\Users\test\AppData\Local\Temp\cc0O9IID.s 			page 50


 1821              		.cfi_offset 9, -12
 1822              		.cfi_offset 18, -16
 1823              		.cfi_offset 1, -4
 334:arch/riscv/mach-gd32vf10x/bsp/gd32vf103_fmc.c ****     fmc_state_enum fmc_state = fmc_ready_wait(FMC_TIMEOUT_COUNT);
 1824              		.loc 1 334 1
 1825 000a 2A89     		mv	s2,a0
 1826 000c 37040F00 		li	s0,983040
 1827              	.LBB150:
 1828              	.LBB148:
 642:arch/riscv/mach-gd32vf10x/bsp/gd32vf103_fmc.c **** 
 1829              		.loc 1 642 5
 1830 0010 8544     		li	s1,1
 1831 0012 11A0     		j	.L164
 1832              	.LVL163:
 1833              	.L180:
 642:arch/riscv/mach-gd32vf10x/bsp/gd32vf103_fmc.c **** 
 1834              		.loc 1 642 36
 1835 0014 59C8     		beq	s0,zero,.L168
 1836              	.LVL164:
 1837              	.L164:
 638:arch/riscv/mach-gd32vf10x/bsp/gd32vf103_fmc.c ****         /* get FMC state */
 1838              		.loc 1 638 5 is_stmt 1
 640:arch/riscv/mach-gd32vf10x/bsp/gd32vf103_fmc.c ****         timeout--;
 1839              		.loc 1 640 9
 640:arch/riscv/mach-gd32vf10x/bsp/gd32vf103_fmc.c ****         timeout--;
 1840              		.loc 1 640 21 is_stmt 0
 1841 0016 97000000 		call	fmc_state_get
 1841      E7800000 
 1842              	.LVL165:
 641:arch/riscv/mach-gd32vf10x/bsp/gd32vf103_fmc.c ****     }while((FMC_BUSY == fmc_state) && (0x00U != timeout));
 1843              		.loc 1 641 9 is_stmt 1
 1844 001e 7D14     		addi	s0,s0,-1
 1845              	.LVL166:
 642:arch/riscv/mach-gd32vf10x/bsp/gd32vf103_fmc.c **** 
 1846              		.loc 1 642 5 is_stmt 0
 1847 0020 E30A95FE 		beq	a0,s1,.L180
 644:arch/riscv/mach-gd32vf10x/bsp/gd32vf103_fmc.c ****         fmc_state = FMC_TOERR;
 1848              		.loc 1 644 5 is_stmt 1
 1849              		.loc 1 648 5
 1850              	.LVL167:
 1851              	.LBE148:
 1852              	.LBE150:
 337:arch/riscv/mach-gd32vf10x/bsp/gd32vf103_fmc.c ****         FMC_CTL0 |= FMC_CTL0_OBER;
 1853              		.loc 1 337 5
 337:arch/riscv/mach-gd32vf10x/bsp/gd32vf103_fmc.c ****         FMC_CTL0 |= FMC_CTL0_OBER;
 1854              		.loc 1 337 7 is_stmt 0
 1855 0024 2DED     		bne	a0,zero,.L162
 338:arch/riscv/mach-gd32vf10x/bsp/gd32vf103_fmc.c ****         FMC_CTL0 |= FMC_CTL0_START;
 1856              		.loc 1 338 9 is_stmt 1
 338:arch/riscv/mach-gd32vf10x/bsp/gd32vf103_fmc.c ****         FMC_CTL0 |= FMC_CTL0_START;
 1857              		.loc 1 338 18 is_stmt 0
 1858 0026 B7270240 		li	a5,1073881088
 1859 002a 984B     		lw	a4,16(a5)
 339:arch/riscv/mach-gd32vf10x/bsp/gd32vf103_fmc.c **** 
 1860              		.loc 1 339 18
 1861 002c 37040F00 		li	s0,983040
 1862              	.LBB151:
GAS LISTING C:\Users\test\AppData\Local\Temp\cc0O9IID.s 			page 51


 1863              	.LBB152:
 642:arch/riscv/mach-gd32vf10x/bsp/gd32vf103_fmc.c **** 
 1864              		.loc 1 642 5
 1865 0030 8544     		li	s1,1
 1866              	.LBE152:
 1867              	.LBE151:
 338:arch/riscv/mach-gd32vf10x/bsp/gd32vf103_fmc.c ****         FMC_CTL0 |= FMC_CTL0_START;
 1868              		.loc 1 338 18
 1869 0032 13670702 		ori	a4,a4,32
 1870 0036 98CB     		sw	a4,16(a5)
 339:arch/riscv/mach-gd32vf10x/bsp/gd32vf103_fmc.c **** 
 1871              		.loc 1 339 9 is_stmt 1
 339:arch/riscv/mach-gd32vf10x/bsp/gd32vf103_fmc.c **** 
 1872              		.loc 1 339 18 is_stmt 0
 1873 0038 984B     		lw	a4,16(a5)
 1874 003a 13670704 		ori	a4,a4,64
 1875 003e 98CB     		sw	a4,16(a5)
 342:arch/riscv/mach-gd32vf10x/bsp/gd32vf103_fmc.c **** 
 1876              		.loc 1 342 9 is_stmt 1
 1877              	.LVL168:
 1878              	.LBB154:
 1879              	.LBB153:
 635:arch/riscv/mach-gd32vf10x/bsp/gd32vf103_fmc.c **** 
 1880              		.loc 1 635 5
 1881 0040 11A0     		j	.L167
 1882              	.LVL169:
 1883              	.L181:
 642:arch/riscv/mach-gd32vf10x/bsp/gd32vf103_fmc.c **** 
 1884              		.loc 1 642 36 is_stmt 0
 1885 0042 25C4     		beq	s0,zero,.L168
 1886              	.LVL170:
 1887              	.L167:
 638:arch/riscv/mach-gd32vf10x/bsp/gd32vf103_fmc.c ****         /* get FMC state */
 1888              		.loc 1 638 5 is_stmt 1
 640:arch/riscv/mach-gd32vf10x/bsp/gd32vf103_fmc.c ****         timeout--;
 1889              		.loc 1 640 9
 640:arch/riscv/mach-gd32vf10x/bsp/gd32vf103_fmc.c ****         timeout--;
 1890              		.loc 1 640 21 is_stmt 0
 1891 0044 97000000 		call	fmc_state_get
 1891      E7800000 
 1892              	.LVL171:
 641:arch/riscv/mach-gd32vf10x/bsp/gd32vf103_fmc.c ****     }while((FMC_BUSY == fmc_state) && (0x00U != timeout));
 1893              		.loc 1 641 9 is_stmt 1
 1894 004c 7D14     		addi	s0,s0,-1
 1895              	.LVL172:
 642:arch/riscv/mach-gd32vf10x/bsp/gd32vf103_fmc.c **** 
 1896              		.loc 1 642 5 is_stmt 0
 1897 004e E30A95FE 		beq	a0,s1,.L181
 644:arch/riscv/mach-gd32vf10x/bsp/gd32vf103_fmc.c ****         fmc_state = FMC_TOERR;
 1898              		.loc 1 644 5 is_stmt 1
 1899              		.loc 1 648 5
 1900              	.LVL173:
 1901              	.LBE153:
 1902              	.LBE154:
 344:arch/riscv/mach-gd32vf10x/bsp/gd32vf103_fmc.c ****             /* reset the OBER bit */
 1903              		.loc 1 344 9
 344:arch/riscv/mach-gd32vf10x/bsp/gd32vf103_fmc.c ****             /* reset the OBER bit */
GAS LISTING C:\Users\test\AppData\Local\Temp\cc0O9IID.s 			page 52


 1904              		.loc 1 344 11 is_stmt 0
 1905 0052 3DE1     		bne	a0,zero,.L182
 346:arch/riscv/mach-gd32vf10x/bsp/gd32vf103_fmc.c **** 
 1906              		.loc 1 346 13 is_stmt 1
 346:arch/riscv/mach-gd32vf10x/bsp/gd32vf103_fmc.c **** 
 1907              		.loc 1 346 22 is_stmt 0
 1908 0054 B7270240 		li	a5,1073881088
 1909 0058 984B     		lw	a4,16(a5)
 351:arch/riscv/mach-gd32vf10x/bsp/gd32vf103_fmc.c **** 
 1910              		.loc 1 351 22
 1911 005a 4209     		slli	s2,s2,16
 1912 005c 13590901 		srli	s2,s2,16
 346:arch/riscv/mach-gd32vf10x/bsp/gd32vf103_fmc.c **** 
 1913              		.loc 1 346 22
 1914 0060 1377F7FD 		andi	a4,a4,-33
 1915 0064 98CB     		sw	a4,16(a5)
 349:arch/riscv/mach-gd32vf10x/bsp/gd32vf103_fmc.c **** 
 1916              		.loc 1 349 13 is_stmt 1
 349:arch/riscv/mach-gd32vf10x/bsp/gd32vf103_fmc.c **** 
 1917              		.loc 1 349 22 is_stmt 0
 1918 0066 984B     		lw	a4,16(a5)
 351:arch/riscv/mach-gd32vf10x/bsp/gd32vf103_fmc.c **** 
 1919              		.loc 1 351 20
 1920 0068 37040F00 		li	s0,983040
 1921              	.LBB155:
 1922              	.LBB156:
 642:arch/riscv/mach-gd32vf10x/bsp/gd32vf103_fmc.c **** 
 1923              		.loc 1 642 5
 1924 006c 8544     		li	s1,1
 1925              	.LBE156:
 1926              	.LBE155:
 349:arch/riscv/mach-gd32vf10x/bsp/gd32vf103_fmc.c **** 
 1927              		.loc 1 349 22
 1928 006e 13670701 		ori	a4,a4,16
 1929 0072 98CB     		sw	a4,16(a5)
 351:arch/riscv/mach-gd32vf10x/bsp/gd32vf103_fmc.c **** 
 1930              		.loc 1 351 13 is_stmt 1
 351:arch/riscv/mach-gd32vf10x/bsp/gd32vf103_fmc.c **** 
 1931              		.loc 1 351 20 is_stmt 0
 1932 0074 B7070020 		li	a5,536870912
 1933 0078 23902781 		sh	s2,-2048(a5)
 354:arch/riscv/mach-gd32vf10x/bsp/gd32vf103_fmc.c **** 
 1934              		.loc 1 354 13 is_stmt 1
 1935              	.LVL174:
 1936              	.LBB158:
 1937              	.LBB157:
 635:arch/riscv/mach-gd32vf10x/bsp/gd32vf103_fmc.c **** 
 1938              		.loc 1 635 5
 1939 007c 11A0     		j	.L170
 1940              	.LVL175:
 1941              	.L183:
 642:arch/riscv/mach-gd32vf10x/bsp/gd32vf103_fmc.c **** 
 1942              		.loc 1 642 36 is_stmt 0
 1943 007e 15C4     		beq	s0,zero,.L168
 1944              	.LVL176:
 1945              	.L170:
 638:arch/riscv/mach-gd32vf10x/bsp/gd32vf103_fmc.c ****         /* get FMC state */
GAS LISTING C:\Users\test\AppData\Local\Temp\cc0O9IID.s 			page 53


 1946              		.loc 1 638 5 is_stmt 1
 640:arch/riscv/mach-gd32vf10x/bsp/gd32vf103_fmc.c ****         timeout--;
 1947              		.loc 1 640 9
 640:arch/riscv/mach-gd32vf10x/bsp/gd32vf103_fmc.c ****         timeout--;
 1948              		.loc 1 640 21 is_stmt 0
 1949 0080 97000000 		call	fmc_state_get
 1949      E7800000 
 1950              	.LVL177:
 641:arch/riscv/mach-gd32vf10x/bsp/gd32vf103_fmc.c ****     }while((FMC_BUSY == fmc_state) && (0x00U != timeout));
 1951              		.loc 1 641 9 is_stmt 1
 1952 0088 7D14     		addi	s0,s0,-1
 1953              	.LVL178:
 642:arch/riscv/mach-gd32vf10x/bsp/gd32vf103_fmc.c **** 
 1954              		.loc 1 642 5 is_stmt 0
 1955 008a E30A95FE 		beq	a0,s1,.L183
 644:arch/riscv/mach-gd32vf10x/bsp/gd32vf103_fmc.c ****         fmc_state = FMC_TOERR;
 1956              		.loc 1 644 5 is_stmt 1
 1957              		.loc 1 648 5
 1958              	.LVL179:
 1959              	.LBE157:
 1960              	.LBE158:
 356:arch/riscv/mach-gd32vf10x/bsp/gd32vf103_fmc.c ****                 /* reset the OBPG bit */
 1961              		.loc 1 356 13
 356:arch/riscv/mach-gd32vf10x/bsp/gd32vf103_fmc.c ****                 /* reset the OBPG bit */
 1962              		.loc 1 356 16 is_stmt 0
 1963 008e 9147     		li	a5,4
 1964 0090 6307F500 		beq	a0,a5,.L162
 358:arch/riscv/mach-gd32vf10x/bsp/gd32vf103_fmc.c ****             }
 1965              		.loc 1 358 17 is_stmt 1
 358:arch/riscv/mach-gd32vf10x/bsp/gd32vf103_fmc.c ****             }
 1966              		.loc 1 358 26 is_stmt 0
 1967 0094 37270240 		li	a4,1073881088
 1968 0098 1C4B     		lw	a5,16(a4)
 1969 009a BD9B     		andi	a5,a5,-17
 1970 009c 1CCB     		sw	a5,16(a4)
 1971              	.L162:
 369:arch/riscv/mach-gd32vf10x/bsp/gd32vf103_fmc.c **** 
 1972              		.loc 1 369 1
 1973 009e B240     		lw	ra,12(sp)
 1974              		.cfi_remember_state
 1975              		.cfi_restore 1
 1976 00a0 2244     		lw	s0,8(sp)
 1977              		.cfi_restore 8
 1978 00a2 9244     		lw	s1,4(sp)
 1979              		.cfi_restore 9
 1980 00a4 0249     		lw	s2,0(sp)
 1981              		.cfi_restore 18
 1982 00a6 4101     		addi	sp,sp,16
 1983              	.LCFI30:
 1984              		.cfi_def_cfa_offset 0
 1985 00a8 8280     		jr	ra
 1986              	.LVL180:
 1987              	.L168:
 1988              	.LCFI31:
 1989              		.cfi_restore_state
 1990 00aa B240     		lw	ra,12(sp)
 1991              		.cfi_remember_state
GAS LISTING C:\Users\test\AppData\Local\Temp\cc0O9IID.s 			page 54


 1992              		.cfi_restore 1
 1993 00ac 2244     		lw	s0,8(sp)
 1994              		.cfi_restore 8
 1995 00ae 9244     		lw	s1,4(sp)
 1996              		.cfi_restore 9
 1997 00b0 0249     		lw	s2,0(sp)
 1998              		.cfi_restore 18
 1999              	.LBB159:
 2000              	.LBB149:
 645:arch/riscv/mach-gd32vf10x/bsp/gd32vf103_fmc.c ****     }
 2001              		.loc 1 645 19
 2002 00b2 1145     		li	a0,4
 2003              	.LBE149:
 2004              	.LBE159:
 369:arch/riscv/mach-gd32vf10x/bsp/gd32vf103_fmc.c **** 
 2005              		.loc 1 369 1
 2006 00b4 4101     		addi	sp,sp,16
 2007              	.LCFI32:
 2008              		.cfi_def_cfa_offset 0
 2009 00b6 8280     		jr	ra
 2010              	.LVL181:
 2011              	.L182:
 2012              	.LCFI33:
 2013              		.cfi_restore_state
 361:arch/riscv/mach-gd32vf10x/bsp/gd32vf103_fmc.c ****                 /* reset the OBER bit */
 2014              		.loc 1 361 13 is_stmt 1
 361:arch/riscv/mach-gd32vf10x/bsp/gd32vf103_fmc.c ****                 /* reset the OBER bit */
 2015              		.loc 1 361 16 is_stmt 0
 2016 00b8 9147     		li	a5,4
 2017 00ba E302F5FE 		beq	a0,a5,.L162
 363:arch/riscv/mach-gd32vf10x/bsp/gd32vf103_fmc.c ****             }
 2018              		.loc 1 363 17 is_stmt 1
 363:arch/riscv/mach-gd32vf10x/bsp/gd32vf103_fmc.c ****             }
 2019              		.loc 1 363 26 is_stmt 0
 2020 00be 37270240 		li	a4,1073881088
 2021 00c2 1C4B     		lw	a5,16(a4)
 369:arch/riscv/mach-gd32vf10x/bsp/gd32vf103_fmc.c **** 
 2022              		.loc 1 369 1
 2023 00c4 B240     		lw	ra,12(sp)
 2024              		.cfi_restore 1
 2025 00c6 2244     		lw	s0,8(sp)
 2026              		.cfi_restore 8
 363:arch/riscv/mach-gd32vf10x/bsp/gd32vf103_fmc.c ****             }
 2027              		.loc 1 363 26
 2028 00c8 93F7F7FD 		andi	a5,a5,-33
 2029 00cc 1CCB     		sw	a5,16(a4)
 368:arch/riscv/mach-gd32vf10x/bsp/gd32vf103_fmc.c **** }
 2030              		.loc 1 368 5 is_stmt 1
 369:arch/riscv/mach-gd32vf10x/bsp/gd32vf103_fmc.c **** 
 2031              		.loc 1 369 1 is_stmt 0
 2032 00ce 9244     		lw	s1,4(sp)
 2033              		.cfi_restore 9
 2034 00d0 0249     		lw	s2,0(sp)
 2035              		.cfi_restore 18
 2036 00d2 4101     		addi	sp,sp,16
 2037              	.LCFI34:
 2038              		.cfi_def_cfa_offset 0
GAS LISTING C:\Users\test\AppData\Local\Temp\cc0O9IID.s 			page 55


 2039 00d4 8280     		jr	ra
 2040              		.cfi_endproc
 2041              	.LFE13:
 2043              		.section	.text.ob_user_write,"ax",@progbits
 2044              		.align	1
 2045              		.globl	ob_user_write
 2047              	ob_user_write:
 2048              	.LFB14:
 388:arch/riscv/mach-gd32vf10x/bsp/gd32vf103_fmc.c ****     fmc_state_enum fmc_state = FMC_READY;
 2049              		.loc 1 388 1 is_stmt 1
 2050              		.cfi_startproc
 2051              	.LVL182:
 389:arch/riscv/mach-gd32vf10x/bsp/gd32vf103_fmc.c ****     uint8_t temp;
 2052              		.loc 1 389 5
 390:arch/riscv/mach-gd32vf10x/bsp/gd32vf103_fmc.c **** 
 2053              		.loc 1 390 5
 393:arch/riscv/mach-gd32vf10x/bsp/gd32vf103_fmc.c **** 
 2054              		.loc 1 393 5
 2055              	.LBB160:
 2056              	.LBB161:
 635:arch/riscv/mach-gd32vf10x/bsp/gd32vf103_fmc.c **** 
 2057              		.loc 1 635 5
 2058              	.LBE161:
 2059              	.LBE160:
 388:arch/riscv/mach-gd32vf10x/bsp/gd32vf103_fmc.c ****     fmc_state_enum fmc_state = FMC_READY;
 2060              		.loc 1 388 1 is_stmt 0
 2061 0000 0111     		addi	sp,sp,-32
 2062              	.LCFI35:
 2063              		.cfi_def_cfa_offset 32
 2064 0002 22CC     		sw	s0,24(sp)
 2065 0004 26CA     		sw	s1,20(sp)
 2066 0006 4AC8     		sw	s2,16(sp)
 2067 0008 4EC6     		sw	s3,12(sp)
 2068 000a 52C4     		sw	s4,8(sp)
 2069 000c 56C2     		sw	s5,4(sp)
 2070 000e 06CE     		sw	ra,28(sp)
 2071              		.cfi_offset 8, -8
 2072              		.cfi_offset 9, -12
 2073              		.cfi_offset 18, -16
 2074              		.cfi_offset 19, -20
 2075              		.cfi_offset 20, -24
 2076              		.cfi_offset 21, -28
 2077              		.cfi_offset 1, -4
 388:arch/riscv/mach-gd32vf10x/bsp/gd32vf103_fmc.c ****     fmc_state_enum fmc_state = FMC_READY;
 2078              		.loc 1 388 1
 2079 0010 2A89     		mv	s2,a0
 2080 0012 AE89     		mv	s3,a1
 2081 0014 B28A     		mv	s5,a2
 2082 0016 368A     		mv	s4,a3
 2083 0018 37040F00 		li	s0,983040
 2084              	.LBB164:
 2085              	.LBB162:
 642:arch/riscv/mach-gd32vf10x/bsp/gd32vf103_fmc.c **** 
 2086              		.loc 1 642 5
 2087 001c 8544     		li	s1,1
 2088 001e 11A0     		j	.L186
 2089              	.LVL183:
GAS LISTING C:\Users\test\AppData\Local\Temp\cc0O9IID.s 			page 56


 2090              	.L196:
 642:arch/riscv/mach-gd32vf10x/bsp/gd32vf103_fmc.c **** 
 2091              		.loc 1 642 36
 2092 0020 35C8     		beq	s0,zero,.L190
 2093              	.LVL184:
 2094              	.L186:
 638:arch/riscv/mach-gd32vf10x/bsp/gd32vf103_fmc.c ****         /* get FMC state */
 2095              		.loc 1 638 5 is_stmt 1
 640:arch/riscv/mach-gd32vf10x/bsp/gd32vf103_fmc.c ****         timeout--;
 2096              		.loc 1 640 9
 640:arch/riscv/mach-gd32vf10x/bsp/gd32vf103_fmc.c ****         timeout--;
 2097              		.loc 1 640 21 is_stmt 0
 2098 0022 97000000 		call	fmc_state_get
 2098      E7800000 
 2099              	.LVL185:
 641:arch/riscv/mach-gd32vf10x/bsp/gd32vf103_fmc.c ****     }while((FMC_BUSY == fmc_state) && (0x00U != timeout));
 2100              		.loc 1 641 9 is_stmt 1
 2101 002a 7D14     		addi	s0,s0,-1
 2102              	.LVL186:
 642:arch/riscv/mach-gd32vf10x/bsp/gd32vf103_fmc.c **** 
 2103              		.loc 1 642 5 is_stmt 0
 2104 002c E30A95FE 		beq	a0,s1,.L196
 644:arch/riscv/mach-gd32vf10x/bsp/gd32vf103_fmc.c ****         fmc_state = FMC_TOERR;
 2105              		.loc 1 644 5 is_stmt 1
 2106              		.loc 1 648 5
 2107              	.LVL187:
 2108              	.LBE162:
 2109              	.LBE164:
 395:arch/riscv/mach-gd32vf10x/bsp/gd32vf103_fmc.c ****         /* set the OBPG bit*/
 2110              		.loc 1 395 5
 395:arch/riscv/mach-gd32vf10x/bsp/gd32vf103_fmc.c ****         /* set the OBPG bit*/
 2111              		.loc 1 395 7 is_stmt 0
 2112 0030 29E9     		bne	a0,zero,.L184
 397:arch/riscv/mach-gd32vf10x/bsp/gd32vf103_fmc.c **** 
 2113              		.loc 1 397 9 is_stmt 1
 397:arch/riscv/mach-gd32vf10x/bsp/gd32vf103_fmc.c **** 
 2114              		.loc 1 397 18 is_stmt 0
 2115 0032 B7260240 		li	a3,1073881088
 2116 0036 984A     		lw	a4,16(a3)
 399:arch/riscv/mach-gd32vf10x/bsp/gd32vf103_fmc.c ****         OB_USER = (uint16_t) temp;
 2117              		.loc 1 399 17
 2118 0038 B3675A01 		or	a5,s4,s5
 2119 003c B3E7F900 		or	a5,s3,a5
 2120 0040 B367F900 		or	a5,s2,a5
 397:arch/riscv/mach-gd32vf10x/bsp/gd32vf103_fmc.c **** 
 2121              		.loc 1 397 18
 2122 0044 13670701 		ori	a4,a4,16
 399:arch/riscv/mach-gd32vf10x/bsp/gd32vf103_fmc.c ****         OB_USER = (uint16_t) temp;
 2123              		.loc 1 399 14
 2124 0048 93E707FF 		ori	a5,a5,-16
 397:arch/riscv/mach-gd32vf10x/bsp/gd32vf103_fmc.c **** 
 2125              		.loc 1 397 18
 2126 004c 98CA     		sw	a4,16(a3)
 399:arch/riscv/mach-gd32vf10x/bsp/gd32vf103_fmc.c ****         OB_USER = (uint16_t) temp;
 2127              		.loc 1 399 9 is_stmt 1
 2128              	.LVL188:
 400:arch/riscv/mach-gd32vf10x/bsp/gd32vf103_fmc.c **** 
GAS LISTING C:\Users\test\AppData\Local\Temp\cc0O9IID.s 			page 57


 2129              		.loc 1 400 9
 400:arch/riscv/mach-gd32vf10x/bsp/gd32vf103_fmc.c **** 
 2130              		.loc 1 400 19 is_stmt 0
 2131 004e 93F7F70F 		andi	a5,a5,0xff
 400:arch/riscv/mach-gd32vf10x/bsp/gd32vf103_fmc.c **** 
 2132              		.loc 1 400 17
 2133 0052 37070020 		li	a4,536870912
 2134 0056 2311F780 		sh	a5,-2046(a4)
 403:arch/riscv/mach-gd32vf10x/bsp/gd32vf103_fmc.c **** 
 2135              		.loc 1 403 9 is_stmt 1
 2136              	.LVL189:
 2137              	.LBB165:
 2138              	.LBB166:
 635:arch/riscv/mach-gd32vf10x/bsp/gd32vf103_fmc.c **** 
 2139              		.loc 1 635 5
 2140              	.LBE166:
 2141              	.LBE165:
 400:arch/riscv/mach-gd32vf10x/bsp/gd32vf103_fmc.c **** 
 2142              		.loc 1 400 17 is_stmt 0
 2143 005a 37040F00 		li	s0,983040
 2144              	.LBB168:
 2145              	.LBB167:
 642:arch/riscv/mach-gd32vf10x/bsp/gd32vf103_fmc.c **** 
 2146              		.loc 1 642 5
 2147 005e 8544     		li	s1,1
 2148 0060 11A0     		j	.L189
 2149              	.LVL190:
 2150              	.L197:
 642:arch/riscv/mach-gd32vf10x/bsp/gd32vf103_fmc.c **** 
 2151              		.loc 1 642 36
 2152 0062 0DC8     		beq	s0,zero,.L190
 2153              	.LVL191:
 2154              	.L189:
 638:arch/riscv/mach-gd32vf10x/bsp/gd32vf103_fmc.c ****         /* get FMC state */
 2155              		.loc 1 638 5 is_stmt 1
 640:arch/riscv/mach-gd32vf10x/bsp/gd32vf103_fmc.c ****         timeout--;
 2156              		.loc 1 640 9
 640:arch/riscv/mach-gd32vf10x/bsp/gd32vf103_fmc.c ****         timeout--;
 2157              		.loc 1 640 21 is_stmt 0
 2158 0064 97000000 		call	fmc_state_get
 2158      E7800000 
 2159              	.LVL192:
 641:arch/riscv/mach-gd32vf10x/bsp/gd32vf103_fmc.c ****     }while((FMC_BUSY == fmc_state) && (0x00U != timeout));
 2160              		.loc 1 641 9 is_stmt 1
 2161 006c 7D14     		addi	s0,s0,-1
 2162              	.LVL193:
 642:arch/riscv/mach-gd32vf10x/bsp/gd32vf103_fmc.c **** 
 2163              		.loc 1 642 5 is_stmt 0
 2164 006e E30A95FE 		beq	a0,s1,.L197
 644:arch/riscv/mach-gd32vf10x/bsp/gd32vf103_fmc.c ****         fmc_state = FMC_TOERR;
 2165              		.loc 1 644 5 is_stmt 1
 2166              		.loc 1 648 5
 2167              	.LVL194:
 2168              	.LBE167:
 2169              	.LBE168:
 405:arch/riscv/mach-gd32vf10x/bsp/gd32vf103_fmc.c ****             /* reset the OBPG bit */
 2170              		.loc 1 405 9
GAS LISTING C:\Users\test\AppData\Local\Temp\cc0O9IID.s 			page 58


 405:arch/riscv/mach-gd32vf10x/bsp/gd32vf103_fmc.c ****             /* reset the OBPG bit */
 2171              		.loc 1 405 11 is_stmt 0
 2172 0072 9147     		li	a5,4
 2173 0074 6307F500 		beq	a0,a5,.L184
 407:arch/riscv/mach-gd32vf10x/bsp/gd32vf103_fmc.c ****         }
 2174              		.loc 1 407 13 is_stmt 1
 407:arch/riscv/mach-gd32vf10x/bsp/gd32vf103_fmc.c ****         }
 2175              		.loc 1 407 22 is_stmt 0
 2176 0078 37270240 		li	a4,1073881088
 2177 007c 1C4B     		lw	a5,16(a4)
 2178 007e BD9B     		andi	a5,a5,-17
 2179 0080 1CCB     		sw	a5,16(a4)
 411:arch/riscv/mach-gd32vf10x/bsp/gd32vf103_fmc.c **** }
 2180              		.loc 1 411 5 is_stmt 1
 2181              	.LVL195:
 2182              	.L184:
 412:arch/riscv/mach-gd32vf10x/bsp/gd32vf103_fmc.c **** 
 2183              		.loc 1 412 1 is_stmt 0
 2184 0082 F240     		lw	ra,28(sp)
 2185              		.cfi_remember_state
 2186              		.cfi_restore 1
 2187 0084 6244     		lw	s0,24(sp)
 2188              		.cfi_restore 8
 2189 0086 D244     		lw	s1,20(sp)
 2190              		.cfi_restore 9
 2191 0088 4249     		lw	s2,16(sp)
 2192              		.cfi_restore 18
 2193 008a B249     		lw	s3,12(sp)
 2194              		.cfi_restore 19
 2195 008c 224A     		lw	s4,8(sp)
 2196              		.cfi_restore 20
 2197 008e 924A     		lw	s5,4(sp)
 2198              		.cfi_restore 21
 2199 0090 0561     		addi	sp,sp,32
 2200              	.LCFI36:
 2201              		.cfi_def_cfa_offset 0
 2202 0092 8280     		jr	ra
 2203              	.L190:
 2204              	.LCFI37:
 2205              		.cfi_restore_state
 2206              	.LBB169:
 2207              	.LBB163:
 645:arch/riscv/mach-gd32vf10x/bsp/gd32vf103_fmc.c ****     }
 2208              		.loc 1 645 19
 2209 0094 1145     		li	a0,4
 2210 0096 F5B7     		j	.L184
 2211              	.LBE163:
 2212              	.LBE169:
 2213              		.cfi_endproc
 2214              	.LFE14:
 2216              		.section	.text.ob_data_program,"ax",@progbits
 2217              		.align	1
 2218              		.globl	ob_data_program
 2220              	ob_data_program:
 2221              	.LFB15:
 421:arch/riscv/mach-gd32vf10x/bsp/gd32vf103_fmc.c ****     fmc_state_enum fmc_state = fmc_ready_wait(FMC_TIMEOUT_COUNT);
 2222              		.loc 1 421 64 is_stmt 1
GAS LISTING C:\Users\test\AppData\Local\Temp\cc0O9IID.s 			page 59


 2223              		.cfi_startproc
 2224              	.LVL196:
 422:arch/riscv/mach-gd32vf10x/bsp/gd32vf103_fmc.c **** 
 2225              		.loc 1 422 5
 2226              	.LBB170:
 2227              	.LBB171:
 635:arch/riscv/mach-gd32vf10x/bsp/gd32vf103_fmc.c **** 
 2228              		.loc 1 635 5
 2229              	.LBE171:
 2230              	.LBE170:
 421:arch/riscv/mach-gd32vf10x/bsp/gd32vf103_fmc.c ****     fmc_state_enum fmc_state = fmc_ready_wait(FMC_TIMEOUT_COUNT);
 2231              		.loc 1 421 64 is_stmt 0
 2232 0000 0111     		addi	sp,sp,-32
 2233              	.LCFI38:
 2234              		.cfi_def_cfa_offset 32
 2235 0002 22CC     		sw	s0,24(sp)
 2236 0004 26CA     		sw	s1,20(sp)
 2237 0006 4AC8     		sw	s2,16(sp)
 2238 0008 4EC6     		sw	s3,12(sp)
 2239 000a 06CE     		sw	ra,28(sp)
 2240              		.cfi_offset 8, -8
 2241              		.cfi_offset 9, -12
 2242              		.cfi_offset 18, -16
 2243              		.cfi_offset 19, -20
 2244              		.cfi_offset 1, -4
 421:arch/riscv/mach-gd32vf10x/bsp/gd32vf103_fmc.c ****     fmc_state_enum fmc_state = fmc_ready_wait(FMC_TIMEOUT_COUNT);
 2245              		.loc 1 421 64
 2246 000c AA89     		mv	s3,a0
 2247 000e 2E89     		mv	s2,a1
 2248 0010 37040F00 		li	s0,983040
 2249              	.LBB174:
 2250              	.LBB172:
 642:arch/riscv/mach-gd32vf10x/bsp/gd32vf103_fmc.c **** 
 2251              		.loc 1 642 5
 2252 0014 8544     		li	s1,1
 2253 0016 11A0     		j	.L200
 2254              	.LVL197:
 2255              	.L210:
 642:arch/riscv/mach-gd32vf10x/bsp/gd32vf103_fmc.c **** 
 2256              		.loc 1 642 36
 2257 0018 39CC     		beq	s0,zero,.L204
 2258              	.LVL198:
 2259              	.L200:
 638:arch/riscv/mach-gd32vf10x/bsp/gd32vf103_fmc.c ****         /* get FMC state */
 2260              		.loc 1 638 5 is_stmt 1
 640:arch/riscv/mach-gd32vf10x/bsp/gd32vf103_fmc.c ****         timeout--;
 2261              		.loc 1 640 9
 640:arch/riscv/mach-gd32vf10x/bsp/gd32vf103_fmc.c ****         timeout--;
 2262              		.loc 1 640 21 is_stmt 0
 2263 001a 97000000 		call	fmc_state_get
 2263      E7800000 
 2264              	.LVL199:
 641:arch/riscv/mach-gd32vf10x/bsp/gd32vf103_fmc.c ****     }while((FMC_BUSY == fmc_state) && (0x00U != timeout));
 2265              		.loc 1 641 9 is_stmt 1
 2266 0022 7D14     		addi	s0,s0,-1
 2267              	.LVL200:
 642:arch/riscv/mach-gd32vf10x/bsp/gd32vf103_fmc.c **** 
GAS LISTING C:\Users\test\AppData\Local\Temp\cc0O9IID.s 			page 60


 2268              		.loc 1 642 5 is_stmt 0
 2269 0024 E30A95FE 		beq	a0,s1,.L210
 644:arch/riscv/mach-gd32vf10x/bsp/gd32vf103_fmc.c ****         fmc_state = FMC_TOERR;
 2270              		.loc 1 644 5 is_stmt 1
 2271              		.loc 1 648 5
 2272              	.LVL201:
 2273              	.LBE172:
 2274              	.LBE174:
 424:arch/riscv/mach-gd32vf10x/bsp/gd32vf103_fmc.c ****         /* set the OBPG bit */
 2275              		.loc 1 424 5
 424:arch/riscv/mach-gd32vf10x/bsp/gd32vf103_fmc.c ****         /* set the OBPG bit */
 2276              		.loc 1 424 7 is_stmt 0
 2277 0028 21E1     		bne	a0,zero,.L198
 426:arch/riscv/mach-gd32vf10x/bsp/gd32vf103_fmc.c ****         REG16(address) = data;
 2278              		.loc 1 426 9 is_stmt 1
 426:arch/riscv/mach-gd32vf10x/bsp/gd32vf103_fmc.c ****         REG16(address) = data;
 2279              		.loc 1 426 18 is_stmt 0
 2280 002a 37270240 		li	a4,1073881088
 2281 002e 1C4B     		lw	a5,16(a4)
 427:arch/riscv/mach-gd32vf10x/bsp/gd32vf103_fmc.c **** 
 2282              		.loc 1 427 24
 2283 0030 4209     		slli	s2,s2,16
 2284 0032 13590901 		srli	s2,s2,16
 426:arch/riscv/mach-gd32vf10x/bsp/gd32vf103_fmc.c ****         REG16(address) = data;
 2285              		.loc 1 426 18
 2286 0036 93E70701 		ori	a5,a5,16
 2287 003a 1CCB     		sw	a5,16(a4)
 427:arch/riscv/mach-gd32vf10x/bsp/gd32vf103_fmc.c **** 
 2288              		.loc 1 427 9 is_stmt 1
 427:arch/riscv/mach-gd32vf10x/bsp/gd32vf103_fmc.c **** 
 2289              		.loc 1 427 24 is_stmt 0
 2290 003c 37040F00 		li	s0,983040
 2291 0040 23902901 		sh	s2,0(s3)
 430:arch/riscv/mach-gd32vf10x/bsp/gd32vf103_fmc.c **** 
 2292              		.loc 1 430 9 is_stmt 1
 2293              	.LVL202:
 2294              	.LBB175:
 2295              	.LBB176:
 635:arch/riscv/mach-gd32vf10x/bsp/gd32vf103_fmc.c **** 
 2296              		.loc 1 635 5
 642:arch/riscv/mach-gd32vf10x/bsp/gd32vf103_fmc.c **** 
 2297              		.loc 1 642 5 is_stmt 0
 2298 0044 8544     		li	s1,1
 2299 0046 11A0     		j	.L203
 2300              	.LVL203:
 2301              	.L211:
 642:arch/riscv/mach-gd32vf10x/bsp/gd32vf103_fmc.c **** 
 2302              		.loc 1 642 36
 2303 0048 1DC4     		beq	s0,zero,.L204
 2304              	.LVL204:
 2305              	.L203:
 638:arch/riscv/mach-gd32vf10x/bsp/gd32vf103_fmc.c ****         /* get FMC state */
 2306              		.loc 1 638 5 is_stmt 1
 640:arch/riscv/mach-gd32vf10x/bsp/gd32vf103_fmc.c ****         timeout--;
 2307              		.loc 1 640 9
 640:arch/riscv/mach-gd32vf10x/bsp/gd32vf103_fmc.c ****         timeout--;
 2308              		.loc 1 640 21 is_stmt 0
GAS LISTING C:\Users\test\AppData\Local\Temp\cc0O9IID.s 			page 61


 2309 004a 97000000 		call	fmc_state_get
 2309      E7800000 
 2310              	.LVL205:
 641:arch/riscv/mach-gd32vf10x/bsp/gd32vf103_fmc.c ****     }while((FMC_BUSY == fmc_state) && (0x00U != timeout));
 2311              		.loc 1 641 9 is_stmt 1
 2312 0052 7D14     		addi	s0,s0,-1
 2313              	.LVL206:
 642:arch/riscv/mach-gd32vf10x/bsp/gd32vf103_fmc.c **** 
 2314              		.loc 1 642 5 is_stmt 0
 2315 0054 E30A95FE 		beq	a0,s1,.L211
 644:arch/riscv/mach-gd32vf10x/bsp/gd32vf103_fmc.c ****         fmc_state = FMC_TOERR;
 2316              		.loc 1 644 5 is_stmt 1
 2317              		.loc 1 648 5
 2318              	.LVL207:
 2319              	.LBE176:
 2320              	.LBE175:
 432:arch/riscv/mach-gd32vf10x/bsp/gd32vf103_fmc.c ****             /* reset the OBPG bit */
 2321              		.loc 1 432 9
 432:arch/riscv/mach-gd32vf10x/bsp/gd32vf103_fmc.c ****             /* reset the OBPG bit */
 2322              		.loc 1 432 11 is_stmt 0
 2323 0058 9147     		li	a5,4
 2324 005a 6307F500 		beq	a0,a5,.L198
 434:arch/riscv/mach-gd32vf10x/bsp/gd32vf103_fmc.c ****         }
 2325              		.loc 1 434 13 is_stmt 1
 434:arch/riscv/mach-gd32vf10x/bsp/gd32vf103_fmc.c ****         }
 2326              		.loc 1 434 22 is_stmt 0
 2327 005e 37270240 		li	a4,1073881088
 2328 0062 1C4B     		lw	a5,16(a4)
 2329 0064 BD9B     		andi	a5,a5,-17
 2330 0066 1CCB     		sw	a5,16(a4)
 438:arch/riscv/mach-gd32vf10x/bsp/gd32vf103_fmc.c **** }
 2331              		.loc 1 438 5 is_stmt 1
 2332              	.L198:
 439:arch/riscv/mach-gd32vf10x/bsp/gd32vf103_fmc.c **** 
 2333              		.loc 1 439 1 is_stmt 0
 2334 0068 F240     		lw	ra,28(sp)
 2335              		.cfi_remember_state
 2336              		.cfi_restore 1
 2337 006a 6244     		lw	s0,24(sp)
 2338              		.cfi_restore 8
 2339 006c D244     		lw	s1,20(sp)
 2340              		.cfi_restore 9
 2341 006e 4249     		lw	s2,16(sp)
 2342              		.cfi_restore 18
 2343 0070 B249     		lw	s3,12(sp)
 2344              		.cfi_restore 19
 2345              	.LVL208:
 2346 0072 0561     		addi	sp,sp,32
 2347              	.LCFI39:
 2348              		.cfi_def_cfa_offset 0
 2349 0074 8280     		jr	ra
 2350              	.LVL209:
 2351              	.L204:
 2352              	.LCFI40:
 2353              		.cfi_restore_state
 2354 0076 F240     		lw	ra,28(sp)
 2355              		.cfi_restore 1
GAS LISTING C:\Users\test\AppData\Local\Temp\cc0O9IID.s 			page 62


 2356 0078 6244     		lw	s0,24(sp)
 2357              		.cfi_restore 8
 2358 007a D244     		lw	s1,20(sp)
 2359              		.cfi_restore 9
 2360 007c 4249     		lw	s2,16(sp)
 2361              		.cfi_restore 18
 2362 007e B249     		lw	s3,12(sp)
 2363              		.cfi_restore 19
 2364              	.LVL210:
 2365              	.LBB177:
 2366              	.LBB173:
 645:arch/riscv/mach-gd32vf10x/bsp/gd32vf103_fmc.c ****     }
 2367              		.loc 1 645 19
 2368 0080 1145     		li	a0,4
 2369              	.LBE173:
 2370              	.LBE177:
 439:arch/riscv/mach-gd32vf10x/bsp/gd32vf103_fmc.c **** 
 2371              		.loc 1 439 1
 2372 0082 0561     		addi	sp,sp,32
 2373              	.LCFI41:
 2374              		.cfi_def_cfa_offset 0
 2375 0084 8280     		jr	ra
 2376              		.cfi_endproc
 2377              	.LFE15:
 2379              		.section	.text.fmc_ready_wait,"ax",@progbits
 2380              		.align	1
 2381              		.globl	fmc_ready_wait
 2383              	fmc_ready_wait:
 2384              	.LFB27:
 634:arch/riscv/mach-gd32vf10x/bsp/gd32vf103_fmc.c ****     fmc_state_enum fmc_state = FMC_BUSY;
 2385              		.loc 1 634 1 is_stmt 1
 2386              		.cfi_startproc
 2387              	.LVL211:
 635:arch/riscv/mach-gd32vf10x/bsp/gd32vf103_fmc.c **** 
 2388              		.loc 1 635 5
 634:arch/riscv/mach-gd32vf10x/bsp/gd32vf103_fmc.c ****     fmc_state_enum fmc_state = FMC_BUSY;
 2389              		.loc 1 634 1 is_stmt 0
 2390 0000 4111     		addi	sp,sp,-16
 2391              	.LCFI42:
 2392              		.cfi_def_cfa_offset 16
 2393 0002 22C4     		sw	s0,8(sp)
 2394 0004 26C2     		sw	s1,4(sp)
 2395 0006 06C6     		sw	ra,12(sp)
 2396              		.cfi_offset 8, -8
 2397              		.cfi_offset 9, -12
 2398              		.cfi_offset 1, -4
 634:arch/riscv/mach-gd32vf10x/bsp/gd32vf103_fmc.c ****     fmc_state_enum fmc_state = FMC_BUSY;
 2399              		.loc 1 634 1
 2400 0008 2A84     		mv	s0,a0
 642:arch/riscv/mach-gd32vf10x/bsp/gd32vf103_fmc.c **** 
 2401              		.loc 1 642 5
 2402 000a 8544     		li	s1,1
 2403 000c 11A0     		j	.L214
 2404              	.LVL212:
 2405              	.L218:
 642:arch/riscv/mach-gd32vf10x/bsp/gd32vf103_fmc.c **** 
 2406              		.loc 1 642 36 discriminator 1
GAS LISTING C:\Users\test\AppData\Local\Temp\cc0O9IID.s 			page 63


 2407 000e 09CC     		beq	s0,zero,.L217
 2408              	.LVL213:
 2409              	.L214:
 638:arch/riscv/mach-gd32vf10x/bsp/gd32vf103_fmc.c ****         /* get FMC state */
 2410              		.loc 1 638 5 is_stmt 1 discriminator 2
 640:arch/riscv/mach-gd32vf10x/bsp/gd32vf103_fmc.c ****         timeout--;
 2411              		.loc 1 640 9 discriminator 2
 640:arch/riscv/mach-gd32vf10x/bsp/gd32vf103_fmc.c ****         timeout--;
 2412              		.loc 1 640 21 is_stmt 0 discriminator 2
 2413 0010 97000000 		call	fmc_state_get
 2413      E7800000 
 2414              	.LVL214:
 641:arch/riscv/mach-gd32vf10x/bsp/gd32vf103_fmc.c ****     }while((FMC_BUSY == fmc_state) && (0x00U != timeout));
 2415              		.loc 1 641 9 is_stmt 1 discriminator 2
 641:arch/riscv/mach-gd32vf10x/bsp/gd32vf103_fmc.c ****     }while((FMC_BUSY == fmc_state) && (0x00U != timeout));
 2416              		.loc 1 641 16 is_stmt 0 discriminator 2
 2417 0018 7D14     		addi	s0,s0,-1
 2418              	.LVL215:
 642:arch/riscv/mach-gd32vf10x/bsp/gd32vf103_fmc.c **** 
 2419              		.loc 1 642 5 discriminator 2
 2420 001a E30A95FE 		beq	a0,s1,.L218
 649:arch/riscv/mach-gd32vf10x/bsp/gd32vf103_fmc.c **** }
 2421              		.loc 1 649 1
 2422 001e B240     		lw	ra,12(sp)
 2423              		.cfi_remember_state
 2424              		.cfi_restore 1
 2425 0020 2244     		lw	s0,8(sp)
 2426              		.cfi_restore 8
 2427              	.LVL216:
 2428 0022 9244     		lw	s1,4(sp)
 2429              		.cfi_restore 9
 2430 0024 4101     		addi	sp,sp,16
 2431              	.LCFI43:
 2432              		.cfi_def_cfa_offset 0
 2433 0026 8280     		jr	ra
 2434              	.LVL217:
 2435              	.L217:
 2436              	.LCFI44:
 2437              		.cfi_restore_state
 2438 0028 B240     		lw	ra,12(sp)
 2439              		.cfi_restore 1
 2440 002a 2244     		lw	s0,8(sp)
 2441              		.cfi_restore 8
 2442              	.LVL218:
 2443 002c 9244     		lw	s1,4(sp)
 2444              		.cfi_restore 9
 645:arch/riscv/mach-gd32vf10x/bsp/gd32vf103_fmc.c ****     }
 2445              		.loc 1 645 19
 2446 002e 1145     		li	a0,4
 2447              	.LVL219:
 648:arch/riscv/mach-gd32vf10x/bsp/gd32vf103_fmc.c **** }
 2448              		.loc 1 648 5 is_stmt 1
 2449              		.loc 1 649 1 is_stmt 0
 2450 0030 4101     		addi	sp,sp,16
 2451              	.LCFI45:
 2452              		.cfi_def_cfa_offset 0
 2453 0032 8280     		jr	ra
GAS LISTING C:\Users\test\AppData\Local\Temp\cc0O9IID.s 			page 64


 2454              		.cfi_endproc
 2455              	.LFE27:
 2457              		.text
 2458              	.Letext0:
 2459              		.file 2 "d:\\risc_v_gcc\\riscv-none-embed\\include\\machine\\_default_types.h"
 2460              		.file 3 "d:\\risc_v_gcc\\riscv-none-embed\\include\\sys\\_stdint.h"
 2461              		.file 4 "arch/riscv/mach-gd32vf10x/system/gd32vf103.h"
 2462              		.file 5 "arch/riscv/mach-gd32vf10x/bsp/gd32vf103_fmc.h"
 2463              		.file 6 "arch/riscv/mach-gd32vf10x/system/system_gd32vf103.h"
GAS LISTING C:\Users\test\AppData\Local\Temp\cc0O9IID.s 			page 65


DEFINED SYMBOLS
                            *ABS*:0000000000000000 gd32vf103_fmc.c
C:\Users\test\AppData\Local\Temp\cc0O9IID.s:10     .text.fmc_wscnt_set:0000000000000000 fmc_wscnt_set
C:\Users\test\AppData\Local\Temp\cc0O9IID.s:14     .text.fmc_wscnt_set:0000000000000000 .L0 
C:\Users\test\AppData\Local\Temp\cc0O9IID.s:16     .text.fmc_wscnt_set:0000000000000000 .L0 
C:\Users\test\AppData\Local\Temp\cc0O9IID.s:17     .text.fmc_wscnt_set:0000000000000000 .L0 
C:\Users\test\AppData\Local\Temp\cc0O9IID.s:18     .text.fmc_wscnt_set:0000000000000000 .L0 
C:\Users\test\AppData\Local\Temp\cc0O9IID.s:19     .text.fmc_wscnt_set:0000000000000000 .L0 
C:\Users\test\AppData\Local\Temp\cc0O9IID.s:23     .text.fmc_wscnt_set:0000000000000006 .L0 
C:\Users\test\AppData\Local\Temp\cc0O9IID.s:24     .text.fmc_wscnt_set:0000000000000006 .L0 
C:\Users\test\AppData\Local\Temp\cc0O9IID.s:25     .text.fmc_wscnt_set:0000000000000006 .L0 
C:\Users\test\AppData\Local\Temp\cc0O9IID.s:28     .text.fmc_wscnt_set:0000000000000008 .L0 
C:\Users\test\AppData\Local\Temp\cc0O9IID.s:31     .text.fmc_wscnt_set:000000000000000a .L0 
C:\Users\test\AppData\Local\Temp\cc0O9IID.s:33     .text.fmc_wscnt_set:000000000000000c .L0 
C:\Users\test\AppData\Local\Temp\cc0O9IID.s:34     .text.fmc_wscnt_set:000000000000000e .L0 
C:\Users\test\AppData\Local\Temp\cc0O9IID.s:41     .text.fmc_unlock:0000000000000000 fmc_unlock
C:\Users\test\AppData\Local\Temp\cc0O9IID.s:44     .text.fmc_unlock:0000000000000000 .L0 
C:\Users\test\AppData\Local\Temp\cc0O9IID.s:45     .text.fmc_unlock:0000000000000000 .L0 
C:\Users\test\AppData\Local\Temp\cc0O9IID.s:46     .text.fmc_unlock:0000000000000000 .L0 
C:\Users\test\AppData\Local\Temp\cc0O9IID.s:47     .text.fmc_unlock:0000000000000000 .L0 
C:\Users\test\AppData\Local\Temp\cc0O9IID.s:50     .text.fmc_unlock:0000000000000006 .L0 
C:\Users\test\AppData\Local\Temp\cc0O9IID.s:52     .text.fmc_unlock:000000000000000a .L0 
C:\Users\test\AppData\Local\Temp\cc0O9IID.s:54     .text.fmc_unlock:000000000000000c .L0 
C:\Users\test\AppData\Local\Temp\cc0O9IID.s:55     .text.fmc_unlock:000000000000000c .L0 
C:\Users\test\AppData\Local\Temp\cc0O9IID.s:59     .text.fmc_unlock:0000000000000016 .L0 
C:\Users\test\AppData\Local\Temp\cc0O9IID.s:60     .text.fmc_unlock:0000000000000016 .L0 
C:\Users\test\AppData\Local\Temp\cc0O9IID.s:65     .text.fmc_unlock:0000000000000020 .L0 
C:\Users\test\AppData\Local\Temp\cc0O9IID.s:66     .text.fmc_unlock:0000000000000022 .L0 
C:\Users\test\AppData\Local\Temp\cc0O9IID.s:73     .text.fmc_lock:0000000000000000 fmc_lock
C:\Users\test\AppData\Local\Temp\cc0O9IID.s:76     .text.fmc_lock:0000000000000000 .L0 
C:\Users\test\AppData\Local\Temp\cc0O9IID.s:77     .text.fmc_lock:0000000000000000 .L0 
C:\Users\test\AppData\Local\Temp\cc0O9IID.s:78     .text.fmc_lock:0000000000000000 .L0 
C:\Users\test\AppData\Local\Temp\cc0O9IID.s:79     .text.fmc_lock:0000000000000000 .L0 
C:\Users\test\AppData\Local\Temp\cc0O9IID.s:84     .text.fmc_lock:000000000000000c .L0 
C:\Users\test\AppData\Local\Temp\cc0O9IID.s:85     .text.fmc_lock:000000000000000e .L0 
C:\Users\test\AppData\Local\Temp\cc0O9IID.s:92     .text.ob_unlock:0000000000000000 ob_unlock
C:\Users\test\AppData\Local\Temp\cc0O9IID.s:95     .text.ob_unlock:0000000000000000 .L0 
C:\Users\test\AppData\Local\Temp\cc0O9IID.s:96     .text.ob_unlock:0000000000000000 .L0 
C:\Users\test\AppData\Local\Temp\cc0O9IID.s:97     .text.ob_unlock:0000000000000000 .L0 
C:\Users\test\AppData\Local\Temp\cc0O9IID.s:98     .text.ob_unlock:0000000000000000 .L0 
C:\Users\test\AppData\Local\Temp\cc0O9IID.s:101    .text.ob_unlock:0000000000000006 .L0 
C:\Users\test\AppData\Local\Temp\cc0O9IID.s:103    .text.ob_unlock:000000000000000a .L0 
C:\Users\test\AppData\Local\Temp\cc0O9IID.s:105    .text.ob_unlock:000000000000000c .L0 
C:\Users\test\AppData\Local\Temp\cc0O9IID.s:106    .text.ob_unlock:000000000000000c .L0 
C:\Users\test\AppData\Local\Temp\cc0O9IID.s:110    .text.ob_unlock:0000000000000016 .L0 
C:\Users\test\AppData\Local\Temp\cc0O9IID.s:111    .text.ob_unlock:0000000000000016 .L0 
C:\Users\test\AppData\Local\Temp\cc0O9IID.s:116    .text.ob_unlock:0000000000000020 .L0 
C:\Users\test\AppData\Local\Temp\cc0O9IID.s:119    .text.ob_unlock:0000000000000024 .L0 
C:\Users\test\AppData\Local\Temp\cc0O9IID.s:120    .text.ob_unlock:0000000000000024 .L0 
C:\Users\test\AppData\Local\Temp\cc0O9IID.s:122    .text.ob_unlock:0000000000000026 .L0 
C:\Users\test\AppData\Local\Temp\cc0O9IID.s:124    .text.ob_unlock:000000000000002a .L0 
C:\Users\test\AppData\Local\Temp\cc0O9IID.s:126    .text.ob_unlock:000000000000002c .L0 
C:\Users\test\AppData\Local\Temp\cc0O9IID.s:127    .text.ob_unlock:000000000000002e .L0 
C:\Users\test\AppData\Local\Temp\cc0O9IID.s:134    .text.ob_lock:0000000000000000 ob_lock
C:\Users\test\AppData\Local\Temp\cc0O9IID.s:137    .text.ob_lock:0000000000000000 .L0 
C:\Users\test\AppData\Local\Temp\cc0O9IID.s:138    .text.ob_lock:0000000000000000 .L0 
C:\Users\test\AppData\Local\Temp\cc0O9IID.s:139    .text.ob_lock:0000000000000000 .L0 
GAS LISTING C:\Users\test\AppData\Local\Temp\cc0O9IID.s 			page 66


C:\Users\test\AppData\Local\Temp\cc0O9IID.s:140    .text.ob_lock:0000000000000000 .L0 
C:\Users\test\AppData\Local\Temp\cc0O9IID.s:145    .text.ob_lock:000000000000000c .L0 
C:\Users\test\AppData\Local\Temp\cc0O9IID.s:146    .text.ob_lock:000000000000000e .L0 
C:\Users\test\AppData\Local\Temp\cc0O9IID.s:153    .text.ob_user_get:0000000000000000 ob_user_get
C:\Users\test\AppData\Local\Temp\cc0O9IID.s:156    .text.ob_user_get:0000000000000000 .L0 
C:\Users\test\AppData\Local\Temp\cc0O9IID.s:157    .text.ob_user_get:0000000000000000 .L0 
C:\Users\test\AppData\Local\Temp\cc0O9IID.s:158    .text.ob_user_get:0000000000000000 .L0 
C:\Users\test\AppData\Local\Temp\cc0O9IID.s:159    .text.ob_user_get:0000000000000000 .L0 
C:\Users\test\AppData\Local\Temp\cc0O9IID.s:162    .text.ob_user_get:0000000000000006 .L0 
C:\Users\test\AppData\Local\Temp\cc0O9IID.s:164    .text.ob_user_get:0000000000000008 .L0 
C:\Users\test\AppData\Local\Temp\cc0O9IID.s:166    .text.ob_user_get:000000000000000e .L0 
C:\Users\test\AppData\Local\Temp\cc0O9IID.s:173    .text.ob_data_get:0000000000000000 ob_data_get
C:\Users\test\AppData\Local\Temp\cc0O9IID.s:176    .text.ob_data_get:0000000000000000 .L0 
C:\Users\test\AppData\Local\Temp\cc0O9IID.s:177    .text.ob_data_get:0000000000000000 .L0 
C:\Users\test\AppData\Local\Temp\cc0O9IID.s:178    .text.ob_data_get:0000000000000000 .L0 
C:\Users\test\AppData\Local\Temp\cc0O9IID.s:179    .text.ob_data_get:0000000000000000 .L0 
C:\Users\test\AppData\Local\Temp\cc0O9IID.s:182    .text.ob_data_get:0000000000000006 .L0 
C:\Users\test\AppData\Local\Temp\cc0O9IID.s:184    .text.ob_data_get:0000000000000008 .L0 
C:\Users\test\AppData\Local\Temp\cc0O9IID.s:187    .text.ob_data_get:000000000000000e .L0 
C:\Users\test\AppData\Local\Temp\cc0O9IID.s:194    .text.ob_write_protection_get:0000000000000000 ob_write_protection_get
C:\Users\test\AppData\Local\Temp\cc0O9IID.s:197    .text.ob_write_protection_get:0000000000000000 .L0 
C:\Users\test\AppData\Local\Temp\cc0O9IID.s:198    .text.ob_write_protection_get:0000000000000000 .L0 
C:\Users\test\AppData\Local\Temp\cc0O9IID.s:199    .text.ob_write_protection_get:0000000000000000 .L0 
C:\Users\test\AppData\Local\Temp\cc0O9IID.s:200    .text.ob_write_protection_get:0000000000000000 .L0 
C:\Users\test\AppData\Local\Temp\cc0O9IID.s:203    .text.ob_write_protection_get:0000000000000006 .L0 
C:\Users\test\AppData\Local\Temp\cc0O9IID.s:204    .text.ob_write_protection_get:0000000000000008 .L0 
C:\Users\test\AppData\Local\Temp\cc0O9IID.s:211    .text.ob_spc_get:0000000000000000 ob_spc_get
C:\Users\test\AppData\Local\Temp\cc0O9IID.s:214    .text.ob_spc_get:0000000000000000 .L0 
C:\Users\test\AppData\Local\Temp\cc0O9IID.s:215    .text.ob_spc_get:0000000000000000 .L0 
C:\Users\test\AppData\Local\Temp\cc0O9IID.s:217    .text.ob_spc_get:0000000000000000 .L0 
C:\Users\test\AppData\Local\Temp\cc0O9IID.s:218    .text.ob_spc_get:0000000000000000 .L0 
C:\Users\test\AppData\Local\Temp\cc0O9IID.s:219    .text.ob_spc_get:0000000000000000 .L0 
C:\Users\test\AppData\Local\Temp\cc0O9IID.s:223    .text.ob_spc_get:0000000000000006 .L0 
C:\Users\test\AppData\Local\Temp\cc0O9IID.s:224    .text.ob_spc_get:0000000000000006 .L0 
C:\Users\test\AppData\Local\Temp\cc0O9IID.s:227    .text.ob_spc_get:0000000000000008 .L0 
C:\Users\test\AppData\Local\Temp\cc0O9IID.s:229    .text.ob_spc_get:000000000000000c .L0 
C:\Users\test\AppData\Local\Temp\cc0O9IID.s:236    .text.fmc_interrupt_enable:0000000000000000 fmc_interrupt_enable
C:\Users\test\AppData\Local\Temp\cc0O9IID.s:239    .text.fmc_interrupt_enable:0000000000000000 .L0 
C:\Users\test\AppData\Local\Temp\cc0O9IID.s:241    .text.fmc_interrupt_enable:0000000000000000 .L0 
C:\Users\test\AppData\Local\Temp\cc0O9IID.s:242    .text.fmc_interrupt_enable:0000000000000000 .L0 
C:\Users\test\AppData\Local\Temp\cc0O9IID.s:243    .text.fmc_interrupt_enable:0000000000000000 .L0 
C:\Users\test\AppData\Local\Temp\cc0O9IID.s:248    .text.fmc_interrupt_enable:000000000000000c .L0 
C:\Users\test\AppData\Local\Temp\cc0O9IID.s:251    .text.fmc_interrupt_enable:0000000000000012 .L0 
C:\Users\test\AppData\Local\Temp\cc0O9IID.s:254    .text.fmc_interrupt_enable:0000000000000016 .L0 
C:\Users\test\AppData\Local\Temp\cc0O9IID.s:255    .text.fmc_interrupt_enable:0000000000000018 .L0 
C:\Users\test\AppData\Local\Temp\cc0O9IID.s:262    .text.fmc_interrupt_disable:0000000000000000 fmc_interrupt_disable
C:\Users\test\AppData\Local\Temp\cc0O9IID.s:265    .text.fmc_interrupt_disable:0000000000000000 .L0 
C:\Users\test\AppData\Local\Temp\cc0O9IID.s:267    .text.fmc_interrupt_disable:0000000000000000 .L0 
C:\Users\test\AppData\Local\Temp\cc0O9IID.s:268    .text.fmc_interrupt_disable:0000000000000000 .L0 
C:\Users\test\AppData\Local\Temp\cc0O9IID.s:269    .text.fmc_interrupt_disable:0000000000000000 .L0 
C:\Users\test\AppData\Local\Temp\cc0O9IID.s:274    .text.fmc_interrupt_disable:000000000000000c .L0 
C:\Users\test\AppData\Local\Temp\cc0O9IID.s:277    .text.fmc_interrupt_disable:0000000000000012 .L0 
C:\Users\test\AppData\Local\Temp\cc0O9IID.s:279    .text.fmc_interrupt_disable:0000000000000016 .L0 
C:\Users\test\AppData\Local\Temp\cc0O9IID.s:282    .text.fmc_interrupt_disable:000000000000001a .L0 
C:\Users\test\AppData\Local\Temp\cc0O9IID.s:283    .text.fmc_interrupt_disable:000000000000001c .L0 
C:\Users\test\AppData\Local\Temp\cc0O9IID.s:290    .text.fmc_flag_get:0000000000000000 fmc_flag_get
C:\Users\test\AppData\Local\Temp\cc0O9IID.s:293    .text.fmc_flag_get:0000000000000000 .L0 
GAS LISTING C:\Users\test\AppData\Local\Temp\cc0O9IID.s 			page 67


C:\Users\test\AppData\Local\Temp\cc0O9IID.s:295    .text.fmc_flag_get:0000000000000000 .L0 
C:\Users\test\AppData\Local\Temp\cc0O9IID.s:296    .text.fmc_flag_get:0000000000000000 .L0 
C:\Users\test\AppData\Local\Temp\cc0O9IID.s:297    .text.fmc_flag_get:0000000000000000 .L0 
C:\Users\test\AppData\Local\Temp\cc0O9IID.s:302    .text.fmc_flag_get:000000000000000c .L0 
C:\Users\test\AppData\Local\Temp\cc0O9IID.s:305    .text.fmc_flag_get:0000000000000010 .L0 
C:\Users\test\AppData\Local\Temp\cc0O9IID.s:307    .text.fmc_flag_get:0000000000000014 .L0 
C:\Users\test\AppData\Local\Temp\cc0O9IID.s:314    .text.fmc_flag_clear:0000000000000000 fmc_flag_clear
C:\Users\test\AppData\Local\Temp\cc0O9IID.s:317    .text.fmc_flag_clear:0000000000000000 .L0 
C:\Users\test\AppData\Local\Temp\cc0O9IID.s:319    .text.fmc_flag_clear:0000000000000000 .L0 
C:\Users\test\AppData\Local\Temp\cc0O9IID.s:320    .text.fmc_flag_clear:0000000000000000 .L0 
C:\Users\test\AppData\Local\Temp\cc0O9IID.s:321    .text.fmc_flag_clear:0000000000000000 .L0 
C:\Users\test\AppData\Local\Temp\cc0O9IID.s:326    .text.fmc_flag_clear:000000000000000c .L0 
C:\Users\test\AppData\Local\Temp\cc0O9IID.s:329    .text.fmc_flag_clear:0000000000000012 .L0 
C:\Users\test\AppData\Local\Temp\cc0O9IID.s:331    .text.fmc_flag_clear:0000000000000016 .L0 
C:\Users\test\AppData\Local\Temp\cc0O9IID.s:333    .text.fmc_flag_clear:0000000000000018 .L0 
C:\Users\test\AppData\Local\Temp\cc0O9IID.s:335    .text.fmc_flag_clear:000000000000001a .L0 
C:\Users\test\AppData\Local\Temp\cc0O9IID.s:336    .text.fmc_flag_clear:000000000000001c .L0 
C:\Users\test\AppData\Local\Temp\cc0O9IID.s:343    .text.fmc_interrupt_flag_get:0000000000000000 fmc_interrupt_flag_get
C:\Users\test\AppData\Local\Temp\cc0O9IID.s:346    .text.fmc_interrupt_flag_get:0000000000000000 .L0 
C:\Users\test\AppData\Local\Temp\cc0O9IID.s:348    .text.fmc_interrupt_flag_get:0000000000000000 .L0 
C:\Users\test\AppData\Local\Temp\cc0O9IID.s:349    .text.fmc_interrupt_flag_get:0000000000000000 .L0 
C:\Users\test\AppData\Local\Temp\cc0O9IID.s:350    .text.fmc_interrupt_flag_get:0000000000000000 .L0 
C:\Users\test\AppData\Local\Temp\cc0O9IID.s:351    .text.fmc_interrupt_flag_get:0000000000000000 .L0 
C:\Users\test\AppData\Local\Temp\cc0O9IID.s:352    .text.fmc_interrupt_flag_get:0000000000000000 .L0 
C:\Users\test\AppData\Local\Temp\cc0O9IID.s:354    .text.fmc_interrupt_flag_get:0000000000000004 .L0 
C:\Users\test\AppData\Local\Temp\cc0O9IID.s:357    .text.fmc_interrupt_flag_get:000000000000000a .L0 
C:\Users\test\AppData\Local\Temp\cc0O9IID.s:358    .text.fmc_interrupt_flag_get:000000000000000a .L0 
C:\Users\test\AppData\Local\Temp\cc0O9IID.s:361    .text.fmc_interrupt_flag_get:0000000000000010 .L0 
C:\Users\test\AppData\Local\Temp\cc0O9IID.s:365    .text.fmc_interrupt_flag_get:000000000000001a .L0 
C:\Users\test\AppData\Local\Temp\cc0O9IID.s:367    .text.fmc_interrupt_flag_get:000000000000001c .L0 
C:\Users\test\AppData\Local\Temp\cc0O9IID.s:370    .text.fmc_interrupt_flag_get:000000000000001e .L0 
C:\Users\test\AppData\Local\Temp\cc0O9IID.s:371    .text.fmc_interrupt_flag_get:000000000000001e .L0 
C:\Users\test\AppData\Local\Temp\cc0O9IID.s:372    .text.fmc_interrupt_flag_get:000000000000001e .L0 
C:\Users\test\AppData\Local\Temp\cc0O9IID.s:374    .text.fmc_interrupt_flag_get:0000000000000020 .L0 
C:\Users\test\AppData\Local\Temp\cc0O9IID.s:377    .text.fmc_interrupt_flag_get:0000000000000024 .L0 
C:\Users\test\AppData\Local\Temp\cc0O9IID.s:380    .text.fmc_interrupt_flag_get:0000000000000028 .L0 
C:\Users\test\AppData\Local\Temp\cc0O9IID.s:383    .text.fmc_interrupt_flag_get:000000000000002c .L0 
C:\Users\test\AppData\Local\Temp\cc0O9IID.s:388    .text.fmc_interrupt_flag_get:0000000000000030 .L0 
C:\Users\test\AppData\Local\Temp\cc0O9IID.s:390    .text.fmc_interrupt_flag_get:0000000000000032 .L0 
C:\Users\test\AppData\Local\Temp\cc0O9IID.s:393    .text.fmc_interrupt_flag_get:0000000000000036 .L0 
C:\Users\test\AppData\Local\Temp\cc0O9IID.s:400    .text.fmc_interrupt_flag_clear:0000000000000000 fmc_interrupt_flag_clear
C:\Users\test\AppData\Local\Temp\cc0O9IID.s:403    .text.fmc_interrupt_flag_clear:0000000000000000 .L0 
C:\Users\test\AppData\Local\Temp\cc0O9IID.s:405    .text.fmc_interrupt_flag_clear:0000000000000000 .L0 
C:\Users\test\AppData\Local\Temp\cc0O9IID.s:406    .text.fmc_interrupt_flag_clear:0000000000000000 .L0 
C:\Users\test\AppData\Local\Temp\cc0O9IID.s:407    .text.fmc_interrupt_flag_clear:0000000000000000 .L0 
C:\Users\test\AppData\Local\Temp\cc0O9IID.s:412    .text.fmc_interrupt_flag_clear:000000000000000c .L0 
C:\Users\test\AppData\Local\Temp\cc0O9IID.s:417    .text.fmc_interrupt_flag_clear:0000000000000016 .L0 
C:\Users\test\AppData\Local\Temp\cc0O9IID.s:420    .text.fmc_interrupt_flag_clear:000000000000001a .L0 
C:\Users\test\AppData\Local\Temp\cc0O9IID.s:421    .text.fmc_interrupt_flag_clear:000000000000001c .L0 
C:\Users\test\AppData\Local\Temp\cc0O9IID.s:428    .text.fmc_state_get:0000000000000000 fmc_state_get
C:\Users\test\AppData\Local\Temp\cc0O9IID.s:431    .text.fmc_state_get:0000000000000000 .L0 
C:\Users\test\AppData\Local\Temp\cc0O9IID.s:432    .text.fmc_state_get:0000000000000000 .L0 
C:\Users\test\AppData\Local\Temp\cc0O9IID.s:434    .text.fmc_state_get:0000000000000000 .L0 
C:\Users\test\AppData\Local\Temp\cc0O9IID.s:435    .text.fmc_state_get:0000000000000000 .L0 
C:\Users\test\AppData\Local\Temp\cc0O9IID.s:436    .text.fmc_state_get:0000000000000000 .L0 
C:\Users\test\AppData\Local\Temp\cc0O9IID.s:439    .text.fmc_state_get:0000000000000006 .L0 
C:\Users\test\AppData\Local\Temp\cc0O9IID.s:441    .text.fmc_state_get:0000000000000008 .L0 
GAS LISTING C:\Users\test\AppData\Local\Temp\cc0O9IID.s 			page 68


C:\Users\test\AppData\Local\Temp\cc0O9IID.s:443    .text.fmc_state_get:000000000000000a .L0 
C:\Users\test\AppData\Local\Temp\cc0O9IID.s:444    .text.fmc_state_get:000000000000000a .L0 
C:\Users\test\AppData\Local\Temp\cc0O9IID.s:446    .text.fmc_state_get:000000000000000c .L0 
C:\Users\test\AppData\Local\Temp\cc0O9IID.s:448    .text.fmc_state_get:000000000000000e .L0 
C:\Users\test\AppData\Local\Temp\cc0O9IID.s:450    .text.fmc_state_get:0000000000000010 .L0 
C:\Users\test\AppData\Local\Temp\cc0O9IID.s:454    .text.fmc_state_get:0000000000000012 .L0 
C:\Users\test\AppData\Local\Temp\cc0O9IID.s:455    .text.fmc_state_get:0000000000000012 .L0 
C:\Users\test\AppData\Local\Temp\cc0O9IID.s:457    .text.fmc_state_get:0000000000000014 .L0 
C:\Users\test\AppData\Local\Temp\cc0O9IID.s:459    .text.fmc_state_get:0000000000000016 .L0 
C:\Users\test\AppData\Local\Temp\cc0O9IID.s:464    .text.fmc_state_get:0000000000000018 .L0 
C:\Users\test\AppData\Local\Temp\cc0O9IID.s:469    .text.fmc_state_get:000000000000001a .L0 
C:\Users\test\AppData\Local\Temp\cc0O9IID.s:473    .text.fmc_state_get:000000000000001c .L0 
C:\Users\test\AppData\Local\Temp\cc0O9IID.s:474    .text.fmc_state_get:000000000000001e .L0 
C:\Users\test\AppData\Local\Temp\cc0O9IID.s:481    .text.fmc_page_erase:0000000000000000 fmc_page_erase
C:\Users\test\AppData\Local\Temp\cc0O9IID.s:484    .text.fmc_page_erase:0000000000000000 .L0 
C:\Users\test\AppData\Local\Temp\cc0O9IID.s:486    .text.fmc_page_erase:0000000000000000 .L0 
C:\Users\test\AppData\Local\Temp\cc0O9IID.s:487    .text.fmc_page_erase:0000000000000000 .L0 
C:\Users\test\AppData\Local\Temp\cc0O9IID.s:490    .text.fmc_page_erase:0000000000000000 .L0 
C:\Users\test\AppData\Local\Temp\cc0O9IID.s:493    .text.fmc_page_erase:0000000000000000 .L0 
C:\Users\test\AppData\Local\Temp\cc0O9IID.s:494    .text.fmc_page_erase:0000000000000000 .L0 
C:\Users\test\AppData\Local\Temp\cc0O9IID.s:496    .text.fmc_page_erase:0000000000000002 .L0 
C:\Users\test\AppData\Local\Temp\cc0O9IID.s:501    .text.fmc_page_erase:000000000000000a .L0 
C:\Users\test\AppData\Local\Temp\cc0O9IID.s:502    .text.fmc_page_erase:000000000000000a .L0 
C:\Users\test\AppData\Local\Temp\cc0O9IID.s:503    .text.fmc_page_erase:000000000000000a .L0 
C:\Users\test\AppData\Local\Temp\cc0O9IID.s:504    .text.fmc_page_erase:000000000000000a .L0 
C:\Users\test\AppData\Local\Temp\cc0O9IID.s:506    .text.fmc_page_erase:000000000000000a .L0 
C:\Users\test\AppData\Local\Temp\cc0O9IID.s:511    .text.fmc_page_erase:0000000000000010 .L0 
C:\Users\test\AppData\Local\Temp\cc0O9IID.s:516    .text.fmc_page_erase:0000000000000014 .L0 
C:\Users\test\AppData\Local\Temp\cc0O9IID.s:520    .text.fmc_page_erase:0000000000000016 .L0 
C:\Users\test\AppData\Local\Temp\cc0O9IID.s:521    .text.fmc_page_erase:0000000000000016 .L0 
C:\Users\test\AppData\Local\Temp\cc0O9IID.s:522    .text.fmc_page_erase:0000000000000016 .L0 
C:\Users\test\AppData\Local\Temp\cc0O9IID.s:525    .text.fmc_page_erase:000000000000001e .L0 
C:\Users\test\AppData\Local\Temp\cc0O9IID.s:528    .text.fmc_page_erase:0000000000000020 .L0 
C:\Users\test\AppData\Local\Temp\cc0O9IID.s:530    .text.fmc_page_erase:0000000000000024 .L0 
C:\Users\test\AppData\Local\Temp\cc0O9IID.s:534    .text.fmc_page_erase:0000000000000024 .L0 
C:\Users\test\AppData\Local\Temp\cc0O9IID.s:535    .text.fmc_page_erase:0000000000000024 .L0 
C:\Users\test\AppData\Local\Temp\cc0O9IID.s:536    .text.fmc_page_erase:0000000000000024 .L0 
C:\Users\test\AppData\Local\Temp\cc0O9IID.s:538    .text.fmc_page_erase:0000000000000026 .L0 
C:\Users\test\AppData\Local\Temp\cc0O9IID.s:539    .text.fmc_page_erase:0000000000000026 .L0 
C:\Users\test\AppData\Local\Temp\cc0O9IID.s:542    .text.fmc_page_erase:000000000000002c .L0 
C:\Users\test\AppData\Local\Temp\cc0O9IID.s:546    .text.fmc_page_erase:0000000000000030 .L0 
C:\Users\test\AppData\Local\Temp\cc0O9IID.s:550    .text.fmc_page_erase:0000000000000032 .L0 
C:\Users\test\AppData\Local\Temp\cc0O9IID.s:553    .text.fmc_page_erase:0000000000000038 .L0 
C:\Users\test\AppData\Local\Temp\cc0O9IID.s:554    .text.fmc_page_erase:0000000000000038 .L0 
C:\Users\test\AppData\Local\Temp\cc0O9IID.s:556    .text.fmc_page_erase:000000000000003c .L0 
C:\Users\test\AppData\Local\Temp\cc0O9IID.s:557    .text.fmc_page_erase:000000000000003c .L0 
C:\Users\test\AppData\Local\Temp\cc0O9IID.s:564    .text.fmc_page_erase:0000000000000044 .L0 
C:\Users\test\AppData\Local\Temp\cc0O9IID.s:565    .text.fmc_page_erase:0000000000000044 .L0 
C:\Users\test\AppData\Local\Temp\cc0O9IID.s:569    .text.fmc_page_erase:0000000000000046 .L0 
C:\Users\test\AppData\Local\Temp\cc0O9IID.s:573    .text.fmc_page_erase:0000000000000048 .L0 
C:\Users\test\AppData\Local\Temp\cc0O9IID.s:574    .text.fmc_page_erase:0000000000000048 .L0 
C:\Users\test\AppData\Local\Temp\cc0O9IID.s:575    .text.fmc_page_erase:0000000000000048 .L0 
C:\Users\test\AppData\Local\Temp\cc0O9IID.s:578    .text.fmc_page_erase:0000000000000050 .L0 
C:\Users\test\AppData\Local\Temp\cc0O9IID.s:581    .text.fmc_page_erase:0000000000000052 .L0 
C:\Users\test\AppData\Local\Temp\cc0O9IID.s:586    .text.fmc_page_erase:0000000000000056 .L0 
C:\Users\test\AppData\Local\Temp\cc0O9IID.s:587    .text.fmc_page_erase:0000000000000056 .L0 
C:\Users\test\AppData\Local\Temp\cc0O9IID.s:588    .text.fmc_page_erase:0000000000000056 .L0 
GAS LISTING C:\Users\test\AppData\Local\Temp\cc0O9IID.s 			page 69


C:\Users\test\AppData\Local\Temp\cc0O9IID.s:594    .text.fmc_page_erase:0000000000000060 .L0 
C:\Users\test\AppData\Local\Temp\cc0O9IID.s:595    .text.fmc_page_erase:0000000000000060 .L0 
C:\Users\test\AppData\Local\Temp\cc0O9IID.s:596    .text.fmc_page_erase:0000000000000062 .L0 
C:\Users\test\AppData\Local\Temp\cc0O9IID.s:597    .text.fmc_page_erase:0000000000000062 .L0 
C:\Users\test\AppData\Local\Temp\cc0O9IID.s:599    .text.fmc_page_erase:0000000000000064 .L0 
C:\Users\test\AppData\Local\Temp\cc0O9IID.s:601    .text.fmc_page_erase:0000000000000066 .L0 
C:\Users\test\AppData\Local\Temp\cc0O9IID.s:603    .text.fmc_page_erase:0000000000000068 .L0 
C:\Users\test\AppData\Local\Temp\cc0O9IID.s:607    .text.fmc_page_erase:000000000000006a .L0 
C:\Users\test\AppData\Local\Temp\cc0O9IID.s:612    .text.fmc_page_erase:000000000000006c .L0 
C:\Users\test\AppData\Local\Temp\cc0O9IID.s:614    .text.fmc_page_erase:000000000000006e .L0 
C:\Users\test\AppData\Local\Temp\cc0O9IID.s:615    .text.fmc_page_erase:000000000000006e .L0 
C:\Users\test\AppData\Local\Temp\cc0O9IID.s:617    .text.fmc_page_erase:0000000000000070 .L0 
C:\Users\test\AppData\Local\Temp\cc0O9IID.s:620    .text.fmc_page_erase:0000000000000072 .L0 
C:\Users\test\AppData\Local\Temp\cc0O9IID.s:622    .text.fmc_page_erase:0000000000000074 .L0 
C:\Users\test\AppData\Local\Temp\cc0O9IID.s:627    .text.fmc_page_erase:0000000000000074 .L0 
C:\Users\test\AppData\Local\Temp\cc0O9IID.s:632    .text.fmc_page_erase:0000000000000076 .L0 
C:\Users\test\AppData\Local\Temp\cc0O9IID.s:634    .text.fmc_page_erase:0000000000000078 .L0 
C:\Users\test\AppData\Local\Temp\cc0O9IID.s:639    .text.fmc_page_erase:000000000000007a .L0 
C:\Users\test\AppData\Local\Temp\cc0O9IID.s:641    .text.fmc_page_erase:000000000000007a .L0 
C:\Users\test\AppData\Local\Temp\cc0O9IID.s:646    .text.fmc_page_erase:0000000000000080 .L0 
C:\Users\test\AppData\Local\Temp\cc0O9IID.s:651    .text.fmc_page_erase:0000000000000082 .L0 
C:\Users\test\AppData\Local\Temp\cc0O9IID.s:652    .text.fmc_page_erase:0000000000000082 .L0 
C:\Users\test\AppData\Local\Temp\cc0O9IID.s:653    .text.fmc_page_erase:0000000000000082 .L0 
C:\Users\test\AppData\Local\Temp\cc0O9IID.s:656    .text.fmc_page_erase:0000000000000086 .L0 
C:\Users\test\AppData\Local\Temp\cc0O9IID.s:657    .text.fmc_page_erase:0000000000000088 .L0 
C:\Users\test\AppData\Local\Temp\cc0O9IID.s:664    .text.fmc_mass_erase:0000000000000000 fmc_mass_erase
C:\Users\test\AppData\Local\Temp\cc0O9IID.s:667    .text.fmc_mass_erase:0000000000000000 .L0 
C:\Users\test\AppData\Local\Temp\cc0O9IID.s:668    .text.fmc_mass_erase:0000000000000000 .L0 
C:\Users\test\AppData\Local\Temp\cc0O9IID.s:669    .text.fmc_mass_erase:0000000000000000 .L0 
C:\Users\test\AppData\Local\Temp\cc0O9IID.s:673    .text.fmc_mass_erase:0000000000000000 .L0 
C:\Users\test\AppData\Local\Temp\cc0O9IID.s:676    .text.fmc_mass_erase:0000000000000000 .L0 
C:\Users\test\AppData\Local\Temp\cc0O9IID.s:677    .text.fmc_mass_erase:0000000000000000 .L0 
C:\Users\test\AppData\Local\Temp\cc0O9IID.s:679    .text.fmc_mass_erase:0000000000000002 .L0 
C:\Users\test\AppData\Local\Temp\cc0O9IID.s:683    .text.fmc_mass_erase:0000000000000008 .L0 
C:\Users\test\AppData\Local\Temp\cc0O9IID.s:684    .text.fmc_mass_erase:0000000000000008 .L0 
C:\Users\test\AppData\Local\Temp\cc0O9IID.s:685    .text.fmc_mass_erase:0000000000000008 .L0 
C:\Users\test\AppData\Local\Temp\cc0O9IID.s:687    .text.fmc_mass_erase:0000000000000008 .L0 
C:\Users\test\AppData\Local\Temp\cc0O9IID.s:691    .text.fmc_mass_erase:000000000000000c .L0 
C:\Users\test\AppData\Local\Temp\cc0O9IID.s:696    .text.fmc_mass_erase:0000000000000010 .L0 
C:\Users\test\AppData\Local\Temp\cc0O9IID.s:700    .text.fmc_mass_erase:0000000000000012 .L0 
C:\Users\test\AppData\Local\Temp\cc0O9IID.s:701    .text.fmc_mass_erase:0000000000000012 .L0 
C:\Users\test\AppData\Local\Temp\cc0O9IID.s:702    .text.fmc_mass_erase:0000000000000012 .L0 
C:\Users\test\AppData\Local\Temp\cc0O9IID.s:705    .text.fmc_mass_erase:000000000000001a .L0 
C:\Users\test\AppData\Local\Temp\cc0O9IID.s:708    .text.fmc_mass_erase:000000000000001c .L0 
C:\Users\test\AppData\Local\Temp\cc0O9IID.s:710    .text.fmc_mass_erase:0000000000000020 .L0 
C:\Users\test\AppData\Local\Temp\cc0O9IID.s:714    .text.fmc_mass_erase:0000000000000020 .L0 
C:\Users\test\AppData\Local\Temp\cc0O9IID.s:715    .text.fmc_mass_erase:0000000000000020 .L0 
C:\Users\test\AppData\Local\Temp\cc0O9IID.s:716    .text.fmc_mass_erase:0000000000000020 .L0 
C:\Users\test\AppData\Local\Temp\cc0O9IID.s:718    .text.fmc_mass_erase:0000000000000022 .L0 
C:\Users\test\AppData\Local\Temp\cc0O9IID.s:719    .text.fmc_mass_erase:0000000000000022 .L0 
C:\Users\test\AppData\Local\Temp\cc0O9IID.s:722    .text.fmc_mass_erase:0000000000000028 .L0 
C:\Users\test\AppData\Local\Temp\cc0O9IID.s:726    .text.fmc_mass_erase:000000000000002c .L0 
C:\Users\test\AppData\Local\Temp\cc0O9IID.s:730    .text.fmc_mass_erase:000000000000002e .L0 
C:\Users\test\AppData\Local\Temp\cc0O9IID.s:733    .text.fmc_mass_erase:0000000000000034 .L0 
C:\Users\test\AppData\Local\Temp\cc0O9IID.s:734    .text.fmc_mass_erase:0000000000000034 .L0 
C:\Users\test\AppData\Local\Temp\cc0O9IID.s:741    .text.fmc_mass_erase:000000000000003c .L0 
C:\Users\test\AppData\Local\Temp\cc0O9IID.s:742    .text.fmc_mass_erase:000000000000003c .L0 
GAS LISTING C:\Users\test\AppData\Local\Temp\cc0O9IID.s 			page 70


C:\Users\test\AppData\Local\Temp\cc0O9IID.s:746    .text.fmc_mass_erase:000000000000003e .L0 
C:\Users\test\AppData\Local\Temp\cc0O9IID.s:750    .text.fmc_mass_erase:0000000000000040 .L0 
C:\Users\test\AppData\Local\Temp\cc0O9IID.s:751    .text.fmc_mass_erase:0000000000000040 .L0 
C:\Users\test\AppData\Local\Temp\cc0O9IID.s:752    .text.fmc_mass_erase:0000000000000040 .L0 
C:\Users\test\AppData\Local\Temp\cc0O9IID.s:755    .text.fmc_mass_erase:0000000000000048 .L0 
C:\Users\test\AppData\Local\Temp\cc0O9IID.s:758    .text.fmc_mass_erase:000000000000004a .L0 
C:\Users\test\AppData\Local\Temp\cc0O9IID.s:763    .text.fmc_mass_erase:000000000000004e .L0 
C:\Users\test\AppData\Local\Temp\cc0O9IID.s:764    .text.fmc_mass_erase:000000000000004e .L0 
C:\Users\test\AppData\Local\Temp\cc0O9IID.s:765    .text.fmc_mass_erase:000000000000004e .L0 
C:\Users\test\AppData\Local\Temp\cc0O9IID.s:771    .text.fmc_mass_erase:0000000000000058 .L0 
C:\Users\test\AppData\Local\Temp\cc0O9IID.s:772    .text.fmc_mass_erase:0000000000000058 .L0 
C:\Users\test\AppData\Local\Temp\cc0O9IID.s:773    .text.fmc_mass_erase:000000000000005a .L0 
C:\Users\test\AppData\Local\Temp\cc0O9IID.s:774    .text.fmc_mass_erase:000000000000005a .L0 
C:\Users\test\AppData\Local\Temp\cc0O9IID.s:776    .text.fmc_mass_erase:000000000000005c .L0 
C:\Users\test\AppData\Local\Temp\cc0O9IID.s:778    .text.fmc_mass_erase:000000000000005e .L0 
C:\Users\test\AppData\Local\Temp\cc0O9IID.s:781    .text.fmc_mass_erase:0000000000000060 .L0 
C:\Users\test\AppData\Local\Temp\cc0O9IID.s:786    .text.fmc_mass_erase:0000000000000062 .L0 
C:\Users\test\AppData\Local\Temp\cc0O9IID.s:788    .text.fmc_mass_erase:0000000000000064 .L0 
C:\Users\test\AppData\Local\Temp\cc0O9IID.s:789    .text.fmc_mass_erase:0000000000000064 .L0 
C:\Users\test\AppData\Local\Temp\cc0O9IID.s:791    .text.fmc_mass_erase:0000000000000066 .L0 
C:\Users\test\AppData\Local\Temp\cc0O9IID.s:794    .text.fmc_mass_erase:0000000000000068 .L0 
C:\Users\test\AppData\Local\Temp\cc0O9IID.s:798    .text.fmc_mass_erase:0000000000000068 .L0 
C:\Users\test\AppData\Local\Temp\cc0O9IID.s:803    .text.fmc_mass_erase:000000000000006a .L0 
C:\Users\test\AppData\Local\Temp\cc0O9IID.s:805    .text.fmc_mass_erase:000000000000006c .L0 
C:\Users\test\AppData\Local\Temp\cc0O9IID.s:810    .text.fmc_mass_erase:000000000000006e .L0 
C:\Users\test\AppData\Local\Temp\cc0O9IID.s:812    .text.fmc_mass_erase:000000000000006e .L0 
C:\Users\test\AppData\Local\Temp\cc0O9IID.s:817    .text.fmc_mass_erase:0000000000000074 .L0 
C:\Users\test\AppData\Local\Temp\cc0O9IID.s:822    .text.fmc_mass_erase:0000000000000076 .L0 
C:\Users\test\AppData\Local\Temp\cc0O9IID.s:823    .text.fmc_mass_erase:0000000000000076 .L0 
C:\Users\test\AppData\Local\Temp\cc0O9IID.s:824    .text.fmc_mass_erase:0000000000000076 .L0 
C:\Users\test\AppData\Local\Temp\cc0O9IID.s:827    .text.fmc_mass_erase:000000000000007a .L0 
C:\Users\test\AppData\Local\Temp\cc0O9IID.s:828    .text.fmc_mass_erase:000000000000007c .L0 
C:\Users\test\AppData\Local\Temp\cc0O9IID.s:835    .text.fmc_word_program:0000000000000000 fmc_word_program
C:\Users\test\AppData\Local\Temp\cc0O9IID.s:838    .text.fmc_word_program:0000000000000000 .L0 
C:\Users\test\AppData\Local\Temp\cc0O9IID.s:840    .text.fmc_word_program:0000000000000000 .L0 
C:\Users\test\AppData\Local\Temp\cc0O9IID.s:841    .text.fmc_word_program:0000000000000000 .L0 
C:\Users\test\AppData\Local\Temp\cc0O9IID.s:844    .text.fmc_word_program:0000000000000000 .L0 
C:\Users\test\AppData\Local\Temp\cc0O9IID.s:847    .text.fmc_word_program:0000000000000000 .L0 
C:\Users\test\AppData\Local\Temp\cc0O9IID.s:848    .text.fmc_word_program:0000000000000000 .L0 
C:\Users\test\AppData\Local\Temp\cc0O9IID.s:850    .text.fmc_word_program:0000000000000002 .L0 
C:\Users\test\AppData\Local\Temp\cc0O9IID.s:856    .text.fmc_word_program:000000000000000c .L0 
C:\Users\test\AppData\Local\Temp\cc0O9IID.s:857    .text.fmc_word_program:000000000000000c .L0 
C:\Users\test\AppData\Local\Temp\cc0O9IID.s:858    .text.fmc_word_program:000000000000000c .L0 
C:\Users\test\AppData\Local\Temp\cc0O9IID.s:859    .text.fmc_word_program:000000000000000c .L0 
C:\Users\test\AppData\Local\Temp\cc0O9IID.s:860    .text.fmc_word_program:000000000000000c .L0 
C:\Users\test\AppData\Local\Temp\cc0O9IID.s:862    .text.fmc_word_program:000000000000000c .L0 
C:\Users\test\AppData\Local\Temp\cc0O9IID.s:868    .text.fmc_word_program:0000000000000014 .L0 
C:\Users\test\AppData\Local\Temp\cc0O9IID.s:873    .text.fmc_word_program:0000000000000018 .L0 
C:\Users\test\AppData\Local\Temp\cc0O9IID.s:877    .text.fmc_word_program:000000000000001a .L0 
C:\Users\test\AppData\Local\Temp\cc0O9IID.s:878    .text.fmc_word_program:000000000000001a .L0 
C:\Users\test\AppData\Local\Temp\cc0O9IID.s:879    .text.fmc_word_program:000000000000001a .L0 
C:\Users\test\AppData\Local\Temp\cc0O9IID.s:882    .text.fmc_word_program:0000000000000022 .L0 
C:\Users\test\AppData\Local\Temp\cc0O9IID.s:885    .text.fmc_word_program:0000000000000024 .L0 
C:\Users\test\AppData\Local\Temp\cc0O9IID.s:887    .text.fmc_word_program:0000000000000028 .L0 
C:\Users\test\AppData\Local\Temp\cc0O9IID.s:891    .text.fmc_word_program:0000000000000028 .L0 
C:\Users\test\AppData\Local\Temp\cc0O9IID.s:892    .text.fmc_word_program:0000000000000028 .L0 
C:\Users\test\AppData\Local\Temp\cc0O9IID.s:893    .text.fmc_word_program:0000000000000028 .L0 
GAS LISTING C:\Users\test\AppData\Local\Temp\cc0O9IID.s 			page 71


C:\Users\test\AppData\Local\Temp\cc0O9IID.s:895    .text.fmc_word_program:000000000000002a .L0 
C:\Users\test\AppData\Local\Temp\cc0O9IID.s:896    .text.fmc_word_program:000000000000002a .L0 
C:\Users\test\AppData\Local\Temp\cc0O9IID.s:899    .text.fmc_word_program:0000000000000030 .L0 
C:\Users\test\AppData\Local\Temp\cc0O9IID.s:903    .text.fmc_word_program:0000000000000034 .L0 
C:\Users\test\AppData\Local\Temp\cc0O9IID.s:907    .text.fmc_word_program:0000000000000036 .L0 
C:\Users\test\AppData\Local\Temp\cc0O9IID.s:910    .text.fmc_word_program:000000000000003c .L0 
C:\Users\test\AppData\Local\Temp\cc0O9IID.s:911    .text.fmc_word_program:000000000000003c .L0 
C:\Users\test\AppData\Local\Temp\cc0O9IID.s:916    .text.fmc_word_program:0000000000000040 .L0 
C:\Users\test\AppData\Local\Temp\cc0O9IID.s:917    .text.fmc_word_program:0000000000000040 .L0 
C:\Users\test\AppData\Local\Temp\cc0O9IID.s:921    .text.fmc_word_program:0000000000000042 .L0 
C:\Users\test\AppData\Local\Temp\cc0O9IID.s:925    .text.fmc_word_program:0000000000000044 .L0 
C:\Users\test\AppData\Local\Temp\cc0O9IID.s:926    .text.fmc_word_program:0000000000000044 .L0 
C:\Users\test\AppData\Local\Temp\cc0O9IID.s:927    .text.fmc_word_program:0000000000000044 .L0 
C:\Users\test\AppData\Local\Temp\cc0O9IID.s:930    .text.fmc_word_program:000000000000004c .L0 
C:\Users\test\AppData\Local\Temp\cc0O9IID.s:933    .text.fmc_word_program:000000000000004e .L0 
C:\Users\test\AppData\Local\Temp\cc0O9IID.s:938    .text.fmc_word_program:0000000000000052 .L0 
C:\Users\test\AppData\Local\Temp\cc0O9IID.s:939    .text.fmc_word_program:0000000000000052 .L0 
C:\Users\test\AppData\Local\Temp\cc0O9IID.s:940    .text.fmc_word_program:0000000000000052 .L0 
C:\Users\test\AppData\Local\Temp\cc0O9IID.s:946    .text.fmc_word_program:000000000000005c .L0 
C:\Users\test\AppData\Local\Temp\cc0O9IID.s:947    .text.fmc_word_program:000000000000005c .L0 
C:\Users\test\AppData\Local\Temp\cc0O9IID.s:948    .text.fmc_word_program:000000000000005e .L0 
C:\Users\test\AppData\Local\Temp\cc0O9IID.s:949    .text.fmc_word_program:000000000000005e .L0 
C:\Users\test\AppData\Local\Temp\cc0O9IID.s:951    .text.fmc_word_program:0000000000000060 .L0 
C:\Users\test\AppData\Local\Temp\cc0O9IID.s:953    .text.fmc_word_program:0000000000000062 .L0 
C:\Users\test\AppData\Local\Temp\cc0O9IID.s:955    .text.fmc_word_program:0000000000000064 .L0 
C:\Users\test\AppData\Local\Temp\cc0O9IID.s:958    .text.fmc_word_program:0000000000000066 .L0 
C:\Users\test\AppData\Local\Temp\cc0O9IID.s:962    .text.fmc_word_program:0000000000000068 .L0 
C:\Users\test\AppData\Local\Temp\cc0O9IID.s:967    .text.fmc_word_program:000000000000006a .L0 
C:\Users\test\AppData\Local\Temp\cc0O9IID.s:969    .text.fmc_word_program:000000000000006c .L0 
C:\Users\test\AppData\Local\Temp\cc0O9IID.s:970    .text.fmc_word_program:000000000000006c .L0 
C:\Users\test\AppData\Local\Temp\cc0O9IID.s:972    .text.fmc_word_program:000000000000006e .L0 
C:\Users\test\AppData\Local\Temp\cc0O9IID.s:975    .text.fmc_word_program:0000000000000070 .L0 
C:\Users\test\AppData\Local\Temp\cc0O9IID.s:977    .text.fmc_word_program:0000000000000072 .L0 
C:\Users\test\AppData\Local\Temp\cc0O9IID.s:980    .text.fmc_word_program:0000000000000074 .L0 
C:\Users\test\AppData\Local\Temp\cc0O9IID.s:985    .text.fmc_word_program:0000000000000074 .L0 
C:\Users\test\AppData\Local\Temp\cc0O9IID.s:990    .text.fmc_word_program:0000000000000076 .L0 
C:\Users\test\AppData\Local\Temp\cc0O9IID.s:992    .text.fmc_word_program:0000000000000078 .L0 
C:\Users\test\AppData\Local\Temp\cc0O9IID.s:997    .text.fmc_word_program:000000000000007a .L0 
C:\Users\test\AppData\Local\Temp\cc0O9IID.s:999    .text.fmc_word_program:000000000000007a .L0 
C:\Users\test\AppData\Local\Temp\cc0O9IID.s:1004   .text.fmc_word_program:0000000000000080 .L0 
C:\Users\test\AppData\Local\Temp\cc0O9IID.s:1009   .text.fmc_word_program:0000000000000082 .L0 
C:\Users\test\AppData\Local\Temp\cc0O9IID.s:1010   .text.fmc_word_program:0000000000000082 .L0 
C:\Users\test\AppData\Local\Temp\cc0O9IID.s:1011   .text.fmc_word_program:0000000000000082 .L0 
C:\Users\test\AppData\Local\Temp\cc0O9IID.s:1014   .text.fmc_word_program:0000000000000086 .L0 
C:\Users\test\AppData\Local\Temp\cc0O9IID.s:1015   .text.fmc_word_program:0000000000000088 .L0 
C:\Users\test\AppData\Local\Temp\cc0O9IID.s:1022   .text.fmc_halfword_program:0000000000000000 fmc_halfword_program
C:\Users\test\AppData\Local\Temp\cc0O9IID.s:1025   .text.fmc_halfword_program:0000000000000000 .L0 
C:\Users\test\AppData\Local\Temp\cc0O9IID.s:1027   .text.fmc_halfword_program:0000000000000000 .L0 
C:\Users\test\AppData\Local\Temp\cc0O9IID.s:1028   .text.fmc_halfword_program:0000000000000000 .L0 
C:\Users\test\AppData\Local\Temp\cc0O9IID.s:1031   .text.fmc_halfword_program:0000000000000000 .L0 
C:\Users\test\AppData\Local\Temp\cc0O9IID.s:1034   .text.fmc_halfword_program:0000000000000000 .L0 
C:\Users\test\AppData\Local\Temp\cc0O9IID.s:1035   .text.fmc_halfword_program:0000000000000000 .L0 
C:\Users\test\AppData\Local\Temp\cc0O9IID.s:1037   .text.fmc_halfword_program:0000000000000002 .L0 
C:\Users\test\AppData\Local\Temp\cc0O9IID.s:1043   .text.fmc_halfword_program:000000000000000c .L0 
C:\Users\test\AppData\Local\Temp\cc0O9IID.s:1044   .text.fmc_halfword_program:000000000000000c .L0 
C:\Users\test\AppData\Local\Temp\cc0O9IID.s:1045   .text.fmc_halfword_program:000000000000000c .L0 
C:\Users\test\AppData\Local\Temp\cc0O9IID.s:1046   .text.fmc_halfword_program:000000000000000c .L0 
GAS LISTING C:\Users\test\AppData\Local\Temp\cc0O9IID.s 			page 72


C:\Users\test\AppData\Local\Temp\cc0O9IID.s:1047   .text.fmc_halfword_program:000000000000000c .L0 
C:\Users\test\AppData\Local\Temp\cc0O9IID.s:1049   .text.fmc_halfword_program:000000000000000c .L0 
C:\Users\test\AppData\Local\Temp\cc0O9IID.s:1055   .text.fmc_halfword_program:0000000000000014 .L0 
C:\Users\test\AppData\Local\Temp\cc0O9IID.s:1060   .text.fmc_halfword_program:0000000000000018 .L0 
C:\Users\test\AppData\Local\Temp\cc0O9IID.s:1064   .text.fmc_halfword_program:000000000000001a .L0 
C:\Users\test\AppData\Local\Temp\cc0O9IID.s:1065   .text.fmc_halfword_program:000000000000001a .L0 
C:\Users\test\AppData\Local\Temp\cc0O9IID.s:1066   .text.fmc_halfword_program:000000000000001a .L0 
C:\Users\test\AppData\Local\Temp\cc0O9IID.s:1069   .text.fmc_halfword_program:0000000000000022 .L0 
C:\Users\test\AppData\Local\Temp\cc0O9IID.s:1072   .text.fmc_halfword_program:0000000000000024 .L0 
C:\Users\test\AppData\Local\Temp\cc0O9IID.s:1074   .text.fmc_halfword_program:0000000000000028 .L0 
C:\Users\test\AppData\Local\Temp\cc0O9IID.s:1078   .text.fmc_halfword_program:0000000000000028 .L0 
C:\Users\test\AppData\Local\Temp\cc0O9IID.s:1079   .text.fmc_halfword_program:0000000000000028 .L0 
C:\Users\test\AppData\Local\Temp\cc0O9IID.s:1080   .text.fmc_halfword_program:0000000000000028 .L0 
C:\Users\test\AppData\Local\Temp\cc0O9IID.s:1082   .text.fmc_halfword_program:000000000000002a .L0 
C:\Users\test\AppData\Local\Temp\cc0O9IID.s:1083   .text.fmc_halfword_program:000000000000002a .L0 
C:\Users\test\AppData\Local\Temp\cc0O9IID.s:1086   .text.fmc_halfword_program:0000000000000030 .L0 
C:\Users\test\AppData\Local\Temp\cc0O9IID.s:1090   .text.fmc_halfword_program:0000000000000034 .L0 
C:\Users\test\AppData\Local\Temp\cc0O9IID.s:1094   .text.fmc_halfword_program:0000000000000036 .L0 
C:\Users\test\AppData\Local\Temp\cc0O9IID.s:1097   .text.fmc_halfword_program:000000000000003c .L0 
C:\Users\test\AppData\Local\Temp\cc0O9IID.s:1098   .text.fmc_halfword_program:000000000000003c .L0 
C:\Users\test\AppData\Local\Temp\cc0O9IID.s:1103   .text.fmc_halfword_program:0000000000000040 .L0 
C:\Users\test\AppData\Local\Temp\cc0O9IID.s:1104   .text.fmc_halfword_program:0000000000000040 .L0 
C:\Users\test\AppData\Local\Temp\cc0O9IID.s:1108   .text.fmc_halfword_program:0000000000000042 .L0 
C:\Users\test\AppData\Local\Temp\cc0O9IID.s:1112   .text.fmc_halfword_program:0000000000000044 .L0 
C:\Users\test\AppData\Local\Temp\cc0O9IID.s:1113   .text.fmc_halfword_program:0000000000000044 .L0 
C:\Users\test\AppData\Local\Temp\cc0O9IID.s:1114   .text.fmc_halfword_program:0000000000000044 .L0 
C:\Users\test\AppData\Local\Temp\cc0O9IID.s:1117   .text.fmc_halfword_program:000000000000004c .L0 
C:\Users\test\AppData\Local\Temp\cc0O9IID.s:1120   .text.fmc_halfword_program:000000000000004e .L0 
C:\Users\test\AppData\Local\Temp\cc0O9IID.s:1125   .text.fmc_halfword_program:0000000000000052 .L0 
C:\Users\test\AppData\Local\Temp\cc0O9IID.s:1126   .text.fmc_halfword_program:0000000000000052 .L0 
C:\Users\test\AppData\Local\Temp\cc0O9IID.s:1127   .text.fmc_halfword_program:0000000000000052 .L0 
C:\Users\test\AppData\Local\Temp\cc0O9IID.s:1133   .text.fmc_halfword_program:000000000000005c .L0 
C:\Users\test\AppData\Local\Temp\cc0O9IID.s:1134   .text.fmc_halfword_program:000000000000005c .L0 
C:\Users\test\AppData\Local\Temp\cc0O9IID.s:1135   .text.fmc_halfword_program:000000000000005e .L0 
C:\Users\test\AppData\Local\Temp\cc0O9IID.s:1136   .text.fmc_halfword_program:000000000000005e .L0 
C:\Users\test\AppData\Local\Temp\cc0O9IID.s:1138   .text.fmc_halfword_program:0000000000000060 .L0 
C:\Users\test\AppData\Local\Temp\cc0O9IID.s:1140   .text.fmc_halfword_program:0000000000000062 .L0 
C:\Users\test\AppData\Local\Temp\cc0O9IID.s:1142   .text.fmc_halfword_program:0000000000000064 .L0 
C:\Users\test\AppData\Local\Temp\cc0O9IID.s:1145   .text.fmc_halfword_program:0000000000000066 .L0 
C:\Users\test\AppData\Local\Temp\cc0O9IID.s:1148   .text.fmc_halfword_program:0000000000000068 .L0 
C:\Users\test\AppData\Local\Temp\cc0O9IID.s:1153   .text.fmc_halfword_program:000000000000006a .L0 
C:\Users\test\AppData\Local\Temp\cc0O9IID.s:1155   .text.fmc_halfword_program:000000000000006c .L0 
C:\Users\test\AppData\Local\Temp\cc0O9IID.s:1156   .text.fmc_halfword_program:000000000000006c .L0 
C:\Users\test\AppData\Local\Temp\cc0O9IID.s:1158   .text.fmc_halfword_program:000000000000006e .L0 
C:\Users\test\AppData\Local\Temp\cc0O9IID.s:1161   .text.fmc_halfword_program:0000000000000070 .L0 
C:\Users\test\AppData\Local\Temp\cc0O9IID.s:1163   .text.fmc_halfword_program:0000000000000072 .L0 
C:\Users\test\AppData\Local\Temp\cc0O9IID.s:1166   .text.fmc_halfword_program:0000000000000074 .L0 
C:\Users\test\AppData\Local\Temp\cc0O9IID.s:1170   .text.fmc_halfword_program:0000000000000074 .L0 
C:\Users\test\AppData\Local\Temp\cc0O9IID.s:1175   .text.fmc_halfword_program:0000000000000076 .L0 
C:\Users\test\AppData\Local\Temp\cc0O9IID.s:1177   .text.fmc_halfword_program:0000000000000078 .L0 
C:\Users\test\AppData\Local\Temp\cc0O9IID.s:1182   .text.fmc_halfword_program:000000000000007a .L0 
C:\Users\test\AppData\Local\Temp\cc0O9IID.s:1184   .text.fmc_halfword_program:000000000000007a .L0 
C:\Users\test\AppData\Local\Temp\cc0O9IID.s:1189   .text.fmc_halfword_program:0000000000000080 .L0 
C:\Users\test\AppData\Local\Temp\cc0O9IID.s:1194   .text.fmc_halfword_program:0000000000000082 .L0 
C:\Users\test\AppData\Local\Temp\cc0O9IID.s:1195   .text.fmc_halfword_program:0000000000000082 .L0 
C:\Users\test\AppData\Local\Temp\cc0O9IID.s:1196   .text.fmc_halfword_program:0000000000000082 .L0 
C:\Users\test\AppData\Local\Temp\cc0O9IID.s:1199   .text.fmc_halfword_program:0000000000000086 .L0 
GAS LISTING C:\Users\test\AppData\Local\Temp\cc0O9IID.s 			page 73


C:\Users\test\AppData\Local\Temp\cc0O9IID.s:1200   .text.fmc_halfword_program:0000000000000088 .L0 
C:\Users\test\AppData\Local\Temp\cc0O9IID.s:1207   .text.ob_erase:0000000000000000 ob_erase
C:\Users\test\AppData\Local\Temp\cc0O9IID.s:1210   .text.ob_erase:0000000000000000 .L0 
C:\Users\test\AppData\Local\Temp\cc0O9IID.s:1211   .text.ob_erase:0000000000000000 .L0 
C:\Users\test\AppData\Local\Temp\cc0O9IID.s:1213   .text.ob_erase:0000000000000000 .L0 
C:\Users\test\AppData\Local\Temp\cc0O9IID.s:1216   .text.ob_erase:0000000000000000 .L0 
C:\Users\test\AppData\Local\Temp\cc0O9IID.s:1219   .text.ob_erase:0000000000000000 .L0 
C:\Users\test\AppData\Local\Temp\cc0O9IID.s:1220   .text.ob_erase:0000000000000000 .L0 
C:\Users\test\AppData\Local\Temp\cc0O9IID.s:1222   .text.ob_erase:0000000000000002 .L0 
C:\Users\test\AppData\Local\Temp\cc0O9IID.s:1227   .text.ob_erase:000000000000000a .L0 
C:\Users\test\AppData\Local\Temp\cc0O9IID.s:1228   .text.ob_erase:000000000000000a .L0 
C:\Users\test\AppData\Local\Temp\cc0O9IID.s:1229   .text.ob_erase:000000000000000a .L0 
C:\Users\test\AppData\Local\Temp\cc0O9IID.s:1230   .text.ob_erase:000000000000000a .L0 
C:\Users\test\AppData\Local\Temp\cc0O9IID.s:1232   .text.ob_erase:000000000000000a .L0 
C:\Users\test\AppData\Local\Temp\cc0O9IID.s:1236   .text.ob_erase:000000000000000e .L0 
C:\Users\test\AppData\Local\Temp\cc0O9IID.s:1241   .text.ob_erase:0000000000000012 .L0 
C:\Users\test\AppData\Local\Temp\cc0O9IID.s:1245   .text.ob_erase:0000000000000014 .L0 
C:\Users\test\AppData\Local\Temp\cc0O9IID.s:1246   .text.ob_erase:0000000000000014 .L0 
C:\Users\test\AppData\Local\Temp\cc0O9IID.s:1247   .text.ob_erase:0000000000000014 .L0 
C:\Users\test\AppData\Local\Temp\cc0O9IID.s:1250   .text.ob_erase:000000000000001c .L0 
C:\Users\test\AppData\Local\Temp\cc0O9IID.s:1253   .text.ob_erase:000000000000001e .L0 
C:\Users\test\AppData\Local\Temp\cc0O9IID.s:1255   .text.ob_erase:0000000000000022 .L0 
C:\Users\test\AppData\Local\Temp\cc0O9IID.s:1259   .text.ob_erase:0000000000000022 .L0 
C:\Users\test\AppData\Local\Temp\cc0O9IID.s:1262   .text.ob_erase:0000000000000022 .L0 
C:\Users\test\AppData\Local\Temp\cc0O9IID.s:1263   .text.ob_erase:0000000000000022 .L0 
C:\Users\test\AppData\Local\Temp\cc0O9IID.s:1264   .text.ob_erase:0000000000000022 .L0 
C:\Users\test\AppData\Local\Temp\cc0O9IID.s:1265   .text.ob_erase:0000000000000022 .L0 
C:\Users\test\AppData\Local\Temp\cc0O9IID.s:1270   .text.ob_erase:0000000000000028 .L0 
C:\Users\test\AppData\Local\Temp\cc0O9IID.s:1276   .text.ob_erase:0000000000000032 .L0 
C:\Users\test\AppData\Local\Temp\cc0O9IID.s:1277   .text.ob_erase:0000000000000032 .L0 
C:\Users\test\AppData\Local\Temp\cc0O9IID.s:1279   .text.ob_erase:0000000000000034 .L0 
C:\Users\test\AppData\Local\Temp\cc0O9IID.s:1280   .text.ob_erase:0000000000000034 .L0 
C:\Users\test\AppData\Local\Temp\cc0O9IID.s:1282   .text.ob_erase:0000000000000036 .L0 
C:\Users\test\AppData\Local\Temp\cc0O9IID.s:1286   .text.ob_erase:000000000000003a .L0 
C:\Users\test\AppData\Local\Temp\cc0O9IID.s:1290   .text.ob_erase:000000000000003c .L0 
C:\Users\test\AppData\Local\Temp\cc0O9IID.s:1293   .text.ob_erase:0000000000000042 .L0 
C:\Users\test\AppData\Local\Temp\cc0O9IID.s:1294   .text.ob_erase:0000000000000042 .L0 
C:\Users\test\AppData\Local\Temp\cc0O9IID.s:1301   .text.ob_erase:000000000000004a .L0 
C:\Users\test\AppData\Local\Temp\cc0O9IID.s:1302   .text.ob_erase:000000000000004a .L0 
C:\Users\test\AppData\Local\Temp\cc0O9IID.s:1306   .text.ob_erase:000000000000004c .L0 
C:\Users\test\AppData\Local\Temp\cc0O9IID.s:1310   .text.ob_erase:000000000000004e .L0 
C:\Users\test\AppData\Local\Temp\cc0O9IID.s:1311   .text.ob_erase:000000000000004e .L0 
C:\Users\test\AppData\Local\Temp\cc0O9IID.s:1312   .text.ob_erase:000000000000004e .L0 
C:\Users\test\AppData\Local\Temp\cc0O9IID.s:1315   .text.ob_erase:0000000000000056 .L0 
C:\Users\test\AppData\Local\Temp\cc0O9IID.s:1318   .text.ob_erase:0000000000000058 .L0 
C:\Users\test\AppData\Local\Temp\cc0O9IID.s:1320   .text.ob_erase:000000000000005c .L0 
C:\Users\test\AppData\Local\Temp\cc0O9IID.s:1324   .text.ob_erase:000000000000005c .L0 
C:\Users\test\AppData\Local\Temp\cc0O9IID.s:1325   .text.ob_erase:000000000000005c .L0 
C:\Users\test\AppData\Local\Temp\cc0O9IID.s:1326   .text.ob_erase:000000000000005c .L0 
C:\Users\test\AppData\Local\Temp\cc0O9IID.s:1328   .text.ob_erase:000000000000005e .L0 
C:\Users\test\AppData\Local\Temp\cc0O9IID.s:1329   .text.ob_erase:000000000000005e .L0 
C:\Users\test\AppData\Local\Temp\cc0O9IID.s:1332   .text.ob_erase:0000000000000064 .L0 
C:\Users\test\AppData\Local\Temp\cc0O9IID.s:1336   .text.ob_erase:0000000000000068 .L0 
C:\Users\test\AppData\Local\Temp\cc0O9IID.s:1340   .text.ob_erase:000000000000006a .L0 
C:\Users\test\AppData\Local\Temp\cc0O9IID.s:1343   .text.ob_erase:0000000000000070 .L0 
C:\Users\test\AppData\Local\Temp\cc0O9IID.s:1344   .text.ob_erase:0000000000000070 .L0 
C:\Users\test\AppData\Local\Temp\cc0O9IID.s:1348   .text.ob_erase:0000000000000078 .L0 
GAS LISTING C:\Users\test\AppData\Local\Temp\cc0O9IID.s 			page 74


C:\Users\test\AppData\Local\Temp\cc0O9IID.s:1349   .text.ob_erase:0000000000000078 .L0 
C:\Users\test\AppData\Local\Temp\cc0O9IID.s:1355   .text.ob_erase:0000000000000080 .L0 
C:\Users\test\AppData\Local\Temp\cc0O9IID.s:1356   .text.ob_erase:0000000000000080 .L0 
C:\Users\test\AppData\Local\Temp\cc0O9IID.s:1360   .text.ob_erase:0000000000000082 .L0 
C:\Users\test\AppData\Local\Temp\cc0O9IID.s:1364   .text.ob_erase:0000000000000084 .L0 
C:\Users\test\AppData\Local\Temp\cc0O9IID.s:1365   .text.ob_erase:0000000000000084 .L0 
C:\Users\test\AppData\Local\Temp\cc0O9IID.s:1366   .text.ob_erase:0000000000000084 .L0 
C:\Users\test\AppData\Local\Temp\cc0O9IID.s:1369   .text.ob_erase:000000000000008c .L0 
C:\Users\test\AppData\Local\Temp\cc0O9IID.s:1372   .text.ob_erase:000000000000008e .L0 
C:\Users\test\AppData\Local\Temp\cc0O9IID.s:1378   .text.ob_erase:0000000000000092 .L0 
C:\Users\test\AppData\Local\Temp\cc0O9IID.s:1379   .text.ob_erase:0000000000000092 .L0 
C:\Users\test\AppData\Local\Temp\cc0O9IID.s:1382   .text.ob_erase:0000000000000098 .L0 
C:\Users\test\AppData\Local\Temp\cc0O9IID.s:1383   .text.ob_erase:0000000000000098 .L0 
C:\Users\test\AppData\Local\Temp\cc0O9IID.s:1390   .text.ob_erase:00000000000000a2 .L0 
C:\Users\test\AppData\Local\Temp\cc0O9IID.s:1391   .text.ob_erase:00000000000000a2 .L0 
C:\Users\test\AppData\Local\Temp\cc0O9IID.s:1392   .text.ob_erase:00000000000000a4 .L0 
C:\Users\test\AppData\Local\Temp\cc0O9IID.s:1393   .text.ob_erase:00000000000000a4 .L0 
C:\Users\test\AppData\Local\Temp\cc0O9IID.s:1395   .text.ob_erase:00000000000000a6 .L0 
C:\Users\test\AppData\Local\Temp\cc0O9IID.s:1397   .text.ob_erase:00000000000000a8 .L0 
C:\Users\test\AppData\Local\Temp\cc0O9IID.s:1400   .text.ob_erase:00000000000000aa .L0 
C:\Users\test\AppData\Local\Temp\cc0O9IID.s:1403   .text.ob_erase:00000000000000ac .L0 
C:\Users\test\AppData\Local\Temp\cc0O9IID.s:1408   .text.ob_erase:00000000000000ae .L0 
C:\Users\test\AppData\Local\Temp\cc0O9IID.s:1412   .text.ob_erase:00000000000000ae .L0 
C:\Users\test\AppData\Local\Temp\cc0O9IID.s:1413   .text.ob_erase:00000000000000ae .L0 
C:\Users\test\AppData\Local\Temp\cc0O9IID.s:1416   .text.ob_erase:00000000000000ae .L0 
C:\Users\test\AppData\Local\Temp\cc0O9IID.s:1419   .text.ob_erase:00000000000000ae .L0 
C:\Users\test\AppData\Local\Temp\cc0O9IID.s:1420   .text.ob_erase:00000000000000ae .L0 
C:\Users\test\AppData\Local\Temp\cc0O9IID.s:1421   .text.ob_erase:00000000000000ae .L0 
C:\Users\test\AppData\Local\Temp\cc0O9IID.s:1422   .text.ob_erase:00000000000000ae .L0 
C:\Users\test\AppData\Local\Temp\cc0O9IID.s:1429   .text.ob_erase:00000000000000b4 .L0 
C:\Users\test\AppData\Local\Temp\cc0O9IID.s:1430   .text.ob_erase:00000000000000b6 .L0 
C:\Users\test\AppData\Local\Temp\cc0O9IID.s:1432   .text.ob_erase:00000000000000b8 .L0 
C:\Users\test\AppData\Local\Temp\cc0O9IID.s:1434   .text.ob_erase:00000000000000ba .L0 
C:\Users\test\AppData\Local\Temp\cc0O9IID.s:1436   .text.ob_erase:00000000000000bc .L0 
C:\Users\test\AppData\Local\Temp\cc0O9IID.s:1440   .text.ob_erase:00000000000000bc .L0 
C:\Users\test\AppData\Local\Temp\cc0O9IID.s:1444   .text.ob_erase:00000000000000be .L0 
C:\Users\test\AppData\Local\Temp\cc0O9IID.s:1446   .text.ob_erase:00000000000000c0 .L0 
C:\Users\test\AppData\Local\Temp\cc0O9IID.s:1448   .text.ob_erase:00000000000000c2 .L0 
C:\Users\test\AppData\Local\Temp\cc0O9IID.s:1455   .text.ob_write_protection_enable:0000000000000000 ob_write_protection_enable
C:\Users\test\AppData\Local\Temp\cc0O9IID.s:1458   .text.ob_write_protection_enable:0000000000000000 .L0 
C:\Users\test\AppData\Local\Temp\cc0O9IID.s:1460   .text.ob_write_protection_enable:0000000000000000 .L0 
C:\Users\test\AppData\Local\Temp\cc0O9IID.s:1461   .text.ob_write_protection_enable:0000000000000000 .L0 
C:\Users\test\AppData\Local\Temp\cc0O9IID.s:1464   .text.ob_write_protection_enable:0000000000000000 .L0 
C:\Users\test\AppData\Local\Temp\cc0O9IID.s:1467   .text.ob_write_protection_enable:0000000000000000 .L0 
C:\Users\test\AppData\Local\Temp\cc0O9IID.s:1468   .text.ob_write_protection_enable:0000000000000000 .L0 
C:\Users\test\AppData\Local\Temp\cc0O9IID.s:1470   .text.ob_write_protection_enable:0000000000000002 .L0 
C:\Users\test\AppData\Local\Temp\cc0O9IID.s:1476   .text.ob_write_protection_enable:000000000000000c .L0 
C:\Users\test\AppData\Local\Temp\cc0O9IID.s:1477   .text.ob_write_protection_enable:000000000000000c .L0 
C:\Users\test\AppData\Local\Temp\cc0O9IID.s:1478   .text.ob_write_protection_enable:000000000000000c .L0 
C:\Users\test\AppData\Local\Temp\cc0O9IID.s:1479   .text.ob_write_protection_enable:000000000000000c .L0 
C:\Users\test\AppData\Local\Temp\cc0O9IID.s:1480   .text.ob_write_protection_enable:000000000000000c .L0 
C:\Users\test\AppData\Local\Temp\cc0O9IID.s:1482   .text.ob_write_protection_enable:000000000000000c .L0 
C:\Users\test\AppData\Local\Temp\cc0O9IID.s:1487   .text.ob_write_protection_enable:0000000000000012 .L0 
C:\Users\test\AppData\Local\Temp\cc0O9IID.s:1492   .text.ob_write_protection_enable:0000000000000016 .L0 
C:\Users\test\AppData\Local\Temp\cc0O9IID.s:1496   .text.ob_write_protection_enable:0000000000000018 .L0 
C:\Users\test\AppData\Local\Temp\cc0O9IID.s:1497   .text.ob_write_protection_enable:0000000000000018 .L0 
C:\Users\test\AppData\Local\Temp\cc0O9IID.s:1498   .text.ob_write_protection_enable:0000000000000018 .L0 
GAS LISTING C:\Users\test\AppData\Local\Temp\cc0O9IID.s 			page 75


C:\Users\test\AppData\Local\Temp\cc0O9IID.s:1503   .text.ob_write_protection_enable:0000000000000022 .L0 
C:\Users\test\AppData\Local\Temp\cc0O9IID.s:1506   .text.ob_write_protection_enable:0000000000000024 .L0 
C:\Users\test\AppData\Local\Temp\cc0O9IID.s:1508   .text.ob_write_protection_enable:0000000000000028 .L0 
C:\Users\test\AppData\Local\Temp\cc0O9IID.s:1512   .text.ob_write_protection_enable:0000000000000028 .L0 
C:\Users\test\AppData\Local\Temp\cc0O9IID.s:1513   .text.ob_write_protection_enable:0000000000000028 .L0 
C:\Users\test\AppData\Local\Temp\cc0O9IID.s:1514   .text.ob_write_protection_enable:0000000000000028 .L0 
C:\Users\test\AppData\Local\Temp\cc0O9IID.s:1515   .text.ob_write_protection_enable:0000000000000028 .L0 
C:\Users\test\AppData\Local\Temp\cc0O9IID.s:1516   .text.ob_write_protection_enable:0000000000000028 .L0 
C:\Users\test\AppData\Local\Temp\cc0O9IID.s:1517   .text.ob_write_protection_enable:0000000000000028 .L0 
C:\Users\test\AppData\Local\Temp\cc0O9IID.s:1518   .text.ob_write_protection_enable:0000000000000028 .L0 
C:\Users\test\AppData\Local\Temp\cc0O9IID.s:1519   .text.ob_write_protection_enable:0000000000000028 .L0 
C:\Users\test\AppData\Local\Temp\cc0O9IID.s:1521   .text.ob_write_protection_enable:000000000000002a .L0 
C:\Users\test\AppData\Local\Temp\cc0O9IID.s:1524   .text.ob_write_protection_enable:0000000000000030 .L0 
C:\Users\test\AppData\Local\Temp\cc0O9IID.s:1527   .text.ob_write_protection_enable:0000000000000034 .L0 
C:\Users\test\AppData\Local\Temp\cc0O9IID.s:1529   .text.ob_write_protection_enable:0000000000000038 .L0 
C:\Users\test\AppData\Local\Temp\cc0O9IID.s:1530   .text.ob_write_protection_enable:0000000000000038 .L0 
C:\Users\test\AppData\Local\Temp\cc0O9IID.s:1533   .text.ob_write_protection_enable:000000000000003e .L0 
C:\Users\test\AppData\Local\Temp\cc0O9IID.s:1534   .text.ob_write_protection_enable:000000000000003e .L0 
C:\Users\test\AppData\Local\Temp\cc0O9IID.s:1537   .text.ob_write_protection_enable:0000000000000046 .L0 
C:\Users\test\AppData\Local\Temp\cc0O9IID.s:1538   .text.ob_write_protection_enable:0000000000000046 .L0 
C:\Users\test\AppData\Local\Temp\cc0O9IID.s:1544   .text.ob_write_protection_enable:000000000000004e .L0 
C:\Users\test\AppData\Local\Temp\cc0O9IID.s:1547   .text.ob_write_protection_enable:000000000000004e .L0 
C:\Users\test\AppData\Local\Temp\cc0O9IID.s:1548   .text.ob_write_protection_enable:000000000000004e .L0 
C:\Users\test\AppData\Local\Temp\cc0O9IID.s:1552   .text.ob_write_protection_enable:0000000000000052 .L0 
C:\Users\test\AppData\Local\Temp\cc0O9IID.s:1557   .text.ob_write_protection_enable:0000000000000056 .L0 
C:\Users\test\AppData\Local\Temp\cc0O9IID.s:1561   .text.ob_write_protection_enable:0000000000000058 .L0 
C:\Users\test\AppData\Local\Temp\cc0O9IID.s:1562   .text.ob_write_protection_enable:0000000000000058 .L0 
C:\Users\test\AppData\Local\Temp\cc0O9IID.s:1563   .text.ob_write_protection_enable:0000000000000058 .L0 
C:\Users\test\AppData\Local\Temp\cc0O9IID.s:1566   .text.ob_write_protection_enable:0000000000000060 .L0 
C:\Users\test\AppData\Local\Temp\cc0O9IID.s:1569   .text.ob_write_protection_enable:0000000000000062 .L0 
C:\Users\test\AppData\Local\Temp\cc0O9IID.s:1574   .text.ob_write_protection_enable:0000000000000066 .L0 
C:\Users\test\AppData\Local\Temp\cc0O9IID.s:1575   .text.ob_write_protection_enable:0000000000000066 .L0 
C:\Users\test\AppData\Local\Temp\cc0O9IID.s:1576   .text.ob_write_protection_enable:0000000000000066 .L0 
C:\Users\test\AppData\Local\Temp\cc0O9IID.s:1583   .text.ob_write_protection_enable:000000000000006a .L0 
C:\Users\test\AppData\Local\Temp\cc0O9IID.s:1584   .text.ob_write_protection_enable:000000000000006a .L0 
C:\Users\test\AppData\Local\Temp\cc0O9IID.s:1589   .text.ob_write_protection_enable:0000000000000070 .L0 
C:\Users\test\AppData\Local\Temp\cc0O9IID.s:1590   .text.ob_write_protection_enable:0000000000000070 .L0 
C:\Users\test\AppData\Local\Temp\cc0O9IID.s:1597   .text.ob_write_protection_enable:000000000000007a .L0 
C:\Users\test\AppData\Local\Temp\cc0O9IID.s:1598   .text.ob_write_protection_enable:000000000000007a .L0 
C:\Users\test\AppData\Local\Temp\cc0O9IID.s:1599   .text.ob_write_protection_enable:000000000000007c .L0 
C:\Users\test\AppData\Local\Temp\cc0O9IID.s:1600   .text.ob_write_protection_enable:000000000000007c .L0 
C:\Users\test\AppData\Local\Temp\cc0O9IID.s:1602   .text.ob_write_protection_enable:000000000000007e .L0 
C:\Users\test\AppData\Local\Temp\cc0O9IID.s:1605   .text.ob_write_protection_enable:0000000000000082 .L0 
C:\Users\test\AppData\Local\Temp\cc0O9IID.s:1607   .text.ob_write_protection_enable:0000000000000084 .L0 
C:\Users\test\AppData\Local\Temp\cc0O9IID.s:1610   .text.ob_write_protection_enable:0000000000000086 .L0 
C:\Users\test\AppData\Local\Temp\cc0O9IID.s:1613   .text.ob_write_protection_enable:0000000000000088 .L0 
C:\Users\test\AppData\Local\Temp\cc0O9IID.s:1618   .text.ob_write_protection_enable:000000000000008a .L0 
C:\Users\test\AppData\Local\Temp\cc0O9IID.s:1620   .text.ob_write_protection_enable:000000000000008c .L0 
C:\Users\test\AppData\Local\Temp\cc0O9IID.s:1621   .text.ob_write_protection_enable:000000000000008c .L0 
C:\Users\test\AppData\Local\Temp\cc0O9IID.s:1623   .text.ob_write_protection_enable:000000000000008e .L0 
C:\Users\test\AppData\Local\Temp\cc0O9IID.s:1627   .text.ob_write_protection_enable:000000000000008e .L0 
C:\Users\test\AppData\Local\Temp\cc0O9IID.s:1631   .text.ob_write_protection_enable:0000000000000090 .L0 
C:\Users\test\AppData\Local\Temp\cc0O9IID.s:1633   .text.ob_write_protection_enable:0000000000000094 .L0 
C:\Users\test\AppData\Local\Temp\cc0O9IID.s:1635   .text.ob_write_protection_enable:0000000000000096 .L0 
C:\Users\test\AppData\Local\Temp\cc0O9IID.s:1637   .text.ob_write_protection_enable:0000000000000098 .L0 
C:\Users\test\AppData\Local\Temp\cc0O9IID.s:1640   .text.ob_write_protection_enable:000000000000009a .L0 
C:\Users\test\AppData\Local\Temp\cc0O9IID.s:1645   .text.ob_write_protection_enable:000000000000009c .L0 
GAS LISTING C:\Users\test\AppData\Local\Temp\cc0O9IID.s 			page 76


C:\Users\test\AppData\Local\Temp\cc0O9IID.s:1647   .text.ob_write_protection_enable:000000000000009c .L0 
C:\Users\test\AppData\Local\Temp\cc0O9IID.s:1649   .text.ob_write_protection_enable:00000000000000a0 .L0 
C:\Users\test\AppData\Local\Temp\cc0O9IID.s:1651   .text.ob_write_protection_enable:00000000000000a4 .L0 
C:\Users\test\AppData\Local\Temp\cc0O9IID.s:1654   .text.ob_write_protection_enable:00000000000000ac .L0 
C:\Users\test\AppData\Local\Temp\cc0O9IID.s:1655   .text.ob_write_protection_enable:00000000000000ac .L0 
C:\Users\test\AppData\Local\Temp\cc0O9IID.s:1661   .text.ob_write_protection_enable:00000000000000b4 .L0 
C:\Users\test\AppData\Local\Temp\cc0O9IID.s:1664   .text.ob_write_protection_enable:00000000000000b4 .L0 
C:\Users\test\AppData\Local\Temp\cc0O9IID.s:1665   .text.ob_write_protection_enable:00000000000000b4 .L0 
C:\Users\test\AppData\Local\Temp\cc0O9IID.s:1669   .text.ob_write_protection_enable:00000000000000b8 .L0 
C:\Users\test\AppData\Local\Temp\cc0O9IID.s:1674   .text.ob_write_protection_enable:00000000000000bc .L0 
C:\Users\test\AppData\Local\Temp\cc0O9IID.s:1678   .text.ob_write_protection_enable:00000000000000be .L0 
C:\Users\test\AppData\Local\Temp\cc0O9IID.s:1679   .text.ob_write_protection_enable:00000000000000be .L0 
C:\Users\test\AppData\Local\Temp\cc0O9IID.s:1680   .text.ob_write_protection_enable:00000000000000be .L0 
C:\Users\test\AppData\Local\Temp\cc0O9IID.s:1683   .text.ob_write_protection_enable:00000000000000c6 .L0 
C:\Users\test\AppData\Local\Temp\cc0O9IID.s:1686   .text.ob_write_protection_enable:00000000000000c8 .L0 
C:\Users\test\AppData\Local\Temp\cc0O9IID.s:1691   .text.ob_write_protection_enable:00000000000000cc .L0 
C:\Users\test\AppData\Local\Temp\cc0O9IID.s:1692   .text.ob_write_protection_enable:00000000000000cc .L0 
C:\Users\test\AppData\Local\Temp\cc0O9IID.s:1693   .text.ob_write_protection_enable:00000000000000cc .L0 
C:\Users\test\AppData\Local\Temp\cc0O9IID.s:1697   .text.ob_write_protection_enable:00000000000000ce .L0 
C:\Users\test\AppData\Local\Temp\cc0O9IID.s:1699   .text.ob_write_protection_enable:00000000000000d2 .L0 
C:\Users\test\AppData\Local\Temp\cc0O9IID.s:1701   .text.ob_write_protection_enable:00000000000000d6 .L0 
C:\Users\test\AppData\Local\Temp\cc0O9IID.s:1704   .text.ob_write_protection_enable:00000000000000de .L0 
C:\Users\test\AppData\Local\Temp\cc0O9IID.s:1705   .text.ob_write_protection_enable:00000000000000de .L0 
C:\Users\test\AppData\Local\Temp\cc0O9IID.s:1711   .text.ob_write_protection_enable:00000000000000e6 .L0 
C:\Users\test\AppData\Local\Temp\cc0O9IID.s:1714   .text.ob_write_protection_enable:00000000000000e6 .L0 
C:\Users\test\AppData\Local\Temp\cc0O9IID.s:1715   .text.ob_write_protection_enable:00000000000000e6 .L0 
C:\Users\test\AppData\Local\Temp\cc0O9IID.s:1719   .text.ob_write_protection_enable:00000000000000ea .L0 
C:\Users\test\AppData\Local\Temp\cc0O9IID.s:1724   .text.ob_write_protection_enable:00000000000000ee .L0 
C:\Users\test\AppData\Local\Temp\cc0O9IID.s:1728   .text.ob_write_protection_enable:00000000000000f0 .L0 
C:\Users\test\AppData\Local\Temp\cc0O9IID.s:1729   .text.ob_write_protection_enable:00000000000000f0 .L0 
C:\Users\test\AppData\Local\Temp\cc0O9IID.s:1730   .text.ob_write_protection_enable:00000000000000f0 .L0 
C:\Users\test\AppData\Local\Temp\cc0O9IID.s:1733   .text.ob_write_protection_enable:00000000000000f8 .L0 
C:\Users\test\AppData\Local\Temp\cc0O9IID.s:1736   .text.ob_write_protection_enable:00000000000000fa .L0 
C:\Users\test\AppData\Local\Temp\cc0O9IID.s:1741   .text.ob_write_protection_enable:00000000000000fe .L0 
C:\Users\test\AppData\Local\Temp\cc0O9IID.s:1742   .text.ob_write_protection_enable:00000000000000fe .L0 
C:\Users\test\AppData\Local\Temp\cc0O9IID.s:1743   .text.ob_write_protection_enable:00000000000000fe .L0 
C:\Users\test\AppData\Local\Temp\cc0O9IID.s:1747   .text.ob_write_protection_enable:0000000000000100 .L0 
C:\Users\test\AppData\Local\Temp\cc0O9IID.s:1750   .text.ob_write_protection_enable:0000000000000104 .L0 
C:\Users\test\AppData\Local\Temp\cc0O9IID.s:1753   .text.ob_write_protection_enable:000000000000010c .L0 
C:\Users\test\AppData\Local\Temp\cc0O9IID.s:1754   .text.ob_write_protection_enable:000000000000010c .L0 
C:\Users\test\AppData\Local\Temp\cc0O9IID.s:1757   .text.ob_write_protection_enable:0000000000000112 .L0 
C:\Users\test\AppData\Local\Temp\cc0O9IID.s:1763   .text.ob_write_protection_enable:000000000000011a .L0 
C:\Users\test\AppData\Local\Temp\cc0O9IID.s:1766   .text.ob_write_protection_enable:000000000000011a .L0 
C:\Users\test\AppData\Local\Temp\cc0O9IID.s:1767   .text.ob_write_protection_enable:000000000000011a .L0 
C:\Users\test\AppData\Local\Temp\cc0O9IID.s:1771   .text.ob_write_protection_enable:000000000000011e .L0 
C:\Users\test\AppData\Local\Temp\cc0O9IID.s:1776   .text.ob_write_protection_enable:0000000000000122 .L0 
C:\Users\test\AppData\Local\Temp\cc0O9IID.s:1780   .text.ob_write_protection_enable:0000000000000124 .L0 
C:\Users\test\AppData\Local\Temp\cc0O9IID.s:1781   .text.ob_write_protection_enable:0000000000000124 .L0 
C:\Users\test\AppData\Local\Temp\cc0O9IID.s:1782   .text.ob_write_protection_enable:0000000000000124 .L0 
C:\Users\test\AppData\Local\Temp\cc0O9IID.s:1787   .text.ob_write_protection_enable:000000000000012e .L0 
C:\Users\test\AppData\Local\Temp\cc0O9IID.s:1790   .text.ob_write_protection_enable:0000000000000130 .L0 
C:\Users\test\AppData\Local\Temp\cc0O9IID.s:1794   .text.ob_write_protection_enable:0000000000000136 .L0 
C:\Users\test\AppData\Local\Temp\cc0O9IID.s:1801   .text.ob_security_protection_config:0000000000000000 ob_security_protection_config
C:\Users\test\AppData\Local\Temp\cc0O9IID.s:1804   .text.ob_security_protection_config:0000000000000000 .L0 
C:\Users\test\AppData\Local\Temp\cc0O9IID.s:1806   .text.ob_security_protection_config:0000000000000000 .L0 
C:\Users\test\AppData\Local\Temp\cc0O9IID.s:1809   .text.ob_security_protection_config:0000000000000000 .L0 
C:\Users\test\AppData\Local\Temp\cc0O9IID.s:1812   .text.ob_security_protection_config:0000000000000000 .L0 
GAS LISTING C:\Users\test\AppData\Local\Temp\cc0O9IID.s 			page 77


C:\Users\test\AppData\Local\Temp\cc0O9IID.s:1813   .text.ob_security_protection_config:0000000000000000 .L0 
C:\Users\test\AppData\Local\Temp\cc0O9IID.s:1815   .text.ob_security_protection_config:0000000000000002 .L0 
C:\Users\test\AppData\Local\Temp\cc0O9IID.s:1820   .text.ob_security_protection_config:000000000000000a .L0 
C:\Users\test\AppData\Local\Temp\cc0O9IID.s:1821   .text.ob_security_protection_config:000000000000000a .L0 
C:\Users\test\AppData\Local\Temp\cc0O9IID.s:1822   .text.ob_security_protection_config:000000000000000a .L0 
C:\Users\test\AppData\Local\Temp\cc0O9IID.s:1823   .text.ob_security_protection_config:000000000000000a .L0 
C:\Users\test\AppData\Local\Temp\cc0O9IID.s:1825   .text.ob_security_protection_config:000000000000000a .L0 
C:\Users\test\AppData\Local\Temp\cc0O9IID.s:1830   .text.ob_security_protection_config:0000000000000010 .L0 
C:\Users\test\AppData\Local\Temp\cc0O9IID.s:1835   .text.ob_security_protection_config:0000000000000014 .L0 
C:\Users\test\AppData\Local\Temp\cc0O9IID.s:1839   .text.ob_security_protection_config:0000000000000016 .L0 
C:\Users\test\AppData\Local\Temp\cc0O9IID.s:1840   .text.ob_security_protection_config:0000000000000016 .L0 
C:\Users\test\AppData\Local\Temp\cc0O9IID.s:1841   .text.ob_security_protection_config:0000000000000016 .L0 
C:\Users\test\AppData\Local\Temp\cc0O9IID.s:1844   .text.ob_security_protection_config:000000000000001e .L0 
C:\Users\test\AppData\Local\Temp\cc0O9IID.s:1847   .text.ob_security_protection_config:0000000000000020 .L0 
C:\Users\test\AppData\Local\Temp\cc0O9IID.s:1849   .text.ob_security_protection_config:0000000000000024 .L0 
C:\Users\test\AppData\Local\Temp\cc0O9IID.s:1853   .text.ob_security_protection_config:0000000000000024 .L0 
C:\Users\test\AppData\Local\Temp\cc0O9IID.s:1854   .text.ob_security_protection_config:0000000000000024 .L0 
C:\Users\test\AppData\Local\Temp\cc0O9IID.s:1855   .text.ob_security_protection_config:0000000000000024 .L0 
C:\Users\test\AppData\Local\Temp\cc0O9IID.s:1857   .text.ob_security_protection_config:0000000000000026 .L0 
C:\Users\test\AppData\Local\Temp\cc0O9IID.s:1858   .text.ob_security_protection_config:0000000000000026 .L0 
C:\Users\test\AppData\Local\Temp\cc0O9IID.s:1861   .text.ob_security_protection_config:000000000000002c .L0 
C:\Users\test\AppData\Local\Temp\cc0O9IID.s:1865   .text.ob_security_protection_config:0000000000000030 .L0 
C:\Users\test\AppData\Local\Temp\cc0O9IID.s:1869   .text.ob_security_protection_config:0000000000000032 .L0 
C:\Users\test\AppData\Local\Temp\cc0O9IID.s:1872   .text.ob_security_protection_config:0000000000000038 .L0 
C:\Users\test\AppData\Local\Temp\cc0O9IID.s:1873   .text.ob_security_protection_config:0000000000000038 .L0 
C:\Users\test\AppData\Local\Temp\cc0O9IID.s:1880   .text.ob_security_protection_config:0000000000000040 .L0 
C:\Users\test\AppData\Local\Temp\cc0O9IID.s:1881   .text.ob_security_protection_config:0000000000000040 .L0 
C:\Users\test\AppData\Local\Temp\cc0O9IID.s:1885   .text.ob_security_protection_config:0000000000000042 .L0 
C:\Users\test\AppData\Local\Temp\cc0O9IID.s:1889   .text.ob_security_protection_config:0000000000000044 .L0 
C:\Users\test\AppData\Local\Temp\cc0O9IID.s:1890   .text.ob_security_protection_config:0000000000000044 .L0 
C:\Users\test\AppData\Local\Temp\cc0O9IID.s:1891   .text.ob_security_protection_config:0000000000000044 .L0 
C:\Users\test\AppData\Local\Temp\cc0O9IID.s:1894   .text.ob_security_protection_config:000000000000004c .L0 
C:\Users\test\AppData\Local\Temp\cc0O9IID.s:1897   .text.ob_security_protection_config:000000000000004e .L0 
C:\Users\test\AppData\Local\Temp\cc0O9IID.s:1899   .text.ob_security_protection_config:0000000000000052 .L0 
C:\Users\test\AppData\Local\Temp\cc0O9IID.s:1903   .text.ob_security_protection_config:0000000000000052 .L0 
C:\Users\test\AppData\Local\Temp\cc0O9IID.s:1904   .text.ob_security_protection_config:0000000000000052 .L0 
C:\Users\test\AppData\Local\Temp\cc0O9IID.s:1905   .text.ob_security_protection_config:0000000000000052 .L0 
C:\Users\test\AppData\Local\Temp\cc0O9IID.s:1907   .text.ob_security_protection_config:0000000000000054 .L0 
C:\Users\test\AppData\Local\Temp\cc0O9IID.s:1908   .text.ob_security_protection_config:0000000000000054 .L0 
C:\Users\test\AppData\Local\Temp\cc0O9IID.s:1911   .text.ob_security_protection_config:000000000000005a .L0 
C:\Users\test\AppData\Local\Temp\cc0O9IID.s:1914   .text.ob_security_protection_config:0000000000000060 .L0 
C:\Users\test\AppData\Local\Temp\cc0O9IID.s:1917   .text.ob_security_protection_config:0000000000000066 .L0 
C:\Users\test\AppData\Local\Temp\cc0O9IID.s:1918   .text.ob_security_protection_config:0000000000000066 .L0 
C:\Users\test\AppData\Local\Temp\cc0O9IID.s:1920   .text.ob_security_protection_config:0000000000000068 .L0 
C:\Users\test\AppData\Local\Temp\cc0O9IID.s:1924   .text.ob_security_protection_config:000000000000006c .L0 
C:\Users\test\AppData\Local\Temp\cc0O9IID.s:1928   .text.ob_security_protection_config:000000000000006e .L0 
C:\Users\test\AppData\Local\Temp\cc0O9IID.s:1931   .text.ob_security_protection_config:0000000000000074 .L0 
C:\Users\test\AppData\Local\Temp\cc0O9IID.s:1932   .text.ob_security_protection_config:0000000000000074 .L0 
C:\Users\test\AppData\Local\Temp\cc0O9IID.s:1938   .text.ob_security_protection_config:000000000000007c .L0 
C:\Users\test\AppData\Local\Temp\cc0O9IID.s:1939   .text.ob_security_protection_config:000000000000007c .L0 
C:\Users\test\AppData\Local\Temp\cc0O9IID.s:1943   .text.ob_security_protection_config:000000000000007e .L0 
C:\Users\test\AppData\Local\Temp\cc0O9IID.s:1947   .text.ob_security_protection_config:0000000000000080 .L0 
C:\Users\test\AppData\Local\Temp\cc0O9IID.s:1948   .text.ob_security_protection_config:0000000000000080 .L0 
C:\Users\test\AppData\Local\Temp\cc0O9IID.s:1949   .text.ob_security_protection_config:0000000000000080 .L0 
C:\Users\test\AppData\Local\Temp\cc0O9IID.s:1952   .text.ob_security_protection_config:0000000000000088 .L0 
C:\Users\test\AppData\Local\Temp\cc0O9IID.s:1955   .text.ob_security_protection_config:000000000000008a .L0 
C:\Users\test\AppData\Local\Temp\cc0O9IID.s:1957   .text.ob_security_protection_config:000000000000008e .L0 
GAS LISTING C:\Users\test\AppData\Local\Temp\cc0O9IID.s 			page 78


C:\Users\test\AppData\Local\Temp\cc0O9IID.s:1961   .text.ob_security_protection_config:000000000000008e .L0 
C:\Users\test\AppData\Local\Temp\cc0O9IID.s:1962   .text.ob_security_protection_config:000000000000008e .L0 
C:\Users\test\AppData\Local\Temp\cc0O9IID.s:1963   .text.ob_security_protection_config:000000000000008e .L0 
C:\Users\test\AppData\Local\Temp\cc0O9IID.s:1966   .text.ob_security_protection_config:0000000000000094 .L0 
C:\Users\test\AppData\Local\Temp\cc0O9IID.s:1967   .text.ob_security_protection_config:0000000000000094 .L0 
C:\Users\test\AppData\Local\Temp\cc0O9IID.s:1973   .text.ob_security_protection_config:000000000000009e .L0 
C:\Users\test\AppData\Local\Temp\cc0O9IID.s:1974   .text.ob_security_protection_config:00000000000000a0 .L0 
C:\Users\test\AppData\Local\Temp\cc0O9IID.s:1975   .text.ob_security_protection_config:00000000000000a0 .L0 
C:\Users\test\AppData\Local\Temp\cc0O9IID.s:1977   .text.ob_security_protection_config:00000000000000a2 .L0 
C:\Users\test\AppData\Local\Temp\cc0O9IID.s:1979   .text.ob_security_protection_config:00000000000000a4 .L0 
C:\Users\test\AppData\Local\Temp\cc0O9IID.s:1981   .text.ob_security_protection_config:00000000000000a6 .L0 
C:\Users\test\AppData\Local\Temp\cc0O9IID.s:1984   .text.ob_security_protection_config:00000000000000a8 .L0 
C:\Users\test\AppData\Local\Temp\cc0O9IID.s:1989   .text.ob_security_protection_config:00000000000000aa .L0 
C:\Users\test\AppData\Local\Temp\cc0O9IID.s:1991   .text.ob_security_protection_config:00000000000000ac .L0 
C:\Users\test\AppData\Local\Temp\cc0O9IID.s:1992   .text.ob_security_protection_config:00000000000000ac .L0 
C:\Users\test\AppData\Local\Temp\cc0O9IID.s:1994   .text.ob_security_protection_config:00000000000000ae .L0 
C:\Users\test\AppData\Local\Temp\cc0O9IID.s:1996   .text.ob_security_protection_config:00000000000000b0 .L0 
C:\Users\test\AppData\Local\Temp\cc0O9IID.s:1998   .text.ob_security_protection_config:00000000000000b2 .L0 
C:\Users\test\AppData\Local\Temp\cc0O9IID.s:2002   .text.ob_security_protection_config:00000000000000b2 .L0 
C:\Users\test\AppData\Local\Temp\cc0O9IID.s:2006   .text.ob_security_protection_config:00000000000000b4 .L0 
C:\Users\test\AppData\Local\Temp\cc0O9IID.s:2008   .text.ob_security_protection_config:00000000000000b6 .L0 
C:\Users\test\AppData\Local\Temp\cc0O9IID.s:2013   .text.ob_security_protection_config:00000000000000b8 .L0 
C:\Users\test\AppData\Local\Temp\cc0O9IID.s:2015   .text.ob_security_protection_config:00000000000000b8 .L0 
C:\Users\test\AppData\Local\Temp\cc0O9IID.s:2016   .text.ob_security_protection_config:00000000000000b8 .L0 
C:\Users\test\AppData\Local\Temp\cc0O9IID.s:2019   .text.ob_security_protection_config:00000000000000be .L0 
C:\Users\test\AppData\Local\Temp\cc0O9IID.s:2020   .text.ob_security_protection_config:00000000000000be .L0 
C:\Users\test\AppData\Local\Temp\cc0O9IID.s:2023   .text.ob_security_protection_config:00000000000000c4 .L0 
C:\Users\test\AppData\Local\Temp\cc0O9IID.s:2024   .text.ob_security_protection_config:00000000000000c6 .L0 
C:\Users\test\AppData\Local\Temp\cc0O9IID.s:2026   .text.ob_security_protection_config:00000000000000c8 .L0 
C:\Users\test\AppData\Local\Temp\cc0O9IID.s:2028   .text.ob_security_protection_config:00000000000000c8 .L0 
C:\Users\test\AppData\Local\Temp\cc0O9IID.s:2031   .text.ob_security_protection_config:00000000000000ce .L0 
C:\Users\test\AppData\Local\Temp\cc0O9IID.s:2032   .text.ob_security_protection_config:00000000000000ce .L0 
C:\Users\test\AppData\Local\Temp\cc0O9IID.s:2033   .text.ob_security_protection_config:00000000000000d0 .L0 
C:\Users\test\AppData\Local\Temp\cc0O9IID.s:2035   .text.ob_security_protection_config:00000000000000d2 .L0 
C:\Users\test\AppData\Local\Temp\cc0O9IID.s:2038   .text.ob_security_protection_config:00000000000000d4 .L0 
C:\Users\test\AppData\Local\Temp\cc0O9IID.s:2040   .text.ob_security_protection_config:00000000000000d6 .L0 
C:\Users\test\AppData\Local\Temp\cc0O9IID.s:2047   .text.ob_user_write:0000000000000000 ob_user_write
C:\Users\test\AppData\Local\Temp\cc0O9IID.s:2050   .text.ob_user_write:0000000000000000 .L0 
C:\Users\test\AppData\Local\Temp\cc0O9IID.s:2052   .text.ob_user_write:0000000000000000 .L0 
C:\Users\test\AppData\Local\Temp\cc0O9IID.s:2053   .text.ob_user_write:0000000000000000 .L0 
C:\Users\test\AppData\Local\Temp\cc0O9IID.s:2054   .text.ob_user_write:0000000000000000 .L0 
C:\Users\test\AppData\Local\Temp\cc0O9IID.s:2057   .text.ob_user_write:0000000000000000 .L0 
C:\Users\test\AppData\Local\Temp\cc0O9IID.s:2060   .text.ob_user_write:0000000000000000 .L0 
C:\Users\test\AppData\Local\Temp\cc0O9IID.s:2061   .text.ob_user_write:0000000000000000 .L0 
C:\Users\test\AppData\Local\Temp\cc0O9IID.s:2063   .text.ob_user_write:0000000000000002 .L0 
C:\Users\test\AppData\Local\Temp\cc0O9IID.s:2071   .text.ob_user_write:0000000000000010 .L0 
C:\Users\test\AppData\Local\Temp\cc0O9IID.s:2072   .text.ob_user_write:0000000000000010 .L0 
C:\Users\test\AppData\Local\Temp\cc0O9IID.s:2073   .text.ob_user_write:0000000000000010 .L0 
C:\Users\test\AppData\Local\Temp\cc0O9IID.s:2074   .text.ob_user_write:0000000000000010 .L0 
C:\Users\test\AppData\Local\Temp\cc0O9IID.s:2075   .text.ob_user_write:0000000000000010 .L0 
C:\Users\test\AppData\Local\Temp\cc0O9IID.s:2076   .text.ob_user_write:0000000000000010 .L0 
C:\Users\test\AppData\Local\Temp\cc0O9IID.s:2077   .text.ob_user_write:0000000000000010 .L0 
C:\Users\test\AppData\Local\Temp\cc0O9IID.s:2079   .text.ob_user_write:0000000000000010 .L0 
C:\Users\test\AppData\Local\Temp\cc0O9IID.s:2087   .text.ob_user_write:000000000000001c .L0 
C:\Users\test\AppData\Local\Temp\cc0O9IID.s:2092   .text.ob_user_write:0000000000000020 .L0 
C:\Users\test\AppData\Local\Temp\cc0O9IID.s:2096   .text.ob_user_write:0000000000000022 .L0 
C:\Users\test\AppData\Local\Temp\cc0O9IID.s:2097   .text.ob_user_write:0000000000000022 .L0 
GAS LISTING C:\Users\test\AppData\Local\Temp\cc0O9IID.s 			page 79


C:\Users\test\AppData\Local\Temp\cc0O9IID.s:2098   .text.ob_user_write:0000000000000022 .L0 
C:\Users\test\AppData\Local\Temp\cc0O9IID.s:2101   .text.ob_user_write:000000000000002a .L0 
C:\Users\test\AppData\Local\Temp\cc0O9IID.s:2104   .text.ob_user_write:000000000000002c .L0 
C:\Users\test\AppData\Local\Temp\cc0O9IID.s:2106   .text.ob_user_write:0000000000000030 .L0 
C:\Users\test\AppData\Local\Temp\cc0O9IID.s:2110   .text.ob_user_write:0000000000000030 .L0 
C:\Users\test\AppData\Local\Temp\cc0O9IID.s:2111   .text.ob_user_write:0000000000000030 .L0 
C:\Users\test\AppData\Local\Temp\cc0O9IID.s:2112   .text.ob_user_write:0000000000000030 .L0 
C:\Users\test\AppData\Local\Temp\cc0O9IID.s:2114   .text.ob_user_write:0000000000000032 .L0 
C:\Users\test\AppData\Local\Temp\cc0O9IID.s:2115   .text.ob_user_write:0000000000000032 .L0 
C:\Users\test\AppData\Local\Temp\cc0O9IID.s:2118   .text.ob_user_write:0000000000000038 .L0 
C:\Users\test\AppData\Local\Temp\cc0O9IID.s:2122   .text.ob_user_write:0000000000000044 .L0 
C:\Users\test\AppData\Local\Temp\cc0O9IID.s:2124   .text.ob_user_write:0000000000000048 .L0 
C:\Users\test\AppData\Local\Temp\cc0O9IID.s:2126   .text.ob_user_write:000000000000004c .L0 
C:\Users\test\AppData\Local\Temp\cc0O9IID.s:2129   .text.ob_user_write:000000000000004e .L0 
C:\Users\test\AppData\Local\Temp\cc0O9IID.s:2130   .text.ob_user_write:000000000000004e .L0 
C:\Users\test\AppData\Local\Temp\cc0O9IID.s:2131   .text.ob_user_write:000000000000004e .L0 
C:\Users\test\AppData\Local\Temp\cc0O9IID.s:2133   .text.ob_user_write:0000000000000052 .L0 
C:\Users\test\AppData\Local\Temp\cc0O9IID.s:2139   .text.ob_user_write:000000000000005a .L0 
C:\Users\test\AppData\Local\Temp\cc0O9IID.s:2142   .text.ob_user_write:000000000000005a .L0 
C:\Users\test\AppData\Local\Temp\cc0O9IID.s:2143   .text.ob_user_write:000000000000005a .L0 
C:\Users\test\AppData\Local\Temp\cc0O9IID.s:2147   .text.ob_user_write:000000000000005e .L0 
C:\Users\test\AppData\Local\Temp\cc0O9IID.s:2152   .text.ob_user_write:0000000000000062 .L0 
C:\Users\test\AppData\Local\Temp\cc0O9IID.s:2156   .text.ob_user_write:0000000000000064 .L0 
C:\Users\test\AppData\Local\Temp\cc0O9IID.s:2157   .text.ob_user_write:0000000000000064 .L0 
C:\Users\test\AppData\Local\Temp\cc0O9IID.s:2158   .text.ob_user_write:0000000000000064 .L0 
C:\Users\test\AppData\Local\Temp\cc0O9IID.s:2161   .text.ob_user_write:000000000000006c .L0 
C:\Users\test\AppData\Local\Temp\cc0O9IID.s:2164   .text.ob_user_write:000000000000006e .L0 
C:\Users\test\AppData\Local\Temp\cc0O9IID.s:2166   .text.ob_user_write:0000000000000072 .L0 
C:\Users\test\AppData\Local\Temp\cc0O9IID.s:2170   .text.ob_user_write:0000000000000072 .L0 
C:\Users\test\AppData\Local\Temp\cc0O9IID.s:2171   .text.ob_user_write:0000000000000072 .L0 
C:\Users\test\AppData\Local\Temp\cc0O9IID.s:2172   .text.ob_user_write:0000000000000072 .L0 
C:\Users\test\AppData\Local\Temp\cc0O9IID.s:2175   .text.ob_user_write:0000000000000078 .L0 
C:\Users\test\AppData\Local\Temp\cc0O9IID.s:2176   .text.ob_user_write:0000000000000078 .L0 
C:\Users\test\AppData\Local\Temp\cc0O9IID.s:2183   .text.ob_user_write:0000000000000082 .L0 
C:\Users\test\AppData\Local\Temp\cc0O9IID.s:2184   .text.ob_user_write:0000000000000082 .L0 
C:\Users\test\AppData\Local\Temp\cc0O9IID.s:2185   .text.ob_user_write:0000000000000084 .L0 
C:\Users\test\AppData\Local\Temp\cc0O9IID.s:2186   .text.ob_user_write:0000000000000084 .L0 
C:\Users\test\AppData\Local\Temp\cc0O9IID.s:2188   .text.ob_user_write:0000000000000086 .L0 
C:\Users\test\AppData\Local\Temp\cc0O9IID.s:2190   .text.ob_user_write:0000000000000088 .L0 
C:\Users\test\AppData\Local\Temp\cc0O9IID.s:2192   .text.ob_user_write:000000000000008a .L0 
C:\Users\test\AppData\Local\Temp\cc0O9IID.s:2194   .text.ob_user_write:000000000000008c .L0 
C:\Users\test\AppData\Local\Temp\cc0O9IID.s:2196   .text.ob_user_write:000000000000008e .L0 
C:\Users\test\AppData\Local\Temp\cc0O9IID.s:2198   .text.ob_user_write:0000000000000090 .L0 
C:\Users\test\AppData\Local\Temp\cc0O9IID.s:2201   .text.ob_user_write:0000000000000092 .L0 
C:\Users\test\AppData\Local\Temp\cc0O9IID.s:2205   .text.ob_user_write:0000000000000094 .L0 
C:\Users\test\AppData\Local\Temp\cc0O9IID.s:2209   .text.ob_user_write:0000000000000094 .L0 
C:\Users\test\AppData\Local\Temp\cc0O9IID.s:2213   .text.ob_user_write:0000000000000098 .L0 
C:\Users\test\AppData\Local\Temp\cc0O9IID.s:2220   .text.ob_data_program:0000000000000000 ob_data_program
C:\Users\test\AppData\Local\Temp\cc0O9IID.s:2223   .text.ob_data_program:0000000000000000 .L0 
C:\Users\test\AppData\Local\Temp\cc0O9IID.s:2225   .text.ob_data_program:0000000000000000 .L0 
C:\Users\test\AppData\Local\Temp\cc0O9IID.s:2228   .text.ob_data_program:0000000000000000 .L0 
C:\Users\test\AppData\Local\Temp\cc0O9IID.s:2231   .text.ob_data_program:0000000000000000 .L0 
C:\Users\test\AppData\Local\Temp\cc0O9IID.s:2232   .text.ob_data_program:0000000000000000 .L0 
C:\Users\test\AppData\Local\Temp\cc0O9IID.s:2234   .text.ob_data_program:0000000000000002 .L0 
C:\Users\test\AppData\Local\Temp\cc0O9IID.s:2240   .text.ob_data_program:000000000000000c .L0 
C:\Users\test\AppData\Local\Temp\cc0O9IID.s:2241   .text.ob_data_program:000000000000000c .L0 
C:\Users\test\AppData\Local\Temp\cc0O9IID.s:2242   .text.ob_data_program:000000000000000c .L0 
GAS LISTING C:\Users\test\AppData\Local\Temp\cc0O9IID.s 			page 80


C:\Users\test\AppData\Local\Temp\cc0O9IID.s:2243   .text.ob_data_program:000000000000000c .L0 
C:\Users\test\AppData\Local\Temp\cc0O9IID.s:2244   .text.ob_data_program:000000000000000c .L0 
C:\Users\test\AppData\Local\Temp\cc0O9IID.s:2246   .text.ob_data_program:000000000000000c .L0 
C:\Users\test\AppData\Local\Temp\cc0O9IID.s:2252   .text.ob_data_program:0000000000000014 .L0 
C:\Users\test\AppData\Local\Temp\cc0O9IID.s:2257   .text.ob_data_program:0000000000000018 .L0 
C:\Users\test\AppData\Local\Temp\cc0O9IID.s:2261   .text.ob_data_program:000000000000001a .L0 
C:\Users\test\AppData\Local\Temp\cc0O9IID.s:2262   .text.ob_data_program:000000000000001a .L0 
C:\Users\test\AppData\Local\Temp\cc0O9IID.s:2263   .text.ob_data_program:000000000000001a .L0 
C:\Users\test\AppData\Local\Temp\cc0O9IID.s:2266   .text.ob_data_program:0000000000000022 .L0 
C:\Users\test\AppData\Local\Temp\cc0O9IID.s:2269   .text.ob_data_program:0000000000000024 .L0 
C:\Users\test\AppData\Local\Temp\cc0O9IID.s:2271   .text.ob_data_program:0000000000000028 .L0 
C:\Users\test\AppData\Local\Temp\cc0O9IID.s:2275   .text.ob_data_program:0000000000000028 .L0 
C:\Users\test\AppData\Local\Temp\cc0O9IID.s:2276   .text.ob_data_program:0000000000000028 .L0 
C:\Users\test\AppData\Local\Temp\cc0O9IID.s:2277   .text.ob_data_program:0000000000000028 .L0 
C:\Users\test\AppData\Local\Temp\cc0O9IID.s:2279   .text.ob_data_program:000000000000002a .L0 
C:\Users\test\AppData\Local\Temp\cc0O9IID.s:2280   .text.ob_data_program:000000000000002a .L0 
C:\Users\test\AppData\Local\Temp\cc0O9IID.s:2283   .text.ob_data_program:0000000000000030 .L0 
C:\Users\test\AppData\Local\Temp\cc0O9IID.s:2286   .text.ob_data_program:0000000000000036 .L0 
C:\Users\test\AppData\Local\Temp\cc0O9IID.s:2289   .text.ob_data_program:000000000000003c .L0 
C:\Users\test\AppData\Local\Temp\cc0O9IID.s:2290   .text.ob_data_program:000000000000003c .L0 
C:\Users\test\AppData\Local\Temp\cc0O9IID.s:2296   .text.ob_data_program:0000000000000044 .L0 
C:\Users\test\AppData\Local\Temp\cc0O9IID.s:2297   .text.ob_data_program:0000000000000044 .L0 
C:\Users\test\AppData\Local\Temp\cc0O9IID.s:2298   .text.ob_data_program:0000000000000044 .L0 
C:\Users\test\AppData\Local\Temp\cc0O9IID.s:2303   .text.ob_data_program:0000000000000048 .L0 
C:\Users\test\AppData\Local\Temp\cc0O9IID.s:2307   .text.ob_data_program:000000000000004a .L0 
C:\Users\test\AppData\Local\Temp\cc0O9IID.s:2308   .text.ob_data_program:000000000000004a .L0 
C:\Users\test\AppData\Local\Temp\cc0O9IID.s:2309   .text.ob_data_program:000000000000004a .L0 
C:\Users\test\AppData\Local\Temp\cc0O9IID.s:2312   .text.ob_data_program:0000000000000052 .L0 
C:\Users\test\AppData\Local\Temp\cc0O9IID.s:2315   .text.ob_data_program:0000000000000054 .L0 
C:\Users\test\AppData\Local\Temp\cc0O9IID.s:2317   .text.ob_data_program:0000000000000058 .L0 
C:\Users\test\AppData\Local\Temp\cc0O9IID.s:2321   .text.ob_data_program:0000000000000058 .L0 
C:\Users\test\AppData\Local\Temp\cc0O9IID.s:2322   .text.ob_data_program:0000000000000058 .L0 
C:\Users\test\AppData\Local\Temp\cc0O9IID.s:2323   .text.ob_data_program:0000000000000058 .L0 
C:\Users\test\AppData\Local\Temp\cc0O9IID.s:2326   .text.ob_data_program:000000000000005e .L0 
C:\Users\test\AppData\Local\Temp\cc0O9IID.s:2327   .text.ob_data_program:000000000000005e .L0 
C:\Users\test\AppData\Local\Temp\cc0O9IID.s:2333   .text.ob_data_program:0000000000000068 .L0 
C:\Users\test\AppData\Local\Temp\cc0O9IID.s:2334   .text.ob_data_program:0000000000000068 .L0 
C:\Users\test\AppData\Local\Temp\cc0O9IID.s:2335   .text.ob_data_program:000000000000006a .L0 
C:\Users\test\AppData\Local\Temp\cc0O9IID.s:2336   .text.ob_data_program:000000000000006a .L0 
C:\Users\test\AppData\Local\Temp\cc0O9IID.s:2338   .text.ob_data_program:000000000000006c .L0 
C:\Users\test\AppData\Local\Temp\cc0O9IID.s:2340   .text.ob_data_program:000000000000006e .L0 
C:\Users\test\AppData\Local\Temp\cc0O9IID.s:2342   .text.ob_data_program:0000000000000070 .L0 
C:\Users\test\AppData\Local\Temp\cc0O9IID.s:2344   .text.ob_data_program:0000000000000072 .L0 
C:\Users\test\AppData\Local\Temp\cc0O9IID.s:2348   .text.ob_data_program:0000000000000074 .L0 
C:\Users\test\AppData\Local\Temp\cc0O9IID.s:2353   .text.ob_data_program:0000000000000076 .L0 
C:\Users\test\AppData\Local\Temp\cc0O9IID.s:2355   .text.ob_data_program:0000000000000078 .L0 
C:\Users\test\AppData\Local\Temp\cc0O9IID.s:2357   .text.ob_data_program:000000000000007a .L0 
C:\Users\test\AppData\Local\Temp\cc0O9IID.s:2359   .text.ob_data_program:000000000000007c .L0 
C:\Users\test\AppData\Local\Temp\cc0O9IID.s:2361   .text.ob_data_program:000000000000007e .L0 
C:\Users\test\AppData\Local\Temp\cc0O9IID.s:2363   .text.ob_data_program:0000000000000080 .L0 
C:\Users\test\AppData\Local\Temp\cc0O9IID.s:2368   .text.ob_data_program:0000000000000080 .L0 
C:\Users\test\AppData\Local\Temp\cc0O9IID.s:2372   .text.ob_data_program:0000000000000082 .L0 
C:\Users\test\AppData\Local\Temp\cc0O9IID.s:2374   .text.ob_data_program:0000000000000084 .L0 
C:\Users\test\AppData\Local\Temp\cc0O9IID.s:2376   .text.ob_data_program:0000000000000086 .L0 
C:\Users\test\AppData\Local\Temp\cc0O9IID.s:2383   .text.fmc_ready_wait:0000000000000000 fmc_ready_wait
C:\Users\test\AppData\Local\Temp\cc0O9IID.s:2386   .text.fmc_ready_wait:0000000000000000 .L0 
C:\Users\test\AppData\Local\Temp\cc0O9IID.s:2388   .text.fmc_ready_wait:0000000000000000 .L0 
GAS LISTING C:\Users\test\AppData\Local\Temp\cc0O9IID.s 			page 81


C:\Users\test\AppData\Local\Temp\cc0O9IID.s:2389   .text.fmc_ready_wait:0000000000000000 .L0 
C:\Users\test\AppData\Local\Temp\cc0O9IID.s:2390   .text.fmc_ready_wait:0000000000000000 .L0 
C:\Users\test\AppData\Local\Temp\cc0O9IID.s:2392   .text.fmc_ready_wait:0000000000000002 .L0 
C:\Users\test\AppData\Local\Temp\cc0O9IID.s:2396   .text.fmc_ready_wait:0000000000000008 .L0 
C:\Users\test\AppData\Local\Temp\cc0O9IID.s:2397   .text.fmc_ready_wait:0000000000000008 .L0 
C:\Users\test\AppData\Local\Temp\cc0O9IID.s:2398   .text.fmc_ready_wait:0000000000000008 .L0 
C:\Users\test\AppData\Local\Temp\cc0O9IID.s:2400   .text.fmc_ready_wait:0000000000000008 .L0 
C:\Users\test\AppData\Local\Temp\cc0O9IID.s:2402   .text.fmc_ready_wait:000000000000000a .L0 
C:\Users\test\AppData\Local\Temp\cc0O9IID.s:2407   .text.fmc_ready_wait:000000000000000e .L0 
C:\Users\test\AppData\Local\Temp\cc0O9IID.s:2411   .text.fmc_ready_wait:0000000000000010 .L0 
C:\Users\test\AppData\Local\Temp\cc0O9IID.s:2412   .text.fmc_ready_wait:0000000000000010 .L0 
C:\Users\test\AppData\Local\Temp\cc0O9IID.s:2413   .text.fmc_ready_wait:0000000000000010 .L0 
C:\Users\test\AppData\Local\Temp\cc0O9IID.s:2416   .text.fmc_ready_wait:0000000000000018 .L0 
C:\Users\test\AppData\Local\Temp\cc0O9IID.s:2417   .text.fmc_ready_wait:0000000000000018 .L0 
C:\Users\test\AppData\Local\Temp\cc0O9IID.s:2420   .text.fmc_ready_wait:000000000000001a .L0 
C:\Users\test\AppData\Local\Temp\cc0O9IID.s:2422   .text.fmc_ready_wait:000000000000001e .L0 
C:\Users\test\AppData\Local\Temp\cc0O9IID.s:2423   .text.fmc_ready_wait:0000000000000020 .L0 
C:\Users\test\AppData\Local\Temp\cc0O9IID.s:2424   .text.fmc_ready_wait:0000000000000020 .L0 
C:\Users\test\AppData\Local\Temp\cc0O9IID.s:2426   .text.fmc_ready_wait:0000000000000022 .L0 
C:\Users\test\AppData\Local\Temp\cc0O9IID.s:2429   .text.fmc_ready_wait:0000000000000024 .L0 
C:\Users\test\AppData\Local\Temp\cc0O9IID.s:2432   .text.fmc_ready_wait:0000000000000026 .L0 
C:\Users\test\AppData\Local\Temp\cc0O9IID.s:2437   .text.fmc_ready_wait:0000000000000028 .L0 
C:\Users\test\AppData\Local\Temp\cc0O9IID.s:2439   .text.fmc_ready_wait:000000000000002a .L0 
C:\Users\test\AppData\Local\Temp\cc0O9IID.s:2441   .text.fmc_ready_wait:000000000000002c .L0 
C:\Users\test\AppData\Local\Temp\cc0O9IID.s:2444   .text.fmc_ready_wait:000000000000002e .L0 
C:\Users\test\AppData\Local\Temp\cc0O9IID.s:2446   .text.fmc_ready_wait:000000000000002e .L0 
C:\Users\test\AppData\Local\Temp\cc0O9IID.s:2449   .text.fmc_ready_wait:0000000000000030 .L0 
C:\Users\test\AppData\Local\Temp\cc0O9IID.s:2450   .text.fmc_ready_wait:0000000000000030 .L0 
C:\Users\test\AppData\Local\Temp\cc0O9IID.s:2452   .text.fmc_ready_wait:0000000000000032 .L0 
C:\Users\test\AppData\Local\Temp\cc0O9IID.s:2454   .text.fmc_ready_wait:0000000000000034 .L0 
C:\Users\test\AppData\Local\Temp\cc0O9IID.s:37     .text.fmc_wscnt_set:000000000000000e .L0 
C:\Users\test\AppData\Local\Temp\cc0O9IID.s:69     .text.fmc_unlock:0000000000000022 .L0 
C:\Users\test\AppData\Local\Temp\cc0O9IID.s:88     .text.fmc_lock:000000000000000e .L0 
C:\Users\test\AppData\Local\Temp\cc0O9IID.s:130    .text.ob_unlock:000000000000002e .L0 
C:\Users\test\AppData\Local\Temp\cc0O9IID.s:149    .text.ob_lock:000000000000000e .L0 
C:\Users\test\AppData\Local\Temp\cc0O9IID.s:169    .text.ob_user_get:000000000000000e .L0 
C:\Users\test\AppData\Local\Temp\cc0O9IID.s:190    .text.ob_data_get:000000000000000e .L0 
C:\Users\test\AppData\Local\Temp\cc0O9IID.s:207    .text.ob_write_protection_get:0000000000000008 .L0 
C:\Users\test\AppData\Local\Temp\cc0O9IID.s:232    .text.ob_spc_get:000000000000000c .L0 
C:\Users\test\AppData\Local\Temp\cc0O9IID.s:258    .text.fmc_interrupt_enable:0000000000000018 .L0 
C:\Users\test\AppData\Local\Temp\cc0O9IID.s:286    .text.fmc_interrupt_disable:000000000000001c .L0 
C:\Users\test\AppData\Local\Temp\cc0O9IID.s:310    .text.fmc_flag_get:0000000000000014 .L0 
C:\Users\test\AppData\Local\Temp\cc0O9IID.s:339    .text.fmc_flag_clear:000000000000001c .L0 
C:\Users\test\AppData\Local\Temp\cc0O9IID.s:396    .text.fmc_interrupt_flag_get:0000000000000036 .L0 
C:\Users\test\AppData\Local\Temp\cc0O9IID.s:424    .text.fmc_interrupt_flag_clear:000000000000001c .L0 
C:\Users\test\AppData\Local\Temp\cc0O9IID.s:477    .text.fmc_state_get:000000000000001e .L0 
C:\Users\test\AppData\Local\Temp\cc0O9IID.s:660    .text.fmc_page_erase:0000000000000088 .L0 
C:\Users\test\AppData\Local\Temp\cc0O9IID.s:831    .text.fmc_mass_erase:000000000000007c .L0 
C:\Users\test\AppData\Local\Temp\cc0O9IID.s:1018   .text.fmc_word_program:0000000000000088 .L0 
C:\Users\test\AppData\Local\Temp\cc0O9IID.s:1203   .text.fmc_halfword_program:0000000000000088 .L0 
C:\Users\test\AppData\Local\Temp\cc0O9IID.s:1451   .text.ob_erase:00000000000000c2 .L0 
C:\Users\test\AppData\Local\Temp\cc0O9IID.s:1797   .text.ob_write_protection_enable:0000000000000136 .L0 
C:\Users\test\AppData\Local\Temp\cc0O9IID.s:2043   .text.ob_security_protection_config:00000000000000d6 .L0 
C:\Users\test\AppData\Local\Temp\cc0O9IID.s:2216   .text.ob_user_write:0000000000000098 .L0 
C:\Users\test\AppData\Local\Temp\cc0O9IID.s:2379   .text.ob_data_program:0000000000000086 .L0 
C:\Users\test\AppData\Local\Temp\cc0O9IID.s:2457   .text.fmc_ready_wait:0000000000000034 .L0 
                     .debug_frame:0000000000000000 .L0 
GAS LISTING C:\Users\test\AppData\Local\Temp\cc0O9IID.s 			page 82


C:\Users\test\AppData\Local\Temp\cc0O9IID.s:63     .text.fmc_unlock:0000000000000020 .L3
C:\Users\test\AppData\Local\Temp\cc0O9IID.s:114    .text.ob_unlock:0000000000000020 .L10
C:\Users\test\AppData\Local\Temp\cc0O9IID.s:117    .text.ob_unlock:0000000000000024 .L11
C:\Users\test\AppData\Local\Temp\cc0O9IID.s:386    .text.fmc_interrupt_flag_get:0000000000000030 .L25
C:\Users\test\AppData\Local\Temp\cc0O9IID.s:381    .text.fmc_interrupt_flag_get:000000000000002c .L23
C:\Users\test\AppData\Local\Temp\cc0O9IID.s:460    .text.fmc_state_get:0000000000000018 .L30
C:\Users\test\AppData\Local\Temp\cc0O9IID.s:465    .text.fmc_state_get:000000000000001a .L36
C:\Users\test\AppData\Local\Temp\cc0O9IID.s:518    .text.fmc_page_erase:0000000000000016 .L39
C:\Users\test\AppData\Local\Temp\cc0O9IID.s:610    .text.fmc_page_erase:000000000000006c .L47
C:\Users\test\AppData\Local\Temp\cc0O9IID.s:514    .text.fmc_page_erase:0000000000000014 .L48
C:\Users\test\AppData\Local\Temp\cc0O9IID.s:593    .text.fmc_page_erase:0000000000000060 .L37
C:\Users\test\AppData\Local\Temp\cc0O9IID.s:571    .text.fmc_page_erase:0000000000000048 .L42
C:\Users\test\AppData\Local\Temp\cc0O9IID.s:637    .text.fmc_page_erase:000000000000007a .L49
C:\Users\test\AppData\Local\Temp\cc0O9IID.s:567    .text.fmc_page_erase:0000000000000046 .L50
C:\Users\test\AppData\Local\Temp\cc0O9IID.s:698    .text.fmc_mass_erase:0000000000000012 .L53
C:\Users\test\AppData\Local\Temp\cc0O9IID.s:784    .text.fmc_mass_erase:0000000000000062 .L61
C:\Users\test\AppData\Local\Temp\cc0O9IID.s:694    .text.fmc_mass_erase:0000000000000010 .L62
C:\Users\test\AppData\Local\Temp\cc0O9IID.s:770    .text.fmc_mass_erase:0000000000000058 .L51
C:\Users\test\AppData\Local\Temp\cc0O9IID.s:748    .text.fmc_mass_erase:0000000000000040 .L56
C:\Users\test\AppData\Local\Temp\cc0O9IID.s:808    .text.fmc_mass_erase:000000000000006e .L63
C:\Users\test\AppData\Local\Temp\cc0O9IID.s:744    .text.fmc_mass_erase:000000000000003e .L64
C:\Users\test\AppData\Local\Temp\cc0O9IID.s:875    .text.fmc_word_program:000000000000001a .L67
C:\Users\test\AppData\Local\Temp\cc0O9IID.s:965    .text.fmc_word_program:000000000000006a .L75
C:\Users\test\AppData\Local\Temp\cc0O9IID.s:871    .text.fmc_word_program:0000000000000018 .L76
C:\Users\test\AppData\Local\Temp\cc0O9IID.s:945    .text.fmc_word_program:000000000000005c .L65
C:\Users\test\AppData\Local\Temp\cc0O9IID.s:923    .text.fmc_word_program:0000000000000044 .L70
C:\Users\test\AppData\Local\Temp\cc0O9IID.s:995    .text.fmc_word_program:000000000000007a .L77
C:\Users\test\AppData\Local\Temp\cc0O9IID.s:919    .text.fmc_word_program:0000000000000042 .L78
C:\Users\test\AppData\Local\Temp\cc0O9IID.s:1062   .text.fmc_halfword_program:000000000000001a .L81
C:\Users\test\AppData\Local\Temp\cc0O9IID.s:1151   .text.fmc_halfword_program:000000000000006a .L89
C:\Users\test\AppData\Local\Temp\cc0O9IID.s:1058   .text.fmc_halfword_program:0000000000000018 .L90
C:\Users\test\AppData\Local\Temp\cc0O9IID.s:1132   .text.fmc_halfword_program:000000000000005c .L79
C:\Users\test\AppData\Local\Temp\cc0O9IID.s:1110   .text.fmc_halfword_program:0000000000000044 .L84
C:\Users\test\AppData\Local\Temp\cc0O9IID.s:1180   .text.fmc_halfword_program:000000000000007a .L91
C:\Users\test\AppData\Local\Temp\cc0O9IID.s:1106   .text.fmc_halfword_program:0000000000000042 .L92
C:\Users\test\AppData\Local\Temp\cc0O9IID.s:1243   .text.ob_erase:0000000000000014 .L95
C:\Users\test\AppData\Local\Temp\cc0O9IID.s:1406   .text.ob_erase:00000000000000ae .L118
C:\Users\test\AppData\Local\Temp\cc0O9IID.s:1239   .text.ob_erase:0000000000000012 .L119
C:\Users\test\AppData\Local\Temp\cc0O9IID.s:1389   .text.ob_erase:00000000000000a2 .L93
C:\Users\test\AppData\Local\Temp\cc0O9IID.s:1308   .text.ob_erase:000000000000004e .L99
C:\Users\test\AppData\Local\Temp\cc0O9IID.s:1425   .text.ob_erase:00000000000000b4 .L117
C:\Users\test\AppData\Local\Temp\cc0O9IID.s:1304   .text.ob_erase:000000000000004c .L120
C:\Users\test\AppData\Local\Temp\cc0O9IID.s:1374   .text.ob_erase:0000000000000092 .L113
C:\Users\test\AppData\Local\Temp\cc0O9IID.s:1362   .text.ob_erase:0000000000000084 .L101
C:\Users\test\AppData\Local\Temp\cc0O9IID.s:1358   .text.ob_erase:0000000000000082 .L121
C:\Users\test\AppData\Local\Temp\cc0O9IID.s:1494   .text.ob_write_protection_enable:0000000000000018 .L124
C:\Users\test\AppData\Local\Temp\cc0O9IID.s:1616   .text.ob_write_protection_enable:000000000000008a .L129
C:\Users\test\AppData\Local\Temp\cc0O9IID.s:1490   .text.ob_write_protection_enable:0000000000000016 .L157
C:\Users\test\AppData\Local\Temp\cc0O9IID.s:1596   .text.ob_write_protection_enable:000000000000007a .L122
C:\Users\test\AppData\Local\Temp\cc0O9IID.s:1643   .text.ob_write_protection_enable:000000000000009c .L126
C:\Users\test\AppData\Local\Temp\cc0O9IID.s:1559   .text.ob_write_protection_enable:0000000000000058 .L128
C:\Users\test\AppData\Local\Temp\cc0O9IID.s:1555   .text.ob_write_protection_enable:0000000000000056 .L158
C:\Users\test\AppData\Local\Temp\cc0O9IID.s:1695   .text.ob_write_protection_enable:00000000000000ce .L130
C:\Users\test\AppData\Local\Temp\cc0O9IID.s:1676   .text.ob_write_protection_enable:00000000000000be .L132
C:\Users\test\AppData\Local\Temp\cc0O9IID.s:1672   .text.ob_write_protection_enable:00000000000000bc .L159
C:\Users\test\AppData\Local\Temp\cc0O9IID.s:1578   .text.ob_write_protection_enable:0000000000000068 .L156
C:\Users\test\AppData\Local\Temp\cc0O9IID.s:1745   .text.ob_write_protection_enable:0000000000000100 .L138
GAS LISTING C:\Users\test\AppData\Local\Temp\cc0O9IID.s 			page 83


C:\Users\test\AppData\Local\Temp\cc0O9IID.s:1726   .text.ob_write_protection_enable:00000000000000f0 .L134
C:\Users\test\AppData\Local\Temp\cc0O9IID.s:1722   .text.ob_write_protection_enable:00000000000000ee .L160
C:\Users\test\AppData\Local\Temp\cc0O9IID.s:1587   .text.ob_write_protection_enable:0000000000000070 .L135
C:\Users\test\AppData\Local\Temp\cc0O9IID.s:1778   .text.ob_write_protection_enable:0000000000000124 .L137
C:\Users\test\AppData\Local\Temp\cc0O9IID.s:1774   .text.ob_write_protection_enable:0000000000000122 .L161
C:\Users\test\AppData\Local\Temp\cc0O9IID.s:1581   .text.ob_write_protection_enable:000000000000006a .L136
C:\Users\test\AppData\Local\Temp\cc0O9IID.s:1837   .text.ob_security_protection_config:0000000000000016 .L164
C:\Users\test\AppData\Local\Temp\cc0O9IID.s:1987   .text.ob_security_protection_config:00000000000000aa .L168
C:\Users\test\AppData\Local\Temp\cc0O9IID.s:1833   .text.ob_security_protection_config:0000000000000014 .L180
C:\Users\test\AppData\Local\Temp\cc0O9IID.s:1971   .text.ob_security_protection_config:000000000000009e .L162
C:\Users\test\AppData\Local\Temp\cc0O9IID.s:1887   .text.ob_security_protection_config:0000000000000044 .L167
C:\Users\test\AppData\Local\Temp\cc0O9IID.s:1883   .text.ob_security_protection_config:0000000000000042 .L181
C:\Users\test\AppData\Local\Temp\cc0O9IID.s:2011   .text.ob_security_protection_config:00000000000000b8 .L182
C:\Users\test\AppData\Local\Temp\cc0O9IID.s:1945   .text.ob_security_protection_config:0000000000000080 .L170
C:\Users\test\AppData\Local\Temp\cc0O9IID.s:1941   .text.ob_security_protection_config:000000000000007e .L183
C:\Users\test\AppData\Local\Temp\cc0O9IID.s:2094   .text.ob_user_write:0000000000000022 .L186
C:\Users\test\AppData\Local\Temp\cc0O9IID.s:2203   .text.ob_user_write:0000000000000094 .L190
C:\Users\test\AppData\Local\Temp\cc0O9IID.s:2090   .text.ob_user_write:0000000000000020 .L196
C:\Users\test\AppData\Local\Temp\cc0O9IID.s:2182   .text.ob_user_write:0000000000000082 .L184
C:\Users\test\AppData\Local\Temp\cc0O9IID.s:2154   .text.ob_user_write:0000000000000064 .L189
C:\Users\test\AppData\Local\Temp\cc0O9IID.s:2150   .text.ob_user_write:0000000000000062 .L197
C:\Users\test\AppData\Local\Temp\cc0O9IID.s:2259   .text.ob_data_program:000000000000001a .L200
C:\Users\test\AppData\Local\Temp\cc0O9IID.s:2351   .text.ob_data_program:0000000000000076 .L204
C:\Users\test\AppData\Local\Temp\cc0O9IID.s:2255   .text.ob_data_program:0000000000000018 .L210
C:\Users\test\AppData\Local\Temp\cc0O9IID.s:2332   .text.ob_data_program:0000000000000068 .L198
C:\Users\test\AppData\Local\Temp\cc0O9IID.s:2305   .text.ob_data_program:000000000000004a .L203
C:\Users\test\AppData\Local\Temp\cc0O9IID.s:2301   .text.ob_data_program:0000000000000048 .L211
C:\Users\test\AppData\Local\Temp\cc0O9IID.s:2409   .text.fmc_ready_wait:0000000000000010 .L214
C:\Users\test\AppData\Local\Temp\cc0O9IID.s:2435   .text.fmc_ready_wait:0000000000000028 .L217
C:\Users\test\AppData\Local\Temp\cc0O9IID.s:2405   .text.fmc_ready_wait:000000000000000e .L218
C:\Users\test\AppData\Local\Temp\cc0O9IID.s:3841   .debug_abbrev:0000000000000000 .Ldebug_abbrev0
C:\Users\test\AppData\Local\Temp\cc0O9IID.s:7140   .debug_str:000000000000024a .LASF75
C:\Users\test\AppData\Local\Temp\cc0O9IID.s:7144   .debug_str:00000000000002cd .LASF76
C:\Users\test\AppData\Local\Temp\cc0O9IID.s:7192   .debug_str:0000000000000421 .LASF77
C:\Users\test\AppData\Local\Temp\cc0O9IID.s:6822   .debug_ranges:0000000000000000 .Ldebug_ranges0
C:\Users\test\AppData\Local\Temp\cc0O9IID.s:7050   .debug_line:0000000000000000 .Ldebug_line0
C:\Users\test\AppData\Local\Temp\cc0O9IID.s:7146   .debug_str:00000000000002fb .LASF0
C:\Users\test\AppData\Local\Temp\cc0O9IID.s:7136   .debug_str:0000000000000227 .LASF1
C:\Users\test\AppData\Local\Temp\cc0O9IID.s:7118   .debug_str:00000000000001be .LASF4
C:\Users\test\AppData\Local\Temp\cc0O9IID.s:7132   .debug_str:0000000000000210 .LASF2
C:\Users\test\AppData\Local\Temp\cc0O9IID.s:7078   .debug_str:00000000000000c1 .LASF3
C:\Users\test\AppData\Local\Temp\cc0O9IID.s:7072   .debug_str:000000000000009c .LASF5
C:\Users\test\AppData\Local\Temp\cc0O9IID.s:7158   .debug_str:0000000000000345 .LASF6
C:\Users\test\AppData\Local\Temp\cc0O9IID.s:7166   .debug_str:0000000000000393 .LASF7
C:\Users\test\AppData\Local\Temp\cc0O9IID.s:7180   .debug_str:00000000000003e3 .LASF8
C:\Users\test\AppData\Local\Temp\cc0O9IID.s:7176   .debug_str:00000000000003c7 .LASF9
C:\Users\test\AppData\Local\Temp\cc0O9IID.s:7104   .debug_str:0000000000000150 .LASF10
C:\Users\test\AppData\Local\Temp\cc0O9IID.s:7138   .debug_str:0000000000000233 .LASF11
C:\Users\test\AppData\Local\Temp\cc0O9IID.s:7086   .debug_str:00000000000000f6 .LASF12
C:\Users\test\AppData\Local\Temp\cc0O9IID.s:7148   .debug_str:0000000000000308 .LASF13
C:\Users\test\AppData\Local\Temp\cc0O9IID.s:7142   .debug_str:00000000000002c4 .LASF14
C:\Users\test\AppData\Local\Temp\cc0O9IID.s:7172   .debug_str:00000000000003b2 .LASF78
C:\Users\test\AppData\Local\Temp\cc0O9IID.s:7150   .debug_str:0000000000000311 .LASF15
C:\Users\test\AppData\Local\Temp\cc0O9IID.s:7204   .debug_str:000000000000047e .LASF16
C:\Users\test\AppData\Local\Temp\cc0O9IID.s:7200   .debug_str:0000000000000469 .LASF17
C:\Users\test\AppData\Local\Temp\cc0O9IID.s:7168   .debug_str:000000000000039c .LASF18
C:\Users\test\AppData\Local\Temp\cc0O9IID.s:7210   .debug_str:000000000000049a .LASF19
GAS LISTING C:\Users\test\AppData\Local\Temp\cc0O9IID.s 			page 84


C:\Users\test\AppData\Local\Temp\cc0O9IID.s:7178   .debug_str:00000000000003d9 .LASF20
C:\Users\test\AppData\Local\Temp\cc0O9IID.s:7130   .debug_str:0000000000000206 .LASF21
C:\Users\test\AppData\Local\Temp\cc0O9IID.s:7196   .debug_str:0000000000000455 .LASF22
C:\Users\test\AppData\Local\Temp\cc0O9IID.s:7152   .debug_str:0000000000000317 .LASF23
C:\Users\test\AppData\Local\Temp\cc0O9IID.s:7108   .debug_str:0000000000000167 .LASF24
C:\Users\test\AppData\Local\Temp\cc0O9IID.s:7068   .debug_str:0000000000000073 .LASF25
C:\Users\test\AppData\Local\Temp\cc0O9IID.s:7054   .debug_str:0000000000000007 .LASF26
C:\Users\test\AppData\Local\Temp\cc0O9IID.s:7162   .debug_str:0000000000000369 .LASF27
C:\Users\test\AppData\Local\Temp\cc0O9IID.s:7206   .debug_str:0000000000000489 .LASF79
C:\Users\test\AppData\Local\Temp\cc0O9IID.s:7182   .debug_str:00000000000003ee .LASF29
C:\Users\test\AppData\Local\Temp\cc0O9IID.s:7058   .debug_str:000000000000002b .LASF28
C:\Users\test\AppData\Local\Temp\cc0O9IID.s:7084   .debug_str:00000000000000dd .LASF33
C:\Users\test\AppData\Local\Temp\cc0O9IID.s:401    .text.fmc_interrupt_flag_clear:0000000000000000 .LFB25
C:\Users\test\AppData\Local\Temp\cc0O9IID.s:422    .text.fmc_interrupt_flag_clear:000000000000001c .LFE25
C:\Users\test\AppData\Local\Temp\cc0O9IID.s:7198   .debug_str:0000000000000464 .LASF30
C:\Users\test\AppData\Local\Temp\cc0O9IID.s:4505   .debug_loc:0000000000000000 .LLST7
C:\Users\test\AppData\Local\Temp\cc0O9IID.s:7112   .debug_str:0000000000000190 .LASF35
C:\Users\test\AppData\Local\Temp\cc0O9IID.s:344    .text.fmc_interrupt_flag_get:0000000000000000 .LFB24
C:\Users\test\AppData\Local\Temp\cc0O9IID.s:394    .text.fmc_interrupt_flag_get:0000000000000036 .LFE24
C:\Users\test\AppData\Local\Temp\cc0O9IID.s:4519   .debug_loc:0000000000000021 .LLST4
C:\Users\test\AppData\Local\Temp\cc0O9IID.s:7076   .debug_str:00000000000000bc .LASF31
C:\Users\test\AppData\Local\Temp\cc0O9IID.s:4544   .debug_loc:000000000000005b .LLST5
C:\Users\test\AppData\Local\Temp\cc0O9IID.s:7092   .debug_str:0000000000000118 .LASF32
C:\Users\test\AppData\Local\Temp\cc0O9IID.s:4579   .debug_loc:000000000000009f .LLST6
C:\Users\test\AppData\Local\Temp\cc0O9IID.s:7094   .debug_str:000000000000011d .LASF34
C:\Users\test\AppData\Local\Temp\cc0O9IID.s:315    .text.fmc_flag_clear:0000000000000000 .LFB23
C:\Users\test\AppData\Local\Temp\cc0O9IID.s:337    .text.fmc_flag_clear:000000000000001c .LFE23
C:\Users\test\AppData\Local\Temp\cc0O9IID.s:7170   .debug_str:00000000000003a5 .LASF36
C:\Users\test\AppData\Local\Temp\cc0O9IID.s:291    .text.fmc_flag_get:0000000000000000 .LFB22
C:\Users\test\AppData\Local\Temp\cc0O9IID.s:308    .text.fmc_flag_get:0000000000000014 .LFE22
C:\Users\test\AppData\Local\Temp\cc0O9IID.s:4619   .debug_loc:00000000000000e8 .LLST3
C:\Users\test\AppData\Local\Temp\cc0O9IID.s:7110   .debug_str:000000000000017a .LASF37
C:\Users\test\AppData\Local\Temp\cc0O9IID.s:263    .text.fmc_interrupt_disable:0000000000000000 .LFB21
C:\Users\test\AppData\Local\Temp\cc0O9IID.s:284    .text.fmc_interrupt_disable:000000000000001c .LFE21
C:\Users\test\AppData\Local\Temp\cc0O9IID.s:7090   .debug_str:000000000000010e .LASF38
C:\Users\test\AppData\Local\Temp\cc0O9IID.s:7074   .debug_str:00000000000000a7 .LASF39
C:\Users\test\AppData\Local\Temp\cc0O9IID.s:237    .text.fmc_interrupt_enable:0000000000000000 .LFB20
C:\Users\test\AppData\Local\Temp\cc0O9IID.s:256    .text.fmc_interrupt_enable:0000000000000018 .LFE20
C:\Users\test\AppData\Local\Temp\cc0O9IID.s:7202   .debug_str:0000000000000473 .LASF40
C:\Users\test\AppData\Local\Temp\cc0O9IID.s:7188   .debug_str:0000000000000409 .LASF41
C:\Users\test\AppData\Local\Temp\cc0O9IID.s:7070   .debug_str:0000000000000084 .LASF42
C:\Users\test\AppData\Local\Temp\cc0O9IID.s:195    .text.ob_write_protection_get:0000000000000000 .LFB18
C:\Users\test\AppData\Local\Temp\cc0O9IID.s:205    .text.ob_write_protection_get:0000000000000008 .LFE18
C:\Users\test\AppData\Local\Temp\cc0O9IID.s:7056   .debug_str:000000000000001f .LASF43
C:\Users\test\AppData\Local\Temp\cc0O9IID.s:174    .text.ob_data_get:0000000000000000 .LFB17
C:\Users\test\AppData\Local\Temp\cc0O9IID.s:188    .text.ob_data_get:000000000000000e .LFE17
C:\Users\test\AppData\Local\Temp\cc0O9IID.s:7082   .debug_str:00000000000000d1 .LASF44
C:\Users\test\AppData\Local\Temp\cc0O9IID.s:154    .text.ob_user_get:0000000000000000 .LFB16
C:\Users\test\AppData\Local\Temp\cc0O9IID.s:167    .text.ob_user_get:000000000000000e .LFE16
C:\Users\test\AppData\Local\Temp\cc0O9IID.s:7088   .debug_str:00000000000000fe .LASF45
C:\Users\test\AppData\Local\Temp\cc0O9IID.s:2221   .text.ob_data_program:0000000000000000 .LFB15
C:\Users\test\AppData\Local\Temp\cc0O9IID.s:2377   .text.ob_data_program:0000000000000086 .LFE15
C:\Users\test\AppData\Local\Temp\cc0O9IID.s:4633   .debug_loc:0000000000000109 .LLST83
C:\Users\test\AppData\Local\Temp\cc0O9IID.s:7114   .debug_str:00000000000001a7 .LASF46
C:\Users\test\AppData\Local\Temp\cc0O9IID.s:4661   .debug_loc:000000000000014d .LLST84
C:\Users\test\AppData\Local\Temp\cc0O9IID.s:7174   .debug_str:00000000000003c2 .LASF47
C:\Users\test\AppData\Local\Temp\cc0O9IID.s:4690   .debug_loc:0000000000000192 .LLST85
GAS LISTING C:\Users\test\AppData\Local\Temp\cc0O9IID.s 			page 85


C:\Users\test\AppData\Local\Temp\cc0O9IID.s:4704   .debug_loc:00000000000001b3 .LLST86
C:\Users\test\AppData\Local\Temp\cc0O9IID.s:2226   .text.ob_data_program:0000000000000000 .LBB170
C:\Users\test\AppData\Local\Temp\cc0O9IID.s:4715   .debug_loc:00000000000001d1 .LLST87
C:\Users\test\AppData\Local\Temp\cc0O9IID.s:4739   .debug_loc:000000000000020a .LLST88
C:\Users\test\AppData\Local\Temp\cc0O9IID.s:2264   .text.ob_data_program:0000000000000022 .LVL199
C:\Users\test\AppData\Local\Temp\cc0O9IID.s:2294   .text.ob_data_program:0000000000000044 .LBB175
C:\Users\test\AppData\Local\Temp\cc0O9IID.s:2320   .text.ob_data_program:0000000000000058 .LBE175
C:\Users\test\AppData\Local\Temp\cc0O9IID.s:4755   .debug_loc:0000000000000234 .LLST89
C:\Users\test\AppData\Local\Temp\cc0O9IID.s:2295   .text.ob_data_program:0000000000000044 .LBB176
C:\Users\test\AppData\Local\Temp\cc0O9IID.s:2319   .text.ob_data_program:0000000000000058 .LBE176
C:\Users\test\AppData\Local\Temp\cc0O9IID.s:4779   .debug_loc:000000000000026d .LLST90
C:\Users\test\AppData\Local\Temp\cc0O9IID.s:2310   .text.ob_data_program:0000000000000052 .LVL205
C:\Users\test\AppData\Local\Temp\cc0O9IID.s:7126   .debug_str:00000000000001ed .LASF48
C:\Users\test\AppData\Local\Temp\cc0O9IID.s:2048   .text.ob_user_write:0000000000000000 .LFB14
C:\Users\test\AppData\Local\Temp\cc0O9IID.s:2214   .text.ob_user_write:0000000000000098 .LFE14
C:\Users\test\AppData\Local\Temp\cc0O9IID.s:4795   .debug_loc:0000000000000297 .LLST72
C:\Users\test\AppData\Local\Temp\cc0O9IID.s:7106   .debug_str:000000000000015e .LASF49
C:\Users\test\AppData\Local\Temp\cc0O9IID.s:4818   .debug_loc:00000000000002cf .LLST73
C:\Users\test\AppData\Local\Temp\cc0O9IID.s:7066   .debug_str:0000000000000066 .LASF50
C:\Users\test\AppData\Local\Temp\cc0O9IID.s:4832   .debug_loc:00000000000002f0 .LLST74
C:\Users\test\AppData\Local\Temp\cc0O9IID.s:7184   .debug_str:00000000000003f8 .LASF51
C:\Users\test\AppData\Local\Temp\cc0O9IID.s:4846   .debug_loc:0000000000000311 .LLST75
C:\Users\test\AppData\Local\Temp\cc0O9IID.s:7186   .debug_str:0000000000000401 .LASF52
C:\Users\test\AppData\Local\Temp\cc0O9IID.s:4860   .debug_loc:0000000000000332 .LLST76
C:\Users\test\AppData\Local\Temp\cc0O9IID.s:4874   .debug_loc:0000000000000353 .LLST77
C:\Users\test\AppData\Local\Temp\cc0O9IID.s:7062   .debug_str:0000000000000057 .LASF53
C:\Users\test\AppData\Local\Temp\cc0O9IID.s:4890   .debug_loc:000000000000037d .LLST78
C:\Users\test\AppData\Local\Temp\cc0O9IID.s:2055   .text.ob_user_write:0000000000000000 .LBB160
C:\Users\test\AppData\Local\Temp\cc0O9IID.s:4911   .debug_loc:000000000000039e .LLST79
C:\Users\test\AppData\Local\Temp\cc0O9IID.s:4935   .debug_loc:00000000000003d7 .LLST80
C:\Users\test\AppData\Local\Temp\cc0O9IID.s:2099   .text.ob_user_write:000000000000002a .LVL185
C:\Users\test\AppData\Local\Temp\cc0O9IID.s:2137   .text.ob_user_write:000000000000005a .LBB165
C:\Users\test\AppData\Local\Temp\cc0O9IID.s:4951   .debug_loc:0000000000000401 .LLST81
C:\Users\test\AppData\Local\Temp\cc0O9IID.s:4975   .debug_loc:000000000000043a .LLST82
C:\Users\test\AppData\Local\Temp\cc0O9IID.s:2159   .text.ob_user_write:000000000000006c .LVL192
C:\Users\test\AppData\Local\Temp\cc0O9IID.s:7060   .debug_str:0000000000000039 .LASF54
C:\Users\test\AppData\Local\Temp\cc0O9IID.s:1802   .text.ob_security_protection_config:0000000000000000 .LFB13
C:\Users\test\AppData\Local\Temp\cc0O9IID.s:2041   .text.ob_security_protection_config:00000000000000d6 .LFE13
C:\Users\test\AppData\Local\Temp\cc0O9IID.s:4991   .debug_loc:0000000000000464 .LLST63
C:\Users\test\AppData\Local\Temp\cc0O9IID.s:7052   .debug_str:0000000000000000 .LASF55
C:\Users\test\AppData\Local\Temp\cc0O9IID.s:5029   .debug_loc:00000000000004c0 .LLST64
C:\Users\test\AppData\Local\Temp\cc0O9IID.s:5043   .debug_loc:00000000000004e1 .LLST65
C:\Users\test\AppData\Local\Temp\cc0O9IID.s:1807   .text.ob_security_protection_config:0000000000000000 .LBB146
C:\Users\test\AppData\Local\Temp\cc0O9IID.s:5062   .debug_loc:0000000000000515 .LLST66
C:\Users\test\AppData\Local\Temp\cc0O9IID.s:5086   .debug_loc:000000000000054e .LLST67
C:\Users\test\AppData\Local\Temp\cc0O9IID.s:1842   .text.ob_security_protection_config:000000000000001e .LVL165
C:\Users\test\AppData\Local\Temp\cc0O9IID.s:1862   .text.ob_security_protection_config:0000000000000030 .LBB151
C:\Users\test\AppData\Local\Temp\cc0O9IID.s:5102   .debug_loc:0000000000000578 .LLST68
C:\Users\test\AppData\Local\Temp\cc0O9IID.s:5126   .debug_loc:00000000000005b1 .LLST69
C:\Users\test\AppData\Local\Temp\cc0O9IID.s:1892   .text.ob_security_protection_config:000000000000004c .LVL171
C:\Users\test\AppData\Local\Temp\cc0O9IID.s:1921   .text.ob_security_protection_config:000000000000006c .LBB155
C:\Users\test\AppData\Local\Temp\cc0O9IID.s:5142   .debug_loc:00000000000005db .LLST70
C:\Users\test\AppData\Local\Temp\cc0O9IID.s:5166   .debug_loc:0000000000000614 .LLST71
C:\Users\test\AppData\Local\Temp\cc0O9IID.s:1950   .text.ob_security_protection_config:0000000000000088 .LVL177
C:\Users\test\AppData\Local\Temp\cc0O9IID.s:7164   .debug_str:0000000000000378 .LASF56
C:\Users\test\AppData\Local\Temp\cc0O9IID.s:1456   .text.ob_write_protection_enable:0000000000000000 .LFB12
C:\Users\test\AppData\Local\Temp\cc0O9IID.s:1795   .text.ob_write_protection_enable:0000000000000136 .LFE12
GAS LISTING C:\Users\test\AppData\Local\Temp\cc0O9IID.s 			page 86


C:\Users\test\AppData\Local\Temp\cc0O9IID.s:5182   .debug_loc:000000000000063e .LLST46
C:\Users\test\AppData\Local\Temp\cc0O9IID.s:7154   .debug_str:000000000000032a .LASF57
C:\Users\test\AppData\Local\Temp\cc0O9IID.s:5215   .debug_loc:000000000000068e .LLST47
C:\Users\test\AppData\Local\Temp\cc0O9IID.s:7096   .debug_str:000000000000012c .LASF58
C:\Users\test\AppData\Local\Temp\cc0O9IID.s:5257   .debug_loc:00000000000006ee .LLST48
C:\Users\test\AppData\Local\Temp\cc0O9IID.s:7098   .debug_str:0000000000000135 .LASF59
C:\Users\test\AppData\Local\Temp\cc0O9IID.s:5310   .debug_loc:000000000000074b .LLST49
C:\Users\test\AppData\Local\Temp\cc0O9IID.s:7100   .debug_str:000000000000013e .LASF60
C:\Users\test\AppData\Local\Temp\cc0O9IID.s:5373   .debug_loc:00000000000007b2 .LLST50
C:\Users\test\AppData\Local\Temp\cc0O9IID.s:7102   .debug_str:0000000000000147 .LASF61
C:\Users\test\AppData\Local\Temp\cc0O9IID.s:5436   .debug_loc:0000000000000819 .LLST51
C:\Users\test\AppData\Local\Temp\cc0O9IID.s:5484   .debug_loc:0000000000000871 .LLST52
C:\Users\test\AppData\Local\Temp\cc0O9IID.s:1462   .text.ob_write_protection_enable:0000000000000000 .LBB124
C:\Users\test\AppData\Local\Temp\cc0O9IID.s:5519   .debug_loc:00000000000008d1 .LLST53
C:\Users\test\AppData\Local\Temp\cc0O9IID.s:5543   .debug_loc:000000000000090a .LLST54
C:\Users\test\AppData\Local\Temp\cc0O9IID.s:1499   .text.ob_write_protection_enable:0000000000000020 .LVL123
C:\Users\test\AppData\Local\Temp\cc0O9IID.s:1542   .text.ob_write_protection_enable:000000000000004e .LBB129
C:\Users\test\AppData\Local\Temp\cc0O9IID.s:5559   .debug_loc:0000000000000934 .LLST55
C:\Users\test\AppData\Local\Temp\cc0O9IID.s:5583   .debug_loc:000000000000096d .LLST56
C:\Users\test\AppData\Local\Temp\cc0O9IID.s:1564   .text.ob_write_protection_enable:0000000000000060 .LVL131
C:\Users\test\AppData\Local\Temp\cc0O9IID.s:1659   .text.ob_write_protection_enable:00000000000000b4 .LBB134
C:\Users\test\AppData\Local\Temp\cc0O9IID.s:5599   .debug_loc:0000000000000997 .LLST57
C:\Users\test\AppData\Local\Temp\cc0O9IID.s:5623   .debug_loc:00000000000009d0 .LLST58
C:\Users\test\AppData\Local\Temp\cc0O9IID.s:1681   .text.ob_write_protection_enable:00000000000000c6 .LVL144
C:\Users\test\AppData\Local\Temp\cc0O9IID.s:1709   .text.ob_write_protection_enable:00000000000000e6 .LBB138
C:\Users\test\AppData\Local\Temp\cc0O9IID.s:5639   .debug_loc:00000000000009fa .LLST59
C:\Users\test\AppData\Local\Temp\cc0O9IID.s:5663   .debug_loc:0000000000000a33 .LLST60
C:\Users\test\AppData\Local\Temp\cc0O9IID.s:1731   .text.ob_write_protection_enable:00000000000000f8 .LVL151
C:\Users\test\AppData\Local\Temp\cc0O9IID.s:1761   .text.ob_write_protection_enable:000000000000011a .LBB142
C:\Users\test\AppData\Local\Temp\cc0O9IID.s:5679   .debug_loc:0000000000000a5d .LLST61
C:\Users\test\AppData\Local\Temp\cc0O9IID.s:5703   .debug_loc:0000000000000a96 .LLST62
C:\Users\test\AppData\Local\Temp\cc0O9IID.s:1783   .text.ob_write_protection_enable:000000000000012c .LVL159
C:\Users\test\AppData\Local\Temp\cc0O9IID.s:7122   .debug_str:00000000000001d5 .LASF62
C:\Users\test\AppData\Local\Temp\cc0O9IID.s:1208   .text.ob_erase:0000000000000000 .LFB11
C:\Users\test\AppData\Local\Temp\cc0O9IID.s:1449   .text.ob_erase:00000000000000c2 .LFE11
C:\Users\test\AppData\Local\Temp\cc0O9IID.s:5719   .debug_loc:0000000000000ac0 .LLST37
C:\Users\test\AppData\Local\Temp\cc0O9IID.s:7208   .debug_str:0000000000000491 .LASF63
C:\Users\test\AppData\Local\Temp\cc0O9IID.s:5747   .debug_loc:0000000000000b04 .LLST38
C:\Users\test\AppData\Local\Temp\cc0O9IID.s:5766   .debug_loc:0000000000000b31 .LLST39
C:\Users\test\AppData\Local\Temp\cc0O9IID.s:1214   .text.ob_erase:0000000000000000 .LBB104
C:\Users\test\AppData\Local\Temp\cc0O9IID.s:5782   .debug_loc:0000000000000b5b .LLST40
C:\Users\test\AppData\Local\Temp\cc0O9IID.s:5806   .debug_loc:0000000000000b94 .LLST41
C:\Users\test\AppData\Local\Temp\cc0O9IID.s:1248   .text.ob_erase:000000000000001c .LVL100
C:\Users\test\AppData\Local\Temp\cc0O9IID.s:1260   .text.ob_erase:0000000000000022 .LBB110
C:\Users\test\AppData\Local\Temp\cc0O9IID.s:1283   .text.ob_erase:000000000000003a .LBB113
C:\Users\test\AppData\Local\Temp\cc0O9IID.s:5822   .debug_loc:0000000000000bbe .LLST42
C:\Users\test\AppData\Local\Temp\cc0O9IID.s:5846   .debug_loc:0000000000000bf7 .LLST43
C:\Users\test\AppData\Local\Temp\cc0O9IID.s:1313   .text.ob_erase:0000000000000056 .LVL107
C:\Users\test\AppData\Local\Temp\cc0O9IID.s:1333   .text.ob_erase:0000000000000068 .LBB117
C:\Users\test\AppData\Local\Temp\cc0O9IID.s:5862   .debug_loc:0000000000000c21 .LLST44
C:\Users\test\AppData\Local\Temp\cc0O9IID.s:5886   .debug_loc:0000000000000c5a .LLST45
C:\Users\test\AppData\Local\Temp\cc0O9IID.s:1367   .text.ob_erase:000000000000008c .LVL113
C:\Users\test\AppData\Local\Temp\cc0O9IID.s:7194   .debug_str:000000000000044d .LASF64
C:\Users\test\AppData\Local\Temp\cc0O9IID.s:135    .text.ob_lock:0000000000000000 .LFB10
C:\Users\test\AppData\Local\Temp\cc0O9IID.s:147    .text.ob_lock:000000000000000e .LFE10
C:\Users\test\AppData\Local\Temp\cc0O9IID.s:7064   .debug_str:000000000000005c .LASF65
C:\Users\test\AppData\Local\Temp\cc0O9IID.s:93     .text.ob_unlock:0000000000000000 .LFB9
GAS LISTING C:\Users\test\AppData\Local\Temp\cc0O9IID.s 			page 87


C:\Users\test\AppData\Local\Temp\cc0O9IID.s:128    .text.ob_unlock:000000000000002e .LFE9
C:\Users\test\AppData\Local\Temp\cc0O9IID.s:7156   .debug_str:0000000000000330 .LASF66
C:\Users\test\AppData\Local\Temp\cc0O9IID.s:1023   .text.fmc_halfword_program:0000000000000000 .LFB8
C:\Users\test\AppData\Local\Temp\cc0O9IID.s:1201   .text.fmc_halfword_program:0000000000000088 .LFE8
C:\Users\test\AppData\Local\Temp\cc0O9IID.s:5902   .debug_loc:0000000000000c84 .LLST29
C:\Users\test\AppData\Local\Temp\cc0O9IID.s:5935   .debug_loc:0000000000000cd4 .LLST30
C:\Users\test\AppData\Local\Temp\cc0O9IID.s:5968   .debug_loc:0000000000000d24 .LLST31
C:\Users\test\AppData\Local\Temp\cc0O9IID.s:5982   .debug_loc:0000000000000d45 .LLST32
C:\Users\test\AppData\Local\Temp\cc0O9IID.s:1029   .text.fmc_halfword_program:0000000000000000 .LBB92
C:\Users\test\AppData\Local\Temp\cc0O9IID.s:6007   .debug_loc:0000000000000d86 .LLST33
C:\Users\test\AppData\Local\Temp\cc0O9IID.s:6035   .debug_loc:0000000000000dca .LLST34
C:\Users\test\AppData\Local\Temp\cc0O9IID.s:1067   .text.fmc_halfword_program:0000000000000022 .LVL81
C:\Users\test\AppData\Local\Temp\cc0O9IID.s:1087   .text.fmc_halfword_program:0000000000000034 .LBB97
C:\Users\test\AppData\Local\Temp\cc0O9IID.s:6055   .debug_loc:0000000000000dff .LLST35
C:\Users\test\AppData\Local\Temp\cc0O9IID.s:6083   .debug_loc:0000000000000e43 .LLST36
C:\Users\test\AppData\Local\Temp\cc0O9IID.s:1115   .text.fmc_halfword_program:000000000000004c .LVL87
C:\Users\test\AppData\Local\Temp\cc0O9IID.s:7160   .debug_str:0000000000000358 .LASF67
C:\Users\test\AppData\Local\Temp\cc0O9IID.s:836    .text.fmc_word_program:0000000000000000 .LFB7
C:\Users\test\AppData\Local\Temp\cc0O9IID.s:1016   .text.fmc_word_program:0000000000000088 .LFE7
C:\Users\test\AppData\Local\Temp\cc0O9IID.s:6103   .debug_loc:0000000000000e78 .LLST21
C:\Users\test\AppData\Local\Temp\cc0O9IID.s:6136   .debug_loc:0000000000000ec8 .LLST22
C:\Users\test\AppData\Local\Temp\cc0O9IID.s:6169   .debug_loc:0000000000000f18 .LLST23
C:\Users\test\AppData\Local\Temp\cc0O9IID.s:6202   .debug_loc:0000000000000f68 .LLST24
C:\Users\test\AppData\Local\Temp\cc0O9IID.s:842    .text.fmc_word_program:0000000000000000 .LBB80
C:\Users\test\AppData\Local\Temp\cc0O9IID.s:6227   .debug_loc:0000000000000fa9 .LLST25
C:\Users\test\AppData\Local\Temp\cc0O9IID.s:6255   .debug_loc:0000000000000fed .LLST26
C:\Users\test\AppData\Local\Temp\cc0O9IID.s:880    .text.fmc_word_program:0000000000000022 .LVL60
C:\Users\test\AppData\Local\Temp\cc0O9IID.s:900    .text.fmc_word_program:0000000000000034 .LBB85
C:\Users\test\AppData\Local\Temp\cc0O9IID.s:6275   .debug_loc:0000000000001022 .LLST27
C:\Users\test\AppData\Local\Temp\cc0O9IID.s:6303   .debug_loc:0000000000001066 .LLST28
C:\Users\test\AppData\Local\Temp\cc0O9IID.s:928    .text.fmc_word_program:000000000000004c .LVL66
C:\Users\test\AppData\Local\Temp\cc0O9IID.s:7116   .debug_str:00000000000001af .LASF68
C:\Users\test\AppData\Local\Temp\cc0O9IID.s:665    .text.fmc_mass_erase:0000000000000000 .LFB6
C:\Users\test\AppData\Local\Temp\cc0O9IID.s:829    .text.fmc_mass_erase:000000000000007c .LFE6
C:\Users\test\AppData\Local\Temp\cc0O9IID.s:6323   .debug_loc:000000000000109b .LLST15
C:\Users\test\AppData\Local\Temp\cc0O9IID.s:6356   .debug_loc:00000000000010eb .LLST16
C:\Users\test\AppData\Local\Temp\cc0O9IID.s:671    .text.fmc_mass_erase:0000000000000000 .LBB68
C:\Users\test\AppData\Local\Temp\cc0O9IID.s:6371   .debug_loc:0000000000001114 .LLST17
C:\Users\test\AppData\Local\Temp\cc0O9IID.s:6399   .debug_loc:0000000000001158 .LLST18
C:\Users\test\AppData\Local\Temp\cc0O9IID.s:703    .text.fmc_mass_erase:000000000000001a .LVL43
C:\Users\test\AppData\Local\Temp\cc0O9IID.s:723    .text.fmc_mass_erase:000000000000002c .LBB73
C:\Users\test\AppData\Local\Temp\cc0O9IID.s:6419   .debug_loc:000000000000118d .LLST19
C:\Users\test\AppData\Local\Temp\cc0O9IID.s:6447   .debug_loc:00000000000011d1 .LLST20
C:\Users\test\AppData\Local\Temp\cc0O9IID.s:753    .text.fmc_mass_erase:0000000000000048 .LVL49
C:\Users\test\AppData\Local\Temp\cc0O9IID.s:7124   .debug_str:00000000000001de .LASF69
C:\Users\test\AppData\Local\Temp\cc0O9IID.s:482    .text.fmc_page_erase:0000000000000000 .LFB5
C:\Users\test\AppData\Local\Temp\cc0O9IID.s:658    .text.fmc_page_erase:0000000000000088 .LFE5
C:\Users\test\AppData\Local\Temp\cc0O9IID.s:6467   .debug_loc:0000000000001206 .LLST8
C:\Users\test\AppData\Local\Temp\cc0O9IID.s:7120   .debug_str:00000000000001c8 .LASF70
C:\Users\test\AppData\Local\Temp\cc0O9IID.s:6500   .debug_loc:0000000000001256 .LLST9
C:\Users\test\AppData\Local\Temp\cc0O9IID.s:6533   .debug_loc:00000000000012a6 .LLST10
C:\Users\test\AppData\Local\Temp\cc0O9IID.s:488    .text.fmc_page_erase:0000000000000000 .LBB56
C:\Users\test\AppData\Local\Temp\cc0O9IID.s:6548   .debug_loc:00000000000012cf .LLST11
C:\Users\test\AppData\Local\Temp\cc0O9IID.s:6576   .debug_loc:0000000000001313 .LLST12
C:\Users\test\AppData\Local\Temp\cc0O9IID.s:523    .text.fmc_page_erase:000000000000001e .LVL24
C:\Users\test\AppData\Local\Temp\cc0O9IID.s:543    .text.fmc_page_erase:0000000000000030 .LBB61
C:\Users\test\AppData\Local\Temp\cc0O9IID.s:6596   .debug_loc:0000000000001348 .LLST13
GAS LISTING C:\Users\test\AppData\Local\Temp\cc0O9IID.s 			page 88


C:\Users\test\AppData\Local\Temp\cc0O9IID.s:6624   .debug_loc:000000000000138c .LLST14
C:\Users\test\AppData\Local\Temp\cc0O9IID.s:576    .text.fmc_page_erase:0000000000000050 .LVL30
C:\Users\test\AppData\Local\Temp\cc0O9IID.s:7134   .debug_str:000000000000021e .LASF71
C:\Users\test\AppData\Local\Temp\cc0O9IID.s:74     .text.fmc_lock:0000000000000000 .LFB4
C:\Users\test\AppData\Local\Temp\cc0O9IID.s:86     .text.fmc_lock:000000000000000e .LFE4
C:\Users\test\AppData\Local\Temp\cc0O9IID.s:7128   .debug_str:00000000000001fb .LASF72
C:\Users\test\AppData\Local\Temp\cc0O9IID.s:42     .text.fmc_unlock:0000000000000000 .LFB3
C:\Users\test\AppData\Local\Temp\cc0O9IID.s:67     .text.fmc_unlock:0000000000000022 .LFE3
C:\Users\test\AppData\Local\Temp\cc0O9IID.s:7190   .debug_str:0000000000000413 .LASF73
C:\Users\test\AppData\Local\Temp\cc0O9IID.s:11     .text.fmc_wscnt_set:0000000000000000 .LFB2
C:\Users\test\AppData\Local\Temp\cc0O9IID.s:35     .text.fmc_wscnt_set:000000000000000e .LFE2
C:\Users\test\AppData\Local\Temp\cc0O9IID.s:7080   .debug_str:00000000000000cb .LASF74
C:\Users\test\AppData\Local\Temp\cc0O9IID.s:6644   .debug_loc:00000000000013c1 .LLST0
C:\Users\test\AppData\Local\Temp\cc0O9IID.s:6658   .debug_loc:00000000000013e2 .LLST1
C:\Users\test\AppData\Local\Temp\cc0O9IID.s:212    .text.ob_spc_get:0000000000000000 .LFB19
C:\Users\test\AppData\Local\Temp\cc0O9IID.s:230    .text.ob_spc_get:000000000000000c .LFE19
C:\Users\test\AppData\Local\Temp\cc0O9IID.s:6674   .debug_loc:0000000000001405 .LLST2
C:\Users\test\AppData\Local\Temp\cc0O9IID.s:429    .text.fmc_state_get:0000000000000000 .LFB26
C:\Users\test\AppData\Local\Temp\cc0O9IID.s:475    .text.fmc_state_get:000000000000001e .LFE26
C:\Users\test\AppData\Local\Temp\cc0O9IID.s:451    .text.fmc_state_get:0000000000000012 .LBB52
C:\Users\test\AppData\Local\Temp\cc0O9IID.s:2384   .text.fmc_ready_wait:0000000000000000 .LFB27
C:\Users\test\AppData\Local\Temp\cc0O9IID.s:2455   .text.fmc_ready_wait:0000000000000034 .LFE27
C:\Users\test\AppData\Local\Temp\cc0O9IID.s:6695   .debug_loc:000000000000142d .LLST91
C:\Users\test\AppData\Local\Temp\cc0O9IID.s:6723   .debug_loc:0000000000001471 .LLST92
C:\Users\test\AppData\Local\Temp\cc0O9IID.s:6738   .debug_loc:000000000000149a .LLST93
C:\Users\test\AppData\Local\Temp\cc0O9IID.s:2414   .text.fmc_ready_wait:0000000000000018 .LVL214
C:\Users\test\AppData\Local\Temp\cc0O9IID.s:404    .text.fmc_interrupt_flag_clear:0000000000000000 .LVL18
C:\Users\test\AppData\Local\Temp\cc0O9IID.s:414    .text.fmc_interrupt_flag_clear:0000000000000012 .LVL19
C:\Users\test\AppData\Local\Temp\cc0O9IID.s:347    .text.fmc_interrupt_flag_get:0000000000000000 .LVL12
C:\Users\test\AppData\Local\Temp\cc0O9IID.s:375    .text.fmc_interrupt_flag_get:0000000000000024 .LVL14
C:\Users\test\AppData\Local\Temp\cc0O9IID.s:385    .text.fmc_interrupt_flag_get:0000000000000030 .LVL16
C:\Users\test\AppData\Local\Temp\cc0O9IID.s:391    .text.fmc_interrupt_flag_get:0000000000000034 .LVL17
C:\Users\test\AppData\Local\Temp\cc0O9IID.s:368    .text.fmc_interrupt_flag_get:000000000000001e .LVL13
C:\Users\test\AppData\Local\Temp\cc0O9IID.s:378    .text.fmc_interrupt_flag_get:0000000000000028 .LVL15
C:\Users\test\AppData\Local\Temp\cc0O9IID.s:294    .text.fmc_flag_get:0000000000000000 .LVL9
C:\Users\test\AppData\Local\Temp\cc0O9IID.s:303    .text.fmc_flag_get:0000000000000010 .LVL10
C:\Users\test\AppData\Local\Temp\cc0O9IID.s:2233   .text.ob_data_program:0000000000000002 .LCFI38
C:\Users\test\AppData\Local\Temp\cc0O9IID.s:2347   .text.ob_data_program:0000000000000074 .LCFI39
C:\Users\test\AppData\Local\Temp\cc0O9IID.s:2352   .text.ob_data_program:0000000000000076 .LCFI40
C:\Users\test\AppData\Local\Temp\cc0O9IID.s:2373   .text.ob_data_program:0000000000000084 .LCFI41
C:\Users\test\AppData\Local\Temp\cc0O9IID.s:2224   .text.ob_data_program:0000000000000000 .LVL196
C:\Users\test\AppData\Local\Temp\cc0O9IID.s:2254   .text.ob_data_program:0000000000000018 .LVL197
C:\Users\test\AppData\Local\Temp\cc0O9IID.s:2345   .text.ob_data_program:0000000000000072 .LVL208
C:\Users\test\AppData\Local\Temp\cc0O9IID.s:2350   .text.ob_data_program:0000000000000076 .LVL209
C:\Users\test\AppData\Local\Temp\cc0O9IID.s:2364   .text.ob_data_program:0000000000000080 .LVL210
C:\Users\test\AppData\Local\Temp\cc0O9IID.s:2272   .text.ob_data_program:0000000000000028 .LVL201
C:\Users\test\AppData\Local\Temp\cc0O9IID.s:2300   .text.ob_data_program:0000000000000048 .LVL203
C:\Users\test\AppData\Local\Temp\cc0O9IID.s:2318   .text.ob_data_program:0000000000000058 .LVL207
C:\Users\test\AppData\Local\Temp\cc0O9IID.s:2267   .text.ob_data_program:0000000000000024 .LVL200
C:\Users\test\AppData\Local\Temp\cc0O9IID.s:2258   .text.ob_data_program:000000000000001a .LVL198
C:\Users\test\AppData\Local\Temp\cc0O9IID.s:2293   .text.ob_data_program:0000000000000044 .LVL202
C:\Users\test\AppData\Local\Temp\cc0O9IID.s:2313   .text.ob_data_program:0000000000000054 .LVL206
C:\Users\test\AppData\Local\Temp\cc0O9IID.s:2304   .text.ob_data_program:000000000000004a .LVL204
C:\Users\test\AppData\Local\Temp\cc0O9IID.s:2062   .text.ob_user_write:0000000000000002 .LCFI35
C:\Users\test\AppData\Local\Temp\cc0O9IID.s:2200   .text.ob_user_write:0000000000000092 .LCFI36
C:\Users\test\AppData\Local\Temp\cc0O9IID.s:2204   .text.ob_user_write:0000000000000094 .LCFI37
C:\Users\test\AppData\Local\Temp\cc0O9IID.s:2051   .text.ob_user_write:0000000000000000 .LVL182
GAS LISTING C:\Users\test\AppData\Local\Temp\cc0O9IID.s 			page 89


C:\Users\test\AppData\Local\Temp\cc0O9IID.s:2089   .text.ob_user_write:0000000000000020 .LVL183
C:\Users\test\AppData\Local\Temp\cc0O9IID.s:2107   .text.ob_user_write:0000000000000030 .LVL187
C:\Users\test\AppData\Local\Temp\cc0O9IID.s:2149   .text.ob_user_write:0000000000000062 .LVL190
C:\Users\test\AppData\Local\Temp\cc0O9IID.s:2167   .text.ob_user_write:0000000000000072 .LVL194
C:\Users\test\AppData\Local\Temp\cc0O9IID.s:2181   .text.ob_user_write:0000000000000082 .LVL195
C:\Users\test\AppData\Local\Temp\cc0O9IID.s:2128   .text.ob_user_write:000000000000004e .LVL188
C:\Users\test\AppData\Local\Temp\cc0O9IID.s:2102   .text.ob_user_write:000000000000002c .LVL186
C:\Users\test\AppData\Local\Temp\cc0O9IID.s:2093   .text.ob_user_write:0000000000000022 .LVL184
C:\Users\test\AppData\Local\Temp\cc0O9IID.s:2136   .text.ob_user_write:000000000000005a .LVL189
C:\Users\test\AppData\Local\Temp\cc0O9IID.s:2162   .text.ob_user_write:000000000000006e .LVL193
C:\Users\test\AppData\Local\Temp\cc0O9IID.s:2153   .text.ob_user_write:0000000000000064 .LVL191
C:\Users\test\AppData\Local\Temp\cc0O9IID.s:1814   .text.ob_security_protection_config:0000000000000002 .LCFI29
C:\Users\test\AppData\Local\Temp\cc0O9IID.s:1983   .text.ob_security_protection_config:00000000000000a8 .LCFI30
C:\Users\test\AppData\Local\Temp\cc0O9IID.s:1988   .text.ob_security_protection_config:00000000000000aa .LCFI31
C:\Users\test\AppData\Local\Temp\cc0O9IID.s:2007   .text.ob_security_protection_config:00000000000000b6 .LCFI32
C:\Users\test\AppData\Local\Temp\cc0O9IID.s:2012   .text.ob_security_protection_config:00000000000000b8 .LCFI33
C:\Users\test\AppData\Local\Temp\cc0O9IID.s:2037   .text.ob_security_protection_config:00000000000000d4 .LCFI34
C:\Users\test\AppData\Local\Temp\cc0O9IID.s:1805   .text.ob_security_protection_config:0000000000000000 .LVL162
C:\Users\test\AppData\Local\Temp\cc0O9IID.s:1832   .text.ob_security_protection_config:0000000000000014 .LVL163
C:\Users\test\AppData\Local\Temp\cc0O9IID.s:1850   .text.ob_security_protection_config:0000000000000024 .LVL167
C:\Users\test\AppData\Local\Temp\cc0O9IID.s:1882   .text.ob_security_protection_config:0000000000000042 .LVL169
C:\Users\test\AppData\Local\Temp\cc0O9IID.s:1900   .text.ob_security_protection_config:0000000000000052 .LVL173
C:\Users\test\AppData\Local\Temp\cc0O9IID.s:1940   .text.ob_security_protection_config:000000000000007e .LVL175
C:\Users\test\AppData\Local\Temp\cc0O9IID.s:1958   .text.ob_security_protection_config:000000000000008e .LVL179
C:\Users\test\AppData\Local\Temp\cc0O9IID.s:1986   .text.ob_security_protection_config:00000000000000aa .LVL180
C:\Users\test\AppData\Local\Temp\cc0O9IID.s:2010   .text.ob_security_protection_config:00000000000000b8 .LVL181
C:\Users\test\AppData\Local\Temp\cc0O9IID.s:1845   .text.ob_security_protection_config:0000000000000020 .LVL166
C:\Users\test\AppData\Local\Temp\cc0O9IID.s:1836   .text.ob_security_protection_config:0000000000000016 .LVL164
C:\Users\test\AppData\Local\Temp\cc0O9IID.s:1877   .text.ob_security_protection_config:0000000000000040 .LVL168
C:\Users\test\AppData\Local\Temp\cc0O9IID.s:1895   .text.ob_security_protection_config:000000000000004e .LVL172
C:\Users\test\AppData\Local\Temp\cc0O9IID.s:1886   .text.ob_security_protection_config:0000000000000044 .LVL170
C:\Users\test\AppData\Local\Temp\cc0O9IID.s:1935   .text.ob_security_protection_config:000000000000007c .LVL174
C:\Users\test\AppData\Local\Temp\cc0O9IID.s:1953   .text.ob_security_protection_config:000000000000008a .LVL178
C:\Users\test\AppData\Local\Temp\cc0O9IID.s:1944   .text.ob_security_protection_config:0000000000000080 .LVL176
C:\Users\test\AppData\Local\Temp\cc0O9IID.s:1469   .text.ob_write_protection_enable:0000000000000002 .LCFI24
C:\Users\test\AppData\Local\Temp\cc0O9IID.s:1612   .text.ob_write_protection_enable:0000000000000088 .LCFI25
C:\Users\test\AppData\Local\Temp\cc0O9IID.s:1617   .text.ob_write_protection_enable:000000000000008a .LCFI26
C:\Users\test\AppData\Local\Temp\cc0O9IID.s:1639   .text.ob_write_protection_enable:000000000000009a .LCFI27
C:\Users\test\AppData\Local\Temp\cc0O9IID.s:1644   .text.ob_write_protection_enable:000000000000009c .LCFI28
C:\Users\test\AppData\Local\Temp\cc0O9IID.s:1459   .text.ob_write_protection_enable:0000000000000000 .LVL120
C:\Users\test\AppData\Local\Temp\cc0O9IID.s:1489   .text.ob_write_protection_enable:0000000000000016 .LVL121
C:\Users\test\AppData\Local\Temp\cc0O9IID.s:1509   .text.ob_write_protection_enable:0000000000000028 .LVL126
C:\Users\test\AppData\Local\Temp\cc0O9IID.s:1525   .text.ob_write_protection_enable:0000000000000034 .LVL127
C:\Users\test\AppData\Local\Temp\cc0O9IID.s:1580   .text.ob_write_protection_enable:000000000000006a .LVL135
C:\Users\test\AppData\Local\Temp\cc0O9IID.s:1615   .text.ob_write_protection_enable:000000000000008a .LVL139
C:\Users\test\AppData\Local\Temp\cc0O9IID.s:1642   .text.ob_write_protection_enable:000000000000009c .LVL140
C:\Users\test\AppData\Local\Temp\cc0O9IID.s:1748   .text.ob_write_protection_enable:0000000000000104 .LVL155
C:\Users\test\AppData\Local\Temp\cc0O9IID.s:1571   .text.ob_write_protection_enable:0000000000000066 .LVL133
C:\Users\test\AppData\Local\Temp\cc0O9IID.s:1586   .text.ob_write_protection_enable:0000000000000070 .LVL136
C:\Users\test\AppData\Local\Temp\cc0O9IID.s:1594   .text.ob_write_protection_enable:000000000000007a .LVL137
C:\Users\test\AppData\Local\Temp\cc0O9IID.s:1608   .text.ob_write_protection_enable:0000000000000084 .LVL138
C:\Users\test\AppData\Local\Temp\cc0O9IID.s:1671   .text.ob_write_protection_enable:00000000000000bc .LVL142
C:\Users\test\AppData\Local\Temp\cc0O9IID.s:1688   .text.ob_write_protection_enable:00000000000000cc .LVL146
C:\Users\test\AppData\Local\Temp\cc0O9IID.s:1721   .text.ob_write_protection_enable:00000000000000ee .LVL149
C:\Users\test\AppData\Local\Temp\cc0O9IID.s:1738   .text.ob_write_protection_enable:00000000000000fe .LVL153
C:\Users\test\AppData\Local\Temp\cc0O9IID.s:1773   .text.ob_write_protection_enable:0000000000000122 .LVL157
C:\Users\test\AppData\Local\Temp\cc0O9IID.s:1501   .text.ob_write_protection_enable:0000000000000022 .LVL124
GAS LISTING C:\Users\test\AppData\Local\Temp\cc0O9IID.s 			page 90


C:\Users\test\AppData\Local\Temp\cc0O9IID.s:1504   .text.ob_write_protection_enable:0000000000000024 .LVL125
C:\Users\test\AppData\Local\Temp\cc0O9IID.s:1493   .text.ob_write_protection_enable:0000000000000018 .LVL122
C:\Users\test\AppData\Local\Temp\cc0O9IID.s:1541   .text.ob_write_protection_enable:000000000000004e .LVL128
C:\Users\test\AppData\Local\Temp\cc0O9IID.s:1554   .text.ob_write_protection_enable:0000000000000056 .LVL129
C:\Users\test\AppData\Local\Temp\cc0O9IID.s:1567   .text.ob_write_protection_enable:0000000000000062 .LVL132
C:\Users\test\AppData\Local\Temp\cc0O9IID.s:1577   .text.ob_write_protection_enable:0000000000000068 .LVL134
C:\Users\test\AppData\Local\Temp\cc0O9IID.s:1558   .text.ob_write_protection_enable:0000000000000058 .LVL130
C:\Users\test\AppData\Local\Temp\cc0O9IID.s:1658   .text.ob_write_protection_enable:00000000000000b4 .LVL141
C:\Users\test\AppData\Local\Temp\cc0O9IID.s:1684   .text.ob_write_protection_enable:00000000000000c8 .LVL145
C:\Users\test\AppData\Local\Temp\cc0O9IID.s:1694   .text.ob_write_protection_enable:00000000000000ce .LVL147
C:\Users\test\AppData\Local\Temp\cc0O9IID.s:1675   .text.ob_write_protection_enable:00000000000000be .LVL143
C:\Users\test\AppData\Local\Temp\cc0O9IID.s:1708   .text.ob_write_protection_enable:00000000000000e6 .LVL148
C:\Users\test\AppData\Local\Temp\cc0O9IID.s:1734   .text.ob_write_protection_enable:00000000000000fa .LVL152
C:\Users\test\AppData\Local\Temp\cc0O9IID.s:1744   .text.ob_write_protection_enable:0000000000000100 .LVL154
C:\Users\test\AppData\Local\Temp\cc0O9IID.s:1725   .text.ob_write_protection_enable:00000000000000f0 .LVL150
C:\Users\test\AppData\Local\Temp\cc0O9IID.s:1760   .text.ob_write_protection_enable:000000000000011a .LVL156
C:\Users\test\AppData\Local\Temp\cc0O9IID.s:1785   .text.ob_write_protection_enable:000000000000012e .LVL160
C:\Users\test\AppData\Local\Temp\cc0O9IID.s:1788   .text.ob_write_protection_enable:0000000000000130 .LVL161
C:\Users\test\AppData\Local\Temp\cc0O9IID.s:1777   .text.ob_write_protection_enable:0000000000000124 .LVL158
C:\Users\test\AppData\Local\Temp\cc0O9IID.s:1221   .text.ob_erase:0000000000000002 .LCFI20
C:\Users\test\AppData\Local\Temp\cc0O9IID.s:1402   .text.ob_erase:00000000000000ac .LCFI21
C:\Users\test\AppData\Local\Temp\cc0O9IID.s:1407   .text.ob_erase:00000000000000ae .LCFI22
C:\Users\test\AppData\Local\Temp\cc0O9IID.s:1445   .text.ob_erase:00000000000000c0 .LCFI23
C:\Users\test\AppData\Local\Temp\cc0O9IID.s:1212   .text.ob_erase:0000000000000000 .LVL97
C:\Users\test\AppData\Local\Temp\cc0O9IID.s:1274   .text.ob_erase:0000000000000032 .LVL103
C:\Users\test\AppData\Local\Temp\cc0O9IID.s:1398   .text.ob_erase:00000000000000a8 .LVL117
C:\Users\test\AppData\Local\Temp\cc0O9IID.s:1405   .text.ob_erase:00000000000000ae .LVL118
C:\Users\test\AppData\Local\Temp\cc0O9IID.s:1424   .text.ob_erase:00000000000000b4 .LVL119
C:\Users\test\AppData\Local\Temp\cc0O9IID.s:1256   .text.ob_erase:0000000000000022 .LVL102
C:\Users\test\AppData\Local\Temp\cc0O9IID.s:1303   .text.ob_erase:000000000000004c .LVL105
C:\Users\test\AppData\Local\Temp\cc0O9IID.s:1321   .text.ob_erase:000000000000005c .LVL109
C:\Users\test\AppData\Local\Temp\cc0O9IID.s:1357   .text.ob_erase:0000000000000082 .LVL111
C:\Users\test\AppData\Local\Temp\cc0O9IID.s:1238   .text.ob_erase:0000000000000012 .LVL98
C:\Users\test\AppData\Local\Temp\cc0O9IID.s:1251   .text.ob_erase:000000000000001e .LVL101
C:\Users\test\AppData\Local\Temp\cc0O9IID.s:1242   .text.ob_erase:0000000000000014 .LVL99
C:\Users\test\AppData\Local\Temp\cc0O9IID.s:1298   .text.ob_erase:000000000000004a .LVL104
C:\Users\test\AppData\Local\Temp\cc0O9IID.s:1316   .text.ob_erase:0000000000000058 .LVL108
C:\Users\test\AppData\Local\Temp\cc0O9IID.s:1307   .text.ob_erase:000000000000004e .LVL106
C:\Users\test\AppData\Local\Temp\cc0O9IID.s:1352   .text.ob_erase:0000000000000080 .LVL110
C:\Users\test\AppData\Local\Temp\cc0O9IID.s:1370   .text.ob_erase:000000000000008e .LVL114
C:\Users\test\AppData\Local\Temp\cc0O9IID.s:1373   .text.ob_erase:0000000000000092 .LVL115
C:\Users\test\AppData\Local\Temp\cc0O9IID.s:1361   .text.ob_erase:0000000000000084 .LVL112
C:\Users\test\AppData\Local\Temp\cc0O9IID.s:1036   .text.fmc_halfword_program:0000000000000002 .LCFI15
C:\Users\test\AppData\Local\Temp\cc0O9IID.s:1147   .text.fmc_halfword_program:0000000000000068 .LCFI16
C:\Users\test\AppData\Local\Temp\cc0O9IID.s:1152   .text.fmc_halfword_program:000000000000006a .LCFI17
C:\Users\test\AppData\Local\Temp\cc0O9IID.s:1176   .text.fmc_halfword_program:0000000000000078 .LCFI18
C:\Users\test\AppData\Local\Temp\cc0O9IID.s:1181   .text.fmc_halfword_program:000000000000007a .LCFI19
C:\Users\test\AppData\Local\Temp\cc0O9IID.s:1026   .text.fmc_halfword_program:0000000000000000 .LVL78
C:\Users\test\AppData\Local\Temp\cc0O9IID.s:1057   .text.fmc_halfword_program:0000000000000018 .LVL79
C:\Users\test\AppData\Local\Temp\cc0O9IID.s:1143   .text.fmc_halfword_program:0000000000000064 .LVL90
C:\Users\test\AppData\Local\Temp\cc0O9IID.s:1150   .text.fmc_halfword_program:000000000000006a .LVL91
C:\Users\test\AppData\Local\Temp\cc0O9IID.s:1164   .text.fmc_halfword_program:0000000000000072 .LVL93
C:\Users\test\AppData\Local\Temp\cc0O9IID.s:1179   .text.fmc_halfword_program:000000000000007a .LVL95
C:\Users\test\AppData\Local\Temp\cc0O9IID.s:1075   .text.fmc_halfword_program:0000000000000028 .LVL83
C:\Users\test\AppData\Local\Temp\cc0O9IID.s:1105   .text.fmc_halfword_program:0000000000000042 .LVL85
C:\Users\test\AppData\Local\Temp\cc0O9IID.s:1122   .text.fmc_halfword_program:0000000000000052 .LVL89
C:\Users\test\AppData\Local\Temp\cc0O9IID.s:1190   .text.fmc_halfword_program:0000000000000082 .LVL96
GAS LISTING C:\Users\test\AppData\Local\Temp\cc0O9IID.s 			page 91


C:\Users\test\AppData\Local\Temp\cc0O9IID.s:1070   .text.fmc_halfword_program:0000000000000024 .LVL82
C:\Users\test\AppData\Local\Temp\cc0O9IID.s:1159   .text.fmc_halfword_program:000000000000006e .LVL92
C:\Users\test\AppData\Local\Temp\cc0O9IID.s:1061   .text.fmc_halfword_program:000000000000001a .LVL80
C:\Users\test\AppData\Local\Temp\cc0O9IID.s:1171   .text.fmc_halfword_program:0000000000000076 .LVL94
C:\Users\test\AppData\Local\Temp\cc0O9IID.s:1100   .text.fmc_halfword_program:0000000000000040 .LVL84
C:\Users\test\AppData\Local\Temp\cc0O9IID.s:1118   .text.fmc_halfword_program:000000000000004e .LVL88
C:\Users\test\AppData\Local\Temp\cc0O9IID.s:1109   .text.fmc_halfword_program:0000000000000044 .LVL86
C:\Users\test\AppData\Local\Temp\cc0O9IID.s:849    .text.fmc_word_program:0000000000000002 .LCFI10
C:\Users\test\AppData\Local\Temp\cc0O9IID.s:961    .text.fmc_word_program:0000000000000068 .LCFI11
C:\Users\test\AppData\Local\Temp\cc0O9IID.s:966    .text.fmc_word_program:000000000000006a .LCFI12
C:\Users\test\AppData\Local\Temp\cc0O9IID.s:991    .text.fmc_word_program:0000000000000078 .LCFI13
C:\Users\test\AppData\Local\Temp\cc0O9IID.s:996    .text.fmc_word_program:000000000000007a .LCFI14
C:\Users\test\AppData\Local\Temp\cc0O9IID.s:839    .text.fmc_word_program:0000000000000000 .LVL57
C:\Users\test\AppData\Local\Temp\cc0O9IID.s:870    .text.fmc_word_program:0000000000000018 .LVL58
C:\Users\test\AppData\Local\Temp\cc0O9IID.s:956    .text.fmc_word_program:0000000000000064 .LVL69
C:\Users\test\AppData\Local\Temp\cc0O9IID.s:964    .text.fmc_word_program:000000000000006a .LVL71
C:\Users\test\AppData\Local\Temp\cc0O9IID.s:978    .text.fmc_word_program:0000000000000072 .LVL73
C:\Users\test\AppData\Local\Temp\cc0O9IID.s:994    .text.fmc_word_program:000000000000007a .LVL76
C:\Users\test\AppData\Local\Temp\cc0O9IID.s:959    .text.fmc_word_program:0000000000000066 .LVL70
C:\Users\test\AppData\Local\Temp\cc0O9IID.s:981    .text.fmc_word_program:0000000000000074 .LVL74
C:\Users\test\AppData\Local\Temp\cc0O9IID.s:888    .text.fmc_word_program:0000000000000028 .LVL62
C:\Users\test\AppData\Local\Temp\cc0O9IID.s:918    .text.fmc_word_program:0000000000000042 .LVL64
C:\Users\test\AppData\Local\Temp\cc0O9IID.s:935    .text.fmc_word_program:0000000000000052 .LVL68
C:\Users\test\AppData\Local\Temp\cc0O9IID.s:1005   .text.fmc_word_program:0000000000000082 .LVL77
C:\Users\test\AppData\Local\Temp\cc0O9IID.s:883    .text.fmc_word_program:0000000000000024 .LVL61
C:\Users\test\AppData\Local\Temp\cc0O9IID.s:973    .text.fmc_word_program:000000000000006e .LVL72
C:\Users\test\AppData\Local\Temp\cc0O9IID.s:874    .text.fmc_word_program:000000000000001a .LVL59
C:\Users\test\AppData\Local\Temp\cc0O9IID.s:986    .text.fmc_word_program:0000000000000076 .LVL75
C:\Users\test\AppData\Local\Temp\cc0O9IID.s:913    .text.fmc_word_program:0000000000000040 .LVL63
C:\Users\test\AppData\Local\Temp\cc0O9IID.s:931    .text.fmc_word_program:000000000000004e .LVL67
C:\Users\test\AppData\Local\Temp\cc0O9IID.s:922    .text.fmc_word_program:0000000000000044 .LVL65
C:\Users\test\AppData\Local\Temp\cc0O9IID.s:678    .text.fmc_mass_erase:0000000000000002 .LCFI5
C:\Users\test\AppData\Local\Temp\cc0O9IID.s:780    .text.fmc_mass_erase:0000000000000060 .LCFI6
C:\Users\test\AppData\Local\Temp\cc0O9IID.s:785    .text.fmc_mass_erase:0000000000000062 .LCFI7
C:\Users\test\AppData\Local\Temp\cc0O9IID.s:804    .text.fmc_mass_erase:000000000000006c .LCFI8
C:\Users\test\AppData\Local\Temp\cc0O9IID.s:809    .text.fmc_mass_erase:000000000000006e .LCFI9
C:\Users\test\AppData\Local\Temp\cc0O9IID.s:711    .text.fmc_mass_erase:0000000000000020 .LVL45
C:\Users\test\AppData\Local\Temp\cc0O9IID.s:743    .text.fmc_mass_erase:000000000000003e .LVL47
C:\Users\test\AppData\Local\Temp\cc0O9IID.s:760    .text.fmc_mass_erase:000000000000004e .LVL51
C:\Users\test\AppData\Local\Temp\cc0O9IID.s:783    .text.fmc_mass_erase:0000000000000062 .LVL52
C:\Users\test\AppData\Local\Temp\cc0O9IID.s:818    .text.fmc_mass_erase:0000000000000076 .LVL56
C:\Users\test\AppData\Local\Temp\cc0O9IID.s:670    .text.fmc_mass_erase:0000000000000000 .LVL40
C:\Users\test\AppData\Local\Temp\cc0O9IID.s:693    .text.fmc_mass_erase:0000000000000010 .LVL41
C:\Users\test\AppData\Local\Temp\cc0O9IID.s:706    .text.fmc_mass_erase:000000000000001c .LVL44
C:\Users\test\AppData\Local\Temp\cc0O9IID.s:792    .text.fmc_mass_erase:0000000000000066 .LVL53
C:\Users\test\AppData\Local\Temp\cc0O9IID.s:697    .text.fmc_mass_erase:0000000000000012 .LVL42
C:\Users\test\AppData\Local\Temp\cc0O9IID.s:799    .text.fmc_mass_erase:000000000000006a .LVL54
C:\Users\test\AppData\Local\Temp\cc0O9IID.s:738    .text.fmc_mass_erase:000000000000003c .LVL46
C:\Users\test\AppData\Local\Temp\cc0O9IID.s:756    .text.fmc_mass_erase:000000000000004a .LVL50
C:\Users\test\AppData\Local\Temp\cc0O9IID.s:807    .text.fmc_mass_erase:000000000000006e .LVL55
C:\Users\test\AppData\Local\Temp\cc0O9IID.s:747    .text.fmc_mass_erase:0000000000000040 .LVL48
C:\Users\test\AppData\Local\Temp\cc0O9IID.s:495    .text.fmc_page_erase:0000000000000002 .LCFI0
C:\Users\test\AppData\Local\Temp\cc0O9IID.s:606    .text.fmc_page_erase:000000000000006a .LCFI1
C:\Users\test\AppData\Local\Temp\cc0O9IID.s:611    .text.fmc_page_erase:000000000000006c .LCFI2
C:\Users\test\AppData\Local\Temp\cc0O9IID.s:633    .text.fmc_page_erase:0000000000000078 .LCFI3
C:\Users\test\AppData\Local\Temp\cc0O9IID.s:638    .text.fmc_page_erase:000000000000007a .LCFI4
C:\Users\test\AppData\Local\Temp\cc0O9IID.s:485    .text.fmc_page_erase:0000000000000000 .LVL21
GAS LISTING C:\Users\test\AppData\Local\Temp\cc0O9IID.s 			page 92


C:\Users\test\AppData\Local\Temp\cc0O9IID.s:513    .text.fmc_page_erase:0000000000000014 .LVL22
C:\Users\test\AppData\Local\Temp\cc0O9IID.s:604    .text.fmc_page_erase:0000000000000068 .LVL33
C:\Users\test\AppData\Local\Temp\cc0O9IID.s:609    .text.fmc_page_erase:000000000000006c .LVL34
C:\Users\test\AppData\Local\Temp\cc0O9IID.s:623    .text.fmc_page_erase:0000000000000074 .LVL36
C:\Users\test\AppData\Local\Temp\cc0O9IID.s:636    .text.fmc_page_erase:000000000000007a .LVL38
C:\Users\test\AppData\Local\Temp\cc0O9IID.s:531    .text.fmc_page_erase:0000000000000024 .LVL26
C:\Users\test\AppData\Local\Temp\cc0O9IID.s:566    .text.fmc_page_erase:0000000000000046 .LVL28
C:\Users\test\AppData\Local\Temp\cc0O9IID.s:583    .text.fmc_page_erase:0000000000000056 .LVL32
C:\Users\test\AppData\Local\Temp\cc0O9IID.s:647    .text.fmc_page_erase:0000000000000082 .LVL39
C:\Users\test\AppData\Local\Temp\cc0O9IID.s:526    .text.fmc_page_erase:0000000000000020 .LVL25
C:\Users\test\AppData\Local\Temp\cc0O9IID.s:618    .text.fmc_page_erase:0000000000000070 .LVL35
C:\Users\test\AppData\Local\Temp\cc0O9IID.s:517    .text.fmc_page_erase:0000000000000016 .LVL23
C:\Users\test\AppData\Local\Temp\cc0O9IID.s:628    .text.fmc_page_erase:0000000000000076 .LVL37
C:\Users\test\AppData\Local\Temp\cc0O9IID.s:561    .text.fmc_page_erase:0000000000000044 .LVL27
C:\Users\test\AppData\Local\Temp\cc0O9IID.s:579    .text.fmc_page_erase:0000000000000052 .LVL31
C:\Users\test\AppData\Local\Temp\cc0O9IID.s:570    .text.fmc_page_erase:0000000000000048 .LVL29
C:\Users\test\AppData\Local\Temp\cc0O9IID.s:15     .text.fmc_wscnt_set:0000000000000000 .LVL0
C:\Users\test\AppData\Local\Temp\cc0O9IID.s:29     .text.fmc_wscnt_set:000000000000000a .LVL3
C:\Users\test\AppData\Local\Temp\cc0O9IID.s:21     .text.fmc_wscnt_set:0000000000000006 .LVL1
C:\Users\test\AppData\Local\Temp\cc0O9IID.s:26     .text.fmc_wscnt_set:0000000000000008 .LVL2
C:\Users\test\AppData\Local\Temp\cc0O9IID.s:216    .text.ob_spc_get:0000000000000000 .LVL4
C:\Users\test\AppData\Local\Temp\cc0O9IID.s:221    .text.ob_spc_get:0000000000000006 .LVL5
C:\Users\test\AppData\Local\Temp\cc0O9IID.s:225    .text.ob_spc_get:0000000000000008 .LVL6
C:\Users\test\AppData\Local\Temp\cc0O9IID.s:2391   .text.fmc_ready_wait:0000000000000002 .LCFI42
C:\Users\test\AppData\Local\Temp\cc0O9IID.s:2431   .text.fmc_ready_wait:0000000000000026 .LCFI43
C:\Users\test\AppData\Local\Temp\cc0O9IID.s:2436   .text.fmc_ready_wait:0000000000000028 .LCFI44
C:\Users\test\AppData\Local\Temp\cc0O9IID.s:2451   .text.fmc_ready_wait:0000000000000032 .LCFI45
C:\Users\test\AppData\Local\Temp\cc0O9IID.s:2387   .text.fmc_ready_wait:0000000000000000 .LVL211
C:\Users\test\AppData\Local\Temp\cc0O9IID.s:2404   .text.fmc_ready_wait:000000000000000e .LVL212
C:\Users\test\AppData\Local\Temp\cc0O9IID.s:2427   .text.fmc_ready_wait:0000000000000022 .LVL216
C:\Users\test\AppData\Local\Temp\cc0O9IID.s:2434   .text.fmc_ready_wait:0000000000000028 .LVL217
C:\Users\test\AppData\Local\Temp\cc0O9IID.s:2442   .text.fmc_ready_wait:000000000000002c .LVL218
C:\Users\test\AppData\Local\Temp\cc0O9IID.s:2408   .text.fmc_ready_wait:0000000000000010 .LVL213
C:\Users\test\AppData\Local\Temp\cc0O9IID.s:2447   .text.fmc_ready_wait:0000000000000030 .LVL219
C:\Users\test\AppData\Local\Temp\cc0O9IID.s:2465   .debug_info:0000000000000000 .Ldebug_info0
C:\Users\test\AppData\Local\Temp\cc0O9IID.s:462    .text.fmc_state_get:0000000000000018 .LBE52
C:\Users\test\AppData\Local\Temp\cc0O9IID.s:466    .text.fmc_state_get:000000000000001a .LBB55
C:\Users\test\AppData\Local\Temp\cc0O9IID.s:471    .text.fmc_state_get:000000000000001c .LBE55
C:\Users\test\AppData\Local\Temp\cc0O9IID.s:492    .text.fmc_page_erase:0000000000000000 .LBE56
C:\Users\test\AppData\Local\Temp\cc0O9IID.s:508    .text.fmc_page_erase:0000000000000010 .LBB60
C:\Users\test\AppData\Local\Temp\cc0O9IID.s:533    .text.fmc_page_erase:0000000000000024 .LBE60
C:\Users\test\AppData\Local\Temp\cc0O9IID.s:624    .text.fmc_page_erase:0000000000000074 .LBB66
C:\Users\test\AppData\Local\Temp\cc0O9IID.s:630    .text.fmc_page_erase:0000000000000076 .LBE66
C:\Users\test\AppData\Local\Temp\cc0O9IID.s:548    .text.fmc_page_erase:0000000000000032 .LBE61
C:\Users\test\AppData\Local\Temp\cc0O9IID.s:562    .text.fmc_page_erase:0000000000000044 .LBB65
C:\Users\test\AppData\Local\Temp\cc0O9IID.s:585    .text.fmc_page_erase:0000000000000056 .LBE65
C:\Users\test\AppData\Local\Temp\cc0O9IID.s:643    .text.fmc_page_erase:0000000000000080 .LBB67
C:\Users\test\AppData\Local\Temp\cc0O9IID.s:650    .text.fmc_page_erase:0000000000000082 .LBE67
C:\Users\test\AppData\Local\Temp\cc0O9IID.s:675    .text.fmc_mass_erase:0000000000000000 .LBE68
C:\Users\test\AppData\Local\Temp\cc0O9IID.s:688    .text.fmc_mass_erase:000000000000000c .LBB72
C:\Users\test\AppData\Local\Temp\cc0O9IID.s:713    .text.fmc_mass_erase:0000000000000020 .LBE72
C:\Users\test\AppData\Local\Temp\cc0O9IID.s:795    .text.fmc_mass_erase:0000000000000068 .LBB78
C:\Users\test\AppData\Local\Temp\cc0O9IID.s:801    .text.fmc_mass_erase:000000000000006a .LBE78
C:\Users\test\AppData\Local\Temp\cc0O9IID.s:728    .text.fmc_mass_erase:000000000000002e .LBE73
C:\Users\test\AppData\Local\Temp\cc0O9IID.s:739    .text.fmc_mass_erase:000000000000003c .LBB77
C:\Users\test\AppData\Local\Temp\cc0O9IID.s:762    .text.fmc_mass_erase:000000000000004e .LBE77
C:\Users\test\AppData\Local\Temp\cc0O9IID.s:814    .text.fmc_mass_erase:0000000000000074 .LBB79
GAS LISTING C:\Users\test\AppData\Local\Temp\cc0O9IID.s 			page 93


C:\Users\test\AppData\Local\Temp\cc0O9IID.s:821    .text.fmc_mass_erase:0000000000000076 .LBE79
C:\Users\test\AppData\Local\Temp\cc0O9IID.s:846    .text.fmc_word_program:0000000000000000 .LBE80
C:\Users\test\AppData\Local\Temp\cc0O9IID.s:865    .text.fmc_word_program:0000000000000014 .LBB84
C:\Users\test\AppData\Local\Temp\cc0O9IID.s:890    .text.fmc_word_program:0000000000000028 .LBE84
C:\Users\test\AppData\Local\Temp\cc0O9IID.s:982    .text.fmc_word_program:0000000000000074 .LBB90
C:\Users\test\AppData\Local\Temp\cc0O9IID.s:988    .text.fmc_word_program:0000000000000076 .LBE90
C:\Users\test\AppData\Local\Temp\cc0O9IID.s:905    .text.fmc_word_program:0000000000000036 .LBE85
C:\Users\test\AppData\Local\Temp\cc0O9IID.s:914    .text.fmc_word_program:0000000000000040 .LBB89
C:\Users\test\AppData\Local\Temp\cc0O9IID.s:937    .text.fmc_word_program:0000000000000052 .LBE89
C:\Users\test\AppData\Local\Temp\cc0O9IID.s:1001   .text.fmc_word_program:0000000000000080 .LBB91
C:\Users\test\AppData\Local\Temp\cc0O9IID.s:1008   .text.fmc_word_program:0000000000000082 .LBE91
C:\Users\test\AppData\Local\Temp\cc0O9IID.s:1033   .text.fmc_halfword_program:0000000000000000 .LBE92
C:\Users\test\AppData\Local\Temp\cc0O9IID.s:1052   .text.fmc_halfword_program:0000000000000014 .LBB96
C:\Users\test\AppData\Local\Temp\cc0O9IID.s:1077   .text.fmc_halfword_program:0000000000000028 .LBE96
C:\Users\test\AppData\Local\Temp\cc0O9IID.s:1167   .text.fmc_halfword_program:0000000000000074 .LBB102
C:\Users\test\AppData\Local\Temp\cc0O9IID.s:1173   .text.fmc_halfword_program:0000000000000076 .LBE102
C:\Users\test\AppData\Local\Temp\cc0O9IID.s:1092   .text.fmc_halfword_program:0000000000000036 .LBE97
C:\Users\test\AppData\Local\Temp\cc0O9IID.s:1101   .text.fmc_halfword_program:0000000000000040 .LBB101
C:\Users\test\AppData\Local\Temp\cc0O9IID.s:1124   .text.fmc_halfword_program:0000000000000052 .LBE101
C:\Users\test\AppData\Local\Temp\cc0O9IID.s:1186   .text.fmc_halfword_program:0000000000000080 .LBB103
C:\Users\test\AppData\Local\Temp\cc0O9IID.s:1193   .text.fmc_halfword_program:0000000000000082 .LBE103
C:\Users\test\AppData\Local\Temp\cc0O9IID.s:1218   .text.ob_erase:0000000000000000 .LBE104
C:\Users\test\AppData\Local\Temp\cc0O9IID.s:1233   .text.ob_erase:000000000000000e .LBB109
C:\Users\test\AppData\Local\Temp\cc0O9IID.s:1258   .text.ob_erase:0000000000000022 .LBE109
C:\Users\test\AppData\Local\Temp\cc0O9IID.s:1409   .text.ob_erase:00000000000000ae .LBB121
C:\Users\test\AppData\Local\Temp\cc0O9IID.s:1415   .text.ob_erase:00000000000000ae .LBE121
C:\Users\test\AppData\Local\Temp\cc0O9IID.s:1437   .text.ob_erase:00000000000000bc .LBB123
C:\Users\test\AppData\Local\Temp\cc0O9IID.s:1442   .text.ob_erase:00000000000000be .LBE123
C:\Users\test\AppData\Local\Temp\cc0O9IID.s:1268   .text.ob_erase:0000000000000028 .LBE110
C:\Users\test\AppData\Local\Temp\cc0O9IID.s:1417   .text.ob_erase:00000000000000ae .LBB122
C:\Users\test\AppData\Local\Temp\cc0O9IID.s:1427   .text.ob_erase:00000000000000b4 .LBE122
C:\Users\test\AppData\Local\Temp\cc0O9IID.s:1288   .text.ob_erase:000000000000003c .LBE113
C:\Users\test\AppData\Local\Temp\cc0O9IID.s:1299   .text.ob_erase:000000000000004a .LBB116
C:\Users\test\AppData\Local\Temp\cc0O9IID.s:1323   .text.ob_erase:000000000000005c .LBE116
C:\Users\test\AppData\Local\Temp\cc0O9IID.s:1338   .text.ob_erase:000000000000006a .LBE117
C:\Users\test\AppData\Local\Temp\cc0O9IID.s:1353   .text.ob_erase:0000000000000080 .LBB120
C:\Users\test\AppData\Local\Temp\cc0O9IID.s:1376   .text.ob_erase:0000000000000092 .LBE120
C:\Users\test\AppData\Local\Temp\cc0O9IID.s:1466   .text.ob_write_protection_enable:0000000000000000 .LBE124
C:\Users\test\AppData\Local\Temp\cc0O9IID.s:1484   .text.ob_write_protection_enable:0000000000000012 .LBB128
C:\Users\test\AppData\Local\Temp\cc0O9IID.s:1511   .text.ob_write_protection_enable:0000000000000028 .LBE128
C:\Users\test\AppData\Local\Temp\cc0O9IID.s:1624   .text.ob_write_protection_enable:000000000000008e .LBB133
C:\Users\test\AppData\Local\Temp\cc0O9IID.s:1629   .text.ob_write_protection_enable:0000000000000090 .LBE133
C:\Users\test\AppData\Local\Temp\cc0O9IID.s:1546   .text.ob_write_protection_enable:000000000000004e .LBE129
C:\Users\test\AppData\Local\Temp\cc0O9IID.s:1549   .text.ob_write_protection_enable:0000000000000052 .LBB132
C:\Users\test\AppData\Local\Temp\cc0O9IID.s:1573   .text.ob_write_protection_enable:0000000000000066 .LBE132
C:\Users\test\AppData\Local\Temp\cc0O9IID.s:1663   .text.ob_write_protection_enable:00000000000000b4 .LBE134
C:\Users\test\AppData\Local\Temp\cc0O9IID.s:1666   .text.ob_write_protection_enable:00000000000000b8 .LBB137
C:\Users\test\AppData\Local\Temp\cc0O9IID.s:1690   .text.ob_write_protection_enable:00000000000000cc .LBE137
C:\Users\test\AppData\Local\Temp\cc0O9IID.s:1713   .text.ob_write_protection_enable:00000000000000e6 .LBE138
C:\Users\test\AppData\Local\Temp\cc0O9IID.s:1716   .text.ob_write_protection_enable:00000000000000ea .LBB141
C:\Users\test\AppData\Local\Temp\cc0O9IID.s:1740   .text.ob_write_protection_enable:00000000000000fe .LBE141
C:\Users\test\AppData\Local\Temp\cc0O9IID.s:1765   .text.ob_write_protection_enable:000000000000011a .LBE142
C:\Users\test\AppData\Local\Temp\cc0O9IID.s:1768   .text.ob_write_protection_enable:000000000000011e .LBB145
C:\Users\test\AppData\Local\Temp\cc0O9IID.s:1793   .text.ob_write_protection_enable:0000000000000136 .LBE145
C:\Users\test\AppData\Local\Temp\cc0O9IID.s:1811   .text.ob_security_protection_config:0000000000000000 .LBE146
C:\Users\test\AppData\Local\Temp\cc0O9IID.s:1827   .text.ob_security_protection_config:0000000000000010 .LBB150
C:\Users\test\AppData\Local\Temp\cc0O9IID.s:1852   .text.ob_security_protection_config:0000000000000024 .LBE150
GAS LISTING C:\Users\test\AppData\Local\Temp\cc0O9IID.s 			page 94


C:\Users\test\AppData\Local\Temp\cc0O9IID.s:1999   .text.ob_security_protection_config:00000000000000b2 .LBB159
C:\Users\test\AppData\Local\Temp\cc0O9IID.s:2004   .text.ob_security_protection_config:00000000000000b4 .LBE159
C:\Users\test\AppData\Local\Temp\cc0O9IID.s:1867   .text.ob_security_protection_config:0000000000000032 .LBE151
C:\Users\test\AppData\Local\Temp\cc0O9IID.s:1878   .text.ob_security_protection_config:0000000000000040 .LBB154
C:\Users\test\AppData\Local\Temp\cc0O9IID.s:1902   .text.ob_security_protection_config:0000000000000052 .LBE154
C:\Users\test\AppData\Local\Temp\cc0O9IID.s:1926   .text.ob_security_protection_config:000000000000006e .LBE155
C:\Users\test\AppData\Local\Temp\cc0O9IID.s:1936   .text.ob_security_protection_config:000000000000007c .LBB158
C:\Users\test\AppData\Local\Temp\cc0O9IID.s:1960   .text.ob_security_protection_config:000000000000008e .LBE158
C:\Users\test\AppData\Local\Temp\cc0O9IID.s:2059   .text.ob_user_write:0000000000000000 .LBE160
C:\Users\test\AppData\Local\Temp\cc0O9IID.s:2084   .text.ob_user_write:000000000000001c .LBB164
C:\Users\test\AppData\Local\Temp\cc0O9IID.s:2109   .text.ob_user_write:0000000000000030 .LBE164
C:\Users\test\AppData\Local\Temp\cc0O9IID.s:2206   .text.ob_user_write:0000000000000094 .LBB169
C:\Users\test\AppData\Local\Temp\cc0O9IID.s:2212   .text.ob_user_write:0000000000000098 .LBE169
C:\Users\test\AppData\Local\Temp\cc0O9IID.s:2141   .text.ob_user_write:000000000000005a .LBE165
C:\Users\test\AppData\Local\Temp\cc0O9IID.s:2144   .text.ob_user_write:000000000000005e .LBB168
C:\Users\test\AppData\Local\Temp\cc0O9IID.s:2169   .text.ob_user_write:0000000000000072 .LBE168
C:\Users\test\AppData\Local\Temp\cc0O9IID.s:2230   .text.ob_data_program:0000000000000000 .LBE170
C:\Users\test\AppData\Local\Temp\cc0O9IID.s:2249   .text.ob_data_program:0000000000000014 .LBB174
C:\Users\test\AppData\Local\Temp\cc0O9IID.s:2274   .text.ob_data_program:0000000000000028 .LBE174
C:\Users\test\AppData\Local\Temp\cc0O9IID.s:2365   .text.ob_data_program:0000000000000080 .LBB177
C:\Users\test\AppData\Local\Temp\cc0O9IID.s:2370   .text.ob_data_program:0000000000000082 .LBE177

NO UNDEFINED SYMBOLS
