GAS LISTING C:\Users\test\AppData\Local\Temp\ccx0JFmY.s 			page 1


   1              		.file	"gd32vf103_timer.c"
   2              		.option nopic
   3              		.text
   4              	.Ltext0:
   5              		.cfi_sections	.debug_frame
   6              		.section	.text.timer_channel_input_capture_prescaler_config.part.0,"ax",@progbits
   7              		.align	1
   9              	timer_channel_input_capture_prescaler_config.part.0:
  10              	.LFB71:
  11              		.file 1 "arch/riscv/mach-gd32vf10x/bsp/gd32vf103_timer.c"
   1:arch/riscv/mach-gd32vf10x/bsp/gd32vf103_timer.c **** /*!
   2:arch/riscv/mach-gd32vf10x/bsp/gd32vf103_timer.c ****     \file  gd32vf103_timer.c
   3:arch/riscv/mach-gd32vf10x/bsp/gd32vf103_timer.c ****     \brief TIMER driver
   4:arch/riscv/mach-gd32vf10x/bsp/gd32vf103_timer.c ****     
   5:arch/riscv/mach-gd32vf10x/bsp/gd32vf103_timer.c ****     \version 2019-6-5, V1.0.0, firmware for GD32VF103
   6:arch/riscv/mach-gd32vf10x/bsp/gd32vf103_timer.c **** */
   7:arch/riscv/mach-gd32vf10x/bsp/gd32vf103_timer.c **** 
   8:arch/riscv/mach-gd32vf10x/bsp/gd32vf103_timer.c **** /*
   9:arch/riscv/mach-gd32vf10x/bsp/gd32vf103_timer.c ****     Copyright (c) 2019, GigaDevice Semiconductor Inc.
  10:arch/riscv/mach-gd32vf10x/bsp/gd32vf103_timer.c **** 
  11:arch/riscv/mach-gd32vf10x/bsp/gd32vf103_timer.c ****     Redistribution and use in source and binary forms, with or without modification, 
  12:arch/riscv/mach-gd32vf10x/bsp/gd32vf103_timer.c **** are permitted provided that the following conditions are met:
  13:arch/riscv/mach-gd32vf10x/bsp/gd32vf103_timer.c **** 
  14:arch/riscv/mach-gd32vf10x/bsp/gd32vf103_timer.c ****     1. Redistributions of source code must retain the above copyright notice, this 
  15:arch/riscv/mach-gd32vf10x/bsp/gd32vf103_timer.c ****        list of conditions and the following disclaimer.
  16:arch/riscv/mach-gd32vf10x/bsp/gd32vf103_timer.c ****     2. Redistributions in binary form must reproduce the above copyright notice, 
  17:arch/riscv/mach-gd32vf10x/bsp/gd32vf103_timer.c ****        this list of conditions and the following disclaimer in the documentation 
  18:arch/riscv/mach-gd32vf10x/bsp/gd32vf103_timer.c ****        and/or other materials provided with the distribution.
  19:arch/riscv/mach-gd32vf10x/bsp/gd32vf103_timer.c ****     3. Neither the name of the copyright holder nor the names of its contributors 
  20:arch/riscv/mach-gd32vf10x/bsp/gd32vf103_timer.c ****        may be used to endorse or promote products derived from this software without 
  21:arch/riscv/mach-gd32vf10x/bsp/gd32vf103_timer.c ****        specific prior written permission.
  22:arch/riscv/mach-gd32vf10x/bsp/gd32vf103_timer.c **** 
  23:arch/riscv/mach-gd32vf10x/bsp/gd32vf103_timer.c ****     THIS SOFTWARE IS PROVIDED BY THE COPYRIGHT HOLDERS AND CONTRIBUTORS "AS IS" 
  24:arch/riscv/mach-gd32vf10x/bsp/gd32vf103_timer.c **** AND ANY EXPRESS OR IMPLIED WARRANTIES, INCLUDING, BUT NOT LIMITED TO, THE IMPLIED 
  25:arch/riscv/mach-gd32vf10x/bsp/gd32vf103_timer.c **** WARRANTIES OF MERCHANTABILITY AND FITNESS FOR A PARTICULAR PURPOSE ARE DISCLAIMED. 
  26:arch/riscv/mach-gd32vf10x/bsp/gd32vf103_timer.c **** IN NO EVENT SHALL THE COPYRIGHT HOLDER OR CONTRIBUTORS BE LIABLE FOR ANY DIRECT, 
  27:arch/riscv/mach-gd32vf10x/bsp/gd32vf103_timer.c **** INDIRECT, INCIDENTAL, SPECIAL, EXEMPLARY, OR CONSEQUENTIAL DAMAGES (INCLUDING, BUT 
  28:arch/riscv/mach-gd32vf10x/bsp/gd32vf103_timer.c **** NOT LIMITED TO, PROCUREMENT OF SUBSTITUTE GOODS OR SERVICES; LOSS OF USE, DATA, OR 
  29:arch/riscv/mach-gd32vf10x/bsp/gd32vf103_timer.c **** PROFITS; OR BUSINESS INTERRUPTION) HOWEVER CAUSED AND ON ANY THEORY OF LIABILITY, 
  30:arch/riscv/mach-gd32vf10x/bsp/gd32vf103_timer.c **** WHETHER IN CONTRACT, STRICT LIABILITY, OR TORT (INCLUDING NEGLIGENCE OR OTHERWISE) 
  31:arch/riscv/mach-gd32vf10x/bsp/gd32vf103_timer.c **** ARISING IN ANY WAY OUT OF THE USE OF THIS SOFTWARE, EVEN IF ADVISED OF THE POSSIBILITY 
  32:arch/riscv/mach-gd32vf10x/bsp/gd32vf103_timer.c **** OF SUCH DAMAGE.
  33:arch/riscv/mach-gd32vf10x/bsp/gd32vf103_timer.c **** */
  34:arch/riscv/mach-gd32vf10x/bsp/gd32vf103_timer.c **** #include "gd32vf103_timer.h"
  35:arch/riscv/mach-gd32vf10x/bsp/gd32vf103_timer.c **** 
  36:arch/riscv/mach-gd32vf10x/bsp/gd32vf103_timer.c **** /* TIMER init parameter mask */
  37:arch/riscv/mach-gd32vf10x/bsp/gd32vf103_timer.c **** #define ALIGNEDMODE_MASK            ((uint32_t)0x00000060U)   /*!< TIMER init parameter aligne dmod
  38:arch/riscv/mach-gd32vf10x/bsp/gd32vf103_timer.c **** #define COUNTERDIRECTION_MASK       ((uint32_t)0x00000010U)   /*!< TIMER init parameter counter dir
  39:arch/riscv/mach-gd32vf10x/bsp/gd32vf103_timer.c **** #define CLOCKDIVISION_MASK          ((uint32_t)0x00000300U)   /*!< TIMER init parameter clock divis
  40:arch/riscv/mach-gd32vf10x/bsp/gd32vf103_timer.c **** 
  41:arch/riscv/mach-gd32vf10x/bsp/gd32vf103_timer.c **** /*!
  42:arch/riscv/mach-gd32vf10x/bsp/gd32vf103_timer.c ****     \brief      deinit a timer
  43:arch/riscv/mach-gd32vf10x/bsp/gd32vf103_timer.c ****     \param[in]  timer_periph: TIMERx(x=0..13)
  44:arch/riscv/mach-gd32vf10x/bsp/gd32vf103_timer.c ****     \param[out] none
  45:arch/riscv/mach-gd32vf10x/bsp/gd32vf103_timer.c ****     \retval     none
  46:arch/riscv/mach-gd32vf10x/bsp/gd32vf103_timer.c **** */
  47:arch/riscv/mach-gd32vf10x/bsp/gd32vf103_timer.c **** void timer_deinit(uint32_t timer_periph)
GAS LISTING C:\Users\test\AppData\Local\Temp\ccx0JFmY.s 			page 2


  48:arch/riscv/mach-gd32vf10x/bsp/gd32vf103_timer.c **** {
  49:arch/riscv/mach-gd32vf10x/bsp/gd32vf103_timer.c ****     switch(timer_periph){
  50:arch/riscv/mach-gd32vf10x/bsp/gd32vf103_timer.c ****     case TIMER0:
  51:arch/riscv/mach-gd32vf10x/bsp/gd32vf103_timer.c ****         /* reset TIMER0 */
  52:arch/riscv/mach-gd32vf10x/bsp/gd32vf103_timer.c ****         rcu_periph_reset_enable(RCU_TIMER0RST);
  53:arch/riscv/mach-gd32vf10x/bsp/gd32vf103_timer.c ****         rcu_periph_reset_disable(RCU_TIMER0RST);
  54:arch/riscv/mach-gd32vf10x/bsp/gd32vf103_timer.c ****         break;
  55:arch/riscv/mach-gd32vf10x/bsp/gd32vf103_timer.c ****     case TIMER1:
  56:arch/riscv/mach-gd32vf10x/bsp/gd32vf103_timer.c ****         /* reset TIMER1 */
  57:arch/riscv/mach-gd32vf10x/bsp/gd32vf103_timer.c ****         rcu_periph_reset_enable(RCU_TIMER1RST);
  58:arch/riscv/mach-gd32vf10x/bsp/gd32vf103_timer.c ****         rcu_periph_reset_disable(RCU_TIMER1RST);
  59:arch/riscv/mach-gd32vf10x/bsp/gd32vf103_timer.c ****         break;
  60:arch/riscv/mach-gd32vf10x/bsp/gd32vf103_timer.c ****     case TIMER2:
  61:arch/riscv/mach-gd32vf10x/bsp/gd32vf103_timer.c ****         /* reset TIMER2 */
  62:arch/riscv/mach-gd32vf10x/bsp/gd32vf103_timer.c ****         rcu_periph_reset_enable(RCU_TIMER2RST);
  63:arch/riscv/mach-gd32vf10x/bsp/gd32vf103_timer.c ****         rcu_periph_reset_disable(RCU_TIMER2RST);
  64:arch/riscv/mach-gd32vf10x/bsp/gd32vf103_timer.c ****         break;
  65:arch/riscv/mach-gd32vf10x/bsp/gd32vf103_timer.c ****     case TIMER3:
  66:arch/riscv/mach-gd32vf10x/bsp/gd32vf103_timer.c ****         /* reset TIMER3 */
  67:arch/riscv/mach-gd32vf10x/bsp/gd32vf103_timer.c ****         rcu_periph_reset_enable(RCU_TIMER3RST);
  68:arch/riscv/mach-gd32vf10x/bsp/gd32vf103_timer.c ****         rcu_periph_reset_disable(RCU_TIMER3RST);
  69:arch/riscv/mach-gd32vf10x/bsp/gd32vf103_timer.c ****         break;
  70:arch/riscv/mach-gd32vf10x/bsp/gd32vf103_timer.c ****     case TIMER4:
  71:arch/riscv/mach-gd32vf10x/bsp/gd32vf103_timer.c ****         /* reset TIMER4 */
  72:arch/riscv/mach-gd32vf10x/bsp/gd32vf103_timer.c ****         rcu_periph_reset_enable(RCU_TIMER4RST);
  73:arch/riscv/mach-gd32vf10x/bsp/gd32vf103_timer.c ****         rcu_periph_reset_disable(RCU_TIMER4RST);
  74:arch/riscv/mach-gd32vf10x/bsp/gd32vf103_timer.c ****         break;
  75:arch/riscv/mach-gd32vf10x/bsp/gd32vf103_timer.c ****     case TIMER5:
  76:arch/riscv/mach-gd32vf10x/bsp/gd32vf103_timer.c ****         /* reset TIMER5 */
  77:arch/riscv/mach-gd32vf10x/bsp/gd32vf103_timer.c ****         rcu_periph_reset_enable(RCU_TIMER5RST);
  78:arch/riscv/mach-gd32vf10x/bsp/gd32vf103_timer.c ****         rcu_periph_reset_disable(RCU_TIMER5RST);
  79:arch/riscv/mach-gd32vf10x/bsp/gd32vf103_timer.c ****         break;
  80:arch/riscv/mach-gd32vf10x/bsp/gd32vf103_timer.c ****     case TIMER6:
  81:arch/riscv/mach-gd32vf10x/bsp/gd32vf103_timer.c ****         /* reset TIMER6 */
  82:arch/riscv/mach-gd32vf10x/bsp/gd32vf103_timer.c ****         rcu_periph_reset_enable(RCU_TIMER6RST);
  83:arch/riscv/mach-gd32vf10x/bsp/gd32vf103_timer.c ****         rcu_periph_reset_disable(RCU_TIMER6RST);
  84:arch/riscv/mach-gd32vf10x/bsp/gd32vf103_timer.c ****         break;
  85:arch/riscv/mach-gd32vf10x/bsp/gd32vf103_timer.c **** 
  86:arch/riscv/mach-gd32vf10x/bsp/gd32vf103_timer.c ****     default:
  87:arch/riscv/mach-gd32vf10x/bsp/gd32vf103_timer.c ****         break;
  88:arch/riscv/mach-gd32vf10x/bsp/gd32vf103_timer.c ****     }
  89:arch/riscv/mach-gd32vf10x/bsp/gd32vf103_timer.c **** }
  90:arch/riscv/mach-gd32vf10x/bsp/gd32vf103_timer.c **** 
  91:arch/riscv/mach-gd32vf10x/bsp/gd32vf103_timer.c **** /*!
  92:arch/riscv/mach-gd32vf10x/bsp/gd32vf103_timer.c ****     \brief      initialize TIMER init parameter struct with a default value
  93:arch/riscv/mach-gd32vf10x/bsp/gd32vf103_timer.c ****     \param[in]  initpara: init parameter struct
  94:arch/riscv/mach-gd32vf10x/bsp/gd32vf103_timer.c ****     \param[out] none
  95:arch/riscv/mach-gd32vf10x/bsp/gd32vf103_timer.c ****     \retval     none
  96:arch/riscv/mach-gd32vf10x/bsp/gd32vf103_timer.c **** */
  97:arch/riscv/mach-gd32vf10x/bsp/gd32vf103_timer.c **** void timer_struct_para_init(timer_parameter_struct* initpara)
  98:arch/riscv/mach-gd32vf10x/bsp/gd32vf103_timer.c **** {
  99:arch/riscv/mach-gd32vf10x/bsp/gd32vf103_timer.c ****     /* initialize the init parameter struct member with the default value */
 100:arch/riscv/mach-gd32vf10x/bsp/gd32vf103_timer.c ****     initpara->prescaler         = 0U;
 101:arch/riscv/mach-gd32vf10x/bsp/gd32vf103_timer.c ****     initpara->alignedmode       = TIMER_COUNTER_EDGE;
 102:arch/riscv/mach-gd32vf10x/bsp/gd32vf103_timer.c ****     initpara->counterdirection  = TIMER_COUNTER_UP;
 103:arch/riscv/mach-gd32vf10x/bsp/gd32vf103_timer.c ****     initpara->period            = 65535U;
 104:arch/riscv/mach-gd32vf10x/bsp/gd32vf103_timer.c ****     initpara->clockdivision     = TIMER_CKDIV_DIV1;
GAS LISTING C:\Users\test\AppData\Local\Temp\ccx0JFmY.s 			page 3


 105:arch/riscv/mach-gd32vf10x/bsp/gd32vf103_timer.c ****     initpara->repetitioncounter = 0U;
 106:arch/riscv/mach-gd32vf10x/bsp/gd32vf103_timer.c **** }
 107:arch/riscv/mach-gd32vf10x/bsp/gd32vf103_timer.c **** 
 108:arch/riscv/mach-gd32vf10x/bsp/gd32vf103_timer.c **** /*!
 109:arch/riscv/mach-gd32vf10x/bsp/gd32vf103_timer.c ****     \brief      initialize TIMER counter
 110:arch/riscv/mach-gd32vf10x/bsp/gd32vf103_timer.c ****     \param[in]  timer_periph: TIMERx(x=0..6)
 111:arch/riscv/mach-gd32vf10x/bsp/gd32vf103_timer.c ****     \param[in]  initpara: init parameter struct
 112:arch/riscv/mach-gd32vf10x/bsp/gd32vf103_timer.c ****                   prescaler: prescaler value of the counter clock, 0~65535
 113:arch/riscv/mach-gd32vf10x/bsp/gd32vf103_timer.c ****                   alignedmode: TIMER_COUNTER_EDGE, TIMER_COUNTER_CENTER_DOWN, TIMER_COUNTER_CENTER_
 114:arch/riscv/mach-gd32vf10x/bsp/gd32vf103_timer.c ****                                TIMER_COUNTER_CENTER_BOTH
 115:arch/riscv/mach-gd32vf10x/bsp/gd32vf103_timer.c ****                   counterdirection: TIMER_COUNTER_UP, TIMER_COUNTER_DOWN
 116:arch/riscv/mach-gd32vf10x/bsp/gd32vf103_timer.c ****                   period: counter auto reload value, 0~65535
 117:arch/riscv/mach-gd32vf10x/bsp/gd32vf103_timer.c ****                   clockdivision: TIMER_CKDIV_DIV1, TIMER_CKDIV_DIV2, TIMER_CKDIV_DIV4
 118:arch/riscv/mach-gd32vf10x/bsp/gd32vf103_timer.c ****                   repetitioncounter: counter repetition value, 0~255
 119:arch/riscv/mach-gd32vf10x/bsp/gd32vf103_timer.c ****     \param[out] none
 120:arch/riscv/mach-gd32vf10x/bsp/gd32vf103_timer.c ****     \retval     none
 121:arch/riscv/mach-gd32vf10x/bsp/gd32vf103_timer.c **** */
 122:arch/riscv/mach-gd32vf10x/bsp/gd32vf103_timer.c **** void timer_init(uint32_t timer_periph, timer_parameter_struct* initpara)
 123:arch/riscv/mach-gd32vf10x/bsp/gd32vf103_timer.c **** {
 124:arch/riscv/mach-gd32vf10x/bsp/gd32vf103_timer.c ****     /* configure the counter prescaler value */
 125:arch/riscv/mach-gd32vf10x/bsp/gd32vf103_timer.c ****     TIMER_PSC(timer_periph) = (uint16_t)initpara->prescaler;
 126:arch/riscv/mach-gd32vf10x/bsp/gd32vf103_timer.c **** 
 127:arch/riscv/mach-gd32vf10x/bsp/gd32vf103_timer.c ****     /* configure the counter direction and aligned mode */
 128:arch/riscv/mach-gd32vf10x/bsp/gd32vf103_timer.c ****     if((TIMER0 == timer_periph) || (TIMER1 == timer_periph) || (TIMER2 == timer_periph)
 129:arch/riscv/mach-gd32vf10x/bsp/gd32vf103_timer.c ****         || (TIMER3 == timer_periph) || (TIMER4 == timer_periph) ){
 130:arch/riscv/mach-gd32vf10x/bsp/gd32vf103_timer.c ****         TIMER_CTL0(timer_periph) &= (~(uint32_t)(TIMER_CTL0_DIR | TIMER_CTL0_CAM));
 131:arch/riscv/mach-gd32vf10x/bsp/gd32vf103_timer.c ****         TIMER_CTL0(timer_periph) |= (uint32_t)(initpara->alignedmode & ALIGNEDMODE_MASK);
 132:arch/riscv/mach-gd32vf10x/bsp/gd32vf103_timer.c ****         TIMER_CTL0(timer_periph) |= (uint32_t)(initpara->counterdirection & COUNTERDIRECTION_MASK);
 133:arch/riscv/mach-gd32vf10x/bsp/gd32vf103_timer.c ****     }else{
 134:arch/riscv/mach-gd32vf10x/bsp/gd32vf103_timer.c ****         TIMER_CTL0(timer_periph) &= (uint32_t)(~ TIMER_CTL0_DIR);
 135:arch/riscv/mach-gd32vf10x/bsp/gd32vf103_timer.c ****         TIMER_CTL0(timer_periph) |= (uint32_t)(initpara->counterdirection & COUNTERDIRECTION_MASK);
 136:arch/riscv/mach-gd32vf10x/bsp/gd32vf103_timer.c ****     }
 137:arch/riscv/mach-gd32vf10x/bsp/gd32vf103_timer.c ****     
 138:arch/riscv/mach-gd32vf10x/bsp/gd32vf103_timer.c ****     /* configure the autoreload value */
 139:arch/riscv/mach-gd32vf10x/bsp/gd32vf103_timer.c ****     TIMER_CAR(timer_periph) = (uint32_t)initpara->period;
 140:arch/riscv/mach-gd32vf10x/bsp/gd32vf103_timer.c **** 
 141:arch/riscv/mach-gd32vf10x/bsp/gd32vf103_timer.c ****     if((TIMER5 != timer_periph) && (TIMER6 != timer_periph)){
 142:arch/riscv/mach-gd32vf10x/bsp/gd32vf103_timer.c ****         /* reset the CKDIV bit */
 143:arch/riscv/mach-gd32vf10x/bsp/gd32vf103_timer.c ****         TIMER_CTL0(timer_periph) &= (~(uint32_t)TIMER_CTL0_CKDIV);
 144:arch/riscv/mach-gd32vf10x/bsp/gd32vf103_timer.c ****         TIMER_CTL0(timer_periph) |= (uint32_t)(initpara->clockdivision & CLOCKDIVISION_MASK);
 145:arch/riscv/mach-gd32vf10x/bsp/gd32vf103_timer.c ****     }
 146:arch/riscv/mach-gd32vf10x/bsp/gd32vf103_timer.c **** 
 147:arch/riscv/mach-gd32vf10x/bsp/gd32vf103_timer.c ****     if (TIMER0 == timer_periph) {
 148:arch/riscv/mach-gd32vf10x/bsp/gd32vf103_timer.c ****         /* configure the repetition counter value */
 149:arch/riscv/mach-gd32vf10x/bsp/gd32vf103_timer.c ****         TIMER_CREP(timer_periph) = (uint32_t)initpara->repetitioncounter;
 150:arch/riscv/mach-gd32vf10x/bsp/gd32vf103_timer.c ****     }
 151:arch/riscv/mach-gd32vf10x/bsp/gd32vf103_timer.c **** 
 152:arch/riscv/mach-gd32vf10x/bsp/gd32vf103_timer.c ****     /* generate an update event */
 153:arch/riscv/mach-gd32vf10x/bsp/gd32vf103_timer.c ****     TIMER_SWEVG(timer_periph) |= (uint32_t)TIMER_SWEVG_UPG;
 154:arch/riscv/mach-gd32vf10x/bsp/gd32vf103_timer.c **** }
 155:arch/riscv/mach-gd32vf10x/bsp/gd32vf103_timer.c **** 
 156:arch/riscv/mach-gd32vf10x/bsp/gd32vf103_timer.c **** /*!
 157:arch/riscv/mach-gd32vf10x/bsp/gd32vf103_timer.c ****     \brief      enable a timer
 158:arch/riscv/mach-gd32vf10x/bsp/gd32vf103_timer.c ****     \param[in]  timer_periph: TIMERx(x=0..6)
 159:arch/riscv/mach-gd32vf10x/bsp/gd32vf103_timer.c ****     \param[out] none
 160:arch/riscv/mach-gd32vf10x/bsp/gd32vf103_timer.c ****     \retval     none
 161:arch/riscv/mach-gd32vf10x/bsp/gd32vf103_timer.c **** */
GAS LISTING C:\Users\test\AppData\Local\Temp\ccx0JFmY.s 			page 4


 162:arch/riscv/mach-gd32vf10x/bsp/gd32vf103_timer.c **** void timer_enable(uint32_t timer_periph)
 163:arch/riscv/mach-gd32vf10x/bsp/gd32vf103_timer.c **** {
 164:arch/riscv/mach-gd32vf10x/bsp/gd32vf103_timer.c ****     TIMER_CTL0(timer_periph) |= (uint32_t)TIMER_CTL0_CEN;
 165:arch/riscv/mach-gd32vf10x/bsp/gd32vf103_timer.c **** }
 166:arch/riscv/mach-gd32vf10x/bsp/gd32vf103_timer.c **** 
 167:arch/riscv/mach-gd32vf10x/bsp/gd32vf103_timer.c **** /*!
 168:arch/riscv/mach-gd32vf10x/bsp/gd32vf103_timer.c ****     \brief      disable a timer
 169:arch/riscv/mach-gd32vf10x/bsp/gd32vf103_timer.c ****     \param[in]  timer_periph: TIMERx(x=0..13)
 170:arch/riscv/mach-gd32vf10x/bsp/gd32vf103_timer.c ****     \param[out] none
 171:arch/riscv/mach-gd32vf10x/bsp/gd32vf103_timer.c ****     \retval     none
 172:arch/riscv/mach-gd32vf10x/bsp/gd32vf103_timer.c **** */
 173:arch/riscv/mach-gd32vf10x/bsp/gd32vf103_timer.c **** void timer_disable(uint32_t timer_periph)
 174:arch/riscv/mach-gd32vf10x/bsp/gd32vf103_timer.c **** {
 175:arch/riscv/mach-gd32vf10x/bsp/gd32vf103_timer.c ****     TIMER_CTL0(timer_periph) &= ~(uint32_t)TIMER_CTL0_CEN;
 176:arch/riscv/mach-gd32vf10x/bsp/gd32vf103_timer.c **** }
 177:arch/riscv/mach-gd32vf10x/bsp/gd32vf103_timer.c **** 
 178:arch/riscv/mach-gd32vf10x/bsp/gd32vf103_timer.c **** /*!
 179:arch/riscv/mach-gd32vf10x/bsp/gd32vf103_timer.c ****     \brief      enable the auto reload shadow function
 180:arch/riscv/mach-gd32vf10x/bsp/gd32vf103_timer.c ****     \param[in]  timer_periph: TIMERx(x=0..6)
 181:arch/riscv/mach-gd32vf10x/bsp/gd32vf103_timer.c ****     \param[out] none
 182:arch/riscv/mach-gd32vf10x/bsp/gd32vf103_timer.c ****     \retval     none
 183:arch/riscv/mach-gd32vf10x/bsp/gd32vf103_timer.c **** */
 184:arch/riscv/mach-gd32vf10x/bsp/gd32vf103_timer.c **** void timer_auto_reload_shadow_enable(uint32_t timer_periph)
 185:arch/riscv/mach-gd32vf10x/bsp/gd32vf103_timer.c **** {
 186:arch/riscv/mach-gd32vf10x/bsp/gd32vf103_timer.c ****     TIMER_CTL0(timer_periph) |= (uint32_t)TIMER_CTL0_ARSE;
 187:arch/riscv/mach-gd32vf10x/bsp/gd32vf103_timer.c **** }
 188:arch/riscv/mach-gd32vf10x/bsp/gd32vf103_timer.c **** 
 189:arch/riscv/mach-gd32vf10x/bsp/gd32vf103_timer.c **** /*!
 190:arch/riscv/mach-gd32vf10x/bsp/gd32vf103_timer.c ****     \brief      disable the auto reload shadow function
 191:arch/riscv/mach-gd32vf10x/bsp/gd32vf103_timer.c ****     \param[in]  timer_periph: TIMERx(x=0..6)
 192:arch/riscv/mach-gd32vf10x/bsp/gd32vf103_timer.c ****     \param[out] none
 193:arch/riscv/mach-gd32vf10x/bsp/gd32vf103_timer.c ****     \retval     none
 194:arch/riscv/mach-gd32vf10x/bsp/gd32vf103_timer.c **** */
 195:arch/riscv/mach-gd32vf10x/bsp/gd32vf103_timer.c **** void timer_auto_reload_shadow_disable(uint32_t timer_periph)
 196:arch/riscv/mach-gd32vf10x/bsp/gd32vf103_timer.c **** {
 197:arch/riscv/mach-gd32vf10x/bsp/gd32vf103_timer.c ****     TIMER_CTL0(timer_periph) &= ~(uint32_t)TIMER_CTL0_ARSE;
 198:arch/riscv/mach-gd32vf10x/bsp/gd32vf103_timer.c **** }
 199:arch/riscv/mach-gd32vf10x/bsp/gd32vf103_timer.c **** 
 200:arch/riscv/mach-gd32vf10x/bsp/gd32vf103_timer.c **** /*!
 201:arch/riscv/mach-gd32vf10x/bsp/gd32vf103_timer.c ****     \brief      enable the update event
 202:arch/riscv/mach-gd32vf10x/bsp/gd32vf103_timer.c ****     \param[in]  timer_periph: TIMERx(x=0..6)
 203:arch/riscv/mach-gd32vf10x/bsp/gd32vf103_timer.c ****     \param[out] none
 204:arch/riscv/mach-gd32vf10x/bsp/gd32vf103_timer.c ****     \retval     none
 205:arch/riscv/mach-gd32vf10x/bsp/gd32vf103_timer.c **** */
 206:arch/riscv/mach-gd32vf10x/bsp/gd32vf103_timer.c **** void timer_update_event_enable(uint32_t timer_periph)
 207:arch/riscv/mach-gd32vf10x/bsp/gd32vf103_timer.c **** {
 208:arch/riscv/mach-gd32vf10x/bsp/gd32vf103_timer.c ****     TIMER_CTL0(timer_periph) &= ~(uint32_t)TIMER_CTL0_UPDIS;
 209:arch/riscv/mach-gd32vf10x/bsp/gd32vf103_timer.c **** }
 210:arch/riscv/mach-gd32vf10x/bsp/gd32vf103_timer.c **** 
 211:arch/riscv/mach-gd32vf10x/bsp/gd32vf103_timer.c **** /*!
 212:arch/riscv/mach-gd32vf10x/bsp/gd32vf103_timer.c ****     \brief      disable the update event
 213:arch/riscv/mach-gd32vf10x/bsp/gd32vf103_timer.c ****     \param[in]  timer_periph: TIMERx(x=0..6)
 214:arch/riscv/mach-gd32vf10x/bsp/gd32vf103_timer.c ****     \param[out] none
 215:arch/riscv/mach-gd32vf10x/bsp/gd32vf103_timer.c ****     \retval     none
 216:arch/riscv/mach-gd32vf10x/bsp/gd32vf103_timer.c **** */
 217:arch/riscv/mach-gd32vf10x/bsp/gd32vf103_timer.c **** void timer_update_event_disable(uint32_t timer_periph)
 218:arch/riscv/mach-gd32vf10x/bsp/gd32vf103_timer.c **** {
GAS LISTING C:\Users\test\AppData\Local\Temp\ccx0JFmY.s 			page 5


 219:arch/riscv/mach-gd32vf10x/bsp/gd32vf103_timer.c ****     TIMER_CTL0(timer_periph) |= (uint32_t) TIMER_CTL0_UPDIS;
 220:arch/riscv/mach-gd32vf10x/bsp/gd32vf103_timer.c **** }
 221:arch/riscv/mach-gd32vf10x/bsp/gd32vf103_timer.c **** 
 222:arch/riscv/mach-gd32vf10x/bsp/gd32vf103_timer.c **** /*!
 223:arch/riscv/mach-gd32vf10x/bsp/gd32vf103_timer.c ****     \brief      set TIMER counter alignment mode
 224:arch/riscv/mach-gd32vf10x/bsp/gd32vf103_timer.c ****     \param[in]  timer_periph: TIMERx(x=0..4)
 225:arch/riscv/mach-gd32vf10x/bsp/gd32vf103_timer.c ****     \param[in]  aligned: 
 226:arch/riscv/mach-gd32vf10x/bsp/gd32vf103_timer.c ****                 only one parameter can be selected which is shown as below:
 227:arch/riscv/mach-gd32vf10x/bsp/gd32vf103_timer.c ****       \arg        TIMER_COUNTER_EDGE: edge-aligned mode
 228:arch/riscv/mach-gd32vf10x/bsp/gd32vf103_timer.c ****       \arg        TIMER_COUNTER_CENTER_DOWN: center-aligned and counting down assert mode
 229:arch/riscv/mach-gd32vf10x/bsp/gd32vf103_timer.c ****       \arg        TIMER_COUNTER_CENTER_UP: center-aligned and counting up assert mode
 230:arch/riscv/mach-gd32vf10x/bsp/gd32vf103_timer.c ****       \arg        TIMER_COUNTER_CENTER_BOTH: center-aligned and counting up/down assert mode
 231:arch/riscv/mach-gd32vf10x/bsp/gd32vf103_timer.c ****     \param[out] none
 232:arch/riscv/mach-gd32vf10x/bsp/gd32vf103_timer.c ****     \retval     none
 233:arch/riscv/mach-gd32vf10x/bsp/gd32vf103_timer.c **** */
 234:arch/riscv/mach-gd32vf10x/bsp/gd32vf103_timer.c **** void timer_counter_alignment(uint32_t timer_periph, uint16_t aligned)
 235:arch/riscv/mach-gd32vf10x/bsp/gd32vf103_timer.c **** {
 236:arch/riscv/mach-gd32vf10x/bsp/gd32vf103_timer.c ****     TIMER_CTL0(timer_periph) &= (uint32_t)(~TIMER_CTL0_CAM);
 237:arch/riscv/mach-gd32vf10x/bsp/gd32vf103_timer.c ****     TIMER_CTL0(timer_periph) |= (uint32_t)aligned;
 238:arch/riscv/mach-gd32vf10x/bsp/gd32vf103_timer.c **** }
 239:arch/riscv/mach-gd32vf10x/bsp/gd32vf103_timer.c **** 
 240:arch/riscv/mach-gd32vf10x/bsp/gd32vf103_timer.c **** /*!
 241:arch/riscv/mach-gd32vf10x/bsp/gd32vf103_timer.c ****     \brief      set TIMER counter up direction
 242:arch/riscv/mach-gd32vf10x/bsp/gd32vf103_timer.c ****     \param[in]  timer_periph: TIMERx(x=0..4)
 243:arch/riscv/mach-gd32vf10x/bsp/gd32vf103_timer.c ****     \param[out] none
 244:arch/riscv/mach-gd32vf10x/bsp/gd32vf103_timer.c ****     \retval     none
 245:arch/riscv/mach-gd32vf10x/bsp/gd32vf103_timer.c **** */
 246:arch/riscv/mach-gd32vf10x/bsp/gd32vf103_timer.c **** void timer_counter_up_direction(uint32_t timer_periph)
 247:arch/riscv/mach-gd32vf10x/bsp/gd32vf103_timer.c **** {
 248:arch/riscv/mach-gd32vf10x/bsp/gd32vf103_timer.c ****     TIMER_CTL0(timer_periph) &= ~(uint32_t)TIMER_CTL0_DIR;
 249:arch/riscv/mach-gd32vf10x/bsp/gd32vf103_timer.c **** }
 250:arch/riscv/mach-gd32vf10x/bsp/gd32vf103_timer.c **** 
 251:arch/riscv/mach-gd32vf10x/bsp/gd32vf103_timer.c **** /*!
 252:arch/riscv/mach-gd32vf10x/bsp/gd32vf103_timer.c ****     \brief      set TIMER counter down direction
 253:arch/riscv/mach-gd32vf10x/bsp/gd32vf103_timer.c ****     \param[in]  timer_periph: TIMERx(x=0..4)
 254:arch/riscv/mach-gd32vf10x/bsp/gd32vf103_timer.c ****     \param[out] none
 255:arch/riscv/mach-gd32vf10x/bsp/gd32vf103_timer.c ****     \retval     none
 256:arch/riscv/mach-gd32vf10x/bsp/gd32vf103_timer.c **** */
 257:arch/riscv/mach-gd32vf10x/bsp/gd32vf103_timer.c **** void timer_counter_down_direction(uint32_t timer_periph)
 258:arch/riscv/mach-gd32vf10x/bsp/gd32vf103_timer.c **** {
 259:arch/riscv/mach-gd32vf10x/bsp/gd32vf103_timer.c ****     TIMER_CTL0(timer_periph) |= (uint32_t)TIMER_CTL0_DIR;
 260:arch/riscv/mach-gd32vf10x/bsp/gd32vf103_timer.c **** }
 261:arch/riscv/mach-gd32vf10x/bsp/gd32vf103_timer.c **** 
 262:arch/riscv/mach-gd32vf10x/bsp/gd32vf103_timer.c **** /*!
 263:arch/riscv/mach-gd32vf10x/bsp/gd32vf103_timer.c ****     \brief      configure TIMER prescaler
 264:arch/riscv/mach-gd32vf10x/bsp/gd32vf103_timer.c ****     \param[in]  timer_periph: TIMERx(x=0..6)
 265:arch/riscv/mach-gd32vf10x/bsp/gd32vf103_timer.c ****     \param[in]  prescaler: prescaler value
 266:arch/riscv/mach-gd32vf10x/bsp/gd32vf103_timer.c ****     \param[in]  pscreload: prescaler reload mode
 267:arch/riscv/mach-gd32vf10x/bsp/gd32vf103_timer.c ****                 only one parameter can be selected which is shown as below:
 268:arch/riscv/mach-gd32vf10x/bsp/gd32vf103_timer.c ****       \arg        TIMER_PSC_RELOAD_NOW: the prescaler is loaded right now
 269:arch/riscv/mach-gd32vf10x/bsp/gd32vf103_timer.c ****       \arg        TIMER_PSC_RELOAD_UPDATE: the prescaler is loaded at the next update event
 270:arch/riscv/mach-gd32vf10x/bsp/gd32vf103_timer.c ****     \param[out] none
 271:arch/riscv/mach-gd32vf10x/bsp/gd32vf103_timer.c ****     \retval     none
 272:arch/riscv/mach-gd32vf10x/bsp/gd32vf103_timer.c **** */
 273:arch/riscv/mach-gd32vf10x/bsp/gd32vf103_timer.c **** void timer_prescaler_config(uint32_t timer_periph, uint16_t prescaler, uint32_t pscreload)
 274:arch/riscv/mach-gd32vf10x/bsp/gd32vf103_timer.c **** {
 275:arch/riscv/mach-gd32vf10x/bsp/gd32vf103_timer.c ****     TIMER_PSC(timer_periph) = (uint32_t)prescaler;
GAS LISTING C:\Users\test\AppData\Local\Temp\ccx0JFmY.s 			page 6


 276:arch/riscv/mach-gd32vf10x/bsp/gd32vf103_timer.c ****     
 277:arch/riscv/mach-gd32vf10x/bsp/gd32vf103_timer.c ****     if(TIMER_PSC_RELOAD_NOW == pscreload){
 278:arch/riscv/mach-gd32vf10x/bsp/gd32vf103_timer.c ****         TIMER_SWEVG(timer_periph) |= (uint32_t)TIMER_SWEVG_UPG;
 279:arch/riscv/mach-gd32vf10x/bsp/gd32vf103_timer.c ****     }
 280:arch/riscv/mach-gd32vf10x/bsp/gd32vf103_timer.c **** }
 281:arch/riscv/mach-gd32vf10x/bsp/gd32vf103_timer.c **** 
 282:arch/riscv/mach-gd32vf10x/bsp/gd32vf103_timer.c **** /*!
 283:arch/riscv/mach-gd32vf10x/bsp/gd32vf103_timer.c ****     \brief      configure TIMER repetition register value
 284:arch/riscv/mach-gd32vf10x/bsp/gd32vf103_timer.c ****     \param[in]  timer_periph: TIMERx(x=0)
 285:arch/riscv/mach-gd32vf10x/bsp/gd32vf103_timer.c ****     \param[in]  repetition: the counter repetition value, 0~255
 286:arch/riscv/mach-gd32vf10x/bsp/gd32vf103_timer.c ****     \param[out] none
 287:arch/riscv/mach-gd32vf10x/bsp/gd32vf103_timer.c ****     \retval     none
 288:arch/riscv/mach-gd32vf10x/bsp/gd32vf103_timer.c **** */
 289:arch/riscv/mach-gd32vf10x/bsp/gd32vf103_timer.c **** void timer_repetition_value_config(uint32_t timer_periph, uint16_t repetition)
 290:arch/riscv/mach-gd32vf10x/bsp/gd32vf103_timer.c **** {
 291:arch/riscv/mach-gd32vf10x/bsp/gd32vf103_timer.c ****     TIMER_CREP(timer_periph) = (uint32_t)repetition;
 292:arch/riscv/mach-gd32vf10x/bsp/gd32vf103_timer.c **** } 
 293:arch/riscv/mach-gd32vf10x/bsp/gd32vf103_timer.c ****  
 294:arch/riscv/mach-gd32vf10x/bsp/gd32vf103_timer.c **** /*!
 295:arch/riscv/mach-gd32vf10x/bsp/gd32vf103_timer.c ****     \brief      configure TIMER autoreload register value
 296:arch/riscv/mach-gd32vf10x/bsp/gd32vf103_timer.c ****     \param[in]  timer_periph: TIMERx(x=0..6)
 297:arch/riscv/mach-gd32vf10x/bsp/gd32vf103_timer.c ****     \param[in]  autoreload: the counter auto-reload value
 298:arch/riscv/mach-gd32vf10x/bsp/gd32vf103_timer.c ****     \param[out] none
 299:arch/riscv/mach-gd32vf10x/bsp/gd32vf103_timer.c ****     \retval     none
 300:arch/riscv/mach-gd32vf10x/bsp/gd32vf103_timer.c **** */         
 301:arch/riscv/mach-gd32vf10x/bsp/gd32vf103_timer.c **** void timer_autoreload_value_config(uint32_t timer_periph, uint16_t autoreload)
 302:arch/riscv/mach-gd32vf10x/bsp/gd32vf103_timer.c **** {
 303:arch/riscv/mach-gd32vf10x/bsp/gd32vf103_timer.c ****     TIMER_CAR(timer_periph) = (uint32_t)autoreload;
 304:arch/riscv/mach-gd32vf10x/bsp/gd32vf103_timer.c **** }
 305:arch/riscv/mach-gd32vf10x/bsp/gd32vf103_timer.c **** 
 306:arch/riscv/mach-gd32vf10x/bsp/gd32vf103_timer.c **** /*!
 307:arch/riscv/mach-gd32vf10x/bsp/gd32vf103_timer.c ****     \brief      configure TIMER counter register value
 308:arch/riscv/mach-gd32vf10x/bsp/gd32vf103_timer.c ****     \param[in]  timer_periph: TIMERx(x=0..6)
 309:arch/riscv/mach-gd32vf10x/bsp/gd32vf103_timer.c ****     \param[in]  counter: the counter value
 310:arch/riscv/mach-gd32vf10x/bsp/gd32vf103_timer.c ****     \param[out] none
 311:arch/riscv/mach-gd32vf10x/bsp/gd32vf103_timer.c ****     \retval     none
 312:arch/riscv/mach-gd32vf10x/bsp/gd32vf103_timer.c **** */         
 313:arch/riscv/mach-gd32vf10x/bsp/gd32vf103_timer.c **** void timer_counter_value_config(uint32_t timer_periph, uint16_t counter)
 314:arch/riscv/mach-gd32vf10x/bsp/gd32vf103_timer.c **** {
 315:arch/riscv/mach-gd32vf10x/bsp/gd32vf103_timer.c ****     TIMER_CNT(timer_periph) = (uint32_t)counter;
 316:arch/riscv/mach-gd32vf10x/bsp/gd32vf103_timer.c **** }
 317:arch/riscv/mach-gd32vf10x/bsp/gd32vf103_timer.c **** 
 318:arch/riscv/mach-gd32vf10x/bsp/gd32vf103_timer.c **** /*!
 319:arch/riscv/mach-gd32vf10x/bsp/gd32vf103_timer.c ****     \brief      read TIMER counter value
 320:arch/riscv/mach-gd32vf10x/bsp/gd32vf103_timer.c ****     \param[in]  timer_periph: TIMERx(x=0..6)
 321:arch/riscv/mach-gd32vf10x/bsp/gd32vf103_timer.c ****     \param[out] none
 322:arch/riscv/mach-gd32vf10x/bsp/gd32vf103_timer.c ****     \retval     counter value
 323:arch/riscv/mach-gd32vf10x/bsp/gd32vf103_timer.c **** */         
 324:arch/riscv/mach-gd32vf10x/bsp/gd32vf103_timer.c **** uint32_t timer_counter_read(uint32_t timer_periph)
 325:arch/riscv/mach-gd32vf10x/bsp/gd32vf103_timer.c **** {
 326:arch/riscv/mach-gd32vf10x/bsp/gd32vf103_timer.c ****     uint32_t count_value = 0U;
 327:arch/riscv/mach-gd32vf10x/bsp/gd32vf103_timer.c ****     count_value = TIMER_CNT(timer_periph);
 328:arch/riscv/mach-gd32vf10x/bsp/gd32vf103_timer.c ****     return (count_value);
 329:arch/riscv/mach-gd32vf10x/bsp/gd32vf103_timer.c **** }
 330:arch/riscv/mach-gd32vf10x/bsp/gd32vf103_timer.c **** 
 331:arch/riscv/mach-gd32vf10x/bsp/gd32vf103_timer.c **** /*!
 332:arch/riscv/mach-gd32vf10x/bsp/gd32vf103_timer.c ****     \brief      read TIMER prescaler value
GAS LISTING C:\Users\test\AppData\Local\Temp\ccx0JFmY.s 			page 7


 333:arch/riscv/mach-gd32vf10x/bsp/gd32vf103_timer.c ****     \param[in]  timer_periph: TIMERx(x=0..6)
 334:arch/riscv/mach-gd32vf10x/bsp/gd32vf103_timer.c ****     \param[out] none
 335:arch/riscv/mach-gd32vf10x/bsp/gd32vf103_timer.c ****     \retval     prescaler register value
 336:arch/riscv/mach-gd32vf10x/bsp/gd32vf103_timer.c **** */         
 337:arch/riscv/mach-gd32vf10x/bsp/gd32vf103_timer.c **** uint16_t timer_prescaler_read(uint32_t timer_periph)
 338:arch/riscv/mach-gd32vf10x/bsp/gd32vf103_timer.c **** {
 339:arch/riscv/mach-gd32vf10x/bsp/gd32vf103_timer.c ****     uint16_t prescaler_value = 0U;
 340:arch/riscv/mach-gd32vf10x/bsp/gd32vf103_timer.c ****     prescaler_value = (uint16_t) (TIMER_PSC(timer_periph));
 341:arch/riscv/mach-gd32vf10x/bsp/gd32vf103_timer.c ****     return (prescaler_value);
 342:arch/riscv/mach-gd32vf10x/bsp/gd32vf103_timer.c **** }
 343:arch/riscv/mach-gd32vf10x/bsp/gd32vf103_timer.c **** 
 344:arch/riscv/mach-gd32vf10x/bsp/gd32vf103_timer.c **** /*!
 345:arch/riscv/mach-gd32vf10x/bsp/gd32vf103_timer.c ****     \brief      configure TIMER single pulse mode
 346:arch/riscv/mach-gd32vf10x/bsp/gd32vf103_timer.c ****     \param[in]  timer_periph: TIMERx(x=0..6)
 347:arch/riscv/mach-gd32vf10x/bsp/gd32vf103_timer.c ****     \param[in]  spmode:
 348:arch/riscv/mach-gd32vf10x/bsp/gd32vf103_timer.c ****                 only one parameter can be selected which is shown as below:
 349:arch/riscv/mach-gd32vf10x/bsp/gd32vf103_timer.c ****       \arg        TIMER_SP_MODE_SINGLE: single pulse mode
 350:arch/riscv/mach-gd32vf10x/bsp/gd32vf103_timer.c ****       \arg        TIMER_SP_MODE_REPETITIVE: repetitive pulse mode
 351:arch/riscv/mach-gd32vf10x/bsp/gd32vf103_timer.c ****     \param[out] none
 352:arch/riscv/mach-gd32vf10x/bsp/gd32vf103_timer.c ****     \retval     none
 353:arch/riscv/mach-gd32vf10x/bsp/gd32vf103_timer.c **** */
 354:arch/riscv/mach-gd32vf10x/bsp/gd32vf103_timer.c **** void timer_single_pulse_mode_config(uint32_t timer_periph, uint32_t spmode)
 355:arch/riscv/mach-gd32vf10x/bsp/gd32vf103_timer.c **** {
 356:arch/riscv/mach-gd32vf10x/bsp/gd32vf103_timer.c ****     if(TIMER_SP_MODE_SINGLE == spmode){
 357:arch/riscv/mach-gd32vf10x/bsp/gd32vf103_timer.c ****         TIMER_CTL0(timer_periph) |= (uint32_t)TIMER_CTL0_SPM;
 358:arch/riscv/mach-gd32vf10x/bsp/gd32vf103_timer.c ****     }else if(TIMER_SP_MODE_REPETITIVE == spmode){
 359:arch/riscv/mach-gd32vf10x/bsp/gd32vf103_timer.c ****         TIMER_CTL0(timer_periph) &= ~((uint32_t)TIMER_CTL0_SPM);
 360:arch/riscv/mach-gd32vf10x/bsp/gd32vf103_timer.c ****     }else{
 361:arch/riscv/mach-gd32vf10x/bsp/gd32vf103_timer.c ****         /* illegal parameters */        
 362:arch/riscv/mach-gd32vf10x/bsp/gd32vf103_timer.c ****     }
 363:arch/riscv/mach-gd32vf10x/bsp/gd32vf103_timer.c **** }
 364:arch/riscv/mach-gd32vf10x/bsp/gd32vf103_timer.c **** 
 365:arch/riscv/mach-gd32vf10x/bsp/gd32vf103_timer.c **** /*!
 366:arch/riscv/mach-gd32vf10x/bsp/gd32vf103_timer.c ****     \brief      configure TIMER update source 
 367:arch/riscv/mach-gd32vf10x/bsp/gd32vf103_timer.c ****     \param[in]  timer_periph: TIMERx(x=0..6)
 368:arch/riscv/mach-gd32vf10x/bsp/gd32vf103_timer.c ****     \param[in]  update:
 369:arch/riscv/mach-gd32vf10x/bsp/gd32vf103_timer.c ****                 only one parameter can be selected which is shown as below:
 370:arch/riscv/mach-gd32vf10x/bsp/gd32vf103_timer.c ****       \arg        TIMER_UPDATE_SRC_GLOBAL: update generate by setting of UPG bit or the counter ove
 371:arch/riscv/mach-gd32vf10x/bsp/gd32vf103_timer.c ****                                            or the slave mode controller trigger
 372:arch/riscv/mach-gd32vf10x/bsp/gd32vf103_timer.c ****       \arg        TIMER_UPDATE_SRC_REGULAR: update generate only by counter overflow/underflow
 373:arch/riscv/mach-gd32vf10x/bsp/gd32vf103_timer.c ****     \param[out] none
 374:arch/riscv/mach-gd32vf10x/bsp/gd32vf103_timer.c ****     \retval     none
 375:arch/riscv/mach-gd32vf10x/bsp/gd32vf103_timer.c **** */
 376:arch/riscv/mach-gd32vf10x/bsp/gd32vf103_timer.c **** void timer_update_source_config(uint32_t timer_periph, uint32_t update)
 377:arch/riscv/mach-gd32vf10x/bsp/gd32vf103_timer.c **** {
 378:arch/riscv/mach-gd32vf10x/bsp/gd32vf103_timer.c ****     if(TIMER_UPDATE_SRC_REGULAR == update){
 379:arch/riscv/mach-gd32vf10x/bsp/gd32vf103_timer.c ****         TIMER_CTL0(timer_periph) |= (uint32_t)TIMER_CTL0_UPS;
 380:arch/riscv/mach-gd32vf10x/bsp/gd32vf103_timer.c ****     }else if(TIMER_UPDATE_SRC_GLOBAL == update){
 381:arch/riscv/mach-gd32vf10x/bsp/gd32vf103_timer.c ****         TIMER_CTL0(timer_periph) &= ~(uint32_t)TIMER_CTL0_UPS;
 382:arch/riscv/mach-gd32vf10x/bsp/gd32vf103_timer.c ****     }else{
 383:arch/riscv/mach-gd32vf10x/bsp/gd32vf103_timer.c ****         /* illegal parameters */        
 384:arch/riscv/mach-gd32vf10x/bsp/gd32vf103_timer.c ****     }
 385:arch/riscv/mach-gd32vf10x/bsp/gd32vf103_timer.c **** }
 386:arch/riscv/mach-gd32vf10x/bsp/gd32vf103_timer.c **** 
 387:arch/riscv/mach-gd32vf10x/bsp/gd32vf103_timer.c **** /*!
 388:arch/riscv/mach-gd32vf10x/bsp/gd32vf103_timer.c ****     \brief      enable the TIMER DMA
 389:arch/riscv/mach-gd32vf10x/bsp/gd32vf103_timer.c ****     \param[in]  timer_periph: TIMERx(x=0..6)
GAS LISTING C:\Users\test\AppData\Local\Temp\ccx0JFmY.s 			page 8


 390:arch/riscv/mach-gd32vf10x/bsp/gd32vf103_timer.c ****     \param[in]  dma: specify which DMA to enable
 391:arch/riscv/mach-gd32vf10x/bsp/gd32vf103_timer.c ****                 one or more parameters can be selected which are shown as below:
 392:arch/riscv/mach-gd32vf10x/bsp/gd32vf103_timer.c ****       \arg        TIMER_DMA_UPD:  update DMA enable, TIMERx(x=0..6)
 393:arch/riscv/mach-gd32vf10x/bsp/gd32vf103_timer.c ****       \arg        TIMER_DMA_CH0D: channel 0 DMA enable, TIMERx(x=0..4)
 394:arch/riscv/mach-gd32vf10x/bsp/gd32vf103_timer.c ****       \arg        TIMER_DMA_CH1D: channel 1 DMA enable, TIMERx(x=0..4)
 395:arch/riscv/mach-gd32vf10x/bsp/gd32vf103_timer.c ****       \arg        TIMER_DMA_CH2D: channel 2 DMA enable, TIMERx(x=0..4)
 396:arch/riscv/mach-gd32vf10x/bsp/gd32vf103_timer.c ****       \arg        TIMER_DMA_CH3D: channel 3 DMA enable, TIMERx(x=0..4)
 397:arch/riscv/mach-gd32vf10x/bsp/gd32vf103_timer.c ****       \arg        TIMER_DMA_CMTD: channel commutation DMA request enable, TIMERx(x=0)
 398:arch/riscv/mach-gd32vf10x/bsp/gd32vf103_timer.c ****       \arg        TIMER_DMA_TRGD: trigger DMA enable, TIMERx(x=0..4)
 399:arch/riscv/mach-gd32vf10x/bsp/gd32vf103_timer.c ****     \param[out] none
 400:arch/riscv/mach-gd32vf10x/bsp/gd32vf103_timer.c ****     \retval     none
 401:arch/riscv/mach-gd32vf10x/bsp/gd32vf103_timer.c **** */
 402:arch/riscv/mach-gd32vf10x/bsp/gd32vf103_timer.c **** void timer_dma_enable(uint32_t timer_periph, uint16_t dma)
 403:arch/riscv/mach-gd32vf10x/bsp/gd32vf103_timer.c **** {
 404:arch/riscv/mach-gd32vf10x/bsp/gd32vf103_timer.c ****     TIMER_DMAINTEN(timer_periph) |= (uint32_t) dma; 
 405:arch/riscv/mach-gd32vf10x/bsp/gd32vf103_timer.c **** }
 406:arch/riscv/mach-gd32vf10x/bsp/gd32vf103_timer.c **** 
 407:arch/riscv/mach-gd32vf10x/bsp/gd32vf103_timer.c **** /*!
 408:arch/riscv/mach-gd32vf10x/bsp/gd32vf103_timer.c ****     \brief      disable the TIMER DMA
 409:arch/riscv/mach-gd32vf10x/bsp/gd32vf103_timer.c ****     \param[in]  timer_periph: TIMERxTIMERx(x=0..6)
 410:arch/riscv/mach-gd32vf10x/bsp/gd32vf103_timer.c ****     \param[in]  dma: specify which DMA to disbale
 411:arch/riscv/mach-gd32vf10x/bsp/gd32vf103_timer.c ****                 one or more parameters can be selected which are shown as below:
 412:arch/riscv/mach-gd32vf10x/bsp/gd32vf103_timer.c ****       \arg        TIMER_DMA_UPD:  update DMA enable, TIMERx(x=0..6)
 413:arch/riscv/mach-gd32vf10x/bsp/gd32vf103_timer.c ****       \arg        TIMER_DMA_CH0D: channel 0 DMA enable, TIMERx(x=0..4)
 414:arch/riscv/mach-gd32vf10x/bsp/gd32vf103_timer.c ****       \arg        TIMER_DMA_CH1D: channel 1 DMA enable, TIMERx(x=0..4)
 415:arch/riscv/mach-gd32vf10x/bsp/gd32vf103_timer.c ****       \arg        TIMER_DMA_CH2D: channel 2 DMA enable, TIMERx(x=0..4)
 416:arch/riscv/mach-gd32vf10x/bsp/gd32vf103_timer.c ****       \arg        TIMER_DMA_CH3D: channel 3 DMA enable, TIMERx(x=0..4)
 417:arch/riscv/mach-gd32vf10x/bsp/gd32vf103_timer.c ****       \arg        TIMER_DMA_CMTD: channel commutation DMA request enable, TIMERx(x=0)
 418:arch/riscv/mach-gd32vf10x/bsp/gd32vf103_timer.c ****       \arg        TIMER_DMA_TRGD: trigger DMA enable, TIMERx(x=0..4,7)
 419:arch/riscv/mach-gd32vf10x/bsp/gd32vf103_timer.c ****     \param[out] none
 420:arch/riscv/mach-gd32vf10x/bsp/gd32vf103_timer.c ****     \retval     none
 421:arch/riscv/mach-gd32vf10x/bsp/gd32vf103_timer.c **** */
 422:arch/riscv/mach-gd32vf10x/bsp/gd32vf103_timer.c **** void timer_dma_disable(uint32_t timer_periph, uint16_t dma)
 423:arch/riscv/mach-gd32vf10x/bsp/gd32vf103_timer.c **** {
 424:arch/riscv/mach-gd32vf10x/bsp/gd32vf103_timer.c ****     TIMER_DMAINTEN(timer_periph) &= (~(uint32_t)(dma)); 
 425:arch/riscv/mach-gd32vf10x/bsp/gd32vf103_timer.c **** }
 426:arch/riscv/mach-gd32vf10x/bsp/gd32vf103_timer.c **** 
 427:arch/riscv/mach-gd32vf10x/bsp/gd32vf103_timer.c **** /*!
 428:arch/riscv/mach-gd32vf10x/bsp/gd32vf103_timer.c ****     \brief      channel DMA request source selection
 429:arch/riscv/mach-gd32vf10x/bsp/gd32vf103_timer.c ****     \param[in]  timer_periph: TIMERx(x=0..4)
 430:arch/riscv/mach-gd32vf10x/bsp/gd32vf103_timer.c ****     \param[in]  dma_request: channel DMA request source selection
 431:arch/riscv/mach-gd32vf10x/bsp/gd32vf103_timer.c ****                 only one parameter can be selected which is shown as below:
 432:arch/riscv/mach-gd32vf10x/bsp/gd32vf103_timer.c ****        \arg        TIMER_DMAREQUEST_CHANNELEVENT: DMA request of channel n is sent when channel n e
 433:arch/riscv/mach-gd32vf10x/bsp/gd32vf103_timer.c ****        \arg        TIMER_DMAREQUEST_UPDATEEVENT: DMA request of channel n is sent when update event
 434:arch/riscv/mach-gd32vf10x/bsp/gd32vf103_timer.c ****     \param[out] none
 435:arch/riscv/mach-gd32vf10x/bsp/gd32vf103_timer.c ****     \retval     none
 436:arch/riscv/mach-gd32vf10x/bsp/gd32vf103_timer.c **** */
 437:arch/riscv/mach-gd32vf10x/bsp/gd32vf103_timer.c **** void timer_channel_dma_request_source_select(uint32_t timer_periph, uint32_t dma_request)
 438:arch/riscv/mach-gd32vf10x/bsp/gd32vf103_timer.c **** {
 439:arch/riscv/mach-gd32vf10x/bsp/gd32vf103_timer.c ****     if(TIMER_DMAREQUEST_UPDATEEVENT == dma_request){
 440:arch/riscv/mach-gd32vf10x/bsp/gd32vf103_timer.c ****         TIMER_CTL1(timer_periph) |= (uint32_t)TIMER_CTL1_DMAS;
 441:arch/riscv/mach-gd32vf10x/bsp/gd32vf103_timer.c ****     }else if(TIMER_DMAREQUEST_CHANNELEVENT == dma_request){
 442:arch/riscv/mach-gd32vf10x/bsp/gd32vf103_timer.c ****         TIMER_CTL1(timer_periph) &= ~(uint32_t)TIMER_CTL1_DMAS;
 443:arch/riscv/mach-gd32vf10x/bsp/gd32vf103_timer.c ****     }else{
 444:arch/riscv/mach-gd32vf10x/bsp/gd32vf103_timer.c ****         /* illegal parameters */        
 445:arch/riscv/mach-gd32vf10x/bsp/gd32vf103_timer.c ****     }
 446:arch/riscv/mach-gd32vf10x/bsp/gd32vf103_timer.c **** }
GAS LISTING C:\Users\test\AppData\Local\Temp\ccx0JFmY.s 			page 9


 447:arch/riscv/mach-gd32vf10x/bsp/gd32vf103_timer.c **** 
 448:arch/riscv/mach-gd32vf10x/bsp/gd32vf103_timer.c **** /*!
 449:arch/riscv/mach-gd32vf10x/bsp/gd32vf103_timer.c ****     \brief      configure the TIMER DMA transfer
 450:arch/riscv/mach-gd32vf10x/bsp/gd32vf103_timer.c ****     \param[in]  timer_periph: TIMERx(x=0..4)
 451:arch/riscv/mach-gd32vf10x/bsp/gd32vf103_timer.c ****     \param[in]  dma_baseaddr:
 452:arch/riscv/mach-gd32vf10x/bsp/gd32vf103_timer.c ****                 only one parameter can be selected which is shown as below:
 453:arch/riscv/mach-gd32vf10x/bsp/gd32vf103_timer.c ****        \arg        TIMER_DMACFG_DMATA_CTL0: DMA transfer address is TIMER_CTL0, TIMERx(x=0..4)
 454:arch/riscv/mach-gd32vf10x/bsp/gd32vf103_timer.c ****        \arg        TIMER_DMACFG_DMATA_CTL1: DMA transfer address is TIMER_CTL1, TIMERx(x=0..4)
 455:arch/riscv/mach-gd32vf10x/bsp/gd32vf103_timer.c ****        \arg        TIMER_DMACFG_DMATA_SMCFG: DMA transfer address is TIMER_SMCFG, TIMERx(x=0..4)
 456:arch/riscv/mach-gd32vf10x/bsp/gd32vf103_timer.c ****        \arg        TIMER_DMACFG_DMATA_DMAINTEN: DMA transfer address is TIMER_DMAINTEN, TIMERx(x=0.
 457:arch/riscv/mach-gd32vf10x/bsp/gd32vf103_timer.c ****        \arg        TIMER_DMACFG_DMATA_INTF: DMA transfer address is TIMER_INTF, TIMERx(x=0..4)
 458:arch/riscv/mach-gd32vf10x/bsp/gd32vf103_timer.c ****        \arg        TIMER_DMACFG_DMATA_SWEVG: DMA transfer address is TIMER_SWEVG, TIMERx(x=0..4)
 459:arch/riscv/mach-gd32vf10x/bsp/gd32vf103_timer.c ****        \arg        TIMER_DMACFG_DMATA_CHCTL0: DMA transfer address is TIMER_CHCTL0, TIMERx(x=0..4)
 460:arch/riscv/mach-gd32vf10x/bsp/gd32vf103_timer.c ****        \arg        TIMER_DMACFG_DMATA_CHCTL1: DMA transfer address is TIMER_CHCTL1, TIMERx(x=0..4)
 461:arch/riscv/mach-gd32vf10x/bsp/gd32vf103_timer.c ****        \arg        TIMER_DMACFG_DMATA_CHCTL2: DMA transfer address is TIMER_CHCTL2, TIMERx(x=0..4)
 462:arch/riscv/mach-gd32vf10x/bsp/gd32vf103_timer.c ****        \arg        TIMER_DMACFG_DMATA_CNT: DMA transfer address is TIMER_CNT, TIMERx(x=0..4)
 463:arch/riscv/mach-gd32vf10x/bsp/gd32vf103_timer.c ****        \arg        TIMER_DMACFG_DMATA_PSC: DMA transfer address is TIMER_PSC, TIMERx(x=0..4)
 464:arch/riscv/mach-gd32vf10x/bsp/gd32vf103_timer.c ****        \arg        TIMER_DMACFG_DMATA_CAR: DMA transfer address is TIMER_CAR, TIMERx(x=0..4)
 465:arch/riscv/mach-gd32vf10x/bsp/gd32vf103_timer.c ****        \arg        TIMER_DMACFG_DMATA_CREP: DMA transfer address is TIMER_CREP, TIMERx(x=0)
 466:arch/riscv/mach-gd32vf10x/bsp/gd32vf103_timer.c ****        \arg        TIMER_DMACFG_DMATA_CH0CV: DMA transfer address is TIMER_CH0CV, TIMERx(x=0..4)
 467:arch/riscv/mach-gd32vf10x/bsp/gd32vf103_timer.c ****        \arg        TIMER_DMACFG_DMATA_CH1CV: DMA transfer address is TIMER_CH1CV, TIMERx(x=0..4)
 468:arch/riscv/mach-gd32vf10x/bsp/gd32vf103_timer.c ****        \arg        TIMER_DMACFG_DMATA_CH2CV: DMA transfer address is TIMER_CH2CV, TIMERx(x=0..4)
 469:arch/riscv/mach-gd32vf10x/bsp/gd32vf103_timer.c ****        \arg        TIMER_DMACFG_DMATA_CH3CV: DMA transfer address is TIMER_CH3CV, TIMERx(x=0..4)
 470:arch/riscv/mach-gd32vf10x/bsp/gd32vf103_timer.c ****        \arg        TIMER_DMACFG_DMATA_CCHP: DMA transfer address is TIMER_CCHP, TIMERx(x=0)
 471:arch/riscv/mach-gd32vf10x/bsp/gd32vf103_timer.c ****        \arg        TIMER_DMACFG_DMATA_DMACFG: DMA transfer address is TIMER_DMACFG, TIMERx(x=0..4)
 472:arch/riscv/mach-gd32vf10x/bsp/gd32vf103_timer.c ****     \param[in]  dma_lenth:
 473:arch/riscv/mach-gd32vf10x/bsp/gd32vf103_timer.c ****                 only one parameter can be selected which is shown as below:
 474:arch/riscv/mach-gd32vf10x/bsp/gd32vf103_timer.c ****        \arg        TIMER_DMACFG_DMATC_xTRANSFER(x=1..6): DMA transfer x time
 475:arch/riscv/mach-gd32vf10x/bsp/gd32vf103_timer.c ****     \param[out] none
 476:arch/riscv/mach-gd32vf10x/bsp/gd32vf103_timer.c ****     \retval     none
 477:arch/riscv/mach-gd32vf10x/bsp/gd32vf103_timer.c **** */
 478:arch/riscv/mach-gd32vf10x/bsp/gd32vf103_timer.c **** void timer_dma_transfer_config(uint32_t timer_periph, uint32_t dma_baseaddr, uint32_t dma_lenth)
 479:arch/riscv/mach-gd32vf10x/bsp/gd32vf103_timer.c **** {
 480:arch/riscv/mach-gd32vf10x/bsp/gd32vf103_timer.c ****     TIMER_DMACFG(timer_periph) &= (~(uint32_t)(TIMER_DMACFG_DMATA | TIMER_DMACFG_DMATC));
 481:arch/riscv/mach-gd32vf10x/bsp/gd32vf103_timer.c ****     TIMER_DMACFG(timer_periph) |= (uint32_t)(dma_baseaddr | dma_lenth);
 482:arch/riscv/mach-gd32vf10x/bsp/gd32vf103_timer.c **** }
 483:arch/riscv/mach-gd32vf10x/bsp/gd32vf103_timer.c **** 
 484:arch/riscv/mach-gd32vf10x/bsp/gd32vf103_timer.c **** /*!
 485:arch/riscv/mach-gd32vf10x/bsp/gd32vf103_timer.c ****     \brief      software generate events 
 486:arch/riscv/mach-gd32vf10x/bsp/gd32vf103_timer.c ****     \param[in]  timer_periph: TIMERx(x=0..4)
 487:arch/riscv/mach-gd32vf10x/bsp/gd32vf103_timer.c ****     \param[in]  event: the timer software event generation sources
 488:arch/riscv/mach-gd32vf10x/bsp/gd32vf103_timer.c ****                 one or more parameters can be selected which are shown as below:
 489:arch/riscv/mach-gd32vf10x/bsp/gd32vf103_timer.c ****       \arg        TIMER_EVENT_SRC_UPG: update event generation, TIMERx(x=0..6)
 490:arch/riscv/mach-gd32vf10x/bsp/gd32vf103_timer.c ****       \arg        TIMER_EVENT_SRC_CH0G: channel 0 capture or compare event generation, TIMERx(x=0..
 491:arch/riscv/mach-gd32vf10x/bsp/gd32vf103_timer.c ****       \arg        TIMER_EVENT_SRC_CH1G: channel 1 capture or compare event generation, TIMERx(x=0..
 492:arch/riscv/mach-gd32vf10x/bsp/gd32vf103_timer.c ****       \arg        TIMER_EVENT_SRC_CH2G: channel 2 capture or compare event generation, TIMERx(x=0..
 493:arch/riscv/mach-gd32vf10x/bsp/gd32vf103_timer.c ****       \arg        TIMER_EVENT_SRC_CH3G: channel 3 capture or compare event generation, TIMERx(x=0..
 494:arch/riscv/mach-gd32vf10x/bsp/gd32vf103_timer.c ****       \arg        TIMER_EVENT_SRC_CMTG: channel commutation event generation, TIMERx(x=0) 
 495:arch/riscv/mach-gd32vf10x/bsp/gd32vf103_timer.c ****       \arg        TIMER_EVENT_SRC_TRGG: trigger event generation, TIMERx(x=0..4)
 496:arch/riscv/mach-gd32vf10x/bsp/gd32vf103_timer.c ****       \arg        TIMER_EVENT_SRC_BRKG:  break event generation, TIMERx(x=0)
 497:arch/riscv/mach-gd32vf10x/bsp/gd32vf103_timer.c ****     \param[out] none
 498:arch/riscv/mach-gd32vf10x/bsp/gd32vf103_timer.c ****     \retval     none
 499:arch/riscv/mach-gd32vf10x/bsp/gd32vf103_timer.c **** */
 500:arch/riscv/mach-gd32vf10x/bsp/gd32vf103_timer.c **** void timer_event_software_generate(uint32_t timer_periph, uint16_t event)
 501:arch/riscv/mach-gd32vf10x/bsp/gd32vf103_timer.c **** {
 502:arch/riscv/mach-gd32vf10x/bsp/gd32vf103_timer.c ****     TIMER_SWEVG(timer_periph) |= (uint32_t)event;
 503:arch/riscv/mach-gd32vf10x/bsp/gd32vf103_timer.c **** }
GAS LISTING C:\Users\test\AppData\Local\Temp\ccx0JFmY.s 			page 10


 504:arch/riscv/mach-gd32vf10x/bsp/gd32vf103_timer.c **** 
 505:arch/riscv/mach-gd32vf10x/bsp/gd32vf103_timer.c **** /*!
 506:arch/riscv/mach-gd32vf10x/bsp/gd32vf103_timer.c ****     \brief      initialize TIMER break parameter struct with a default value
 507:arch/riscv/mach-gd32vf10x/bsp/gd32vf103_timer.c ****     \param[in]  breakpara: TIMER break parameter struct
 508:arch/riscv/mach-gd32vf10x/bsp/gd32vf103_timer.c ****     \param[out] none
 509:arch/riscv/mach-gd32vf10x/bsp/gd32vf103_timer.c ****     \retval     none
 510:arch/riscv/mach-gd32vf10x/bsp/gd32vf103_timer.c **** */
 511:arch/riscv/mach-gd32vf10x/bsp/gd32vf103_timer.c **** void timer_break_struct_para_init(timer_break_parameter_struct* breakpara)
 512:arch/riscv/mach-gd32vf10x/bsp/gd32vf103_timer.c **** {
 513:arch/riscv/mach-gd32vf10x/bsp/gd32vf103_timer.c ****     /* initialize the break parameter struct member with the default value */
 514:arch/riscv/mach-gd32vf10x/bsp/gd32vf103_timer.c ****     breakpara->runoffstate     = TIMER_ROS_STATE_DISABLE;
 515:arch/riscv/mach-gd32vf10x/bsp/gd32vf103_timer.c ****     breakpara->ideloffstate    = TIMER_IOS_STATE_DISABLE;
 516:arch/riscv/mach-gd32vf10x/bsp/gd32vf103_timer.c ****     breakpara->deadtime        = 0U;
 517:arch/riscv/mach-gd32vf10x/bsp/gd32vf103_timer.c ****     breakpara->breakpolarity   = TIMER_BREAK_POLARITY_LOW;
 518:arch/riscv/mach-gd32vf10x/bsp/gd32vf103_timer.c ****     breakpara->outputautostate = TIMER_OUTAUTO_DISABLE;
 519:arch/riscv/mach-gd32vf10x/bsp/gd32vf103_timer.c ****     breakpara->protectmode     = TIMER_CCHP_PROT_OFF;
 520:arch/riscv/mach-gd32vf10x/bsp/gd32vf103_timer.c ****     breakpara->breakstate      = TIMER_BREAK_DISABLE;
 521:arch/riscv/mach-gd32vf10x/bsp/gd32vf103_timer.c **** }
 522:arch/riscv/mach-gd32vf10x/bsp/gd32vf103_timer.c **** 
 523:arch/riscv/mach-gd32vf10x/bsp/gd32vf103_timer.c **** /*!
 524:arch/riscv/mach-gd32vf10x/bsp/gd32vf103_timer.c ****     \brief      configure TIMER break function 
 525:arch/riscv/mach-gd32vf10x/bsp/gd32vf103_timer.c ****     \param[in]  timer_periph: TIMERx(x=0)
 526:arch/riscv/mach-gd32vf10x/bsp/gd32vf103_timer.c ****     \param[in]  breakpara: TIMER break parameter struct
 527:arch/riscv/mach-gd32vf10x/bsp/gd32vf103_timer.c ****                   runoffstate: TIMER_ROS_STATE_ENABLE, TIMER_ROS_STATE_DISABLE
 528:arch/riscv/mach-gd32vf10x/bsp/gd32vf103_timer.c ****                   ideloffstate: TIMER_IOS_STATE_ENABLE, TIMER_IOS_STATE_DISABLE
 529:arch/riscv/mach-gd32vf10x/bsp/gd32vf103_timer.c ****                   deadtime: 0~255
 530:arch/riscv/mach-gd32vf10x/bsp/gd32vf103_timer.c ****                   breakpolarity: TIMER_BREAK_POLARITY_LOW, TIMER_BREAK_POLARITY_HIGH
 531:arch/riscv/mach-gd32vf10x/bsp/gd32vf103_timer.c ****                   outputautostate: TIMER_OUTAUTO_ENABLE, TIMER_OUTAUTO_DISABLE
 532:arch/riscv/mach-gd32vf10x/bsp/gd32vf103_timer.c ****                   protectmode: TIMER_CCHP_PROT_OFF, TIMER_CCHP_PROT_0, TIMER_CCHP_PROT_1, TIMER_CCH
 533:arch/riscv/mach-gd32vf10x/bsp/gd32vf103_timer.c ****                   breakstate: TIMER_BREAK_ENABLE, TIMER_BREAK_DISABLE
 534:arch/riscv/mach-gd32vf10x/bsp/gd32vf103_timer.c ****     \param[out] none
 535:arch/riscv/mach-gd32vf10x/bsp/gd32vf103_timer.c ****     \retval     none
 536:arch/riscv/mach-gd32vf10x/bsp/gd32vf103_timer.c **** */
 537:arch/riscv/mach-gd32vf10x/bsp/gd32vf103_timer.c **** void timer_break_config(uint32_t timer_periph, timer_break_parameter_struct* breakpara)
 538:arch/riscv/mach-gd32vf10x/bsp/gd32vf103_timer.c **** {
 539:arch/riscv/mach-gd32vf10x/bsp/gd32vf103_timer.c ****     TIMER_CCHP(timer_periph) = (uint32_t)(((uint32_t)(breakpara->runoffstate)) |
 540:arch/riscv/mach-gd32vf10x/bsp/gd32vf103_timer.c ****                                           ((uint32_t)(breakpara->ideloffstate))|
 541:arch/riscv/mach-gd32vf10x/bsp/gd32vf103_timer.c ****                                           ((uint32_t)(breakpara->deadtime)) |
 542:arch/riscv/mach-gd32vf10x/bsp/gd32vf103_timer.c ****                                           ((uint32_t)(breakpara->breakpolarity)) |
 543:arch/riscv/mach-gd32vf10x/bsp/gd32vf103_timer.c ****                                           ((uint32_t)(breakpara->outputautostate)) |
 544:arch/riscv/mach-gd32vf10x/bsp/gd32vf103_timer.c ****                                           ((uint32_t)(breakpara->protectmode)) |
 545:arch/riscv/mach-gd32vf10x/bsp/gd32vf103_timer.c ****                                           ((uint32_t)(breakpara->breakstate)));
 546:arch/riscv/mach-gd32vf10x/bsp/gd32vf103_timer.c **** }
 547:arch/riscv/mach-gd32vf10x/bsp/gd32vf103_timer.c **** 
 548:arch/riscv/mach-gd32vf10x/bsp/gd32vf103_timer.c **** /*!
 549:arch/riscv/mach-gd32vf10x/bsp/gd32vf103_timer.c ****     \brief      enable TIMER break function
 550:arch/riscv/mach-gd32vf10x/bsp/gd32vf103_timer.c ****     \param[in]  timer_periph: TIMERx(x=0)
 551:arch/riscv/mach-gd32vf10x/bsp/gd32vf103_timer.c ****     \param[out] none
 552:arch/riscv/mach-gd32vf10x/bsp/gd32vf103_timer.c ****     \retval     none
 553:arch/riscv/mach-gd32vf10x/bsp/gd32vf103_timer.c **** */
 554:arch/riscv/mach-gd32vf10x/bsp/gd32vf103_timer.c **** void timer_break_enable(uint32_t timer_periph)
 555:arch/riscv/mach-gd32vf10x/bsp/gd32vf103_timer.c **** {
 556:arch/riscv/mach-gd32vf10x/bsp/gd32vf103_timer.c ****     TIMER_CCHP(timer_periph) |= (uint32_t)TIMER_CCHP_BRKEN;
 557:arch/riscv/mach-gd32vf10x/bsp/gd32vf103_timer.c **** }
 558:arch/riscv/mach-gd32vf10x/bsp/gd32vf103_timer.c **** 
 559:arch/riscv/mach-gd32vf10x/bsp/gd32vf103_timer.c **** /*!
 560:arch/riscv/mach-gd32vf10x/bsp/gd32vf103_timer.c ****     \brief      disable TIMER break function
GAS LISTING C:\Users\test\AppData\Local\Temp\ccx0JFmY.s 			page 11


 561:arch/riscv/mach-gd32vf10x/bsp/gd32vf103_timer.c ****     \param[in]  timer_periph: TIMERx(x=0)
 562:arch/riscv/mach-gd32vf10x/bsp/gd32vf103_timer.c ****     \param[out] none
 563:arch/riscv/mach-gd32vf10x/bsp/gd32vf103_timer.c ****     \retval     none
 564:arch/riscv/mach-gd32vf10x/bsp/gd32vf103_timer.c **** */
 565:arch/riscv/mach-gd32vf10x/bsp/gd32vf103_timer.c **** void timer_break_disable(uint32_t timer_periph)
 566:arch/riscv/mach-gd32vf10x/bsp/gd32vf103_timer.c **** {
 567:arch/riscv/mach-gd32vf10x/bsp/gd32vf103_timer.c ****     TIMER_CCHP(timer_periph) &= ~(uint32_t)TIMER_CCHP_BRKEN;
 568:arch/riscv/mach-gd32vf10x/bsp/gd32vf103_timer.c **** }
 569:arch/riscv/mach-gd32vf10x/bsp/gd32vf103_timer.c **** 
 570:arch/riscv/mach-gd32vf10x/bsp/gd32vf103_timer.c **** /*!
 571:arch/riscv/mach-gd32vf10x/bsp/gd32vf103_timer.c ****     \brief      enable TIMER output automatic function
 572:arch/riscv/mach-gd32vf10x/bsp/gd32vf103_timer.c ****     \param[in]  timer_periph: TIMERx(x=0)
 573:arch/riscv/mach-gd32vf10x/bsp/gd32vf103_timer.c ****     \param[out] none
 574:arch/riscv/mach-gd32vf10x/bsp/gd32vf103_timer.c ****     \retval     none
 575:arch/riscv/mach-gd32vf10x/bsp/gd32vf103_timer.c **** */
 576:arch/riscv/mach-gd32vf10x/bsp/gd32vf103_timer.c **** void timer_automatic_output_enable(uint32_t timer_periph)
 577:arch/riscv/mach-gd32vf10x/bsp/gd32vf103_timer.c **** {
 578:arch/riscv/mach-gd32vf10x/bsp/gd32vf103_timer.c ****     TIMER_CCHP(timer_periph) |= (uint32_t)TIMER_CCHP_OAEN;
 579:arch/riscv/mach-gd32vf10x/bsp/gd32vf103_timer.c **** }
 580:arch/riscv/mach-gd32vf10x/bsp/gd32vf103_timer.c **** 
 581:arch/riscv/mach-gd32vf10x/bsp/gd32vf103_timer.c **** /*!
 582:arch/riscv/mach-gd32vf10x/bsp/gd32vf103_timer.c ****     \brief      disable TIMER output automatic function
 583:arch/riscv/mach-gd32vf10x/bsp/gd32vf103_timer.c ****     \param[in]  timer_periph: TIMERx(x=0)
 584:arch/riscv/mach-gd32vf10x/bsp/gd32vf103_timer.c ****     \param[out] none
 585:arch/riscv/mach-gd32vf10x/bsp/gd32vf103_timer.c ****     \retval     none
 586:arch/riscv/mach-gd32vf10x/bsp/gd32vf103_timer.c **** */
 587:arch/riscv/mach-gd32vf10x/bsp/gd32vf103_timer.c **** void timer_automatic_output_disable(uint32_t timer_periph)
 588:arch/riscv/mach-gd32vf10x/bsp/gd32vf103_timer.c **** {
 589:arch/riscv/mach-gd32vf10x/bsp/gd32vf103_timer.c ****     TIMER_CCHP(timer_periph) &= ~(uint32_t)TIMER_CCHP_OAEN;
 590:arch/riscv/mach-gd32vf10x/bsp/gd32vf103_timer.c **** }
 591:arch/riscv/mach-gd32vf10x/bsp/gd32vf103_timer.c **** 
 592:arch/riscv/mach-gd32vf10x/bsp/gd32vf103_timer.c **** /*!
 593:arch/riscv/mach-gd32vf10x/bsp/gd32vf103_timer.c ****     \brief      enable or disable TIMER primary output function
 594:arch/riscv/mach-gd32vf10x/bsp/gd32vf103_timer.c ****     \param[in]  timer_periph: TIMERx(x=0)
 595:arch/riscv/mach-gd32vf10x/bsp/gd32vf103_timer.c ****     \param[in]  newvalue: ENABLE or DISABLE
 596:arch/riscv/mach-gd32vf10x/bsp/gd32vf103_timer.c ****     \param[out] none
 597:arch/riscv/mach-gd32vf10x/bsp/gd32vf103_timer.c ****     \retval     none
 598:arch/riscv/mach-gd32vf10x/bsp/gd32vf103_timer.c **** */
 599:arch/riscv/mach-gd32vf10x/bsp/gd32vf103_timer.c **** void timer_primary_output_config(uint32_t timer_periph, ControlStatus newvalue)
 600:arch/riscv/mach-gd32vf10x/bsp/gd32vf103_timer.c **** {
 601:arch/riscv/mach-gd32vf10x/bsp/gd32vf103_timer.c ****     if(ENABLE == newvalue){
 602:arch/riscv/mach-gd32vf10x/bsp/gd32vf103_timer.c ****         TIMER_CCHP(timer_periph) |= (uint32_t)TIMER_CCHP_POEN;
 603:arch/riscv/mach-gd32vf10x/bsp/gd32vf103_timer.c ****     }else{
 604:arch/riscv/mach-gd32vf10x/bsp/gd32vf103_timer.c ****         TIMER_CCHP(timer_periph) &= (~(uint32_t)TIMER_CCHP_POEN);
 605:arch/riscv/mach-gd32vf10x/bsp/gd32vf103_timer.c ****     }
 606:arch/riscv/mach-gd32vf10x/bsp/gd32vf103_timer.c **** }
 607:arch/riscv/mach-gd32vf10x/bsp/gd32vf103_timer.c **** 
 608:arch/riscv/mach-gd32vf10x/bsp/gd32vf103_timer.c **** /*!
 609:arch/riscv/mach-gd32vf10x/bsp/gd32vf103_timer.c ****     \brief      enable or disable channel capture/compare control shadow register 
 610:arch/riscv/mach-gd32vf10x/bsp/gd32vf103_timer.c ****     \param[in]  timer_periph: TIMERx(x=0)
 611:arch/riscv/mach-gd32vf10x/bsp/gd32vf103_timer.c ****     \param[in]  newvalue: ENABLE or DISABLE 
 612:arch/riscv/mach-gd32vf10x/bsp/gd32vf103_timer.c ****     \param[out] none
 613:arch/riscv/mach-gd32vf10x/bsp/gd32vf103_timer.c ****     \retval     none
 614:arch/riscv/mach-gd32vf10x/bsp/gd32vf103_timer.c **** */
 615:arch/riscv/mach-gd32vf10x/bsp/gd32vf103_timer.c **** void timer_channel_control_shadow_config(uint32_t timer_periph, ControlStatus newvalue)
 616:arch/riscv/mach-gd32vf10x/bsp/gd32vf103_timer.c **** {
 617:arch/riscv/mach-gd32vf10x/bsp/gd32vf103_timer.c ****      if(ENABLE == newvalue){
GAS LISTING C:\Users\test\AppData\Local\Temp\ccx0JFmY.s 			page 12


 618:arch/riscv/mach-gd32vf10x/bsp/gd32vf103_timer.c ****         TIMER_CTL1(timer_periph) |= (uint32_t)TIMER_CTL1_CCSE;
 619:arch/riscv/mach-gd32vf10x/bsp/gd32vf103_timer.c ****     }else{
 620:arch/riscv/mach-gd32vf10x/bsp/gd32vf103_timer.c ****         TIMER_CTL1(timer_periph) &= (~(uint32_t)TIMER_CTL1_CCSE);
 621:arch/riscv/mach-gd32vf10x/bsp/gd32vf103_timer.c ****     }
 622:arch/riscv/mach-gd32vf10x/bsp/gd32vf103_timer.c **** }
 623:arch/riscv/mach-gd32vf10x/bsp/gd32vf103_timer.c **** 
 624:arch/riscv/mach-gd32vf10x/bsp/gd32vf103_timer.c **** /*!
 625:arch/riscv/mach-gd32vf10x/bsp/gd32vf103_timer.c ****     \brief      configure TIMER channel control shadow register update control
 626:arch/riscv/mach-gd32vf10x/bsp/gd32vf103_timer.c ****     \param[in]  timer_periph: TIMERx(x=0)
 627:arch/riscv/mach-gd32vf10x/bsp/gd32vf103_timer.c ****     \param[in]  ccuctl: channel control shadow register update control
 628:arch/riscv/mach-gd32vf10x/bsp/gd32vf103_timer.c ****                 only one parameter can be selected which is shown as below:
 629:arch/riscv/mach-gd32vf10x/bsp/gd32vf103_timer.c ****       \arg        TIMER_UPDATECTL_CCU: the shadow registers update by when CMTG bit is set
 630:arch/riscv/mach-gd32vf10x/bsp/gd32vf103_timer.c ****       \arg        TIMER_UPDATECTL_CCUTRI: the shadow registers update by when CMTG bit is set or an
 631:arch/riscv/mach-gd32vf10x/bsp/gd32vf103_timer.c ****     \param[out] none
 632:arch/riscv/mach-gd32vf10x/bsp/gd32vf103_timer.c ****     \retval     none
 633:arch/riscv/mach-gd32vf10x/bsp/gd32vf103_timer.c **** */              
 634:arch/riscv/mach-gd32vf10x/bsp/gd32vf103_timer.c **** void timer_channel_control_shadow_update_config(uint32_t timer_periph, uint32_t ccuctl)
 635:arch/riscv/mach-gd32vf10x/bsp/gd32vf103_timer.c **** {
 636:arch/riscv/mach-gd32vf10x/bsp/gd32vf103_timer.c ****     if(TIMER_UPDATECTL_CCU == ccuctl){
 637:arch/riscv/mach-gd32vf10x/bsp/gd32vf103_timer.c ****         TIMER_CTL1(timer_periph) &= (~(uint32_t)TIMER_CTL1_CCUC);
 638:arch/riscv/mach-gd32vf10x/bsp/gd32vf103_timer.c ****     }else if(TIMER_UPDATECTL_CCUTRI == ccuctl){
 639:arch/riscv/mach-gd32vf10x/bsp/gd32vf103_timer.c ****         TIMER_CTL1(timer_periph) |= (uint32_t)TIMER_CTL1_CCUC;
 640:arch/riscv/mach-gd32vf10x/bsp/gd32vf103_timer.c ****     }else{
 641:arch/riscv/mach-gd32vf10x/bsp/gd32vf103_timer.c ****         /* illegal parameters */        
 642:arch/riscv/mach-gd32vf10x/bsp/gd32vf103_timer.c ****     }
 643:arch/riscv/mach-gd32vf10x/bsp/gd32vf103_timer.c **** }
 644:arch/riscv/mach-gd32vf10x/bsp/gd32vf103_timer.c **** 
 645:arch/riscv/mach-gd32vf10x/bsp/gd32vf103_timer.c **** /*!
 646:arch/riscv/mach-gd32vf10x/bsp/gd32vf103_timer.c ****     \brief      initialize TIMER channel output parameter struct with a default value
 647:arch/riscv/mach-gd32vf10x/bsp/gd32vf103_timer.c ****     \param[in]  ocpara: TIMER channel n output parameter struct
 648:arch/riscv/mach-gd32vf10x/bsp/gd32vf103_timer.c ****     \param[out] none
 649:arch/riscv/mach-gd32vf10x/bsp/gd32vf103_timer.c ****     \retval     none
 650:arch/riscv/mach-gd32vf10x/bsp/gd32vf103_timer.c **** */
 651:arch/riscv/mach-gd32vf10x/bsp/gd32vf103_timer.c **** void timer_channel_output_struct_para_init(timer_oc_parameter_struct* ocpara)
 652:arch/riscv/mach-gd32vf10x/bsp/gd32vf103_timer.c **** {
 653:arch/riscv/mach-gd32vf10x/bsp/gd32vf103_timer.c ****     /* initialize the channel output parameter struct member with the default value */
 654:arch/riscv/mach-gd32vf10x/bsp/gd32vf103_timer.c ****     ocpara->outputstate  = TIMER_CCX_DISABLE;
 655:arch/riscv/mach-gd32vf10x/bsp/gd32vf103_timer.c ****     ocpara->outputnstate = TIMER_CCXN_DISABLE;
 656:arch/riscv/mach-gd32vf10x/bsp/gd32vf103_timer.c ****     ocpara->ocpolarity   = TIMER_OC_POLARITY_HIGH;
 657:arch/riscv/mach-gd32vf10x/bsp/gd32vf103_timer.c ****     ocpara->ocnpolarity  = TIMER_OCN_POLARITY_HIGH;
 658:arch/riscv/mach-gd32vf10x/bsp/gd32vf103_timer.c ****     ocpara->ocidlestate  = TIMER_OC_IDLE_STATE_LOW;
 659:arch/riscv/mach-gd32vf10x/bsp/gd32vf103_timer.c ****     ocpara->ocnidlestate = TIMER_OCN_IDLE_STATE_LOW;
 660:arch/riscv/mach-gd32vf10x/bsp/gd32vf103_timer.c **** }
 661:arch/riscv/mach-gd32vf10x/bsp/gd32vf103_timer.c **** 
 662:arch/riscv/mach-gd32vf10x/bsp/gd32vf103_timer.c **** /*!
 663:arch/riscv/mach-gd32vf10x/bsp/gd32vf103_timer.c ****     \brief      configure TIMER channel output function
 664:arch/riscv/mach-gd32vf10x/bsp/gd32vf103_timer.c ****     \param[in]  timer_periph: TIMERx(x=0..4)
 665:arch/riscv/mach-gd32vf10x/bsp/gd32vf103_timer.c ****     \param[in]  channel:
 666:arch/riscv/mach-gd32vf10x/bsp/gd32vf103_timer.c ****                 only one parameter can be selected which is shown as below:
 667:arch/riscv/mach-gd32vf10x/bsp/gd32vf103_timer.c ****       \arg        TIMER_CH_0: TIMER channel 0(TIMERx(x=0..4))
 668:arch/riscv/mach-gd32vf10x/bsp/gd32vf103_timer.c ****       \arg        TIMER_CH_1: TIMER channel 1(TIMERx(x=0..4))
 669:arch/riscv/mach-gd32vf10x/bsp/gd32vf103_timer.c ****       \arg        TIMER_CH_2: TIMER channel 2(TIMERx(x=0..4))
 670:arch/riscv/mach-gd32vf10x/bsp/gd32vf103_timer.c ****       \arg        TIMER_CH_3: TIMER channel 3(TIMERx(x=0..4))
 671:arch/riscv/mach-gd32vf10x/bsp/gd32vf103_timer.c ****     \param[in]  ocpara: TIMER channeln output parameter struct
 672:arch/riscv/mach-gd32vf10x/bsp/gd32vf103_timer.c ****                   outputstate: TIMER_CCX_ENABLE, TIMER_CCX_DISABLE
 673:arch/riscv/mach-gd32vf10x/bsp/gd32vf103_timer.c ****                   outputnstate: TIMER_CCXN_ENABLE, TIMER_CCXN_DISABLE
 674:arch/riscv/mach-gd32vf10x/bsp/gd32vf103_timer.c ****                   ocpolarity: TIMER_OC_POLARITY_HIGH, TIMER_OC_POLARITY_LOW
GAS LISTING C:\Users\test\AppData\Local\Temp\ccx0JFmY.s 			page 13


 675:arch/riscv/mach-gd32vf10x/bsp/gd32vf103_timer.c ****                   ocnpolarity: TIMER_OCN_POLARITY_HIGH, TIMER_OCN_POLARITY_LOW
 676:arch/riscv/mach-gd32vf10x/bsp/gd32vf103_timer.c ****                   ocidlestate: TIMER_OC_IDLE_STATE_LOW, TIMER_OC_IDLE_STATE_HIGH
 677:arch/riscv/mach-gd32vf10x/bsp/gd32vf103_timer.c ****                   ocnidlestate: TIMER_OCN_IDLE_STATE_LOW, TIMER_OCN_IDLE_STATE_HIGH
 678:arch/riscv/mach-gd32vf10x/bsp/gd32vf103_timer.c ****     \param[out] none
 679:arch/riscv/mach-gd32vf10x/bsp/gd32vf103_timer.c ****     \retval     none
 680:arch/riscv/mach-gd32vf10x/bsp/gd32vf103_timer.c **** */
 681:arch/riscv/mach-gd32vf10x/bsp/gd32vf103_timer.c **** void timer_channel_output_config(uint32_t timer_periph, uint16_t channel, timer_oc_parameter_struct
 682:arch/riscv/mach-gd32vf10x/bsp/gd32vf103_timer.c **** {
 683:arch/riscv/mach-gd32vf10x/bsp/gd32vf103_timer.c ****     switch(channel){
 684:arch/riscv/mach-gd32vf10x/bsp/gd32vf103_timer.c ****     /* configure TIMER_CH_0 */
 685:arch/riscv/mach-gd32vf10x/bsp/gd32vf103_timer.c ****     case TIMER_CH_0:
 686:arch/riscv/mach-gd32vf10x/bsp/gd32vf103_timer.c ****         /* reset the CH0EN bit */
 687:arch/riscv/mach-gd32vf10x/bsp/gd32vf103_timer.c ****         TIMER_CHCTL2(timer_periph) &= (~(uint32_t)TIMER_CHCTL2_CH0EN);
 688:arch/riscv/mach-gd32vf10x/bsp/gd32vf103_timer.c ****         /* set the CH0EN bit */
 689:arch/riscv/mach-gd32vf10x/bsp/gd32vf103_timer.c ****         TIMER_CHCTL2(timer_periph) |= (uint32_t)ocpara->outputstate;
 690:arch/riscv/mach-gd32vf10x/bsp/gd32vf103_timer.c ****         /* reset the CH0P bit */
 691:arch/riscv/mach-gd32vf10x/bsp/gd32vf103_timer.c ****         TIMER_CHCTL2(timer_periph) &= (~(uint32_t)TIMER_CHCTL2_CH0P);
 692:arch/riscv/mach-gd32vf10x/bsp/gd32vf103_timer.c ****         /* set the CH0P bit */
 693:arch/riscv/mach-gd32vf10x/bsp/gd32vf103_timer.c ****         TIMER_CHCTL2(timer_periph) |= (uint32_t)ocpara->ocpolarity;
 694:arch/riscv/mach-gd32vf10x/bsp/gd32vf103_timer.c **** 
 695:arch/riscv/mach-gd32vf10x/bsp/gd32vf103_timer.c ****         if (TIMER0 == timer_periph) {
 696:arch/riscv/mach-gd32vf10x/bsp/gd32vf103_timer.c ****             /* reset the CH0NEN bit */
 697:arch/riscv/mach-gd32vf10x/bsp/gd32vf103_timer.c ****             TIMER_CHCTL2(timer_periph) &= (~(uint32_t)TIMER_CHCTL2_CH0NEN);
 698:arch/riscv/mach-gd32vf10x/bsp/gd32vf103_timer.c ****             /* set the CH0NEN bit */
 699:arch/riscv/mach-gd32vf10x/bsp/gd32vf103_timer.c ****             TIMER_CHCTL2(timer_periph) |= (uint32_t)ocpara->outputnstate;
 700:arch/riscv/mach-gd32vf10x/bsp/gd32vf103_timer.c ****             /* reset the CH0NP bit */
 701:arch/riscv/mach-gd32vf10x/bsp/gd32vf103_timer.c ****             TIMER_CHCTL2(timer_periph) &= (~(uint32_t)TIMER_CHCTL2_CH0NP);
 702:arch/riscv/mach-gd32vf10x/bsp/gd32vf103_timer.c ****             /* set the CH0NP bit */
 703:arch/riscv/mach-gd32vf10x/bsp/gd32vf103_timer.c ****             TIMER_CHCTL2(timer_periph) |= (uint32_t)ocpara->ocnpolarity;
 704:arch/riscv/mach-gd32vf10x/bsp/gd32vf103_timer.c ****             /* reset the ISO0 bit */
 705:arch/riscv/mach-gd32vf10x/bsp/gd32vf103_timer.c ****             TIMER_CTL1(timer_periph) &= (~(uint32_t)TIMER_CTL1_ISO0);
 706:arch/riscv/mach-gd32vf10x/bsp/gd32vf103_timer.c ****             /* set the ISO0 bit */
 707:arch/riscv/mach-gd32vf10x/bsp/gd32vf103_timer.c ****             TIMER_CTL1(timer_periph) |= (uint32_t)ocpara->ocidlestate;
 708:arch/riscv/mach-gd32vf10x/bsp/gd32vf103_timer.c ****             /* reset the ISO0N bit */
 709:arch/riscv/mach-gd32vf10x/bsp/gd32vf103_timer.c ****             TIMER_CTL1(timer_periph) &= (~(uint32_t)TIMER_CTL1_ISO0N);
 710:arch/riscv/mach-gd32vf10x/bsp/gd32vf103_timer.c ****             /* set the ISO0N bit */
 711:arch/riscv/mach-gd32vf10x/bsp/gd32vf103_timer.c ****             TIMER_CTL1(timer_periph) |= (uint32_t)ocpara->ocnidlestate;
 712:arch/riscv/mach-gd32vf10x/bsp/gd32vf103_timer.c ****         }
 713:arch/riscv/mach-gd32vf10x/bsp/gd32vf103_timer.c ****         TIMER_CHCTL0(timer_periph) &= ~(uint32_t)TIMER_CHCTL0_CH0MS;
 714:arch/riscv/mach-gd32vf10x/bsp/gd32vf103_timer.c ****         break;
 715:arch/riscv/mach-gd32vf10x/bsp/gd32vf103_timer.c ****     /* configure TIMER_CH_1 */
 716:arch/riscv/mach-gd32vf10x/bsp/gd32vf103_timer.c ****     case TIMER_CH_1:
 717:arch/riscv/mach-gd32vf10x/bsp/gd32vf103_timer.c ****         /* reset the CH1EN bit */
 718:arch/riscv/mach-gd32vf10x/bsp/gd32vf103_timer.c ****         TIMER_CHCTL2(timer_periph) &= (~(uint32_t)TIMER_CHCTL2_CH1EN);
 719:arch/riscv/mach-gd32vf10x/bsp/gd32vf103_timer.c ****         /* set the CH1EN bit */
 720:arch/riscv/mach-gd32vf10x/bsp/gd32vf103_timer.c ****         TIMER_CHCTL2(timer_periph) |= (uint32_t)((uint32_t)(ocpara->outputstate) << 4U);
 721:arch/riscv/mach-gd32vf10x/bsp/gd32vf103_timer.c ****         /* reset the CH1P bit */
 722:arch/riscv/mach-gd32vf10x/bsp/gd32vf103_timer.c ****         TIMER_CHCTL2(timer_periph) &= (~(uint32_t)TIMER_CHCTL2_CH1P);
 723:arch/riscv/mach-gd32vf10x/bsp/gd32vf103_timer.c ****         /* set the CH1P bit */
 724:arch/riscv/mach-gd32vf10x/bsp/gd32vf103_timer.c ****         TIMER_CHCTL2(timer_periph) |= (uint32_t)((uint32_t)(ocpara->ocpolarity) << 4U);
 725:arch/riscv/mach-gd32vf10x/bsp/gd32vf103_timer.c **** 
 726:arch/riscv/mach-gd32vf10x/bsp/gd32vf103_timer.c ****         if (TIMER0 == timer_periph) {
 727:arch/riscv/mach-gd32vf10x/bsp/gd32vf103_timer.c ****             /* reset the CH1NEN bit */
 728:arch/riscv/mach-gd32vf10x/bsp/gd32vf103_timer.c ****             TIMER_CHCTL2(timer_periph) &= (~(uint32_t)TIMER_CHCTL2_CH1NEN);
 729:arch/riscv/mach-gd32vf10x/bsp/gd32vf103_timer.c ****             /* set the CH1NEN bit */
 730:arch/riscv/mach-gd32vf10x/bsp/gd32vf103_timer.c ****             TIMER_CHCTL2(timer_periph) |= (uint32_t)((uint32_t)(ocpara->outputnstate) << 4U);
 731:arch/riscv/mach-gd32vf10x/bsp/gd32vf103_timer.c ****             /* reset the CH1NP bit */
GAS LISTING C:\Users\test\AppData\Local\Temp\ccx0JFmY.s 			page 14


 732:arch/riscv/mach-gd32vf10x/bsp/gd32vf103_timer.c ****             TIMER_CHCTL2(timer_periph) &= (~(uint32_t)TIMER_CHCTL2_CH1NP);
 733:arch/riscv/mach-gd32vf10x/bsp/gd32vf103_timer.c ****             /* set the CH1NP bit */
 734:arch/riscv/mach-gd32vf10x/bsp/gd32vf103_timer.c ****             TIMER_CHCTL2(timer_periph) |= (uint32_t)((uint32_t)(ocpara->ocnpolarity) << 4U);
 735:arch/riscv/mach-gd32vf10x/bsp/gd32vf103_timer.c ****             /* reset the ISO1 bit */
 736:arch/riscv/mach-gd32vf10x/bsp/gd32vf103_timer.c ****             TIMER_CTL1(timer_periph) &= (~(uint32_t)TIMER_CTL1_ISO1);
 737:arch/riscv/mach-gd32vf10x/bsp/gd32vf103_timer.c ****             /* set the ISO1 bit */
 738:arch/riscv/mach-gd32vf10x/bsp/gd32vf103_timer.c ****             TIMER_CTL1(timer_periph) |= (uint32_t)((uint32_t)(ocpara->ocidlestate) << 2U);
 739:arch/riscv/mach-gd32vf10x/bsp/gd32vf103_timer.c ****             /* reset the ISO1N bit */
 740:arch/riscv/mach-gd32vf10x/bsp/gd32vf103_timer.c ****             TIMER_CTL1(timer_periph) &= (~(uint32_t)TIMER_CTL1_ISO1N);
 741:arch/riscv/mach-gd32vf10x/bsp/gd32vf103_timer.c ****             /* set the ISO1N bit */
 742:arch/riscv/mach-gd32vf10x/bsp/gd32vf103_timer.c ****             TIMER_CTL1(timer_periph) |= (uint32_t)((uint32_t)(ocpara->ocnidlestate) << 2U);
 743:arch/riscv/mach-gd32vf10x/bsp/gd32vf103_timer.c ****         }
 744:arch/riscv/mach-gd32vf10x/bsp/gd32vf103_timer.c ****         TIMER_CHCTL0(timer_periph) &= ~(uint32_t)TIMER_CHCTL0_CH1MS;
 745:arch/riscv/mach-gd32vf10x/bsp/gd32vf103_timer.c ****         break;
 746:arch/riscv/mach-gd32vf10x/bsp/gd32vf103_timer.c ****     /* configure TIMER_CH_2 */
 747:arch/riscv/mach-gd32vf10x/bsp/gd32vf103_timer.c ****     case TIMER_CH_2:
 748:arch/riscv/mach-gd32vf10x/bsp/gd32vf103_timer.c ****         /* reset the CH2EN bit */
 749:arch/riscv/mach-gd32vf10x/bsp/gd32vf103_timer.c ****         TIMER_CHCTL2(timer_periph) &= (~(uint32_t)TIMER_CHCTL2_CH2EN);
 750:arch/riscv/mach-gd32vf10x/bsp/gd32vf103_timer.c ****         /* set the CH2EN bit */
 751:arch/riscv/mach-gd32vf10x/bsp/gd32vf103_timer.c ****         TIMER_CHCTL2(timer_periph) |= (uint32_t)((uint32_t)(ocpara->outputstate) << 8U);
 752:arch/riscv/mach-gd32vf10x/bsp/gd32vf103_timer.c ****         /* reset the CH2P bit */
 753:arch/riscv/mach-gd32vf10x/bsp/gd32vf103_timer.c ****         TIMER_CHCTL2(timer_periph) &= (~(uint32_t)TIMER_CHCTL2_CH2P);
 754:arch/riscv/mach-gd32vf10x/bsp/gd32vf103_timer.c ****         /* set the CH2P bit */
 755:arch/riscv/mach-gd32vf10x/bsp/gd32vf103_timer.c ****         TIMER_CHCTL2(timer_periph) |= (uint32_t)((uint32_t)(ocpara->ocpolarity) << 8U);
 756:arch/riscv/mach-gd32vf10x/bsp/gd32vf103_timer.c **** 
 757:arch/riscv/mach-gd32vf10x/bsp/gd32vf103_timer.c ****         if (TIMER0 == timer_periph) {
 758:arch/riscv/mach-gd32vf10x/bsp/gd32vf103_timer.c ****             /* reset the CH2NEN bit */
 759:arch/riscv/mach-gd32vf10x/bsp/gd32vf103_timer.c ****             TIMER_CHCTL2(timer_periph) &= (~(uint32_t)TIMER_CHCTL2_CH2NEN);
 760:arch/riscv/mach-gd32vf10x/bsp/gd32vf103_timer.c ****             /* set the CH2NEN bit */
 761:arch/riscv/mach-gd32vf10x/bsp/gd32vf103_timer.c ****             TIMER_CHCTL2(timer_periph) |= (uint32_t)((uint32_t)(ocpara->outputnstate) << 8U);
 762:arch/riscv/mach-gd32vf10x/bsp/gd32vf103_timer.c ****             /* reset the CH2NP bit */
 763:arch/riscv/mach-gd32vf10x/bsp/gd32vf103_timer.c ****             TIMER_CHCTL2(timer_periph) &= (~(uint32_t)TIMER_CHCTL2_CH2NP);
 764:arch/riscv/mach-gd32vf10x/bsp/gd32vf103_timer.c ****             /* set the CH2NP bit */
 765:arch/riscv/mach-gd32vf10x/bsp/gd32vf103_timer.c ****             TIMER_CHCTL2(timer_periph) |= (uint32_t)((uint32_t)(ocpara->ocnpolarity) << 8U);
 766:arch/riscv/mach-gd32vf10x/bsp/gd32vf103_timer.c ****             /* reset the ISO2 bit */
 767:arch/riscv/mach-gd32vf10x/bsp/gd32vf103_timer.c ****             TIMER_CTL1(timer_periph) &= (~(uint32_t)TIMER_CTL1_ISO2);
 768:arch/riscv/mach-gd32vf10x/bsp/gd32vf103_timer.c ****             /* set the ISO2 bit */
 769:arch/riscv/mach-gd32vf10x/bsp/gd32vf103_timer.c ****             TIMER_CTL1(timer_periph) |= (uint32_t)((uint32_t)(ocpara->ocidlestate) << 4U);
 770:arch/riscv/mach-gd32vf10x/bsp/gd32vf103_timer.c ****             /* reset the ISO2N bit */
 771:arch/riscv/mach-gd32vf10x/bsp/gd32vf103_timer.c ****             TIMER_CTL1(timer_periph) &= (~(uint32_t)TIMER_CTL1_ISO2N);
 772:arch/riscv/mach-gd32vf10x/bsp/gd32vf103_timer.c ****             /* set the ISO2N bit */
 773:arch/riscv/mach-gd32vf10x/bsp/gd32vf103_timer.c ****             TIMER_CTL1(timer_periph) |= (uint32_t)((uint32_t)(ocpara->ocnidlestate) << 4U);
 774:arch/riscv/mach-gd32vf10x/bsp/gd32vf103_timer.c ****         }
 775:arch/riscv/mach-gd32vf10x/bsp/gd32vf103_timer.c ****         TIMER_CHCTL1(timer_periph) &= ~(uint32_t)TIMER_CHCTL1_CH2MS;
 776:arch/riscv/mach-gd32vf10x/bsp/gd32vf103_timer.c ****         break;
 777:arch/riscv/mach-gd32vf10x/bsp/gd32vf103_timer.c ****     /* configure TIMER_CH_3 */
 778:arch/riscv/mach-gd32vf10x/bsp/gd32vf103_timer.c ****     case TIMER_CH_3:
 779:arch/riscv/mach-gd32vf10x/bsp/gd32vf103_timer.c ****         /* reset the CH3EN bit */
 780:arch/riscv/mach-gd32vf10x/bsp/gd32vf103_timer.c ****         TIMER_CHCTL2(timer_periph) &=(~(uint32_t)TIMER_CHCTL2_CH3EN);
 781:arch/riscv/mach-gd32vf10x/bsp/gd32vf103_timer.c ****         /* set the CH3EN bit */
 782:arch/riscv/mach-gd32vf10x/bsp/gd32vf103_timer.c ****         TIMER_CHCTL2(timer_periph) |= (uint32_t)((uint32_t)(ocpara->outputstate) << 12U);
 783:arch/riscv/mach-gd32vf10x/bsp/gd32vf103_timer.c ****         /* reset the CH3P bit */
 784:arch/riscv/mach-gd32vf10x/bsp/gd32vf103_timer.c ****         TIMER_CHCTL2(timer_periph) &= (~(uint32_t)TIMER_CHCTL2_CH3P);
 785:arch/riscv/mach-gd32vf10x/bsp/gd32vf103_timer.c ****         /* set the CH3P bit */
 786:arch/riscv/mach-gd32vf10x/bsp/gd32vf103_timer.c ****         TIMER_CHCTL2(timer_periph) |= (uint32_t)((uint32_t)(ocpara->ocpolarity) << 12U);
 787:arch/riscv/mach-gd32vf10x/bsp/gd32vf103_timer.c **** 
 788:arch/riscv/mach-gd32vf10x/bsp/gd32vf103_timer.c ****         if (TIMER0 == timer_periph) {
GAS LISTING C:\Users\test\AppData\Local\Temp\ccx0JFmY.s 			page 15


 789:arch/riscv/mach-gd32vf10x/bsp/gd32vf103_timer.c ****             /* reset the ISO3 bit */
 790:arch/riscv/mach-gd32vf10x/bsp/gd32vf103_timer.c ****             TIMER_CTL1(timer_periph) &= (~(uint32_t)TIMER_CTL1_ISO3);
 791:arch/riscv/mach-gd32vf10x/bsp/gd32vf103_timer.c ****             /* set the ISO3 bit */
 792:arch/riscv/mach-gd32vf10x/bsp/gd32vf103_timer.c ****             TIMER_CTL1(timer_periph) |= (uint32_t)((uint32_t)(ocpara->ocidlestate) << 6U);
 793:arch/riscv/mach-gd32vf10x/bsp/gd32vf103_timer.c ****         }
 794:arch/riscv/mach-gd32vf10x/bsp/gd32vf103_timer.c ****         TIMER_CHCTL1(timer_periph) &= ~(uint32_t)TIMER_CHCTL1_CH3MS;
 795:arch/riscv/mach-gd32vf10x/bsp/gd32vf103_timer.c ****         break;
 796:arch/riscv/mach-gd32vf10x/bsp/gd32vf103_timer.c ****     default:
 797:arch/riscv/mach-gd32vf10x/bsp/gd32vf103_timer.c ****         break;
 798:arch/riscv/mach-gd32vf10x/bsp/gd32vf103_timer.c ****     }
 799:arch/riscv/mach-gd32vf10x/bsp/gd32vf103_timer.c **** }
 800:arch/riscv/mach-gd32vf10x/bsp/gd32vf103_timer.c **** 
 801:arch/riscv/mach-gd32vf10x/bsp/gd32vf103_timer.c **** /*!
 802:arch/riscv/mach-gd32vf10x/bsp/gd32vf103_timer.c ****     \brief      configure TIMER channel output compare mode
 803:arch/riscv/mach-gd32vf10x/bsp/gd32vf103_timer.c ****     \param[in]  timer_periph: TIMERx(x=0..4)
 804:arch/riscv/mach-gd32vf10x/bsp/gd32vf103_timer.c ****     \param[in]  channel:
 805:arch/riscv/mach-gd32vf10x/bsp/gd32vf103_timer.c ****                 only one parameter can be selected which is shown as below:
 806:arch/riscv/mach-gd32vf10x/bsp/gd32vf103_timer.c ****       \arg        TIMER_CH_0: TIMER channel 0(TIMERx(x=0..4))
 807:arch/riscv/mach-gd32vf10x/bsp/gd32vf103_timer.c ****       \arg        TIMER_CH_1: TIMER channel 1(TIMERx(x=0..4))
 808:arch/riscv/mach-gd32vf10x/bsp/gd32vf103_timer.c ****       \arg        TIMER_CH_2: TIMER channel 2(TIMERx(x=0..4))
 809:arch/riscv/mach-gd32vf10x/bsp/gd32vf103_timer.c ****       \arg        TIMER_CH_3: TIMER channel 3(TIMERx(x=0..4))
 810:arch/riscv/mach-gd32vf10x/bsp/gd32vf103_timer.c ****     \param[in]  ocmode: channel output compare mode
 811:arch/riscv/mach-gd32vf10x/bsp/gd32vf103_timer.c ****                 only one parameter can be selected which is shown as below:
 812:arch/riscv/mach-gd32vf10x/bsp/gd32vf103_timer.c ****       \arg        TIMER_OC_MODE_TIMING: timing mode
 813:arch/riscv/mach-gd32vf10x/bsp/gd32vf103_timer.c ****       \arg        TIMER_OC_MODE_ACTIVE: active mode
 814:arch/riscv/mach-gd32vf10x/bsp/gd32vf103_timer.c ****       \arg        TIMER_OC_MODE_INACTIVE: inactive mode
 815:arch/riscv/mach-gd32vf10x/bsp/gd32vf103_timer.c ****       \arg        TIMER_OC_MODE_TOGGLE: toggle mode
 816:arch/riscv/mach-gd32vf10x/bsp/gd32vf103_timer.c ****       \arg        TIMER_OC_MODE_LOW: force low mode
 817:arch/riscv/mach-gd32vf10x/bsp/gd32vf103_timer.c ****       \arg        TIMER_OC_MODE_HIGH: force high mode
 818:arch/riscv/mach-gd32vf10x/bsp/gd32vf103_timer.c ****       \arg        TIMER_OC_MODE_PWM0: PWM mode 0
 819:arch/riscv/mach-gd32vf10x/bsp/gd32vf103_timer.c ****       \arg        TIMER_OC_MODE_PWM1: PWM mode 1
 820:arch/riscv/mach-gd32vf10x/bsp/gd32vf103_timer.c ****     \param[out] none
 821:arch/riscv/mach-gd32vf10x/bsp/gd32vf103_timer.c ****     \retval     none
 822:arch/riscv/mach-gd32vf10x/bsp/gd32vf103_timer.c **** */
 823:arch/riscv/mach-gd32vf10x/bsp/gd32vf103_timer.c **** void timer_channel_output_mode_config(uint32_t timer_periph, uint16_t channel, uint16_t ocmode)
 824:arch/riscv/mach-gd32vf10x/bsp/gd32vf103_timer.c **** {
 825:arch/riscv/mach-gd32vf10x/bsp/gd32vf103_timer.c ****     switch(channel){
 826:arch/riscv/mach-gd32vf10x/bsp/gd32vf103_timer.c ****     /* configure TIMER_CH_0 */
 827:arch/riscv/mach-gd32vf10x/bsp/gd32vf103_timer.c ****     case TIMER_CH_0:
 828:arch/riscv/mach-gd32vf10x/bsp/gd32vf103_timer.c ****         TIMER_CHCTL0(timer_periph) &= (~(uint32_t)TIMER_CHCTL0_CH0COMCTL);
 829:arch/riscv/mach-gd32vf10x/bsp/gd32vf103_timer.c ****         TIMER_CHCTL0(timer_periph) |= (uint32_t)ocmode;
 830:arch/riscv/mach-gd32vf10x/bsp/gd32vf103_timer.c ****         break;
 831:arch/riscv/mach-gd32vf10x/bsp/gd32vf103_timer.c ****     /* configure TIMER_CH_1 */
 832:arch/riscv/mach-gd32vf10x/bsp/gd32vf103_timer.c ****     case TIMER_CH_1:
 833:arch/riscv/mach-gd32vf10x/bsp/gd32vf103_timer.c ****         TIMER_CHCTL0(timer_periph) &= (~(uint32_t)TIMER_CHCTL0_CH1COMCTL);
 834:arch/riscv/mach-gd32vf10x/bsp/gd32vf103_timer.c ****         TIMER_CHCTL0(timer_periph) |= (uint32_t)((uint32_t)(ocmode) << 8U);
 835:arch/riscv/mach-gd32vf10x/bsp/gd32vf103_timer.c ****         break;
 836:arch/riscv/mach-gd32vf10x/bsp/gd32vf103_timer.c ****     /* configure TIMER_CH_2 */
 837:arch/riscv/mach-gd32vf10x/bsp/gd32vf103_timer.c ****     case TIMER_CH_2:
 838:arch/riscv/mach-gd32vf10x/bsp/gd32vf103_timer.c ****         TIMER_CHCTL1(timer_periph) &= (~(uint32_t)TIMER_CHCTL1_CH2COMCTL);
 839:arch/riscv/mach-gd32vf10x/bsp/gd32vf103_timer.c ****         TIMER_CHCTL1(timer_periph) |= (uint32_t)ocmode;
 840:arch/riscv/mach-gd32vf10x/bsp/gd32vf103_timer.c ****         break;
 841:arch/riscv/mach-gd32vf10x/bsp/gd32vf103_timer.c ****     /* configure TIMER_CH_3 */
 842:arch/riscv/mach-gd32vf10x/bsp/gd32vf103_timer.c ****     case TIMER_CH_3:
 843:arch/riscv/mach-gd32vf10x/bsp/gd32vf103_timer.c ****         TIMER_CHCTL1(timer_periph) &= (~(uint32_t)TIMER_CHCTL1_CH3COMCTL);
 844:arch/riscv/mach-gd32vf10x/bsp/gd32vf103_timer.c ****         TIMER_CHCTL1(timer_periph) |= (uint32_t)((uint32_t)(ocmode) << 8U);
 845:arch/riscv/mach-gd32vf10x/bsp/gd32vf103_timer.c ****         break;
GAS LISTING C:\Users\test\AppData\Local\Temp\ccx0JFmY.s 			page 16


 846:arch/riscv/mach-gd32vf10x/bsp/gd32vf103_timer.c ****     default:
 847:arch/riscv/mach-gd32vf10x/bsp/gd32vf103_timer.c ****         break;
 848:arch/riscv/mach-gd32vf10x/bsp/gd32vf103_timer.c ****     }
 849:arch/riscv/mach-gd32vf10x/bsp/gd32vf103_timer.c **** }
 850:arch/riscv/mach-gd32vf10x/bsp/gd32vf103_timer.c **** 
 851:arch/riscv/mach-gd32vf10x/bsp/gd32vf103_timer.c **** /*!
 852:arch/riscv/mach-gd32vf10x/bsp/gd32vf103_timer.c ****     \brief      configure TIMER channel output pulse value
 853:arch/riscv/mach-gd32vf10x/bsp/gd32vf103_timer.c ****     \param[in]  timer_periph: TIMERx(x=0..4)
 854:arch/riscv/mach-gd32vf10x/bsp/gd32vf103_timer.c ****     \param[in]  channel:
 855:arch/riscv/mach-gd32vf10x/bsp/gd32vf103_timer.c ****                 only one parameter can be selected which is shown as below:
 856:arch/riscv/mach-gd32vf10x/bsp/gd32vf103_timer.c ****       \arg        TIMER_CH_0: TIMER channel 0(TIMERx(x=0..4))
 857:arch/riscv/mach-gd32vf10x/bsp/gd32vf103_timer.c ****       \arg        TIMER_CH_1: TIMER channel 1(TIMERx(x=0..4))
 858:arch/riscv/mach-gd32vf10x/bsp/gd32vf103_timer.c ****       \arg        TIMER_CH_2: TIMER channel 2(TIMERx(x=0..4))
 859:arch/riscv/mach-gd32vf10x/bsp/gd32vf103_timer.c ****       \arg        TIMER_CH_3: TIMER channel 3(TIMERx(x=0..4))
 860:arch/riscv/mach-gd32vf10x/bsp/gd32vf103_timer.c ****     \param[in]  pulse: channel output pulse value
 861:arch/riscv/mach-gd32vf10x/bsp/gd32vf103_timer.c ****     \param[out] none
 862:arch/riscv/mach-gd32vf10x/bsp/gd32vf103_timer.c ****     \retval     none
 863:arch/riscv/mach-gd32vf10x/bsp/gd32vf103_timer.c **** */
 864:arch/riscv/mach-gd32vf10x/bsp/gd32vf103_timer.c **** void timer_channel_output_pulse_value_config(uint32_t timer_periph, uint16_t channel, uint32_t puls
 865:arch/riscv/mach-gd32vf10x/bsp/gd32vf103_timer.c **** {
 866:arch/riscv/mach-gd32vf10x/bsp/gd32vf103_timer.c ****     switch(channel){
 867:arch/riscv/mach-gd32vf10x/bsp/gd32vf103_timer.c ****     /* configure TIMER_CH_0 */
 868:arch/riscv/mach-gd32vf10x/bsp/gd32vf103_timer.c ****     case TIMER_CH_0:
 869:arch/riscv/mach-gd32vf10x/bsp/gd32vf103_timer.c ****         TIMER_CH0CV(timer_periph) = (uint32_t)pulse;
 870:arch/riscv/mach-gd32vf10x/bsp/gd32vf103_timer.c ****         break;
 871:arch/riscv/mach-gd32vf10x/bsp/gd32vf103_timer.c ****     /* configure TIMER_CH_1 */
 872:arch/riscv/mach-gd32vf10x/bsp/gd32vf103_timer.c ****     case TIMER_CH_1:
 873:arch/riscv/mach-gd32vf10x/bsp/gd32vf103_timer.c ****         TIMER_CH1CV(timer_periph) = (uint32_t)pulse;
 874:arch/riscv/mach-gd32vf10x/bsp/gd32vf103_timer.c ****         break;
 875:arch/riscv/mach-gd32vf10x/bsp/gd32vf103_timer.c ****     /* configure TIMER_CH_2 */
 876:arch/riscv/mach-gd32vf10x/bsp/gd32vf103_timer.c ****     case TIMER_CH_2:
 877:arch/riscv/mach-gd32vf10x/bsp/gd32vf103_timer.c ****         TIMER_CH2CV(timer_periph) = (uint32_t)pulse;
 878:arch/riscv/mach-gd32vf10x/bsp/gd32vf103_timer.c ****         break;
 879:arch/riscv/mach-gd32vf10x/bsp/gd32vf103_timer.c ****     /* configure TIMER_CH_3 */
 880:arch/riscv/mach-gd32vf10x/bsp/gd32vf103_timer.c ****     case TIMER_CH_3:
 881:arch/riscv/mach-gd32vf10x/bsp/gd32vf103_timer.c ****          TIMER_CH3CV(timer_periph) = (uint32_t)pulse;
 882:arch/riscv/mach-gd32vf10x/bsp/gd32vf103_timer.c ****         break;
 883:arch/riscv/mach-gd32vf10x/bsp/gd32vf103_timer.c ****     default:
 884:arch/riscv/mach-gd32vf10x/bsp/gd32vf103_timer.c ****         break;
 885:arch/riscv/mach-gd32vf10x/bsp/gd32vf103_timer.c ****     }
 886:arch/riscv/mach-gd32vf10x/bsp/gd32vf103_timer.c **** }
 887:arch/riscv/mach-gd32vf10x/bsp/gd32vf103_timer.c **** 
 888:arch/riscv/mach-gd32vf10x/bsp/gd32vf103_timer.c **** /*!
 889:arch/riscv/mach-gd32vf10x/bsp/gd32vf103_timer.c ****     \brief      configure TIMER channel output shadow function
 890:arch/riscv/mach-gd32vf10x/bsp/gd32vf103_timer.c ****     \param[in]  timer_periph: TIMERx(x=0..4)
 891:arch/riscv/mach-gd32vf10x/bsp/gd32vf103_timer.c ****     \param[in]  channel:
 892:arch/riscv/mach-gd32vf10x/bsp/gd32vf103_timer.c ****                 only one parameter can be selected which is shown as below:
 893:arch/riscv/mach-gd32vf10x/bsp/gd32vf103_timer.c ****       \arg        TIMER_CH_0: TIMER channel 0(TIMERx(x=0..4))
 894:arch/riscv/mach-gd32vf10x/bsp/gd32vf103_timer.c ****       \arg        TIMER_CH_1: TIMER channel 1(TIMERx(x=0..4))
 895:arch/riscv/mach-gd32vf10x/bsp/gd32vf103_timer.c ****       \arg        TIMER_CH_2: TIMER channel 2(TIMERx(x=0..4))
 896:arch/riscv/mach-gd32vf10x/bsp/gd32vf103_timer.c ****       \arg        TIMER_CH_3: TIMER channel 3(TIMERx(x=0..4))
 897:arch/riscv/mach-gd32vf10x/bsp/gd32vf103_timer.c ****     \param[in]  ocshadow: channel output shadow state
 898:arch/riscv/mach-gd32vf10x/bsp/gd32vf103_timer.c ****                 only one parameter can be selected which is shown as below:
 899:arch/riscv/mach-gd32vf10x/bsp/gd32vf103_timer.c ****       \arg        TIMER_OC_SHADOW_ENABLE: channel output shadow state enable
 900:arch/riscv/mach-gd32vf10x/bsp/gd32vf103_timer.c ****       \arg        TIMER_OC_SHADOW_DISABLE: channel output shadow state disable
 901:arch/riscv/mach-gd32vf10x/bsp/gd32vf103_timer.c ****     \param[out] none
 902:arch/riscv/mach-gd32vf10x/bsp/gd32vf103_timer.c ****     \retval     none
GAS LISTING C:\Users\test\AppData\Local\Temp\ccx0JFmY.s 			page 17


 903:arch/riscv/mach-gd32vf10x/bsp/gd32vf103_timer.c **** */
 904:arch/riscv/mach-gd32vf10x/bsp/gd32vf103_timer.c **** void timer_channel_output_shadow_config(uint32_t timer_periph, uint16_t channel, uint16_t ocshadow)
 905:arch/riscv/mach-gd32vf10x/bsp/gd32vf103_timer.c **** {
 906:arch/riscv/mach-gd32vf10x/bsp/gd32vf103_timer.c ****     switch(channel){
 907:arch/riscv/mach-gd32vf10x/bsp/gd32vf103_timer.c ****     /* configure TIMER_CH_0 */
 908:arch/riscv/mach-gd32vf10x/bsp/gd32vf103_timer.c ****     case TIMER_CH_0:
 909:arch/riscv/mach-gd32vf10x/bsp/gd32vf103_timer.c ****         TIMER_CHCTL0(timer_periph) &= (~(uint32_t)TIMER_CHCTL0_CH0COMSEN);
 910:arch/riscv/mach-gd32vf10x/bsp/gd32vf103_timer.c ****         TIMER_CHCTL0(timer_periph) |= (uint32_t)ocshadow;
 911:arch/riscv/mach-gd32vf10x/bsp/gd32vf103_timer.c ****         break;
 912:arch/riscv/mach-gd32vf10x/bsp/gd32vf103_timer.c ****     /* configure TIMER_CH_1 */
 913:arch/riscv/mach-gd32vf10x/bsp/gd32vf103_timer.c ****     case TIMER_CH_1:
 914:arch/riscv/mach-gd32vf10x/bsp/gd32vf103_timer.c ****         TIMER_CHCTL0(timer_periph) &= (~(uint32_t)TIMER_CHCTL0_CH1COMSEN);
 915:arch/riscv/mach-gd32vf10x/bsp/gd32vf103_timer.c ****         TIMER_CHCTL0(timer_periph) |= (uint32_t)((uint32_t)(ocshadow) << 8U);
 916:arch/riscv/mach-gd32vf10x/bsp/gd32vf103_timer.c ****         break;
 917:arch/riscv/mach-gd32vf10x/bsp/gd32vf103_timer.c ****     /* configure TIMER_CH_2 */
 918:arch/riscv/mach-gd32vf10x/bsp/gd32vf103_timer.c ****     case TIMER_CH_2:
 919:arch/riscv/mach-gd32vf10x/bsp/gd32vf103_timer.c ****         TIMER_CHCTL1(timer_periph) &= (~(uint32_t)TIMER_CHCTL1_CH2COMSEN);
 920:arch/riscv/mach-gd32vf10x/bsp/gd32vf103_timer.c ****         TIMER_CHCTL1(timer_periph) |= (uint32_t)ocshadow;
 921:arch/riscv/mach-gd32vf10x/bsp/gd32vf103_timer.c ****         break;
 922:arch/riscv/mach-gd32vf10x/bsp/gd32vf103_timer.c ****     /* configure TIMER_CH_3 */
 923:arch/riscv/mach-gd32vf10x/bsp/gd32vf103_timer.c ****     case TIMER_CH_3:
 924:arch/riscv/mach-gd32vf10x/bsp/gd32vf103_timer.c ****         TIMER_CHCTL1(timer_periph) &= (~(uint32_t)TIMER_CHCTL1_CH3COMSEN);
 925:arch/riscv/mach-gd32vf10x/bsp/gd32vf103_timer.c ****         TIMER_CHCTL1(timer_periph) |= (uint32_t)((uint32_t)(ocshadow) << 8U);
 926:arch/riscv/mach-gd32vf10x/bsp/gd32vf103_timer.c ****         break;
 927:arch/riscv/mach-gd32vf10x/bsp/gd32vf103_timer.c ****     default:
 928:arch/riscv/mach-gd32vf10x/bsp/gd32vf103_timer.c ****         break;
 929:arch/riscv/mach-gd32vf10x/bsp/gd32vf103_timer.c ****     }
 930:arch/riscv/mach-gd32vf10x/bsp/gd32vf103_timer.c **** }
 931:arch/riscv/mach-gd32vf10x/bsp/gd32vf103_timer.c **** 
 932:arch/riscv/mach-gd32vf10x/bsp/gd32vf103_timer.c **** /*!
 933:arch/riscv/mach-gd32vf10x/bsp/gd32vf103_timer.c ****     \brief      configure TIMER channel output fast function
 934:arch/riscv/mach-gd32vf10x/bsp/gd32vf103_timer.c ****     \param[in]  timer_periph: TIMERx(x=0..4)
 935:arch/riscv/mach-gd32vf10x/bsp/gd32vf103_timer.c ****     \param[in]  channel:
 936:arch/riscv/mach-gd32vf10x/bsp/gd32vf103_timer.c ****                 only one parameter can be selected which is shown as below:
 937:arch/riscv/mach-gd32vf10x/bsp/gd32vf103_timer.c ****       \arg        TIMER_CH_0: TIMER channel 0(TIMERx(x=0..4))
 938:arch/riscv/mach-gd32vf10x/bsp/gd32vf103_timer.c ****       \arg        TIMER_CH_1: TIMER channel 1(TIMERx(x=0..4))
 939:arch/riscv/mach-gd32vf10x/bsp/gd32vf103_timer.c ****       \arg        TIMER_CH_2: TIMER channel 2(TIMERx(x=0..4))
 940:arch/riscv/mach-gd32vf10x/bsp/gd32vf103_timer.c ****       \arg        TIMER_CH_3: TIMER channel 3(TIMERx(x=0..4))
 941:arch/riscv/mach-gd32vf10x/bsp/gd32vf103_timer.c ****     \param[in]  ocfast: channel output fast function
 942:arch/riscv/mach-gd32vf10x/bsp/gd32vf103_timer.c ****                 only one parameter can be selected which is shown as below:
 943:arch/riscv/mach-gd32vf10x/bsp/gd32vf103_timer.c ****       \arg        TIMER_OC_FAST_ENABLE: channel output fast function enable
 944:arch/riscv/mach-gd32vf10x/bsp/gd32vf103_timer.c ****       \arg        TIMER_OC_FAST_DISABLE: channel output fast function disable
 945:arch/riscv/mach-gd32vf10x/bsp/gd32vf103_timer.c ****     \param[out] none
 946:arch/riscv/mach-gd32vf10x/bsp/gd32vf103_timer.c ****     \retval     none
 947:arch/riscv/mach-gd32vf10x/bsp/gd32vf103_timer.c **** */
 948:arch/riscv/mach-gd32vf10x/bsp/gd32vf103_timer.c **** void timer_channel_output_fast_config(uint32_t timer_periph, uint16_t channel, uint16_t ocfast)
 949:arch/riscv/mach-gd32vf10x/bsp/gd32vf103_timer.c **** {
 950:arch/riscv/mach-gd32vf10x/bsp/gd32vf103_timer.c ****     switch(channel){
 951:arch/riscv/mach-gd32vf10x/bsp/gd32vf103_timer.c ****     /* configure TIMER_CH_0 */
 952:arch/riscv/mach-gd32vf10x/bsp/gd32vf103_timer.c ****     case TIMER_CH_0:
 953:arch/riscv/mach-gd32vf10x/bsp/gd32vf103_timer.c ****         TIMER_CHCTL0(timer_periph) &= (~(uint32_t)TIMER_CHCTL0_CH0COMFEN);
 954:arch/riscv/mach-gd32vf10x/bsp/gd32vf103_timer.c ****         TIMER_CHCTL0(timer_periph) |= (uint32_t)ocfast;
 955:arch/riscv/mach-gd32vf10x/bsp/gd32vf103_timer.c ****         break;
 956:arch/riscv/mach-gd32vf10x/bsp/gd32vf103_timer.c ****     /* configure TIMER_CH_1 */
 957:arch/riscv/mach-gd32vf10x/bsp/gd32vf103_timer.c ****     case TIMER_CH_1:
 958:arch/riscv/mach-gd32vf10x/bsp/gd32vf103_timer.c ****         TIMER_CHCTL0(timer_periph) &= (~(uint32_t)TIMER_CHCTL0_CH1COMFEN);
 959:arch/riscv/mach-gd32vf10x/bsp/gd32vf103_timer.c ****         TIMER_CHCTL0(timer_periph) |= (uint32_t)((uint32_t)ocfast << 8U);
GAS LISTING C:\Users\test\AppData\Local\Temp\ccx0JFmY.s 			page 18


 960:arch/riscv/mach-gd32vf10x/bsp/gd32vf103_timer.c ****         break;
 961:arch/riscv/mach-gd32vf10x/bsp/gd32vf103_timer.c ****     /* configure TIMER_CH_2 */
 962:arch/riscv/mach-gd32vf10x/bsp/gd32vf103_timer.c ****     case TIMER_CH_2:
 963:arch/riscv/mach-gd32vf10x/bsp/gd32vf103_timer.c ****         TIMER_CHCTL1(timer_periph) &= (~(uint32_t)TIMER_CHCTL1_CH2COMFEN);
 964:arch/riscv/mach-gd32vf10x/bsp/gd32vf103_timer.c ****         TIMER_CHCTL1(timer_periph) |= (uint32_t)ocfast;
 965:arch/riscv/mach-gd32vf10x/bsp/gd32vf103_timer.c ****         break;
 966:arch/riscv/mach-gd32vf10x/bsp/gd32vf103_timer.c ****     /* configure TIMER_CH_3 */
 967:arch/riscv/mach-gd32vf10x/bsp/gd32vf103_timer.c ****     case TIMER_CH_3:
 968:arch/riscv/mach-gd32vf10x/bsp/gd32vf103_timer.c ****         TIMER_CHCTL1(timer_periph) &= (~(uint32_t)TIMER_CHCTL1_CH3COMFEN);
 969:arch/riscv/mach-gd32vf10x/bsp/gd32vf103_timer.c ****         TIMER_CHCTL1(timer_periph) |= (uint32_t)((uint32_t)ocfast << 8U);
 970:arch/riscv/mach-gd32vf10x/bsp/gd32vf103_timer.c ****         break;
 971:arch/riscv/mach-gd32vf10x/bsp/gd32vf103_timer.c ****     default:
 972:arch/riscv/mach-gd32vf10x/bsp/gd32vf103_timer.c ****         break;
 973:arch/riscv/mach-gd32vf10x/bsp/gd32vf103_timer.c ****     }
 974:arch/riscv/mach-gd32vf10x/bsp/gd32vf103_timer.c **** }
 975:arch/riscv/mach-gd32vf10x/bsp/gd32vf103_timer.c **** 
 976:arch/riscv/mach-gd32vf10x/bsp/gd32vf103_timer.c **** /*!
 977:arch/riscv/mach-gd32vf10x/bsp/gd32vf103_timer.c ****     \brief      configure TIMER channel output clear function
 978:arch/riscv/mach-gd32vf10x/bsp/gd32vf103_timer.c ****     \param[in]  timer_periph: TIMERx(x=0..4)
 979:arch/riscv/mach-gd32vf10x/bsp/gd32vf103_timer.c ****     \param[in]  channel:
 980:arch/riscv/mach-gd32vf10x/bsp/gd32vf103_timer.c ****                 only one parameter can be selected which is shown as below:
 981:arch/riscv/mach-gd32vf10x/bsp/gd32vf103_timer.c ****       \arg        TIMER_CH_0: TIMER channel 0(TIMERx(x=0..4))
 982:arch/riscv/mach-gd32vf10x/bsp/gd32vf103_timer.c ****       \arg        TIMER_CH_1: TIMER channel 1(TIMERx(x=0..41))
 983:arch/riscv/mach-gd32vf10x/bsp/gd32vf103_timer.c ****       \arg        TIMER_CH_2: TIMER channel 2(TIMERx(x=0..4))
 984:arch/riscv/mach-gd32vf10x/bsp/gd32vf103_timer.c ****       \arg        TIMER_CH_3: TIMER channel 3(TIMERx(x=0..4))
 985:arch/riscv/mach-gd32vf10x/bsp/gd32vf103_timer.c ****     \param[in]  occlear: channel output clear function
 986:arch/riscv/mach-gd32vf10x/bsp/gd32vf103_timer.c ****                 only one parameter can be selected which is shown as below:
 987:arch/riscv/mach-gd32vf10x/bsp/gd32vf103_timer.c ****       \arg        TIMER_OC_CLEAR_ENABLE: channel output clear function enable
 988:arch/riscv/mach-gd32vf10x/bsp/gd32vf103_timer.c ****       \arg        TIMER_OC_CLEAR_DISABLE: channel output clear function disable
 989:arch/riscv/mach-gd32vf10x/bsp/gd32vf103_timer.c ****     \param[out] none
 990:arch/riscv/mach-gd32vf10x/bsp/gd32vf103_timer.c ****     \retval     none
 991:arch/riscv/mach-gd32vf10x/bsp/gd32vf103_timer.c **** */
 992:arch/riscv/mach-gd32vf10x/bsp/gd32vf103_timer.c **** void timer_channel_output_clear_config(uint32_t timer_periph, uint16_t channel, uint16_t occlear)
 993:arch/riscv/mach-gd32vf10x/bsp/gd32vf103_timer.c **** {
 994:arch/riscv/mach-gd32vf10x/bsp/gd32vf103_timer.c ****     switch(channel){
 995:arch/riscv/mach-gd32vf10x/bsp/gd32vf103_timer.c ****     /* configure TIMER_CH_0 */
 996:arch/riscv/mach-gd32vf10x/bsp/gd32vf103_timer.c ****     case TIMER_CH_0:
 997:arch/riscv/mach-gd32vf10x/bsp/gd32vf103_timer.c ****         TIMER_CHCTL0(timer_periph) &= (~(uint32_t)TIMER_CHCTL0_CH0COMCEN);
 998:arch/riscv/mach-gd32vf10x/bsp/gd32vf103_timer.c ****         TIMER_CHCTL0(timer_periph) |= (uint32_t)occlear;
 999:arch/riscv/mach-gd32vf10x/bsp/gd32vf103_timer.c ****         break;
1000:arch/riscv/mach-gd32vf10x/bsp/gd32vf103_timer.c ****     /* configure TIMER_CH_1 */
1001:arch/riscv/mach-gd32vf10x/bsp/gd32vf103_timer.c ****     case TIMER_CH_1:
1002:arch/riscv/mach-gd32vf10x/bsp/gd32vf103_timer.c ****         TIMER_CHCTL0(timer_periph) &= (~(uint32_t)TIMER_CHCTL0_CH1COMCEN);
1003:arch/riscv/mach-gd32vf10x/bsp/gd32vf103_timer.c ****         TIMER_CHCTL0(timer_periph) |= (uint32_t)((uint32_t)occlear << 8U);
1004:arch/riscv/mach-gd32vf10x/bsp/gd32vf103_timer.c ****         break;
1005:arch/riscv/mach-gd32vf10x/bsp/gd32vf103_timer.c ****     /* configure TIMER_CH_2 */
1006:arch/riscv/mach-gd32vf10x/bsp/gd32vf103_timer.c ****     case TIMER_CH_2:
1007:arch/riscv/mach-gd32vf10x/bsp/gd32vf103_timer.c ****         TIMER_CHCTL1(timer_periph) &= (~(uint32_t)TIMER_CHCTL1_CH2COMCEN);
1008:arch/riscv/mach-gd32vf10x/bsp/gd32vf103_timer.c ****         TIMER_CHCTL1(timer_periph) |= (uint32_t)occlear;
1009:arch/riscv/mach-gd32vf10x/bsp/gd32vf103_timer.c ****         break;
1010:arch/riscv/mach-gd32vf10x/bsp/gd32vf103_timer.c ****     /* configure TIMER_CH_3 */
1011:arch/riscv/mach-gd32vf10x/bsp/gd32vf103_timer.c ****     case TIMER_CH_3:
1012:arch/riscv/mach-gd32vf10x/bsp/gd32vf103_timer.c ****         TIMER_CHCTL1(timer_periph) &= (~(uint32_t)TIMER_CHCTL1_CH3COMCEN);
1013:arch/riscv/mach-gd32vf10x/bsp/gd32vf103_timer.c ****         TIMER_CHCTL1(timer_periph) |= (uint32_t)((uint32_t)occlear << 8U);
1014:arch/riscv/mach-gd32vf10x/bsp/gd32vf103_timer.c ****         break;
1015:arch/riscv/mach-gd32vf10x/bsp/gd32vf103_timer.c ****     default:
1016:arch/riscv/mach-gd32vf10x/bsp/gd32vf103_timer.c ****         break;
GAS LISTING C:\Users\test\AppData\Local\Temp\ccx0JFmY.s 			page 19


1017:arch/riscv/mach-gd32vf10x/bsp/gd32vf103_timer.c ****     }
1018:arch/riscv/mach-gd32vf10x/bsp/gd32vf103_timer.c **** }
1019:arch/riscv/mach-gd32vf10x/bsp/gd32vf103_timer.c **** 
1020:arch/riscv/mach-gd32vf10x/bsp/gd32vf103_timer.c **** /*!
1021:arch/riscv/mach-gd32vf10x/bsp/gd32vf103_timer.c ****     \brief      configure TIMER channel output polarity 
1022:arch/riscv/mach-gd32vf10x/bsp/gd32vf103_timer.c ****     \param[in]  timer_periph: TIMERx(x=0..4)
1023:arch/riscv/mach-gd32vf10x/bsp/gd32vf103_timer.c ****     \param[in]  channel:
1024:arch/riscv/mach-gd32vf10x/bsp/gd32vf103_timer.c ****                 only one parameter can be selected which is shown as below:
1025:arch/riscv/mach-gd32vf10x/bsp/gd32vf103_timer.c ****       \arg        TIMER_CH_0: TIMER channel 0(TIMERx(x=0..4))
1026:arch/riscv/mach-gd32vf10x/bsp/gd32vf103_timer.c ****       \arg        TIMER_CH_1: TIMER channel 1(TIMERx(x=0..4))
1027:arch/riscv/mach-gd32vf10x/bsp/gd32vf103_timer.c ****       \arg        TIMER_CH_2: TIMER channel 2(TIMERx(x=0..4))
1028:arch/riscv/mach-gd32vf10x/bsp/gd32vf103_timer.c ****       \arg        TIMER_CH_3: TIMER channel 3(TIMERx(x=0..4))
1029:arch/riscv/mach-gd32vf10x/bsp/gd32vf103_timer.c ****     \param[in]  ocpolarity: channel output polarity
1030:arch/riscv/mach-gd32vf10x/bsp/gd32vf103_timer.c ****                 only one parameter can be selected which is shown as below:
1031:arch/riscv/mach-gd32vf10x/bsp/gd32vf103_timer.c ****       \arg        TIMER_OC_POLARITY_HIGH: channel output polarity is high
1032:arch/riscv/mach-gd32vf10x/bsp/gd32vf103_timer.c ****       \arg        TIMER_OC_POLARITY_LOW: channel output polarity is low
1033:arch/riscv/mach-gd32vf10x/bsp/gd32vf103_timer.c ****     \param[out] none
1034:arch/riscv/mach-gd32vf10x/bsp/gd32vf103_timer.c ****     \retval     none
1035:arch/riscv/mach-gd32vf10x/bsp/gd32vf103_timer.c **** */
1036:arch/riscv/mach-gd32vf10x/bsp/gd32vf103_timer.c **** void timer_channel_output_polarity_config(uint32_t timer_periph, uint16_t channel, uint16_t ocpolar
1037:arch/riscv/mach-gd32vf10x/bsp/gd32vf103_timer.c **** {
1038:arch/riscv/mach-gd32vf10x/bsp/gd32vf103_timer.c ****     switch(channel){
1039:arch/riscv/mach-gd32vf10x/bsp/gd32vf103_timer.c ****     /* configure TIMER_CH_0 */
1040:arch/riscv/mach-gd32vf10x/bsp/gd32vf103_timer.c ****     case TIMER_CH_0:
1041:arch/riscv/mach-gd32vf10x/bsp/gd32vf103_timer.c ****         TIMER_CHCTL2(timer_periph) &= (~(uint32_t)TIMER_CHCTL2_CH0P);
1042:arch/riscv/mach-gd32vf10x/bsp/gd32vf103_timer.c ****         TIMER_CHCTL2(timer_periph) |= (uint32_t)ocpolarity;
1043:arch/riscv/mach-gd32vf10x/bsp/gd32vf103_timer.c ****         break;
1044:arch/riscv/mach-gd32vf10x/bsp/gd32vf103_timer.c ****     /* configure TIMER_CH_1 */
1045:arch/riscv/mach-gd32vf10x/bsp/gd32vf103_timer.c ****     case TIMER_CH_1:
1046:arch/riscv/mach-gd32vf10x/bsp/gd32vf103_timer.c ****         TIMER_CHCTL2(timer_periph) &= (~(uint32_t)TIMER_CHCTL2_CH1P);
1047:arch/riscv/mach-gd32vf10x/bsp/gd32vf103_timer.c ****         TIMER_CHCTL2(timer_periph) |= (uint32_t)((uint32_t)ocpolarity << 4U);
1048:arch/riscv/mach-gd32vf10x/bsp/gd32vf103_timer.c ****         break;
1049:arch/riscv/mach-gd32vf10x/bsp/gd32vf103_timer.c ****     /* configure TIMER_CH_2 */
1050:arch/riscv/mach-gd32vf10x/bsp/gd32vf103_timer.c ****     case TIMER_CH_2:
1051:arch/riscv/mach-gd32vf10x/bsp/gd32vf103_timer.c ****         TIMER_CHCTL2(timer_periph) &= (~(uint32_t)TIMER_CHCTL2_CH2P);
1052:arch/riscv/mach-gd32vf10x/bsp/gd32vf103_timer.c ****         TIMER_CHCTL2(timer_periph) |= (uint32_t)((uint32_t)ocpolarity << 8U);
1053:arch/riscv/mach-gd32vf10x/bsp/gd32vf103_timer.c ****         break;
1054:arch/riscv/mach-gd32vf10x/bsp/gd32vf103_timer.c ****     /* configure TIMER_CH_3 */
1055:arch/riscv/mach-gd32vf10x/bsp/gd32vf103_timer.c ****     case TIMER_CH_3:
1056:arch/riscv/mach-gd32vf10x/bsp/gd32vf103_timer.c ****         TIMER_CHCTL2(timer_periph) &= (~(uint32_t)TIMER_CHCTL2_CH3P);
1057:arch/riscv/mach-gd32vf10x/bsp/gd32vf103_timer.c ****         TIMER_CHCTL2(timer_periph) |= (uint32_t)((uint32_t)ocpolarity << 12U);
1058:arch/riscv/mach-gd32vf10x/bsp/gd32vf103_timer.c ****         break;
1059:arch/riscv/mach-gd32vf10x/bsp/gd32vf103_timer.c ****     default:
1060:arch/riscv/mach-gd32vf10x/bsp/gd32vf103_timer.c ****         break;
1061:arch/riscv/mach-gd32vf10x/bsp/gd32vf103_timer.c ****     }
1062:arch/riscv/mach-gd32vf10x/bsp/gd32vf103_timer.c **** }
1063:arch/riscv/mach-gd32vf10x/bsp/gd32vf103_timer.c **** 
1064:arch/riscv/mach-gd32vf10x/bsp/gd32vf103_timer.c **** /*!
1065:arch/riscv/mach-gd32vf10x/bsp/gd32vf103_timer.c ****     \brief      configure TIMER channel complementary output polarity 
1066:arch/riscv/mach-gd32vf10x/bsp/gd32vf103_timer.c ****     \param[in]  timer_periph: TIMERx(x=0)
1067:arch/riscv/mach-gd32vf10x/bsp/gd32vf103_timer.c ****     \param[in]  channel:
1068:arch/riscv/mach-gd32vf10x/bsp/gd32vf103_timer.c ****                 only one parameter can be selected which is shown as below:
1069:arch/riscv/mach-gd32vf10x/bsp/gd32vf103_timer.c ****       \arg        TIMER_CH_0: TIMER channel 0(TIMERx(x=0))
1070:arch/riscv/mach-gd32vf10x/bsp/gd32vf103_timer.c ****       \arg        TIMER_CH_1: TIMER channel 1(TIMERx(x=0))
1071:arch/riscv/mach-gd32vf10x/bsp/gd32vf103_timer.c ****       \arg        TIMER_CH_2: TIMER channel 2(TIMERx(x=0))
1072:arch/riscv/mach-gd32vf10x/bsp/gd32vf103_timer.c ****     \param[in]  ocnpolarity: channel complementary output polarity
1073:arch/riscv/mach-gd32vf10x/bsp/gd32vf103_timer.c ****                 only one parameter can be selected which is shown as below:
GAS LISTING C:\Users\test\AppData\Local\Temp\ccx0JFmY.s 			page 20


1074:arch/riscv/mach-gd32vf10x/bsp/gd32vf103_timer.c ****       \arg        TIMER_OCN_POLARITY_HIGH: channel complementary output polarity is high
1075:arch/riscv/mach-gd32vf10x/bsp/gd32vf103_timer.c ****       \arg        TIMER_OCN_POLARITY_LOW: channel complementary output polarity is low
1076:arch/riscv/mach-gd32vf10x/bsp/gd32vf103_timer.c ****     \param[out] none
1077:arch/riscv/mach-gd32vf10x/bsp/gd32vf103_timer.c ****     \retval     none
1078:arch/riscv/mach-gd32vf10x/bsp/gd32vf103_timer.c **** */
1079:arch/riscv/mach-gd32vf10x/bsp/gd32vf103_timer.c **** void timer_channel_complementary_output_polarity_config(uint32_t timer_periph, uint16_t channel, ui
1080:arch/riscv/mach-gd32vf10x/bsp/gd32vf103_timer.c **** {
1081:arch/riscv/mach-gd32vf10x/bsp/gd32vf103_timer.c ****     switch(channel){
1082:arch/riscv/mach-gd32vf10x/bsp/gd32vf103_timer.c ****     /* configure TIMER_CH_0 */
1083:arch/riscv/mach-gd32vf10x/bsp/gd32vf103_timer.c ****     case TIMER_CH_0:
1084:arch/riscv/mach-gd32vf10x/bsp/gd32vf103_timer.c ****         TIMER_CHCTL2(timer_periph) &= (~(uint32_t)TIMER_CHCTL2_CH0NP);
1085:arch/riscv/mach-gd32vf10x/bsp/gd32vf103_timer.c ****         TIMER_CHCTL2(timer_periph) |= (uint32_t)ocnpolarity;
1086:arch/riscv/mach-gd32vf10x/bsp/gd32vf103_timer.c ****         break;
1087:arch/riscv/mach-gd32vf10x/bsp/gd32vf103_timer.c ****     /* configure TIMER_CH_1 */
1088:arch/riscv/mach-gd32vf10x/bsp/gd32vf103_timer.c ****     case TIMER_CH_1:
1089:arch/riscv/mach-gd32vf10x/bsp/gd32vf103_timer.c ****         TIMER_CHCTL2(timer_periph) &= (~(uint32_t)TIMER_CHCTL2_CH1NP);
1090:arch/riscv/mach-gd32vf10x/bsp/gd32vf103_timer.c ****         TIMER_CHCTL2(timer_periph) |= (uint32_t)((uint32_t)ocnpolarity << 4U);
1091:arch/riscv/mach-gd32vf10x/bsp/gd32vf103_timer.c ****         break;
1092:arch/riscv/mach-gd32vf10x/bsp/gd32vf103_timer.c ****     /* configure TIMER_CH_2 */
1093:arch/riscv/mach-gd32vf10x/bsp/gd32vf103_timer.c ****     case TIMER_CH_2:
1094:arch/riscv/mach-gd32vf10x/bsp/gd32vf103_timer.c ****         TIMER_CHCTL2(timer_periph) &= (~(uint32_t)TIMER_CHCTL2_CH2NP);
1095:arch/riscv/mach-gd32vf10x/bsp/gd32vf103_timer.c ****         TIMER_CHCTL2(timer_periph) |= (uint32_t)((uint32_t)ocnpolarity << 8U);
1096:arch/riscv/mach-gd32vf10x/bsp/gd32vf103_timer.c ****         break;
1097:arch/riscv/mach-gd32vf10x/bsp/gd32vf103_timer.c ****     default:
1098:arch/riscv/mach-gd32vf10x/bsp/gd32vf103_timer.c ****         break;
1099:arch/riscv/mach-gd32vf10x/bsp/gd32vf103_timer.c ****     }
1100:arch/riscv/mach-gd32vf10x/bsp/gd32vf103_timer.c **** }
1101:arch/riscv/mach-gd32vf10x/bsp/gd32vf103_timer.c **** 
1102:arch/riscv/mach-gd32vf10x/bsp/gd32vf103_timer.c **** /*!
1103:arch/riscv/mach-gd32vf10x/bsp/gd32vf103_timer.c ****     \brief      configure TIMER channel enable state
1104:arch/riscv/mach-gd32vf10x/bsp/gd32vf103_timer.c ****     \param[in]  timer_periph: TIMERx(x=0..4)
1105:arch/riscv/mach-gd32vf10x/bsp/gd32vf103_timer.c ****     \param[in]  channel:
1106:arch/riscv/mach-gd32vf10x/bsp/gd32vf103_timer.c ****                 only one parameter can be selected which is shown as below:
1107:arch/riscv/mach-gd32vf10x/bsp/gd32vf103_timer.c ****       \arg        TIMER_CH_0: TIMER channel 0(TIMERx(x=0..4))
1108:arch/riscv/mach-gd32vf10x/bsp/gd32vf103_timer.c ****       \arg        TIMER_CH_1: TIMER channel 1(TIMERx(x=0..4))
1109:arch/riscv/mach-gd32vf10x/bsp/gd32vf103_timer.c ****       \arg        TIMER_CH_2: TIMER channel 2(TIMERx(x=0..4))
1110:arch/riscv/mach-gd32vf10x/bsp/gd32vf103_timer.c ****       \arg        TIMER_CH_3: TIMER channel 3(TIMERx(x=0..4))
1111:arch/riscv/mach-gd32vf10x/bsp/gd32vf103_timer.c ****     \param[in]  state: TIMER channel enable state
1112:arch/riscv/mach-gd32vf10x/bsp/gd32vf103_timer.c ****                 only one parameter can be selected which is shown as below:
1113:arch/riscv/mach-gd32vf10x/bsp/gd32vf103_timer.c ****       \arg        TIMER_CCX_ENABLE: channel enable 
1114:arch/riscv/mach-gd32vf10x/bsp/gd32vf103_timer.c ****       \arg        TIMER_CCX_DISABLE: channel disable 
1115:arch/riscv/mach-gd32vf10x/bsp/gd32vf103_timer.c ****     \param[out] none
1116:arch/riscv/mach-gd32vf10x/bsp/gd32vf103_timer.c ****     \retval     none
1117:arch/riscv/mach-gd32vf10x/bsp/gd32vf103_timer.c **** */
1118:arch/riscv/mach-gd32vf10x/bsp/gd32vf103_timer.c **** void timer_channel_output_state_config(uint32_t timer_periph, uint16_t channel, uint32_t state)
1119:arch/riscv/mach-gd32vf10x/bsp/gd32vf103_timer.c **** {
1120:arch/riscv/mach-gd32vf10x/bsp/gd32vf103_timer.c ****     switch(channel){
1121:arch/riscv/mach-gd32vf10x/bsp/gd32vf103_timer.c ****     /* configure TIMER_CH_0 */
1122:arch/riscv/mach-gd32vf10x/bsp/gd32vf103_timer.c ****     case TIMER_CH_0:
1123:arch/riscv/mach-gd32vf10x/bsp/gd32vf103_timer.c ****         TIMER_CHCTL2(timer_periph) &= (~(uint32_t)TIMER_CHCTL2_CH0EN);
1124:arch/riscv/mach-gd32vf10x/bsp/gd32vf103_timer.c ****         TIMER_CHCTL2(timer_periph) |= (uint32_t)state;
1125:arch/riscv/mach-gd32vf10x/bsp/gd32vf103_timer.c ****         break;
1126:arch/riscv/mach-gd32vf10x/bsp/gd32vf103_timer.c ****     /* configure TIMER_CH_1 */
1127:arch/riscv/mach-gd32vf10x/bsp/gd32vf103_timer.c ****     case TIMER_CH_1:
1128:arch/riscv/mach-gd32vf10x/bsp/gd32vf103_timer.c ****         TIMER_CHCTL2(timer_periph) &= (~(uint32_t)TIMER_CHCTL2_CH1EN);
1129:arch/riscv/mach-gd32vf10x/bsp/gd32vf103_timer.c ****         TIMER_CHCTL2(timer_periph) |= (uint32_t)((uint32_t)state << 4U);
1130:arch/riscv/mach-gd32vf10x/bsp/gd32vf103_timer.c ****         break;
GAS LISTING C:\Users\test\AppData\Local\Temp\ccx0JFmY.s 			page 21


1131:arch/riscv/mach-gd32vf10x/bsp/gd32vf103_timer.c ****     /* configure TIMER_CH_2 */
1132:arch/riscv/mach-gd32vf10x/bsp/gd32vf103_timer.c ****     case TIMER_CH_2:
1133:arch/riscv/mach-gd32vf10x/bsp/gd32vf103_timer.c ****         TIMER_CHCTL2(timer_periph) &= (~(uint32_t)TIMER_CHCTL2_CH2EN);
1134:arch/riscv/mach-gd32vf10x/bsp/gd32vf103_timer.c ****         TIMER_CHCTL2(timer_periph) |= (uint32_t)((uint32_t)state << 8U);
1135:arch/riscv/mach-gd32vf10x/bsp/gd32vf103_timer.c ****         break;
1136:arch/riscv/mach-gd32vf10x/bsp/gd32vf103_timer.c ****     /* configure TIMER_CH_3 */
1137:arch/riscv/mach-gd32vf10x/bsp/gd32vf103_timer.c ****     case TIMER_CH_3:
1138:arch/riscv/mach-gd32vf10x/bsp/gd32vf103_timer.c ****         TIMER_CHCTL2(timer_periph) &= (~(uint32_t)TIMER_CHCTL2_CH3EN);
1139:arch/riscv/mach-gd32vf10x/bsp/gd32vf103_timer.c ****         TIMER_CHCTL2(timer_periph) |= (uint32_t)((uint32_t)state << 12U);
1140:arch/riscv/mach-gd32vf10x/bsp/gd32vf103_timer.c ****         break;
1141:arch/riscv/mach-gd32vf10x/bsp/gd32vf103_timer.c ****     default:
1142:arch/riscv/mach-gd32vf10x/bsp/gd32vf103_timer.c ****         break;
1143:arch/riscv/mach-gd32vf10x/bsp/gd32vf103_timer.c ****     }
1144:arch/riscv/mach-gd32vf10x/bsp/gd32vf103_timer.c **** }
1145:arch/riscv/mach-gd32vf10x/bsp/gd32vf103_timer.c **** 
1146:arch/riscv/mach-gd32vf10x/bsp/gd32vf103_timer.c **** /*!
1147:arch/riscv/mach-gd32vf10x/bsp/gd32vf103_timer.c ****     \brief      configure TIMER channel complementary output enable state
1148:arch/riscv/mach-gd32vf10x/bsp/gd32vf103_timer.c ****     \param[in]  timer_periph: TIMERx(x=0)
1149:arch/riscv/mach-gd32vf10x/bsp/gd32vf103_timer.c ****     \param[in]  channel:
1150:arch/riscv/mach-gd32vf10x/bsp/gd32vf103_timer.c ****                 only one parameter can be selected which is shown as below: 
1151:arch/riscv/mach-gd32vf10x/bsp/gd32vf103_timer.c ****       \arg        TIMER_CH_0: TIMER channel 0
1152:arch/riscv/mach-gd32vf10x/bsp/gd32vf103_timer.c ****       \arg        TIMER_CH_1: TIMER channel 1
1153:arch/riscv/mach-gd32vf10x/bsp/gd32vf103_timer.c ****       \arg        TIMER_CH_2: TIMER channel 2
1154:arch/riscv/mach-gd32vf10x/bsp/gd32vf103_timer.c ****     \param[in]  ocnstate: TIMER channel complementary output enable state
1155:arch/riscv/mach-gd32vf10x/bsp/gd32vf103_timer.c ****                 only one parameter can be selected which is shown as below:
1156:arch/riscv/mach-gd32vf10x/bsp/gd32vf103_timer.c ****       \arg        TIMER_CCXN_ENABLE: channel complementary enable 
1157:arch/riscv/mach-gd32vf10x/bsp/gd32vf103_timer.c ****       \arg        TIMER_CCXN_DISABLE: channel complementary disable 
1158:arch/riscv/mach-gd32vf10x/bsp/gd32vf103_timer.c ****     \param[out] none
1159:arch/riscv/mach-gd32vf10x/bsp/gd32vf103_timer.c ****     \retval     none
1160:arch/riscv/mach-gd32vf10x/bsp/gd32vf103_timer.c **** */
1161:arch/riscv/mach-gd32vf10x/bsp/gd32vf103_timer.c **** void timer_channel_complementary_output_state_config(uint32_t timer_periph, uint16_t channel, uint1
1162:arch/riscv/mach-gd32vf10x/bsp/gd32vf103_timer.c **** {
1163:arch/riscv/mach-gd32vf10x/bsp/gd32vf103_timer.c ****     switch(channel){
1164:arch/riscv/mach-gd32vf10x/bsp/gd32vf103_timer.c ****     /* configure TIMER_CH_0 */
1165:arch/riscv/mach-gd32vf10x/bsp/gd32vf103_timer.c ****     case TIMER_CH_0:
1166:arch/riscv/mach-gd32vf10x/bsp/gd32vf103_timer.c ****         TIMER_CHCTL2(timer_periph) &= (~(uint32_t)TIMER_CHCTL2_CH0NEN);
1167:arch/riscv/mach-gd32vf10x/bsp/gd32vf103_timer.c ****         TIMER_CHCTL2(timer_periph) |= (uint32_t)ocnstate;
1168:arch/riscv/mach-gd32vf10x/bsp/gd32vf103_timer.c ****         break;
1169:arch/riscv/mach-gd32vf10x/bsp/gd32vf103_timer.c ****     /* configure TIMER_CH_1 */
1170:arch/riscv/mach-gd32vf10x/bsp/gd32vf103_timer.c ****     case TIMER_CH_1:
1171:arch/riscv/mach-gd32vf10x/bsp/gd32vf103_timer.c ****         TIMER_CHCTL2(timer_periph) &= (~(uint32_t)TIMER_CHCTL2_CH1NEN);
1172:arch/riscv/mach-gd32vf10x/bsp/gd32vf103_timer.c ****         TIMER_CHCTL2(timer_periph) |= (uint32_t)((uint32_t)ocnstate << 4U);
1173:arch/riscv/mach-gd32vf10x/bsp/gd32vf103_timer.c ****         break;
1174:arch/riscv/mach-gd32vf10x/bsp/gd32vf103_timer.c ****     /* configure TIMER_CH_2 */
1175:arch/riscv/mach-gd32vf10x/bsp/gd32vf103_timer.c ****     case TIMER_CH_2:
1176:arch/riscv/mach-gd32vf10x/bsp/gd32vf103_timer.c ****         TIMER_CHCTL2(timer_periph) &= (~(uint32_t)TIMER_CHCTL2_CH2NEN);
1177:arch/riscv/mach-gd32vf10x/bsp/gd32vf103_timer.c ****         TIMER_CHCTL2(timer_periph) |= (uint32_t)((uint32_t)ocnstate << 8U);
1178:arch/riscv/mach-gd32vf10x/bsp/gd32vf103_timer.c ****         break;
1179:arch/riscv/mach-gd32vf10x/bsp/gd32vf103_timer.c ****     default:
1180:arch/riscv/mach-gd32vf10x/bsp/gd32vf103_timer.c ****         break;
1181:arch/riscv/mach-gd32vf10x/bsp/gd32vf103_timer.c ****     }
1182:arch/riscv/mach-gd32vf10x/bsp/gd32vf103_timer.c **** }
1183:arch/riscv/mach-gd32vf10x/bsp/gd32vf103_timer.c **** 
1184:arch/riscv/mach-gd32vf10x/bsp/gd32vf103_timer.c **** /*!
1185:arch/riscv/mach-gd32vf10x/bsp/gd32vf103_timer.c ****     \brief      initialize TIMER channel input parameter struct with a default value
1186:arch/riscv/mach-gd32vf10x/bsp/gd32vf103_timer.c ****     \param[in]  icpara: TIMER channel intput parameter struct
1187:arch/riscv/mach-gd32vf10x/bsp/gd32vf103_timer.c ****     \param[out] none
GAS LISTING C:\Users\test\AppData\Local\Temp\ccx0JFmY.s 			page 22


1188:arch/riscv/mach-gd32vf10x/bsp/gd32vf103_timer.c ****     \retval     none
1189:arch/riscv/mach-gd32vf10x/bsp/gd32vf103_timer.c **** */
1190:arch/riscv/mach-gd32vf10x/bsp/gd32vf103_timer.c **** void timer_channel_input_struct_para_init(timer_ic_parameter_struct* icpara)
1191:arch/riscv/mach-gd32vf10x/bsp/gd32vf103_timer.c **** {
1192:arch/riscv/mach-gd32vf10x/bsp/gd32vf103_timer.c ****     /* initialize the channel input parameter struct member with the default value */
1193:arch/riscv/mach-gd32vf10x/bsp/gd32vf103_timer.c ****     icpara->icpolarity  = TIMER_IC_POLARITY_RISING;
1194:arch/riscv/mach-gd32vf10x/bsp/gd32vf103_timer.c ****     icpara->icselection = TIMER_IC_SELECTION_DIRECTTI;
1195:arch/riscv/mach-gd32vf10x/bsp/gd32vf103_timer.c ****     icpara->icprescaler = TIMER_IC_PSC_DIV1;
1196:arch/riscv/mach-gd32vf10x/bsp/gd32vf103_timer.c ****     icpara->icfilter    = 0U;
1197:arch/riscv/mach-gd32vf10x/bsp/gd32vf103_timer.c **** }
1198:arch/riscv/mach-gd32vf10x/bsp/gd32vf103_timer.c **** 
1199:arch/riscv/mach-gd32vf10x/bsp/gd32vf103_timer.c **** /*!
1200:arch/riscv/mach-gd32vf10x/bsp/gd32vf103_timer.c ****     \brief      configure TIMER input capture parameter 
1201:arch/riscv/mach-gd32vf10x/bsp/gd32vf103_timer.c ****     \param[in]  timer_periph: TIMERx(x=0..4)
1202:arch/riscv/mach-gd32vf10x/bsp/gd32vf103_timer.c ****     \param[in]  channel:
1203:arch/riscv/mach-gd32vf10x/bsp/gd32vf103_timer.c ****                 only one parameter can be selected which is shown as below: 
1204:arch/riscv/mach-gd32vf10x/bsp/gd32vf103_timer.c ****       \arg        TIMER_CH_0: TIMER channel 0(TIMERx(x=0..4))
1205:arch/riscv/mach-gd32vf10x/bsp/gd32vf103_timer.c ****       \arg        TIMER_CH_1: TIMER channel 1(TIMERx(x=0..4))
1206:arch/riscv/mach-gd32vf10x/bsp/gd32vf103_timer.c ****       \arg        TIMER_CH_2: TIMER channel 2(TIMERx(x=0..4))
1207:arch/riscv/mach-gd32vf10x/bsp/gd32vf103_timer.c ****       \arg        TIMER_CH_3: TIMER channel 3(TIMERx(x=0..4))
1208:arch/riscv/mach-gd32vf10x/bsp/gd32vf103_timer.c ****     \param[in]  icpara: TIMER channel intput parameter struct
1209:arch/riscv/mach-gd32vf10x/bsp/gd32vf103_timer.c ****                   icpolarity: TIMER_IC_POLARITY_RISING, TIMER_IC_POLARITY_FALLING,
1210:arch/riscv/mach-gd32vf10x/bsp/gd32vf103_timer.c ****                               TIMER_IC_POLARITY_BOTH_EDGE(only for TIMER1~TIMER8)
1211:arch/riscv/mach-gd32vf10x/bsp/gd32vf103_timer.c ****                   icselection: TIMER_IC_SELECTION_DIRECTTI, TIMER_IC_SELECTION_INDIRECTTI,
1212:arch/riscv/mach-gd32vf10x/bsp/gd32vf103_timer.c ****                                TIMER_IC_SELECTION_ITS
1213:arch/riscv/mach-gd32vf10x/bsp/gd32vf103_timer.c ****                   icprescaler: TIMER_IC_PSC_DIV1, TIMER_IC_PSC_DIV2, TIMER_IC_PSC_DIV4,
1214:arch/riscv/mach-gd32vf10x/bsp/gd32vf103_timer.c ****                                TIMER_IC_PSC_DIV8
1215:arch/riscv/mach-gd32vf10x/bsp/gd32vf103_timer.c ****                   icfilter: 0~15
1216:arch/riscv/mach-gd32vf10x/bsp/gd32vf103_timer.c ****     \param[out]  none
1217:arch/riscv/mach-gd32vf10x/bsp/gd32vf103_timer.c ****     \retval      none
1218:arch/riscv/mach-gd32vf10x/bsp/gd32vf103_timer.c **** */
1219:arch/riscv/mach-gd32vf10x/bsp/gd32vf103_timer.c **** void timer_input_capture_config(uint32_t timer_periph, uint16_t channel, timer_ic_parameter_struct*
1220:arch/riscv/mach-gd32vf10x/bsp/gd32vf103_timer.c **** {
1221:arch/riscv/mach-gd32vf10x/bsp/gd32vf103_timer.c ****     switch(channel){
1222:arch/riscv/mach-gd32vf10x/bsp/gd32vf103_timer.c ****     /* configure TIMER_CH_0 */
1223:arch/riscv/mach-gd32vf10x/bsp/gd32vf103_timer.c ****     case TIMER_CH_0:
1224:arch/riscv/mach-gd32vf10x/bsp/gd32vf103_timer.c ****         /* reset the CH0EN bit */
1225:arch/riscv/mach-gd32vf10x/bsp/gd32vf103_timer.c ****         TIMER_CHCTL2(timer_periph) &= (~(uint32_t)TIMER_CHCTL2_CH0EN);
1226:arch/riscv/mach-gd32vf10x/bsp/gd32vf103_timer.c **** 
1227:arch/riscv/mach-gd32vf10x/bsp/gd32vf103_timer.c ****         /* reset the CH0P and CH0NP bits */
1228:arch/riscv/mach-gd32vf10x/bsp/gd32vf103_timer.c ****         TIMER_CHCTL2(timer_periph) &= (~(uint32_t)(TIMER_CHCTL2_CH0P | TIMER_CHCTL2_CH0NP));
1229:arch/riscv/mach-gd32vf10x/bsp/gd32vf103_timer.c ****         TIMER_CHCTL2(timer_periph) |= (uint32_t)(icpara->icpolarity);
1230:arch/riscv/mach-gd32vf10x/bsp/gd32vf103_timer.c ****         /* reset the CH0MS bit */
1231:arch/riscv/mach-gd32vf10x/bsp/gd32vf103_timer.c ****         TIMER_CHCTL0(timer_periph) &= (~(uint32_t)TIMER_CHCTL0_CH0MS);
1232:arch/riscv/mach-gd32vf10x/bsp/gd32vf103_timer.c ****         TIMER_CHCTL0(timer_periph) |= (uint32_t)(icpara->icselection);
1233:arch/riscv/mach-gd32vf10x/bsp/gd32vf103_timer.c ****         /* reset the CH0CAPFLT bit */
1234:arch/riscv/mach-gd32vf10x/bsp/gd32vf103_timer.c ****         TIMER_CHCTL0(timer_periph) &= (~(uint32_t)TIMER_CHCTL0_CH0CAPFLT);
1235:arch/riscv/mach-gd32vf10x/bsp/gd32vf103_timer.c ****         TIMER_CHCTL0(timer_periph) |= (uint32_t)((uint32_t)(icpara->icfilter) << 4U);
1236:arch/riscv/mach-gd32vf10x/bsp/gd32vf103_timer.c **** 
1237:arch/riscv/mach-gd32vf10x/bsp/gd32vf103_timer.c ****         /* set the CH0EN bit */
1238:arch/riscv/mach-gd32vf10x/bsp/gd32vf103_timer.c ****         TIMER_CHCTL2(timer_periph) |= (uint32_t)TIMER_CHCTL2_CH0EN;
1239:arch/riscv/mach-gd32vf10x/bsp/gd32vf103_timer.c ****         break;
1240:arch/riscv/mach-gd32vf10x/bsp/gd32vf103_timer.c ****     
1241:arch/riscv/mach-gd32vf10x/bsp/gd32vf103_timer.c ****     /* configure TIMER_CH_1 */
1242:arch/riscv/mach-gd32vf10x/bsp/gd32vf103_timer.c ****     case TIMER_CH_1:
1243:arch/riscv/mach-gd32vf10x/bsp/gd32vf103_timer.c ****         /* reset the CH1EN bit */
1244:arch/riscv/mach-gd32vf10x/bsp/gd32vf103_timer.c ****         TIMER_CHCTL2(timer_periph) &= (~(uint32_t)TIMER_CHCTL2_CH1EN);
GAS LISTING C:\Users\test\AppData\Local\Temp\ccx0JFmY.s 			page 23


1245:arch/riscv/mach-gd32vf10x/bsp/gd32vf103_timer.c **** 
1246:arch/riscv/mach-gd32vf10x/bsp/gd32vf103_timer.c ****         /* reset the CH1P and CH1NP bits */
1247:arch/riscv/mach-gd32vf10x/bsp/gd32vf103_timer.c ****         TIMER_CHCTL2(timer_periph) &= (~(uint32_t)(TIMER_CHCTL2_CH1P | TIMER_CHCTL2_CH1NP));
1248:arch/riscv/mach-gd32vf10x/bsp/gd32vf103_timer.c ****         TIMER_CHCTL2(timer_periph) |= (uint32_t)((uint32_t)(icpara->icpolarity) << 4U);
1249:arch/riscv/mach-gd32vf10x/bsp/gd32vf103_timer.c ****         /* reset the CH1MS bit */
1250:arch/riscv/mach-gd32vf10x/bsp/gd32vf103_timer.c ****         TIMER_CHCTL0(timer_periph) &= (~(uint32_t)TIMER_CHCTL0_CH1MS);
1251:arch/riscv/mach-gd32vf10x/bsp/gd32vf103_timer.c ****         TIMER_CHCTL0(timer_periph) |= (uint32_t)((uint32_t)(icpara->icselection) << 8U);
1252:arch/riscv/mach-gd32vf10x/bsp/gd32vf103_timer.c ****         /* reset the CH1CAPFLT bit */
1253:arch/riscv/mach-gd32vf10x/bsp/gd32vf103_timer.c ****         TIMER_CHCTL0(timer_periph) &= (~(uint32_t)TIMER_CHCTL0_CH1CAPFLT);
1254:arch/riscv/mach-gd32vf10x/bsp/gd32vf103_timer.c ****         TIMER_CHCTL0(timer_periph) |= (uint32_t)((uint32_t)(icpara->icfilter) << 12U);
1255:arch/riscv/mach-gd32vf10x/bsp/gd32vf103_timer.c **** 
1256:arch/riscv/mach-gd32vf10x/bsp/gd32vf103_timer.c ****         /* set the CH1EN bit */
1257:arch/riscv/mach-gd32vf10x/bsp/gd32vf103_timer.c ****         TIMER_CHCTL2(timer_periph) |= (uint32_t)TIMER_CHCTL2_CH1EN;
1258:arch/riscv/mach-gd32vf10x/bsp/gd32vf103_timer.c ****         break;
1259:arch/riscv/mach-gd32vf10x/bsp/gd32vf103_timer.c ****     /* configure TIMER_CH_2 */
1260:arch/riscv/mach-gd32vf10x/bsp/gd32vf103_timer.c ****     case TIMER_CH_2:
1261:arch/riscv/mach-gd32vf10x/bsp/gd32vf103_timer.c ****         /* reset the CH2EN bit */
1262:arch/riscv/mach-gd32vf10x/bsp/gd32vf103_timer.c ****         TIMER_CHCTL2(timer_periph) &= (~(uint32_t)TIMER_CHCTL2_CH2EN);
1263:arch/riscv/mach-gd32vf10x/bsp/gd32vf103_timer.c **** 
1264:arch/riscv/mach-gd32vf10x/bsp/gd32vf103_timer.c ****         /* reset the CH2P and CH2NP bits */
1265:arch/riscv/mach-gd32vf10x/bsp/gd32vf103_timer.c ****         TIMER_CHCTL2(timer_periph) &= (~(uint32_t)(TIMER_CHCTL2_CH2P | TIMER_CHCTL2_CH2NP));
1266:arch/riscv/mach-gd32vf10x/bsp/gd32vf103_timer.c ****         TIMER_CHCTL2(timer_periph) |= (uint32_t)((uint32_t)(icpara->icpolarity) << 8U);
1267:arch/riscv/mach-gd32vf10x/bsp/gd32vf103_timer.c **** 
1268:arch/riscv/mach-gd32vf10x/bsp/gd32vf103_timer.c ****         /* reset the CH2MS bit */
1269:arch/riscv/mach-gd32vf10x/bsp/gd32vf103_timer.c ****         TIMER_CHCTL1(timer_periph) &= (~(uint32_t)TIMER_CHCTL1_CH2MS);
1270:arch/riscv/mach-gd32vf10x/bsp/gd32vf103_timer.c ****         TIMER_CHCTL1(timer_periph) |= (uint32_t)((uint32_t)(icpara->icselection));
1271:arch/riscv/mach-gd32vf10x/bsp/gd32vf103_timer.c **** 
1272:arch/riscv/mach-gd32vf10x/bsp/gd32vf103_timer.c ****         /* reset the CH2CAPFLT bit */
1273:arch/riscv/mach-gd32vf10x/bsp/gd32vf103_timer.c ****         TIMER_CHCTL1(timer_periph) &= (~(uint32_t)TIMER_CHCTL1_CH2CAPFLT);
1274:arch/riscv/mach-gd32vf10x/bsp/gd32vf103_timer.c ****         TIMER_CHCTL1(timer_periph) |= (uint32_t)((uint32_t)(icpara->icfilter) << 4U);
1275:arch/riscv/mach-gd32vf10x/bsp/gd32vf103_timer.c **** 
1276:arch/riscv/mach-gd32vf10x/bsp/gd32vf103_timer.c ****         /* set the CH2EN bit */
1277:arch/riscv/mach-gd32vf10x/bsp/gd32vf103_timer.c ****         TIMER_CHCTL2(timer_periph) |= (uint32_t)TIMER_CHCTL2_CH2EN;
1278:arch/riscv/mach-gd32vf10x/bsp/gd32vf103_timer.c ****         break;
1279:arch/riscv/mach-gd32vf10x/bsp/gd32vf103_timer.c ****     /* configure TIMER_CH_3 */
1280:arch/riscv/mach-gd32vf10x/bsp/gd32vf103_timer.c ****     case TIMER_CH_3:
1281:arch/riscv/mach-gd32vf10x/bsp/gd32vf103_timer.c ****         /* reset the CH3EN bit */
1282:arch/riscv/mach-gd32vf10x/bsp/gd32vf103_timer.c ****         TIMER_CHCTL2(timer_periph) &= (~(uint32_t)TIMER_CHCTL2_CH3EN);
1283:arch/riscv/mach-gd32vf10x/bsp/gd32vf103_timer.c **** 
1284:arch/riscv/mach-gd32vf10x/bsp/gd32vf103_timer.c ****         /* reset the CH3P bits */
1285:arch/riscv/mach-gd32vf10x/bsp/gd32vf103_timer.c ****         TIMER_CHCTL2(timer_periph) &= (~(uint32_t)(TIMER_CHCTL2_CH3P));
1286:arch/riscv/mach-gd32vf10x/bsp/gd32vf103_timer.c ****         TIMER_CHCTL2(timer_periph) |= (uint32_t)((uint32_t)(icpara->icpolarity) << 12U);
1287:arch/riscv/mach-gd32vf10x/bsp/gd32vf103_timer.c **** 
1288:arch/riscv/mach-gd32vf10x/bsp/gd32vf103_timer.c ****         /* reset the CH3MS bit */
1289:arch/riscv/mach-gd32vf10x/bsp/gd32vf103_timer.c ****         TIMER_CHCTL1(timer_periph) &= (~(uint32_t)TIMER_CHCTL1_CH3MS);
1290:arch/riscv/mach-gd32vf10x/bsp/gd32vf103_timer.c ****         TIMER_CHCTL1(timer_periph) |= (uint32_t)((uint32_t)(icpara->icselection) << 8U);
1291:arch/riscv/mach-gd32vf10x/bsp/gd32vf103_timer.c **** 
1292:arch/riscv/mach-gd32vf10x/bsp/gd32vf103_timer.c ****         /* reset the CH3CAPFLT bit */
1293:arch/riscv/mach-gd32vf10x/bsp/gd32vf103_timer.c ****         TIMER_CHCTL1(timer_periph) &= (~(uint32_t)TIMER_CHCTL1_CH3CAPFLT);
1294:arch/riscv/mach-gd32vf10x/bsp/gd32vf103_timer.c ****         TIMER_CHCTL1(timer_periph) |= (uint32_t)((uint32_t)(icpara->icfilter) << 12U);
1295:arch/riscv/mach-gd32vf10x/bsp/gd32vf103_timer.c **** 
1296:arch/riscv/mach-gd32vf10x/bsp/gd32vf103_timer.c ****         /* set the CH3EN bit */
1297:arch/riscv/mach-gd32vf10x/bsp/gd32vf103_timer.c ****         TIMER_CHCTL2(timer_periph) |= (uint32_t)TIMER_CHCTL2_CH3EN;
1298:arch/riscv/mach-gd32vf10x/bsp/gd32vf103_timer.c ****         break;
1299:arch/riscv/mach-gd32vf10x/bsp/gd32vf103_timer.c ****     default:
1300:arch/riscv/mach-gd32vf10x/bsp/gd32vf103_timer.c ****         break;
1301:arch/riscv/mach-gd32vf10x/bsp/gd32vf103_timer.c ****     }
GAS LISTING C:\Users\test\AppData\Local\Temp\ccx0JFmY.s 			page 24


1302:arch/riscv/mach-gd32vf10x/bsp/gd32vf103_timer.c ****     /* configure TIMER channel input capture prescaler value */
1303:arch/riscv/mach-gd32vf10x/bsp/gd32vf103_timer.c ****     timer_channel_input_capture_prescaler_config(timer_periph, channel, (uint16_t)(icpara->icpresca
1304:arch/riscv/mach-gd32vf10x/bsp/gd32vf103_timer.c **** }
1305:arch/riscv/mach-gd32vf10x/bsp/gd32vf103_timer.c **** 
1306:arch/riscv/mach-gd32vf10x/bsp/gd32vf103_timer.c **** /*!
1307:arch/riscv/mach-gd32vf10x/bsp/gd32vf103_timer.c ****     \brief      configure TIMER channel input capture prescaler value
1308:arch/riscv/mach-gd32vf10x/bsp/gd32vf103_timer.c ****     \param[in]  timer_periph: TIMERx(x=0..4)
1309:arch/riscv/mach-gd32vf10x/bsp/gd32vf103_timer.c ****     \param[in]  channel:
1310:arch/riscv/mach-gd32vf10x/bsp/gd32vf103_timer.c ****                 only one parameter can be selected which is shown as below: 
1311:arch/riscv/mach-gd32vf10x/bsp/gd32vf103_timer.c ****       \arg        TIMER_CH_0: TIMER channel 0(TIMERx(x=0..4))
1312:arch/riscv/mach-gd32vf10x/bsp/gd32vf103_timer.c ****       \arg        TIMER_CH_1: TIMER channel 1(TIMERx(x=0..4))
1313:arch/riscv/mach-gd32vf10x/bsp/gd32vf103_timer.c ****       \arg        TIMER_CH_2: TIMER channel 2(TIMERx(x=0..4))
1314:arch/riscv/mach-gd32vf10x/bsp/gd32vf103_timer.c ****       \arg        TIMER_CH_3: TIMER channel 3(TIMERx(x=0..4))
1315:arch/riscv/mach-gd32vf10x/bsp/gd32vf103_timer.c ****     \param[in]  prescaler: channel input capture prescaler value
1316:arch/riscv/mach-gd32vf10x/bsp/gd32vf103_timer.c ****                 only one parameter can be selected which is shown as below:
1317:arch/riscv/mach-gd32vf10x/bsp/gd32vf103_timer.c ****       \arg        TIMER_IC_PSC_DIV1: no prescaler
1318:arch/riscv/mach-gd32vf10x/bsp/gd32vf103_timer.c ****       \arg        TIMER_IC_PSC_DIV2: divided by 2
1319:arch/riscv/mach-gd32vf10x/bsp/gd32vf103_timer.c ****       \arg        TIMER_IC_PSC_DIV4: divided by 4
1320:arch/riscv/mach-gd32vf10x/bsp/gd32vf103_timer.c ****       \arg        TIMER_IC_PSC_DIV8: divided by 8
1321:arch/riscv/mach-gd32vf10x/bsp/gd32vf103_timer.c ****     \param[out] none
1322:arch/riscv/mach-gd32vf10x/bsp/gd32vf103_timer.c ****     \retval     none
1323:arch/riscv/mach-gd32vf10x/bsp/gd32vf103_timer.c **** */
1324:arch/riscv/mach-gd32vf10x/bsp/gd32vf103_timer.c **** void timer_channel_input_capture_prescaler_config(uint32_t timer_periph, uint16_t channel, uint16_t
  12              		.loc 1 1324 6
  13              		.cfi_startproc
  14              	.LVL0:
1325:arch/riscv/mach-gd32vf10x/bsp/gd32vf103_timer.c **** {
1326:arch/riscv/mach-gd32vf10x/bsp/gd32vf103_timer.c ****     switch(channel){
1327:arch/riscv/mach-gd32vf10x/bsp/gd32vf103_timer.c ****     /* configure TIMER_CH_0 */
1328:arch/riscv/mach-gd32vf10x/bsp/gd32vf103_timer.c ****     case TIMER_CH_0:
1329:arch/riscv/mach-gd32vf10x/bsp/gd32vf103_timer.c ****         TIMER_CHCTL0(timer_periph) &= (~(uint32_t)TIMER_CHCTL0_CH0CAPPSC);
1330:arch/riscv/mach-gd32vf10x/bsp/gd32vf103_timer.c ****         TIMER_CHCTL0(timer_periph) |= (uint32_t)prescaler;
1331:arch/riscv/mach-gd32vf10x/bsp/gd32vf103_timer.c ****         break;
1332:arch/riscv/mach-gd32vf10x/bsp/gd32vf103_timer.c ****     /* configure TIMER_CH_1 */
1333:arch/riscv/mach-gd32vf10x/bsp/gd32vf103_timer.c ****     case TIMER_CH_1:
1334:arch/riscv/mach-gd32vf10x/bsp/gd32vf103_timer.c ****         TIMER_CHCTL0(timer_periph) &= (~(uint32_t)TIMER_CHCTL0_CH1CAPPSC);
  15              		.loc 1 1334 9
  16              		.loc 1 1334 36 is_stmt 0
  17 0000 1C4D     		lw	a5,24(a0)
  18 0002 7D77     		li	a4,-4096
  19 0004 1307F73F 		addi	a4,a4,1023
  20 0008 F98F     		and	a5,a5,a4
  21 000a 1CCD     		sw	a5,24(a0)
1335:arch/riscv/mach-gd32vf10x/bsp/gd32vf103_timer.c ****         TIMER_CHCTL0(timer_periph) |= ((uint32_t)prescaler << 8U);
  22              		.loc 1 1335 9 is_stmt 1
  23              		.loc 1 1335 36 is_stmt 0
  24 000c 1C4D     		lw	a5,24(a0)
  25              		.loc 1 1335 60
  26 000e A205     		slli	a1,a1,8
  27              	.LVL1:
  28              		.loc 1 1335 36
  29 0010 DD8D     		or	a1,a1,a5
  30 0012 0CCD     		sw	a1,24(a0)
1336:arch/riscv/mach-gd32vf10x/bsp/gd32vf103_timer.c ****         break;
  31              		.loc 1 1336 9 is_stmt 1
1337:arch/riscv/mach-gd32vf10x/bsp/gd32vf103_timer.c ****     /* configure TIMER_CH_2 */
1338:arch/riscv/mach-gd32vf10x/bsp/gd32vf103_timer.c ****     case TIMER_CH_2:
GAS LISTING C:\Users\test\AppData\Local\Temp\ccx0JFmY.s 			page 25


1339:arch/riscv/mach-gd32vf10x/bsp/gd32vf103_timer.c ****         TIMER_CHCTL1(timer_periph) &= (~(uint32_t)TIMER_CHCTL1_CH2CAPPSC);
1340:arch/riscv/mach-gd32vf10x/bsp/gd32vf103_timer.c ****         TIMER_CHCTL1(timer_periph) |= (uint32_t)prescaler;
1341:arch/riscv/mach-gd32vf10x/bsp/gd32vf103_timer.c ****         break;
1342:arch/riscv/mach-gd32vf10x/bsp/gd32vf103_timer.c ****     /* configure TIMER_CH_3 */
1343:arch/riscv/mach-gd32vf10x/bsp/gd32vf103_timer.c ****     case TIMER_CH_3:
1344:arch/riscv/mach-gd32vf10x/bsp/gd32vf103_timer.c ****         TIMER_CHCTL1(timer_periph) &= (~(uint32_t)TIMER_CHCTL1_CH3CAPPSC);
1345:arch/riscv/mach-gd32vf10x/bsp/gd32vf103_timer.c ****         TIMER_CHCTL1(timer_periph) |= ((uint32_t)prescaler << 8U);
1346:arch/riscv/mach-gd32vf10x/bsp/gd32vf103_timer.c ****         break;
1347:arch/riscv/mach-gd32vf10x/bsp/gd32vf103_timer.c ****     default:
1348:arch/riscv/mach-gd32vf10x/bsp/gd32vf103_timer.c ****         break;
1349:arch/riscv/mach-gd32vf10x/bsp/gd32vf103_timer.c ****     }
1350:arch/riscv/mach-gd32vf10x/bsp/gd32vf103_timer.c **** }
  32              		.loc 1 1350 1 is_stmt 0
  33 0014 8280     		ret
  34              		.cfi_endproc
  35              	.LFE71:
  37              		.section	.text.timer_deinit,"ax",@progbits
  38              		.align	1
  39              		.globl	timer_deinit
  41              	timer_deinit:
  42              	.LFB2:
  48:arch/riscv/mach-gd32vf10x/bsp/gd32vf103_timer.c ****     switch(timer_periph){
  43              		.loc 1 48 1 is_stmt 1
  44              		.cfi_startproc
  45              	.LVL2:
  49:arch/riscv/mach-gd32vf10x/bsp/gd32vf103_timer.c ****     case TIMER0:
  46              		.loc 1 49 5
  48:arch/riscv/mach-gd32vf10x/bsp/gd32vf103_timer.c ****     switch(timer_periph){
  47              		.loc 1 48 1 is_stmt 0
  48 0000 4111     		addi	sp,sp,-16
  49              	.LCFI0:
  50              		.cfi_def_cfa_offset 16
  49:arch/riscv/mach-gd32vf10x/bsp/gd32vf103_timer.c ****     case TIMER0:
  51              		.loc 1 49 5
  52 0002 B7170040 		li	a5,1073745920
  48:arch/riscv/mach-gd32vf10x/bsp/gd32vf103_timer.c ****     switch(timer_periph){
  53              		.loc 1 48 1
  54 0006 06C6     		sw	ra,12(sp)
  55              		.cfi_offset 1, -4
  49:arch/riscv/mach-gd32vf10x/bsp/gd32vf103_timer.c ****     case TIMER0:
  56              		.loc 1 49 5
  57 0008 138707C0 		addi	a4,a5,-1024
  58 000c 630DE504 		beq	a0,a4,.L4
  59 0010 6371A702 		bleu	a0,a4,.L14
  60 0014 13870740 		addi	a4,a5,1024
  61 0018 6305E506 		beq	a0,a4,.L10
  62 001c 37370140 		li	a4,1073819648
  63 0020 130707C0 		addi	a4,a4,-1024
  64 0024 630DE506 		beq	a0,a4,.L11
  65 0028 6309F508 		beq	a0,a5,.L15
  66              	.L3:
  89:arch/riscv/mach-gd32vf10x/bsp/gd32vf103_timer.c **** 
  67              		.loc 1 89 1
  68 002c B240     		lw	ra,12(sp)
  69              		.cfi_remember_state
  70              		.cfi_restore 1
  71 002e 4101     		addi	sp,sp,16
GAS LISTING C:\Users\test\AppData\Local\Temp\ccx0JFmY.s 			page 26


  72              	.LCFI1:
  73              		.cfi_def_cfa_offset 0
  74 0030 8280     		jr	ra
  75              	.L14:
  76              	.LCFI2:
  77              		.cfi_restore_state
  49:arch/riscv/mach-gd32vf10x/bsp/gd32vf103_timer.c ****     case TIMER0:
  78              		.loc 1 49 5
  79 0032 37070040 		li	a4,1073741824
  80 0036 93060740 		addi	a3,a4,1024
  81 003a 630ED508 		beq	a0,a3,.L6
  82 003e 93870780 		addi	a5,a5,-2048
  83 0042 6308F50A 		beq	a0,a5,.L7
  84 0046 E313E5FE 		bne	a0,a4,.L3
  57:arch/riscv/mach-gd32vf10x/bsp/gd32vf103_timer.c ****         rcu_periph_reset_disable(RCU_TIMER1RST);
  85              		.loc 1 57 9 is_stmt 1
  86 004a 13050040 		li	a0,1024
  87              	.LVL3:
  88 004e 97000000 		call	rcu_periph_reset_enable
  88      E7800000 
  89              	.LVL4:
  58:arch/riscv/mach-gd32vf10x/bsp/gd32vf103_timer.c ****         break;
  90              		.loc 1 58 9
  89:arch/riscv/mach-gd32vf10x/bsp/gd32vf103_timer.c **** 
  91              		.loc 1 89 1 is_stmt 0
  92 0056 B240     		lw	ra,12(sp)
  93              		.cfi_remember_state
  94              		.cfi_restore 1
  58:arch/riscv/mach-gd32vf10x/bsp/gd32vf103_timer.c ****         break;
  95              		.loc 1 58 9
  96 0058 13050040 		li	a0,1024
  89:arch/riscv/mach-gd32vf10x/bsp/gd32vf103_timer.c **** 
  97              		.loc 1 89 1
  98 005c 4101     		addi	sp,sp,16
  99              	.LCFI3:
 100              		.cfi_def_cfa_offset 0
  58:arch/riscv/mach-gd32vf10x/bsp/gd32vf103_timer.c ****         break;
 101              		.loc 1 58 9
 102 005e 17030000 		tail	rcu_periph_reset_disable
 102      67000300 
 103              	.LVL5:
 104              	.L4:
 105              	.LCFI4:
 106              		.cfi_restore_state
  72:arch/riscv/mach-gd32vf10x/bsp/gd32vf103_timer.c ****         rcu_periph_reset_disable(RCU_TIMER4RST);
 107              		.loc 1 72 9 is_stmt 1
 108 0066 13053040 		li	a0,1027
 109              	.LVL6:
 110 006a 97000000 		call	rcu_periph_reset_enable
 110      E7800000 
 111              	.LVL7:
  73:arch/riscv/mach-gd32vf10x/bsp/gd32vf103_timer.c ****         break;
 112              		.loc 1 73 9
  89:arch/riscv/mach-gd32vf10x/bsp/gd32vf103_timer.c **** 
 113              		.loc 1 89 1 is_stmt 0
 114 0072 B240     		lw	ra,12(sp)
 115              		.cfi_remember_state
GAS LISTING C:\Users\test\AppData\Local\Temp\ccx0JFmY.s 			page 27


 116              		.cfi_restore 1
  73:arch/riscv/mach-gd32vf10x/bsp/gd32vf103_timer.c ****         break;
 117              		.loc 1 73 9
 118 0074 13053040 		li	a0,1027
  89:arch/riscv/mach-gd32vf10x/bsp/gd32vf103_timer.c **** 
 119              		.loc 1 89 1
 120 0078 4101     		addi	sp,sp,16
 121              	.LCFI5:
 122              		.cfi_def_cfa_offset 0
  73:arch/riscv/mach-gd32vf10x/bsp/gd32vf103_timer.c ****         break;
 123              		.loc 1 73 9
 124 007a 17030000 		tail	rcu_periph_reset_disable
 124      67000300 
 125              	.LVL8:
 126              	.L10:
 127              	.LCFI6:
 128              		.cfi_restore_state
  82:arch/riscv/mach-gd32vf10x/bsp/gd32vf103_timer.c ****         rcu_periph_reset_disable(RCU_TIMER6RST);
 129              		.loc 1 82 9 is_stmt 1
 130 0082 13055040 		li	a0,1029
 131              	.LVL9:
 132 0086 97000000 		call	rcu_periph_reset_enable
 132      E7800000 
 133              	.LVL10:
  83:arch/riscv/mach-gd32vf10x/bsp/gd32vf103_timer.c ****         break;
 134              		.loc 1 83 9
  89:arch/riscv/mach-gd32vf10x/bsp/gd32vf103_timer.c **** 
 135              		.loc 1 89 1 is_stmt 0
 136 008e B240     		lw	ra,12(sp)
 137              		.cfi_remember_state
 138              		.cfi_restore 1
  83:arch/riscv/mach-gd32vf10x/bsp/gd32vf103_timer.c ****         break;
 139              		.loc 1 83 9
 140 0090 13055040 		li	a0,1029
  89:arch/riscv/mach-gd32vf10x/bsp/gd32vf103_timer.c **** 
 141              		.loc 1 89 1
 142 0094 4101     		addi	sp,sp,16
 143              	.LCFI7:
 144              		.cfi_def_cfa_offset 0
  83:arch/riscv/mach-gd32vf10x/bsp/gd32vf103_timer.c ****         break;
 145              		.loc 1 83 9
 146 0096 17030000 		tail	rcu_periph_reset_disable
 146      67000300 
 147              	.LVL11:
 148              	.L11:
 149              	.LCFI8:
 150              		.cfi_restore_state
  52:arch/riscv/mach-gd32vf10x/bsp/gd32vf103_timer.c ****         rcu_periph_reset_disable(RCU_TIMER0RST);
 151              		.loc 1 52 9 is_stmt 1
 152 009e 1305B030 		li	a0,779
 153              	.LVL12:
 154 00a2 97000000 		call	rcu_periph_reset_enable
 154      E7800000 
 155              	.LVL13:
  53:arch/riscv/mach-gd32vf10x/bsp/gd32vf103_timer.c ****         break;
 156              		.loc 1 53 9
  89:arch/riscv/mach-gd32vf10x/bsp/gd32vf103_timer.c **** 
GAS LISTING C:\Users\test\AppData\Local\Temp\ccx0JFmY.s 			page 28


 157              		.loc 1 89 1 is_stmt 0
 158 00aa B240     		lw	ra,12(sp)
 159              		.cfi_remember_state
 160              		.cfi_restore 1
  53:arch/riscv/mach-gd32vf10x/bsp/gd32vf103_timer.c ****         break;
 161              		.loc 1 53 9
 162 00ac 1305B030 		li	a0,779
  89:arch/riscv/mach-gd32vf10x/bsp/gd32vf103_timer.c **** 
 163              		.loc 1 89 1
 164 00b0 4101     		addi	sp,sp,16
 165              	.LCFI9:
 166              		.cfi_def_cfa_offset 0
  53:arch/riscv/mach-gd32vf10x/bsp/gd32vf103_timer.c ****         break;
 167              		.loc 1 53 9
 168 00b2 17030000 		tail	rcu_periph_reset_disable
 168      67000300 
 169              	.LVL14:
 170              	.L15:
 171              	.LCFI10:
 172              		.cfi_restore_state
  77:arch/riscv/mach-gd32vf10x/bsp/gd32vf103_timer.c ****         rcu_periph_reset_disable(RCU_TIMER5RST);
 173              		.loc 1 77 9 is_stmt 1
 174 00ba 13054040 		li	a0,1028
 175              	.LVL15:
 176 00be 97000000 		call	rcu_periph_reset_enable
 176      E7800000 
 177              	.LVL16:
  78:arch/riscv/mach-gd32vf10x/bsp/gd32vf103_timer.c ****         break;
 178              		.loc 1 78 9
  89:arch/riscv/mach-gd32vf10x/bsp/gd32vf103_timer.c **** 
 179              		.loc 1 89 1 is_stmt 0
 180 00c6 B240     		lw	ra,12(sp)
 181              		.cfi_remember_state
 182              		.cfi_restore 1
  78:arch/riscv/mach-gd32vf10x/bsp/gd32vf103_timer.c ****         break;
 183              		.loc 1 78 9
 184 00c8 13054040 		li	a0,1028
  89:arch/riscv/mach-gd32vf10x/bsp/gd32vf103_timer.c **** 
 185              		.loc 1 89 1
 186 00cc 4101     		addi	sp,sp,16
 187              	.LCFI11:
 188              		.cfi_def_cfa_offset 0
  78:arch/riscv/mach-gd32vf10x/bsp/gd32vf103_timer.c ****         break;
 189              		.loc 1 78 9
 190 00ce 17030000 		tail	rcu_periph_reset_disable
 190      67000300 
 191              	.LVL17:
 192              	.L6:
 193              	.LCFI12:
 194              		.cfi_restore_state
  62:arch/riscv/mach-gd32vf10x/bsp/gd32vf103_timer.c ****         rcu_periph_reset_disable(RCU_TIMER2RST);
 195              		.loc 1 62 9 is_stmt 1
 196 00d6 13051040 		li	a0,1025
 197              	.LVL18:
 198 00da 97000000 		call	rcu_periph_reset_enable
 198      E7800000 
 199              	.LVL19:
GAS LISTING C:\Users\test\AppData\Local\Temp\ccx0JFmY.s 			page 29


  63:arch/riscv/mach-gd32vf10x/bsp/gd32vf103_timer.c ****         break;
 200              		.loc 1 63 9
  89:arch/riscv/mach-gd32vf10x/bsp/gd32vf103_timer.c **** 
 201              		.loc 1 89 1 is_stmt 0
 202 00e2 B240     		lw	ra,12(sp)
 203              		.cfi_remember_state
 204              		.cfi_restore 1
  63:arch/riscv/mach-gd32vf10x/bsp/gd32vf103_timer.c ****         break;
 205              		.loc 1 63 9
 206 00e4 13051040 		li	a0,1025
  89:arch/riscv/mach-gd32vf10x/bsp/gd32vf103_timer.c **** 
 207              		.loc 1 89 1
 208 00e8 4101     		addi	sp,sp,16
 209              	.LCFI13:
 210              		.cfi_def_cfa_offset 0
  63:arch/riscv/mach-gd32vf10x/bsp/gd32vf103_timer.c ****         break;
 211              		.loc 1 63 9
 212 00ea 17030000 		tail	rcu_periph_reset_disable
 212      67000300 
 213              	.LVL20:
 214              	.L7:
 215              	.LCFI14:
 216              		.cfi_restore_state
  67:arch/riscv/mach-gd32vf10x/bsp/gd32vf103_timer.c ****         rcu_periph_reset_disable(RCU_TIMER3RST);
 217              		.loc 1 67 9 is_stmt 1
 218 00f2 13052040 		li	a0,1026
 219              	.LVL21:
 220 00f6 97000000 		call	rcu_periph_reset_enable
 220      E7800000 
 221              	.LVL22:
  68:arch/riscv/mach-gd32vf10x/bsp/gd32vf103_timer.c ****         break;
 222              		.loc 1 68 9
  89:arch/riscv/mach-gd32vf10x/bsp/gd32vf103_timer.c **** 
 223              		.loc 1 89 1 is_stmt 0
 224 00fe B240     		lw	ra,12(sp)
 225              		.cfi_restore 1
  68:arch/riscv/mach-gd32vf10x/bsp/gd32vf103_timer.c ****         break;
 226              		.loc 1 68 9
 227 0100 13052040 		li	a0,1026
  89:arch/riscv/mach-gd32vf10x/bsp/gd32vf103_timer.c **** 
 228              		.loc 1 89 1
 229 0104 4101     		addi	sp,sp,16
 230              	.LCFI15:
 231              		.cfi_def_cfa_offset 0
  68:arch/riscv/mach-gd32vf10x/bsp/gd32vf103_timer.c ****         break;
 232              		.loc 1 68 9
 233 0106 17030000 		tail	rcu_periph_reset_disable
 233      67000300 
 234              	.LVL23:
 235              		.cfi_endproc
 236              	.LFE2:
 238              		.section	.text.timer_struct_para_init,"ax",@progbits
 239              		.align	1
 240              		.globl	timer_struct_para_init
 242              	timer_struct_para_init:
 243              	.LFB3:
  98:arch/riscv/mach-gd32vf10x/bsp/gd32vf103_timer.c ****     /* initialize the init parameter struct member with the default value */
GAS LISTING C:\Users\test\AppData\Local\Temp\ccx0JFmY.s 			page 30


 244              		.loc 1 98 1 is_stmt 1
 245              		.cfi_startproc
 246              	.LVL24:
 100:arch/riscv/mach-gd32vf10x/bsp/gd32vf103_timer.c ****     initpara->alignedmode       = TIMER_COUNTER_EDGE;
 247              		.loc 1 100 5
 101:arch/riscv/mach-gd32vf10x/bsp/gd32vf103_timer.c ****     initpara->counterdirection  = TIMER_COUNTER_UP;
 248              		.loc 1 101 5
 102:arch/riscv/mach-gd32vf10x/bsp/gd32vf103_timer.c ****     initpara->period            = 65535U;
 249              		.loc 1 102 5
 103:arch/riscv/mach-gd32vf10x/bsp/gd32vf103_timer.c ****     initpara->clockdivision     = TIMER_CKDIV_DIV1;
 250              		.loc 1 103 33 is_stmt 0
 251 0000 C167     		li	a5,65536
 252 0002 FD17     		addi	a5,a5,-1
 100:arch/riscv/mach-gd32vf10x/bsp/gd32vf103_timer.c ****     initpara->alignedmode       = TIMER_COUNTER_EDGE;
 253              		.loc 1 100 33
 254 0004 23200500 		sw	zero,0(a0)
 102:arch/riscv/mach-gd32vf10x/bsp/gd32vf103_timer.c ****     initpara->period            = 65535U;
 255              		.loc 1 102 33
 256 0008 23120500 		sh	zero,4(a0)
 103:arch/riscv/mach-gd32vf10x/bsp/gd32vf103_timer.c ****     initpara->clockdivision     = TIMER_CKDIV_DIV1;
 257              		.loc 1 103 5 is_stmt 1
 103:arch/riscv/mach-gd32vf10x/bsp/gd32vf103_timer.c ****     initpara->clockdivision     = TIMER_CKDIV_DIV1;
 258              		.loc 1 103 33 is_stmt 0
 259 000c 1CC5     		sw	a5,8(a0)
 104:arch/riscv/mach-gd32vf10x/bsp/gd32vf103_timer.c ****     initpara->repetitioncounter = 0U;
 260              		.loc 1 104 5 is_stmt 1
 104:arch/riscv/mach-gd32vf10x/bsp/gd32vf103_timer.c ****     initpara->repetitioncounter = 0U;
 261              		.loc 1 104 33 is_stmt 0
 262 000e 23160500 		sh	zero,12(a0)
 105:arch/riscv/mach-gd32vf10x/bsp/gd32vf103_timer.c **** }
 263              		.loc 1 105 5 is_stmt 1
 105:arch/riscv/mach-gd32vf10x/bsp/gd32vf103_timer.c **** }
 264              		.loc 1 105 33 is_stmt 0
 265 0012 23070500 		sb	zero,14(a0)
 106:arch/riscv/mach-gd32vf10x/bsp/gd32vf103_timer.c **** 
 266              		.loc 1 106 1
 267 0016 8280     		ret
 268              		.cfi_endproc
 269              	.LFE3:
 271              		.section	.text.timer_init,"ax",@progbits
 272              		.align	1
 273              		.globl	timer_init
 275              	timer_init:
 276              	.LFB4:
 123:arch/riscv/mach-gd32vf10x/bsp/gd32vf103_timer.c ****     /* configure the counter prescaler value */
 277              		.loc 1 123 1 is_stmt 1
 278              		.cfi_startproc
 279              	.LVL25:
 125:arch/riscv/mach-gd32vf10x/bsp/gd32vf103_timer.c **** 
 280              		.loc 1 125 5
 125:arch/riscv/mach-gd32vf10x/bsp/gd32vf103_timer.c **** 
 281              		.loc 1 125 31 is_stmt 0
 282 0000 83D70500 		lhu	a5,0(a1)
 283 0004 03D74500 		lhu	a4,4(a1)
 284 0008 1376F5BF 		andi	a2,a0,-1025
 125:arch/riscv/mach-gd32vf10x/bsp/gd32vf103_timer.c **** 
 285              		.loc 1 125 29
GAS LISTING C:\Users\test\AppData\Local\Temp\ccx0JFmY.s 			page 31


 286 000c 1CD5     		sw	a5,40(a0)
 128:arch/riscv/mach-gd32vf10x/bsp/gd32vf103_timer.c ****         || (TIMER3 == timer_periph) || (TIMER4 == timer_periph) ){
 287              		.loc 1 128 5 is_stmt 1
 128:arch/riscv/mach-gd32vf10x/bsp/gd32vf103_timer.c ****         || (TIMER3 == timer_periph) || (TIMER4 == timer_periph) ){
 288              		.loc 1 128 7 is_stmt 0
 289 000e B7370140 		li	a5,1073819648
 290 0012 938707C0 		addi	a5,a5,-1024
 291 0016 418B     		andi	a4,a4,16
 292 0018 6306F504 		beq	a0,a5,.L18
 128:arch/riscv/mach-gd32vf10x/bsp/gd32vf103_timer.c ****         || (TIMER3 == timer_periph) || (TIMER4 == timer_periph) ){
 293              		.loc 1 128 33 discriminator 1
 294 001c FD77     		li	a5,-4096
 295 001e 9387F73F 		addi	a5,a5,1023
 296 0022 E98F     		and	a5,a0,a5
 297 0024 B7060040 		li	a3,1073741824
 298 0028 638ED702 		beq	a5,a3,.L18
 134:arch/riscv/mach-gd32vf10x/bsp/gd32vf103_timer.c ****         TIMER_CTL0(timer_periph) |= (uint32_t)(initpara->counterdirection & COUNTERDIRECTION_MASK);
 299              		.loc 1 134 9 is_stmt 1
 134:arch/riscv/mach-gd32vf10x/bsp/gd32vf103_timer.c ****         TIMER_CTL0(timer_periph) |= (uint32_t)(initpara->counterdirection & COUNTERDIRECTION_MASK);
 300              		.loc 1 134 34 is_stmt 0
 301 002c 1C41     		lw	a5,0(a0)
 141:arch/riscv/mach-gd32vf10x/bsp/gd32vf103_timer.c ****         /* reset the CKDIV bit */
 302              		.loc 1 141 7
 303 002e B7160040 		li	a3,1073745920
 134:arch/riscv/mach-gd32vf10x/bsp/gd32vf103_timer.c ****         TIMER_CTL0(timer_periph) |= (uint32_t)(initpara->counterdirection & COUNTERDIRECTION_MASK);
 304              		.loc 1 134 34
 305 0032 BD9B     		andi	a5,a5,-17
 306 0034 1CC1     		sw	a5,0(a0)
 135:arch/riscv/mach-gd32vf10x/bsp/gd32vf103_timer.c ****     }
 307              		.loc 1 135 9 is_stmt 1
 135:arch/riscv/mach-gd32vf10x/bsp/gd32vf103_timer.c ****     }
 308              		.loc 1 135 34 is_stmt 0
 309 0036 1C41     		lw	a5,0(a0)
 310 0038 5D8F     		or	a4,a5,a4
 311 003a 18C1     		sw	a4,0(a0)
 139:arch/riscv/mach-gd32vf10x/bsp/gd32vf103_timer.c **** 
 312              		.loc 1 139 5 is_stmt 1
 139:arch/riscv/mach-gd32vf10x/bsp/gd32vf103_timer.c **** 
 313              		.loc 1 139 49 is_stmt 0
 314 003c 9C45     		lw	a5,8(a1)
 139:arch/riscv/mach-gd32vf10x/bsp/gd32vf103_timer.c **** 
 315              		.loc 1 139 29
 316 003e 5CD5     		sw	a5,44(a0)
 141:arch/riscv/mach-gd32vf10x/bsp/gd32vf103_timer.c ****         /* reset the CKDIV bit */
 317              		.loc 1 141 5 is_stmt 1
 141:arch/riscv/mach-gd32vf10x/bsp/gd32vf103_timer.c ****         /* reset the CKDIV bit */
 318              		.loc 1 141 7 is_stmt 0
 319 0040 630DD600 		beq	a2,a3,.L23
 143:arch/riscv/mach-gd32vf10x/bsp/gd32vf103_timer.c ****         TIMER_CTL0(timer_periph) |= (uint32_t)(initpara->clockdivision & CLOCKDIVISION_MASK);
 320              		.loc 1 143 9 is_stmt 1
 143:arch/riscv/mach-gd32vf10x/bsp/gd32vf103_timer.c ****         TIMER_CTL0(timer_periph) |= (uint32_t)(initpara->clockdivision & CLOCKDIVISION_MASK);
 321              		.loc 1 143 34 is_stmt 0
 322 0044 1841     		lw	a4,0(a0)
 144:arch/riscv/mach-gd32vf10x/bsp/gd32vf103_timer.c ****     }
 323              		.loc 1 144 37
 324 0046 83D7C500 		lhu	a5,12(a1)
 143:arch/riscv/mach-gd32vf10x/bsp/gd32vf103_timer.c ****         TIMER_CTL0(timer_periph) |= (uint32_t)(initpara->clockdivision & CLOCKDIVISION_MASK);
GAS LISTING C:\Users\test\AppData\Local\Temp\ccx0JFmY.s 			page 32


 325              		.loc 1 143 34
 326 004a 1377F7CF 		andi	a4,a4,-769
 327 004e 18C1     		sw	a4,0(a0)
 144:arch/riscv/mach-gd32vf10x/bsp/gd32vf103_timer.c ****     }
 328              		.loc 1 144 9 is_stmt 1
 144:arch/riscv/mach-gd32vf10x/bsp/gd32vf103_timer.c ****     }
 329              		.loc 1 144 34 is_stmt 0
 330 0050 1841     		lw	a4,0(a0)
 144:arch/riscv/mach-gd32vf10x/bsp/gd32vf103_timer.c ****     }
 331              		.loc 1 144 37
 332 0052 93F70730 		andi	a5,a5,768
 144:arch/riscv/mach-gd32vf10x/bsp/gd32vf103_timer.c ****     }
 333              		.loc 1 144 34
 334 0056 D98F     		or	a5,a5,a4
 335 0058 1CC1     		sw	a5,0(a0)
 147:arch/riscv/mach-gd32vf10x/bsp/gd32vf103_timer.c ****         /* configure the repetition counter value */
 336              		.loc 1 147 5 is_stmt 1
 337              	.L23:
 153:arch/riscv/mach-gd32vf10x/bsp/gd32vf103_timer.c **** }
 338              		.loc 1 153 5
 153:arch/riscv/mach-gd32vf10x/bsp/gd32vf103_timer.c **** }
 339              		.loc 1 153 31 is_stmt 0
 340 005a 5C49     		lw	a5,20(a0)
 341 005c 93E71700 		ori	a5,a5,1
 342 0060 5CC9     		sw	a5,20(a0)
 154:arch/riscv/mach-gd32vf10x/bsp/gd32vf103_timer.c **** 
 343              		.loc 1 154 1
 344 0062 8280     		ret
 345              	.L18:
 130:arch/riscv/mach-gd32vf10x/bsp/gd32vf103_timer.c ****         TIMER_CTL0(timer_periph) |= (uint32_t)(initpara->alignedmode & ALIGNEDMODE_MASK);
 346              		.loc 1 130 9 is_stmt 1
 130:arch/riscv/mach-gd32vf10x/bsp/gd32vf103_timer.c ****         TIMER_CTL0(timer_periph) |= (uint32_t)(initpara->alignedmode & ALIGNEDMODE_MASK);
 347              		.loc 1 130 34 is_stmt 0
 348 0064 1441     		lw	a3,0(a0)
 131:arch/riscv/mach-gd32vf10x/bsp/gd32vf103_timer.c ****         TIMER_CTL0(timer_periph) |= (uint32_t)(initpara->counterdirection & COUNTERDIRECTION_MASK);
 349              		.loc 1 131 37
 350 0066 83D72500 		lhu	a5,2(a1)
 141:arch/riscv/mach-gd32vf10x/bsp/gd32vf103_timer.c ****         /* reset the CKDIV bit */
 351              		.loc 1 141 7
 352 006a 37180040 		li	a6,1073745920
 130:arch/riscv/mach-gd32vf10x/bsp/gd32vf103_timer.c ****         TIMER_CTL0(timer_periph) |= (uint32_t)(initpara->alignedmode & ALIGNEDMODE_MASK);
 353              		.loc 1 130 34
 354 006e 93F6F6F8 		andi	a3,a3,-113
 355 0072 14C1     		sw	a3,0(a0)
 131:arch/riscv/mach-gd32vf10x/bsp/gd32vf103_timer.c ****         TIMER_CTL0(timer_periph) |= (uint32_t)(initpara->counterdirection & COUNTERDIRECTION_MASK);
 356              		.loc 1 131 9 is_stmt 1
 131:arch/riscv/mach-gd32vf10x/bsp/gd32vf103_timer.c ****         TIMER_CTL0(timer_periph) |= (uint32_t)(initpara->counterdirection & COUNTERDIRECTION_MASK);
 357              		.loc 1 131 34 is_stmt 0
 358 0074 1441     		lw	a3,0(a0)
 131:arch/riscv/mach-gd32vf10x/bsp/gd32vf103_timer.c ****         TIMER_CTL0(timer_periph) |= (uint32_t)(initpara->counterdirection & COUNTERDIRECTION_MASK);
 359              		.loc 1 131 37
 360 0076 93F70706 		andi	a5,a5,96
 131:arch/riscv/mach-gd32vf10x/bsp/gd32vf103_timer.c ****         TIMER_CTL0(timer_periph) |= (uint32_t)(initpara->counterdirection & COUNTERDIRECTION_MASK);
 361              		.loc 1 131 34
 362 007a D58F     		or	a5,a5,a3
 363 007c 1CC1     		sw	a5,0(a0)
 132:arch/riscv/mach-gd32vf10x/bsp/gd32vf103_timer.c ****     }else{
GAS LISTING C:\Users\test\AppData\Local\Temp\ccx0JFmY.s 			page 33


 364              		.loc 1 132 9 is_stmt 1
 132:arch/riscv/mach-gd32vf10x/bsp/gd32vf103_timer.c ****     }else{
 365              		.loc 1 132 34 is_stmt 0
 366 007e 1C41     		lw	a5,0(a0)
 367 0080 5D8F     		or	a4,a5,a4
 368 0082 18C1     		sw	a4,0(a0)
 139:arch/riscv/mach-gd32vf10x/bsp/gd32vf103_timer.c **** 
 369              		.loc 1 139 5 is_stmt 1
 139:arch/riscv/mach-gd32vf10x/bsp/gd32vf103_timer.c **** 
 370              		.loc 1 139 49 is_stmt 0
 371 0084 9C45     		lw	a5,8(a1)
 139:arch/riscv/mach-gd32vf10x/bsp/gd32vf103_timer.c **** 
 372              		.loc 1 139 29
 373 0086 5CD5     		sw	a5,44(a0)
 141:arch/riscv/mach-gd32vf10x/bsp/gd32vf103_timer.c ****         /* reset the CKDIV bit */
 374              		.loc 1 141 5 is_stmt 1
 141:arch/riscv/mach-gd32vf10x/bsp/gd32vf103_timer.c ****         /* reset the CKDIV bit */
 375              		.loc 1 141 7 is_stmt 0
 376 0088 E30906FD 		beq	a2,a6,.L23
 143:arch/riscv/mach-gd32vf10x/bsp/gd32vf103_timer.c ****         TIMER_CTL0(timer_periph) |= (uint32_t)(initpara->clockdivision & CLOCKDIVISION_MASK);
 377              		.loc 1 143 9 is_stmt 1
 143:arch/riscv/mach-gd32vf10x/bsp/gd32vf103_timer.c ****         TIMER_CTL0(timer_periph) |= (uint32_t)(initpara->clockdivision & CLOCKDIVISION_MASK);
 378              		.loc 1 143 34 is_stmt 0
 379 008c 1841     		lw	a4,0(a0)
 144:arch/riscv/mach-gd32vf10x/bsp/gd32vf103_timer.c ****     }
 380              		.loc 1 144 37
 381 008e 83D7C500 		lhu	a5,12(a1)
 147:arch/riscv/mach-gd32vf10x/bsp/gd32vf103_timer.c ****         /* configure the repetition counter value */
 382              		.loc 1 147 8
 383 0092 B7360140 		li	a3,1073819648
 143:arch/riscv/mach-gd32vf10x/bsp/gd32vf103_timer.c ****         TIMER_CTL0(timer_periph) |= (uint32_t)(initpara->clockdivision & CLOCKDIVISION_MASK);
 384              		.loc 1 143 34
 385 0096 1377F7CF 		andi	a4,a4,-769
 386 009a 18C1     		sw	a4,0(a0)
 144:arch/riscv/mach-gd32vf10x/bsp/gd32vf103_timer.c ****     }
 387              		.loc 1 144 9 is_stmt 1
 144:arch/riscv/mach-gd32vf10x/bsp/gd32vf103_timer.c ****     }
 388              		.loc 1 144 34 is_stmt 0
 389 009c 1041     		lw	a2,0(a0)
 144:arch/riscv/mach-gd32vf10x/bsp/gd32vf103_timer.c ****     }
 390              		.loc 1 144 37
 391 009e 93F70730 		andi	a5,a5,768
 147:arch/riscv/mach-gd32vf10x/bsp/gd32vf103_timer.c ****         /* configure the repetition counter value */
 392              		.loc 1 147 8
 393 00a2 138706C0 		addi	a4,a3,-1024
 144:arch/riscv/mach-gd32vf10x/bsp/gd32vf103_timer.c ****     }
 394              		.loc 1 144 34
 395 00a6 D18F     		or	a5,a5,a2
 396 00a8 1CC1     		sw	a5,0(a0)
 147:arch/riscv/mach-gd32vf10x/bsp/gd32vf103_timer.c ****         /* configure the repetition counter value */
 397              		.loc 1 147 5 is_stmt 1
 147:arch/riscv/mach-gd32vf10x/bsp/gd32vf103_timer.c ****         /* configure the repetition counter value */
 398              		.loc 1 147 8 is_stmt 0
 399 00aa E318E5FA 		bne	a0,a4,.L23
 149:arch/riscv/mach-gd32vf10x/bsp/gd32vf103_timer.c ****     }
 400              		.loc 1 149 9 is_stmt 1
 149:arch/riscv/mach-gd32vf10x/bsp/gd32vf103_timer.c ****     }
GAS LISTING C:\Users\test\AppData\Local\Temp\ccx0JFmY.s 			page 34


 401              		.loc 1 149 36 is_stmt 0
 402 00ae 83C7E500 		lbu	a5,14(a1)
 149:arch/riscv/mach-gd32vf10x/bsp/gd32vf103_timer.c ****     }
 403              		.loc 1 149 34
 404 00b2 23A8F6C2 		sw	a5,-976(a3)
 153:arch/riscv/mach-gd32vf10x/bsp/gd32vf103_timer.c **** }
 405              		.loc 1 153 5 is_stmt 1
 153:arch/riscv/mach-gd32vf10x/bsp/gd32vf103_timer.c **** }
 406              		.loc 1 153 31 is_stmt 0
 407 00b6 5C49     		lw	a5,20(a0)
 408 00b8 93E71700 		ori	a5,a5,1
 409 00bc 5CC9     		sw	a5,20(a0)
 154:arch/riscv/mach-gd32vf10x/bsp/gd32vf103_timer.c **** 
 410              		.loc 1 154 1
 411 00be 8280     		ret
 412              		.cfi_endproc
 413              	.LFE4:
 415              		.section	.text.timer_enable,"ax",@progbits
 416              		.align	1
 417              		.globl	timer_enable
 419              	timer_enable:
 420              	.LFB5:
 163:arch/riscv/mach-gd32vf10x/bsp/gd32vf103_timer.c ****     TIMER_CTL0(timer_periph) |= (uint32_t)TIMER_CTL0_CEN;
 421              		.loc 1 163 1 is_stmt 1
 422              		.cfi_startproc
 423              	.LVL26:
 164:arch/riscv/mach-gd32vf10x/bsp/gd32vf103_timer.c **** }
 424              		.loc 1 164 5
 164:arch/riscv/mach-gd32vf10x/bsp/gd32vf103_timer.c **** }
 425              		.loc 1 164 30 is_stmt 0
 426 0000 1C41     		lw	a5,0(a0)
 427 0002 93E71700 		ori	a5,a5,1
 428 0006 1CC1     		sw	a5,0(a0)
 165:arch/riscv/mach-gd32vf10x/bsp/gd32vf103_timer.c **** 
 429              		.loc 1 165 1
 430 0008 8280     		ret
 431              		.cfi_endproc
 432              	.LFE5:
 434              		.section	.text.timer_disable,"ax",@progbits
 435              		.align	1
 436              		.globl	timer_disable
 438              	timer_disable:
 439              	.LFB6:
 174:arch/riscv/mach-gd32vf10x/bsp/gd32vf103_timer.c ****     TIMER_CTL0(timer_periph) &= ~(uint32_t)TIMER_CTL0_CEN;
 440              		.loc 1 174 1 is_stmt 1
 441              		.cfi_startproc
 442              	.LVL27:
 175:arch/riscv/mach-gd32vf10x/bsp/gd32vf103_timer.c **** }
 443              		.loc 1 175 5
 175:arch/riscv/mach-gd32vf10x/bsp/gd32vf103_timer.c **** }
 444              		.loc 1 175 30 is_stmt 0
 445 0000 1C41     		lw	a5,0(a0)
 446 0002 F99B     		andi	a5,a5,-2
 447 0004 1CC1     		sw	a5,0(a0)
 176:arch/riscv/mach-gd32vf10x/bsp/gd32vf103_timer.c **** 
 448              		.loc 1 176 1
 449 0006 8280     		ret
GAS LISTING C:\Users\test\AppData\Local\Temp\ccx0JFmY.s 			page 35


 450              		.cfi_endproc
 451              	.LFE6:
 453              		.section	.text.timer_auto_reload_shadow_enable,"ax",@progbits
 454              		.align	1
 455              		.globl	timer_auto_reload_shadow_enable
 457              	timer_auto_reload_shadow_enable:
 458              	.LFB7:
 185:arch/riscv/mach-gd32vf10x/bsp/gd32vf103_timer.c ****     TIMER_CTL0(timer_periph) |= (uint32_t)TIMER_CTL0_ARSE;
 459              		.loc 1 185 1 is_stmt 1
 460              		.cfi_startproc
 461              	.LVL28:
 186:arch/riscv/mach-gd32vf10x/bsp/gd32vf103_timer.c **** }
 462              		.loc 1 186 5
 186:arch/riscv/mach-gd32vf10x/bsp/gd32vf103_timer.c **** }
 463              		.loc 1 186 30 is_stmt 0
 464 0000 1C41     		lw	a5,0(a0)
 465 0002 93E70708 		ori	a5,a5,128
 466 0006 1CC1     		sw	a5,0(a0)
 187:arch/riscv/mach-gd32vf10x/bsp/gd32vf103_timer.c **** 
 467              		.loc 1 187 1
 468 0008 8280     		ret
 469              		.cfi_endproc
 470              	.LFE7:
 472              		.section	.text.timer_auto_reload_shadow_disable,"ax",@progbits
 473              		.align	1
 474              		.globl	timer_auto_reload_shadow_disable
 476              	timer_auto_reload_shadow_disable:
 477              	.LFB8:
 196:arch/riscv/mach-gd32vf10x/bsp/gd32vf103_timer.c ****     TIMER_CTL0(timer_periph) &= ~(uint32_t)TIMER_CTL0_ARSE;
 478              		.loc 1 196 1 is_stmt 1
 479              		.cfi_startproc
 480              	.LVL29:
 197:arch/riscv/mach-gd32vf10x/bsp/gd32vf103_timer.c **** }
 481              		.loc 1 197 5
 197:arch/riscv/mach-gd32vf10x/bsp/gd32vf103_timer.c **** }
 482              		.loc 1 197 30 is_stmt 0
 483 0000 1C41     		lw	a5,0(a0)
 484 0002 93F7F7F7 		andi	a5,a5,-129
 485 0006 1CC1     		sw	a5,0(a0)
 198:arch/riscv/mach-gd32vf10x/bsp/gd32vf103_timer.c **** 
 486              		.loc 1 198 1
 487 0008 8280     		ret
 488              		.cfi_endproc
 489              	.LFE8:
 491              		.section	.text.timer_update_event_enable,"ax",@progbits
 492              		.align	1
 493              		.globl	timer_update_event_enable
 495              	timer_update_event_enable:
 496              	.LFB9:
 207:arch/riscv/mach-gd32vf10x/bsp/gd32vf103_timer.c ****     TIMER_CTL0(timer_periph) &= ~(uint32_t)TIMER_CTL0_UPDIS;
 497              		.loc 1 207 1 is_stmt 1
 498              		.cfi_startproc
 499              	.LVL30:
 208:arch/riscv/mach-gd32vf10x/bsp/gd32vf103_timer.c **** }
 500              		.loc 1 208 5
 208:arch/riscv/mach-gd32vf10x/bsp/gd32vf103_timer.c **** }
 501              		.loc 1 208 30 is_stmt 0
GAS LISTING C:\Users\test\AppData\Local\Temp\ccx0JFmY.s 			page 36


 502 0000 1C41     		lw	a5,0(a0)
 503 0002 F59B     		andi	a5,a5,-3
 504 0004 1CC1     		sw	a5,0(a0)
 209:arch/riscv/mach-gd32vf10x/bsp/gd32vf103_timer.c **** 
 505              		.loc 1 209 1
 506 0006 8280     		ret
 507              		.cfi_endproc
 508              	.LFE9:
 510              		.section	.text.timer_update_event_disable,"ax",@progbits
 511              		.align	1
 512              		.globl	timer_update_event_disable
 514              	timer_update_event_disable:
 515              	.LFB10:
 218:arch/riscv/mach-gd32vf10x/bsp/gd32vf103_timer.c ****     TIMER_CTL0(timer_periph) |= (uint32_t) TIMER_CTL0_UPDIS;
 516              		.loc 1 218 1 is_stmt 1
 517              		.cfi_startproc
 518              	.LVL31:
 219:arch/riscv/mach-gd32vf10x/bsp/gd32vf103_timer.c **** }
 519              		.loc 1 219 5
 219:arch/riscv/mach-gd32vf10x/bsp/gd32vf103_timer.c **** }
 520              		.loc 1 219 30 is_stmt 0
 521 0000 1C41     		lw	a5,0(a0)
 522 0002 93E72700 		ori	a5,a5,2
 523 0006 1CC1     		sw	a5,0(a0)
 220:arch/riscv/mach-gd32vf10x/bsp/gd32vf103_timer.c **** 
 524              		.loc 1 220 1
 525 0008 8280     		ret
 526              		.cfi_endproc
 527              	.LFE10:
 529              		.section	.text.timer_counter_alignment,"ax",@progbits
 530              		.align	1
 531              		.globl	timer_counter_alignment
 533              	timer_counter_alignment:
 534              	.LFB11:
 235:arch/riscv/mach-gd32vf10x/bsp/gd32vf103_timer.c ****     TIMER_CTL0(timer_periph) &= (uint32_t)(~TIMER_CTL0_CAM);
 535              		.loc 1 235 1 is_stmt 1
 536              		.cfi_startproc
 537              	.LVL32:
 236:arch/riscv/mach-gd32vf10x/bsp/gd32vf103_timer.c ****     TIMER_CTL0(timer_periph) |= (uint32_t)aligned;
 538              		.loc 1 236 5
 236:arch/riscv/mach-gd32vf10x/bsp/gd32vf103_timer.c ****     TIMER_CTL0(timer_periph) |= (uint32_t)aligned;
 539              		.loc 1 236 30 is_stmt 0
 540 0000 1C41     		lw	a5,0(a0)
 541 0002 93F7F7F9 		andi	a5,a5,-97
 542 0006 1CC1     		sw	a5,0(a0)
 237:arch/riscv/mach-gd32vf10x/bsp/gd32vf103_timer.c **** }
 543              		.loc 1 237 5 is_stmt 1
 237:arch/riscv/mach-gd32vf10x/bsp/gd32vf103_timer.c **** }
 544              		.loc 1 237 30 is_stmt 0
 545 0008 1C41     		lw	a5,0(a0)
 546 000a DD8D     		or	a1,a1,a5
 547              	.LVL33:
 548 000c 0CC1     		sw	a1,0(a0)
 238:arch/riscv/mach-gd32vf10x/bsp/gd32vf103_timer.c **** 
 549              		.loc 1 238 1
 550 000e 8280     		ret
 551              		.cfi_endproc
GAS LISTING C:\Users\test\AppData\Local\Temp\ccx0JFmY.s 			page 37


 552              	.LFE11:
 554              		.section	.text.timer_counter_up_direction,"ax",@progbits
 555              		.align	1
 556              		.globl	timer_counter_up_direction
 558              	timer_counter_up_direction:
 559              	.LFB12:
 247:arch/riscv/mach-gd32vf10x/bsp/gd32vf103_timer.c ****     TIMER_CTL0(timer_periph) &= ~(uint32_t)TIMER_CTL0_DIR;
 560              		.loc 1 247 1 is_stmt 1
 561              		.cfi_startproc
 562              	.LVL34:
 248:arch/riscv/mach-gd32vf10x/bsp/gd32vf103_timer.c **** }
 563              		.loc 1 248 5
 248:arch/riscv/mach-gd32vf10x/bsp/gd32vf103_timer.c **** }
 564              		.loc 1 248 30 is_stmt 0
 565 0000 1C41     		lw	a5,0(a0)
 566 0002 BD9B     		andi	a5,a5,-17
 567 0004 1CC1     		sw	a5,0(a0)
 249:arch/riscv/mach-gd32vf10x/bsp/gd32vf103_timer.c **** 
 568              		.loc 1 249 1
 569 0006 8280     		ret
 570              		.cfi_endproc
 571              	.LFE12:
 573              		.section	.text.timer_counter_down_direction,"ax",@progbits
 574              		.align	1
 575              		.globl	timer_counter_down_direction
 577              	timer_counter_down_direction:
 578              	.LFB13:
 258:arch/riscv/mach-gd32vf10x/bsp/gd32vf103_timer.c ****     TIMER_CTL0(timer_periph) |= (uint32_t)TIMER_CTL0_DIR;
 579              		.loc 1 258 1 is_stmt 1
 580              		.cfi_startproc
 581              	.LVL35:
 259:arch/riscv/mach-gd32vf10x/bsp/gd32vf103_timer.c **** }
 582              		.loc 1 259 5
 259:arch/riscv/mach-gd32vf10x/bsp/gd32vf103_timer.c **** }
 583              		.loc 1 259 30 is_stmt 0
 584 0000 1C41     		lw	a5,0(a0)
 585 0002 93E70701 		ori	a5,a5,16
 586 0006 1CC1     		sw	a5,0(a0)
 260:arch/riscv/mach-gd32vf10x/bsp/gd32vf103_timer.c **** 
 587              		.loc 1 260 1
 588 0008 8280     		ret
 589              		.cfi_endproc
 590              	.LFE13:
 592              		.section	.text.timer_prescaler_config,"ax",@progbits
 593              		.align	1
 594              		.globl	timer_prescaler_config
 596              	timer_prescaler_config:
 597              	.LFB14:
 274:arch/riscv/mach-gd32vf10x/bsp/gd32vf103_timer.c ****     TIMER_PSC(timer_periph) = (uint32_t)prescaler;
 598              		.loc 1 274 1 is_stmt 1
 599              		.cfi_startproc
 600              	.LVL36:
 275:arch/riscv/mach-gd32vf10x/bsp/gd32vf103_timer.c ****     
 601              		.loc 1 275 5
 275:arch/riscv/mach-gd32vf10x/bsp/gd32vf103_timer.c ****     
 602              		.loc 1 275 29 is_stmt 0
 603 0000 0CD5     		sw	a1,40(a0)
GAS LISTING C:\Users\test\AppData\Local\Temp\ccx0JFmY.s 			page 38


 277:arch/riscv/mach-gd32vf10x/bsp/gd32vf103_timer.c ****         TIMER_SWEVG(timer_periph) |= (uint32_t)TIMER_SWEVG_UPG;
 604              		.loc 1 277 5 is_stmt 1
 277:arch/riscv/mach-gd32vf10x/bsp/gd32vf103_timer.c ****         TIMER_SWEVG(timer_periph) |= (uint32_t)TIMER_SWEVG_UPG;
 605              		.loc 1 277 7 is_stmt 0
 606 0002 8547     		li	a5,1
 607 0004 6303F600 		beq	a2,a5,.L36
 280:arch/riscv/mach-gd32vf10x/bsp/gd32vf103_timer.c **** 
 608              		.loc 1 280 1
 609 0008 8280     		ret
 610              	.L36:
 278:arch/riscv/mach-gd32vf10x/bsp/gd32vf103_timer.c ****     }
 611              		.loc 1 278 9 is_stmt 1
 278:arch/riscv/mach-gd32vf10x/bsp/gd32vf103_timer.c ****     }
 612              		.loc 1 278 35 is_stmt 0
 613 000a 5C49     		lw	a5,20(a0)
 614 000c 93E71700 		ori	a5,a5,1
 615 0010 5CC9     		sw	a5,20(a0)
 280:arch/riscv/mach-gd32vf10x/bsp/gd32vf103_timer.c **** 
 616              		.loc 1 280 1
 617 0012 8280     		ret
 618              		.cfi_endproc
 619              	.LFE14:
 621              		.section	.text.timer_repetition_value_config,"ax",@progbits
 622              		.align	1
 623              		.globl	timer_repetition_value_config
 625              	timer_repetition_value_config:
 626              	.LFB15:
 290:arch/riscv/mach-gd32vf10x/bsp/gd32vf103_timer.c ****     TIMER_CREP(timer_periph) = (uint32_t)repetition;
 627              		.loc 1 290 1 is_stmt 1
 628              		.cfi_startproc
 629              	.LVL37:
 291:arch/riscv/mach-gd32vf10x/bsp/gd32vf103_timer.c **** } 
 630              		.loc 1 291 5
 291:arch/riscv/mach-gd32vf10x/bsp/gd32vf103_timer.c **** } 
 631              		.loc 1 291 30 is_stmt 0
 632 0000 0CD9     		sw	a1,48(a0)
 292:arch/riscv/mach-gd32vf10x/bsp/gd32vf103_timer.c ****  
 633              		.loc 1 292 1
 634 0002 8280     		ret
 635              		.cfi_endproc
 636              	.LFE15:
 638              		.section	.text.timer_autoreload_value_config,"ax",@progbits
 639              		.align	1
 640              		.globl	timer_autoreload_value_config
 642              	timer_autoreload_value_config:
 643              	.LFB16:
 302:arch/riscv/mach-gd32vf10x/bsp/gd32vf103_timer.c ****     TIMER_CAR(timer_periph) = (uint32_t)autoreload;
 644              		.loc 1 302 1 is_stmt 1
 645              		.cfi_startproc
 646              	.LVL38:
 303:arch/riscv/mach-gd32vf10x/bsp/gd32vf103_timer.c **** }
 647              		.loc 1 303 5
 303:arch/riscv/mach-gd32vf10x/bsp/gd32vf103_timer.c **** }
 648              		.loc 1 303 29 is_stmt 0
 649 0000 4CD5     		sw	a1,44(a0)
 304:arch/riscv/mach-gd32vf10x/bsp/gd32vf103_timer.c **** 
 650              		.loc 1 304 1
GAS LISTING C:\Users\test\AppData\Local\Temp\ccx0JFmY.s 			page 39


 651 0002 8280     		ret
 652              		.cfi_endproc
 653              	.LFE16:
 655              		.section	.text.timer_counter_value_config,"ax",@progbits
 656              		.align	1
 657              		.globl	timer_counter_value_config
 659              	timer_counter_value_config:
 660              	.LFB17:
 314:arch/riscv/mach-gd32vf10x/bsp/gd32vf103_timer.c ****     TIMER_CNT(timer_periph) = (uint32_t)counter;
 661              		.loc 1 314 1 is_stmt 1
 662              		.cfi_startproc
 663              	.LVL39:
 315:arch/riscv/mach-gd32vf10x/bsp/gd32vf103_timer.c **** }
 664              		.loc 1 315 5
 315:arch/riscv/mach-gd32vf10x/bsp/gd32vf103_timer.c **** }
 665              		.loc 1 315 29 is_stmt 0
 666 0000 4CD1     		sw	a1,36(a0)
 316:arch/riscv/mach-gd32vf10x/bsp/gd32vf103_timer.c **** 
 667              		.loc 1 316 1
 668 0002 8280     		ret
 669              		.cfi_endproc
 670              	.LFE17:
 672              		.section	.text.timer_counter_read,"ax",@progbits
 673              		.align	1
 674              		.globl	timer_counter_read
 676              	timer_counter_read:
 677              	.LFB18:
 325:arch/riscv/mach-gd32vf10x/bsp/gd32vf103_timer.c ****     uint32_t count_value = 0U;
 678              		.loc 1 325 1 is_stmt 1
 679              		.cfi_startproc
 680              	.LVL40:
 326:arch/riscv/mach-gd32vf10x/bsp/gd32vf103_timer.c ****     count_value = TIMER_CNT(timer_periph);
 681              		.loc 1 326 5
 327:arch/riscv/mach-gd32vf10x/bsp/gd32vf103_timer.c ****     return (count_value);
 682              		.loc 1 327 5
 327:arch/riscv/mach-gd32vf10x/bsp/gd32vf103_timer.c ****     return (count_value);
 683              		.loc 1 327 17 is_stmt 0
 684 0000 4851     		lw	a0,36(a0)
 685              	.LVL41:
 328:arch/riscv/mach-gd32vf10x/bsp/gd32vf103_timer.c **** }
 686              		.loc 1 328 5 is_stmt 1
 329:arch/riscv/mach-gd32vf10x/bsp/gd32vf103_timer.c **** 
 687              		.loc 1 329 1 is_stmt 0
 688 0002 8280     		ret
 689              		.cfi_endproc
 690              	.LFE18:
 692              		.section	.text.timer_prescaler_read,"ax",@progbits
 693              		.align	1
 694              		.globl	timer_prescaler_read
 696              	timer_prescaler_read:
 697              	.LFB19:
 338:arch/riscv/mach-gd32vf10x/bsp/gd32vf103_timer.c ****     uint16_t prescaler_value = 0U;
 698              		.loc 1 338 1 is_stmt 1
 699              		.cfi_startproc
 700              	.LVL42:
 339:arch/riscv/mach-gd32vf10x/bsp/gd32vf103_timer.c ****     prescaler_value = (uint16_t) (TIMER_PSC(timer_periph));
 701              		.loc 1 339 5
GAS LISTING C:\Users\test\AppData\Local\Temp\ccx0JFmY.s 			page 40


 340:arch/riscv/mach-gd32vf10x/bsp/gd32vf103_timer.c ****     return (prescaler_value);
 702              		.loc 1 340 5
 340:arch/riscv/mach-gd32vf10x/bsp/gd32vf103_timer.c ****     return (prescaler_value);
 703              		.loc 1 340 35 is_stmt 0
 704 0000 0855     		lw	a0,40(a0)
 705              	.LVL43:
 341:arch/riscv/mach-gd32vf10x/bsp/gd32vf103_timer.c **** }
 706              		.loc 1 341 5 is_stmt 1
 342:arch/riscv/mach-gd32vf10x/bsp/gd32vf103_timer.c **** 
 707              		.loc 1 342 1 is_stmt 0
 708 0002 4205     		slli	a0,a0,16
 709              	.LVL44:
 710 0004 4181     		srli	a0,a0,16
 711 0006 8280     		ret
 712              		.cfi_endproc
 713              	.LFE19:
 715              		.section	.text.timer_single_pulse_mode_config,"ax",@progbits
 716              		.align	1
 717              		.globl	timer_single_pulse_mode_config
 719              	timer_single_pulse_mode_config:
 720              	.LFB20:
 355:arch/riscv/mach-gd32vf10x/bsp/gd32vf103_timer.c ****     if(TIMER_SP_MODE_SINGLE == spmode){
 721              		.loc 1 355 1 is_stmt 1
 722              		.cfi_startproc
 723              	.LVL45:
 356:arch/riscv/mach-gd32vf10x/bsp/gd32vf103_timer.c ****         TIMER_CTL0(timer_periph) |= (uint32_t)TIMER_CTL0_SPM;
 724              		.loc 1 356 5
 356:arch/riscv/mach-gd32vf10x/bsp/gd32vf103_timer.c ****         TIMER_CTL0(timer_periph) |= (uint32_t)TIMER_CTL0_SPM;
 725              		.loc 1 356 7 is_stmt 0
 726 0000 A147     		li	a5,8
 727 0002 6387F500 		beq	a1,a5,.L45
 358:arch/riscv/mach-gd32vf10x/bsp/gd32vf103_timer.c ****         TIMER_CTL0(timer_periph) &= ~((uint32_t)TIMER_CTL0_SPM);
 728              		.loc 1 358 11 is_stmt 1
 358:arch/riscv/mach-gd32vf10x/bsp/gd32vf103_timer.c ****         TIMER_CTL0(timer_periph) &= ~((uint32_t)TIMER_CTL0_SPM);
 729              		.loc 1 358 13 is_stmt 0
 730 0006 81E5     		bne	a1,zero,.L42
 359:arch/riscv/mach-gd32vf10x/bsp/gd32vf103_timer.c ****     }else{
 731              		.loc 1 359 9 is_stmt 1
 359:arch/riscv/mach-gd32vf10x/bsp/gd32vf103_timer.c ****     }else{
 732              		.loc 1 359 34 is_stmt 0
 733 0008 1C41     		lw	a5,0(a0)
 734 000a DD9B     		andi	a5,a5,-9
 735 000c 1CC1     		sw	a5,0(a0)
 362:arch/riscv/mach-gd32vf10x/bsp/gd32vf103_timer.c **** }
 736              		.loc 1 362 5 is_stmt 1
 737              	.L42:
 363:arch/riscv/mach-gd32vf10x/bsp/gd32vf103_timer.c **** 
 738              		.loc 1 363 1 is_stmt 0
 739 000e 8280     		ret
 740              	.L45:
 357:arch/riscv/mach-gd32vf10x/bsp/gd32vf103_timer.c ****     }else if(TIMER_SP_MODE_REPETITIVE == spmode){
 741              		.loc 1 357 9 is_stmt 1
 357:arch/riscv/mach-gd32vf10x/bsp/gd32vf103_timer.c ****     }else if(TIMER_SP_MODE_REPETITIVE == spmode){
 742              		.loc 1 357 34 is_stmt 0
 743 0010 1C41     		lw	a5,0(a0)
 744 0012 93E78700 		ori	a5,a5,8
 745 0016 1CC1     		sw	a5,0(a0)
GAS LISTING C:\Users\test\AppData\Local\Temp\ccx0JFmY.s 			page 41


 746 0018 8280     		ret
 747              		.cfi_endproc
 748              	.LFE20:
 750              		.section	.text.timer_update_source_config,"ax",@progbits
 751              		.align	1
 752              		.globl	timer_update_source_config
 754              	timer_update_source_config:
 755              	.LFB21:
 377:arch/riscv/mach-gd32vf10x/bsp/gd32vf103_timer.c ****     if(TIMER_UPDATE_SRC_REGULAR == update){
 756              		.loc 1 377 1 is_stmt 1
 757              		.cfi_startproc
 758              	.LVL46:
 378:arch/riscv/mach-gd32vf10x/bsp/gd32vf103_timer.c ****         TIMER_CTL0(timer_periph) |= (uint32_t)TIMER_CTL0_UPS;
 759              		.loc 1 378 5
 378:arch/riscv/mach-gd32vf10x/bsp/gd32vf103_timer.c ****         TIMER_CTL0(timer_periph) |= (uint32_t)TIMER_CTL0_UPS;
 760              		.loc 1 378 7 is_stmt 0
 761 0000 9147     		li	a5,4
 762 0002 6387F500 		beq	a1,a5,.L49
 380:arch/riscv/mach-gd32vf10x/bsp/gd32vf103_timer.c ****         TIMER_CTL0(timer_periph) &= ~(uint32_t)TIMER_CTL0_UPS;
 763              		.loc 1 380 11 is_stmt 1
 380:arch/riscv/mach-gd32vf10x/bsp/gd32vf103_timer.c ****         TIMER_CTL0(timer_periph) &= ~(uint32_t)TIMER_CTL0_UPS;
 764              		.loc 1 380 13 is_stmt 0
 765 0006 81E5     		bne	a1,zero,.L46
 381:arch/riscv/mach-gd32vf10x/bsp/gd32vf103_timer.c ****     }else{
 766              		.loc 1 381 9 is_stmt 1
 381:arch/riscv/mach-gd32vf10x/bsp/gd32vf103_timer.c ****     }else{
 767              		.loc 1 381 34 is_stmt 0
 768 0008 1C41     		lw	a5,0(a0)
 769 000a ED9B     		andi	a5,a5,-5
 770 000c 1CC1     		sw	a5,0(a0)
 384:arch/riscv/mach-gd32vf10x/bsp/gd32vf103_timer.c **** }
 771              		.loc 1 384 5 is_stmt 1
 772              	.L46:
 385:arch/riscv/mach-gd32vf10x/bsp/gd32vf103_timer.c **** 
 773              		.loc 1 385 1 is_stmt 0
 774 000e 8280     		ret
 775              	.L49:
 379:arch/riscv/mach-gd32vf10x/bsp/gd32vf103_timer.c ****     }else if(TIMER_UPDATE_SRC_GLOBAL == update){
 776              		.loc 1 379 9 is_stmt 1
 379:arch/riscv/mach-gd32vf10x/bsp/gd32vf103_timer.c ****     }else if(TIMER_UPDATE_SRC_GLOBAL == update){
 777              		.loc 1 379 34 is_stmt 0
 778 0010 1C41     		lw	a5,0(a0)
 779 0012 93E74700 		ori	a5,a5,4
 780 0016 1CC1     		sw	a5,0(a0)
 781 0018 8280     		ret
 782              		.cfi_endproc
 783              	.LFE21:
 785              		.section	.text.timer_dma_enable,"ax",@progbits
 786              		.align	1
 787              		.globl	timer_dma_enable
 789              	timer_dma_enable:
 790              	.LFB22:
 403:arch/riscv/mach-gd32vf10x/bsp/gd32vf103_timer.c ****     TIMER_DMAINTEN(timer_periph) |= (uint32_t) dma; 
 791              		.loc 1 403 1 is_stmt 1
 792              		.cfi_startproc
 793              	.LVL47:
 404:arch/riscv/mach-gd32vf10x/bsp/gd32vf103_timer.c **** }
GAS LISTING C:\Users\test\AppData\Local\Temp\ccx0JFmY.s 			page 42


 794              		.loc 1 404 5
 404:arch/riscv/mach-gd32vf10x/bsp/gd32vf103_timer.c **** }
 795              		.loc 1 404 34 is_stmt 0
 796 0000 5C45     		lw	a5,12(a0)
 797 0002 DD8D     		or	a1,a1,a5
 798              	.LVL48:
 799 0004 4CC5     		sw	a1,12(a0)
 405:arch/riscv/mach-gd32vf10x/bsp/gd32vf103_timer.c **** 
 800              		.loc 1 405 1
 801 0006 8280     		ret
 802              		.cfi_endproc
 803              	.LFE22:
 805              		.section	.text.timer_dma_disable,"ax",@progbits
 806              		.align	1
 807              		.globl	timer_dma_disable
 809              	timer_dma_disable:
 810              	.LFB23:
 423:arch/riscv/mach-gd32vf10x/bsp/gd32vf103_timer.c ****     TIMER_DMAINTEN(timer_periph) &= (~(uint32_t)(dma)); 
 811              		.loc 1 423 1 is_stmt 1
 812              		.cfi_startproc
 813              	.LVL49:
 424:arch/riscv/mach-gd32vf10x/bsp/gd32vf103_timer.c **** }
 814              		.loc 1 424 5
 424:arch/riscv/mach-gd32vf10x/bsp/gd32vf103_timer.c **** }
 815              		.loc 1 424 34 is_stmt 0
 816 0000 5C45     		lw	a5,12(a0)
 424:arch/riscv/mach-gd32vf10x/bsp/gd32vf103_timer.c **** }
 817              		.loc 1 424 38
 818 0002 93C5F5FF 		not	a1,a1
 819              	.LVL50:
 424:arch/riscv/mach-gd32vf10x/bsp/gd32vf103_timer.c **** }
 820              		.loc 1 424 34
 821 0006 FD8D     		and	a1,a1,a5
 822 0008 4CC5     		sw	a1,12(a0)
 425:arch/riscv/mach-gd32vf10x/bsp/gd32vf103_timer.c **** 
 823              		.loc 1 425 1
 824 000a 8280     		ret
 825              		.cfi_endproc
 826              	.LFE23:
 828              		.section	.text.timer_channel_dma_request_source_select,"ax",@progbits
 829              		.align	1
 830              		.globl	timer_channel_dma_request_source_select
 832              	timer_channel_dma_request_source_select:
 833              	.LFB24:
 438:arch/riscv/mach-gd32vf10x/bsp/gd32vf103_timer.c ****     if(TIMER_DMAREQUEST_UPDATEEVENT == dma_request){
 834              		.loc 1 438 1 is_stmt 1
 835              		.cfi_startproc
 836              	.LVL51:
 439:arch/riscv/mach-gd32vf10x/bsp/gd32vf103_timer.c ****         TIMER_CTL1(timer_periph) |= (uint32_t)TIMER_CTL1_DMAS;
 837              		.loc 1 439 5
 439:arch/riscv/mach-gd32vf10x/bsp/gd32vf103_timer.c ****         TIMER_CTL1(timer_periph) |= (uint32_t)TIMER_CTL1_DMAS;
 838              		.loc 1 439 7 is_stmt 0
 839 0000 A147     		li	a5,8
 840 0002 6387F500 		beq	a1,a5,.L55
 441:arch/riscv/mach-gd32vf10x/bsp/gd32vf103_timer.c ****         TIMER_CTL1(timer_periph) &= ~(uint32_t)TIMER_CTL1_DMAS;
 841              		.loc 1 441 11 is_stmt 1
 441:arch/riscv/mach-gd32vf10x/bsp/gd32vf103_timer.c ****         TIMER_CTL1(timer_periph) &= ~(uint32_t)TIMER_CTL1_DMAS;
GAS LISTING C:\Users\test\AppData\Local\Temp\ccx0JFmY.s 			page 43


 842              		.loc 1 441 13 is_stmt 0
 843 0006 81E5     		bne	a1,zero,.L52
 442:arch/riscv/mach-gd32vf10x/bsp/gd32vf103_timer.c ****     }else{
 844              		.loc 1 442 9 is_stmt 1
 442:arch/riscv/mach-gd32vf10x/bsp/gd32vf103_timer.c ****     }else{
 845              		.loc 1 442 34 is_stmt 0
 846 0008 5C41     		lw	a5,4(a0)
 847 000a DD9B     		andi	a5,a5,-9
 848 000c 5CC1     		sw	a5,4(a0)
 445:arch/riscv/mach-gd32vf10x/bsp/gd32vf103_timer.c **** }
 849              		.loc 1 445 5 is_stmt 1
 850              	.L52:
 446:arch/riscv/mach-gd32vf10x/bsp/gd32vf103_timer.c **** 
 851              		.loc 1 446 1 is_stmt 0
 852 000e 8280     		ret
 853              	.L55:
 440:arch/riscv/mach-gd32vf10x/bsp/gd32vf103_timer.c ****     }else if(TIMER_DMAREQUEST_CHANNELEVENT == dma_request){
 854              		.loc 1 440 9 is_stmt 1
 440:arch/riscv/mach-gd32vf10x/bsp/gd32vf103_timer.c ****     }else if(TIMER_DMAREQUEST_CHANNELEVENT == dma_request){
 855              		.loc 1 440 34 is_stmt 0
 856 0010 5C41     		lw	a5,4(a0)
 857 0012 93E78700 		ori	a5,a5,8
 858 0016 5CC1     		sw	a5,4(a0)
 859 0018 8280     		ret
 860              		.cfi_endproc
 861              	.LFE24:
 863              		.section	.text.timer_dma_transfer_config,"ax",@progbits
 864              		.align	1
 865              		.globl	timer_dma_transfer_config
 867              	timer_dma_transfer_config:
 868              	.LFB25:
 479:arch/riscv/mach-gd32vf10x/bsp/gd32vf103_timer.c ****     TIMER_DMACFG(timer_periph) &= (~(uint32_t)(TIMER_DMACFG_DMATA | TIMER_DMACFG_DMATC));
 869              		.loc 1 479 1 is_stmt 1
 870              		.cfi_startproc
 871              	.LVL52:
 480:arch/riscv/mach-gd32vf10x/bsp/gd32vf103_timer.c ****     TIMER_DMACFG(timer_periph) |= (uint32_t)(dma_baseaddr | dma_lenth);
 872              		.loc 1 480 5
 480:arch/riscv/mach-gd32vf10x/bsp/gd32vf103_timer.c ****     TIMER_DMACFG(timer_periph) |= (uint32_t)(dma_baseaddr | dma_lenth);
 873              		.loc 1 480 32 is_stmt 0
 874 0000 3C45     		lw	a5,72(a0)
 875 0002 7977     		li	a4,-8192
 876 0004 1307070E 		addi	a4,a4,224
 877 0008 F98F     		and	a5,a5,a4
 878 000a 3CC5     		sw	a5,72(a0)
 481:arch/riscv/mach-gd32vf10x/bsp/gd32vf103_timer.c **** }
 879              		.loc 1 481 5 is_stmt 1
 481:arch/riscv/mach-gd32vf10x/bsp/gd32vf103_timer.c **** }
 880              		.loc 1 481 32 is_stmt 0
 881 000c 3C45     		lw	a5,72(a0)
 481:arch/riscv/mach-gd32vf10x/bsp/gd32vf103_timer.c **** }
 882              		.loc 1 481 59
 883 000e 4D8E     		or	a2,a1,a2
 884              	.LVL53:
 481:arch/riscv/mach-gd32vf10x/bsp/gd32vf103_timer.c **** }
 885              		.loc 1 481 32
 886 0010 5D8E     		or	a2,a2,a5
 887 0012 30C5     		sw	a2,72(a0)
GAS LISTING C:\Users\test\AppData\Local\Temp\ccx0JFmY.s 			page 44


 482:arch/riscv/mach-gd32vf10x/bsp/gd32vf103_timer.c **** 
 888              		.loc 1 482 1
 889 0014 8280     		ret
 890              		.cfi_endproc
 891              	.LFE25:
 893              		.section	.text.timer_event_software_generate,"ax",@progbits
 894              		.align	1
 895              		.globl	timer_event_software_generate
 897              	timer_event_software_generate:
 898              	.LFB26:
 501:arch/riscv/mach-gd32vf10x/bsp/gd32vf103_timer.c ****     TIMER_SWEVG(timer_periph) |= (uint32_t)event;
 899              		.loc 1 501 1 is_stmt 1
 900              		.cfi_startproc
 901              	.LVL54:
 502:arch/riscv/mach-gd32vf10x/bsp/gd32vf103_timer.c **** }
 902              		.loc 1 502 5
 502:arch/riscv/mach-gd32vf10x/bsp/gd32vf103_timer.c **** }
 903              		.loc 1 502 31 is_stmt 0
 904 0000 5C49     		lw	a5,20(a0)
 905 0002 DD8D     		or	a1,a1,a5
 906              	.LVL55:
 907 0004 4CC9     		sw	a1,20(a0)
 503:arch/riscv/mach-gd32vf10x/bsp/gd32vf103_timer.c **** 
 908              		.loc 1 503 1
 909 0006 8280     		ret
 910              		.cfi_endproc
 911              	.LFE26:
 913              		.section	.text.timer_break_struct_para_init,"ax",@progbits
 914              		.align	1
 915              		.globl	timer_break_struct_para_init
 917              	timer_break_struct_para_init:
 918              	.LFB27:
 512:arch/riscv/mach-gd32vf10x/bsp/gd32vf103_timer.c ****     /* initialize the break parameter struct member with the default value */
 919              		.loc 1 512 1 is_stmt 1
 920              		.cfi_startproc
 921              	.LVL56:
 514:arch/riscv/mach-gd32vf10x/bsp/gd32vf103_timer.c ****     breakpara->ideloffstate    = TIMER_IOS_STATE_DISABLE;
 922              		.loc 1 514 5
 514:arch/riscv/mach-gd32vf10x/bsp/gd32vf103_timer.c ****     breakpara->ideloffstate    = TIMER_IOS_STATE_DISABLE;
 923              		.loc 1 514 32 is_stmt 0
 924 0000 23100500 		sh	zero,0(a0)
 515:arch/riscv/mach-gd32vf10x/bsp/gd32vf103_timer.c ****     breakpara->deadtime        = 0U;
 925              		.loc 1 515 5 is_stmt 1
 515:arch/riscv/mach-gd32vf10x/bsp/gd32vf103_timer.c ****     breakpara->deadtime        = 0U;
 926              		.loc 1 515 32 is_stmt 0
 927 0004 23110500 		sh	zero,2(a0)
 516:arch/riscv/mach-gd32vf10x/bsp/gd32vf103_timer.c ****     breakpara->breakpolarity   = TIMER_BREAK_POLARITY_LOW;
 928              		.loc 1 516 5 is_stmt 1
 516:arch/riscv/mach-gd32vf10x/bsp/gd32vf103_timer.c ****     breakpara->breakpolarity   = TIMER_BREAK_POLARITY_LOW;
 929              		.loc 1 516 32 is_stmt 0
 930 0008 23120500 		sh	zero,4(a0)
 517:arch/riscv/mach-gd32vf10x/bsp/gd32vf103_timer.c ****     breakpara->outputautostate = TIMER_OUTAUTO_DISABLE;
 931              		.loc 1 517 5 is_stmt 1
 517:arch/riscv/mach-gd32vf10x/bsp/gd32vf103_timer.c ****     breakpara->outputautostate = TIMER_OUTAUTO_DISABLE;
 932              		.loc 1 517 32 is_stmt 0
 933 000c 23130500 		sh	zero,6(a0)
 518:arch/riscv/mach-gd32vf10x/bsp/gd32vf103_timer.c ****     breakpara->protectmode     = TIMER_CCHP_PROT_OFF;
GAS LISTING C:\Users\test\AppData\Local\Temp\ccx0JFmY.s 			page 45


 934              		.loc 1 518 5 is_stmt 1
 518:arch/riscv/mach-gd32vf10x/bsp/gd32vf103_timer.c ****     breakpara->protectmode     = TIMER_CCHP_PROT_OFF;
 935              		.loc 1 518 32 is_stmt 0
 936 0010 23140500 		sh	zero,8(a0)
 519:arch/riscv/mach-gd32vf10x/bsp/gd32vf103_timer.c ****     breakpara->breakstate      = TIMER_BREAK_DISABLE;
 937              		.loc 1 519 5 is_stmt 1
 519:arch/riscv/mach-gd32vf10x/bsp/gd32vf103_timer.c ****     breakpara->breakstate      = TIMER_BREAK_DISABLE;
 938              		.loc 1 519 32 is_stmt 0
 939 0014 23150500 		sh	zero,10(a0)
 520:arch/riscv/mach-gd32vf10x/bsp/gd32vf103_timer.c **** }
 940              		.loc 1 520 5 is_stmt 1
 520:arch/riscv/mach-gd32vf10x/bsp/gd32vf103_timer.c **** }
 941              		.loc 1 520 32 is_stmt 0
 942 0018 23160500 		sh	zero,12(a0)
 521:arch/riscv/mach-gd32vf10x/bsp/gd32vf103_timer.c **** 
 943              		.loc 1 521 1
 944 001c 8280     		ret
 945              		.cfi_endproc
 946              	.LFE27:
 948              		.section	.text.timer_break_config,"ax",@progbits
 949              		.align	1
 950              		.globl	timer_break_config
 952              	timer_break_config:
 953              	.LFB28:
 538:arch/riscv/mach-gd32vf10x/bsp/gd32vf103_timer.c ****     TIMER_CCHP(timer_periph) = (uint32_t)(((uint32_t)(breakpara->runoffstate)) |
 954              		.loc 1 538 1 is_stmt 1
 955              		.cfi_startproc
 956              	.LVL57:
 539:arch/riscv/mach-gd32vf10x/bsp/gd32vf103_timer.c ****                                           ((uint32_t)(breakpara->ideloffstate))|
 957              		.loc 1 539 5
 539:arch/riscv/mach-gd32vf10x/bsp/gd32vf103_timer.c ****                                           ((uint32_t)(breakpara->ideloffstate))|
 958              		.loc 1 539 32 is_stmt 0
 959 0000 03D62500 		lhu	a2,2(a1)
 960 0004 03D70500 		lhu	a4,0(a1)
 961 0008 83D64500 		lhu	a3,4(a1)
 962 000c 83D76500 		lhu	a5,6(a1)
 963 0010 03D88500 		lhu	a6,8(a1)
 964 0014 518F     		or	a4,a4,a2
 965 0016 558F     		or	a4,a4,a3
 966 0018 03D6A500 		lhu	a2,10(a1)
 967 001c 83D6C500 		lhu	a3,12(a1)
 968 0020 D98F     		or	a5,a4,a5
 969 0022 B3E70701 		or	a5,a5,a6
 970 0026 D18F     		or	a5,a5,a2
 971 0028 D58F     		or	a5,a5,a3
 539:arch/riscv/mach-gd32vf10x/bsp/gd32vf103_timer.c ****                                           ((uint32_t)(breakpara->ideloffstate))|
 972              		.loc 1 539 30
 973 002a 7CC1     		sw	a5,68(a0)
 546:arch/riscv/mach-gd32vf10x/bsp/gd32vf103_timer.c **** 
 974              		.loc 1 546 1
 975 002c 8280     		ret
 976              		.cfi_endproc
 977              	.LFE28:
 979              		.section	.text.timer_break_enable,"ax",@progbits
 980              		.align	1
 981              		.globl	timer_break_enable
 983              	timer_break_enable:
GAS LISTING C:\Users\test\AppData\Local\Temp\ccx0JFmY.s 			page 46


 984              	.LFB29:
 555:arch/riscv/mach-gd32vf10x/bsp/gd32vf103_timer.c ****     TIMER_CCHP(timer_periph) |= (uint32_t)TIMER_CCHP_BRKEN;
 985              		.loc 1 555 1 is_stmt 1
 986              		.cfi_startproc
 987              	.LVL58:
 556:arch/riscv/mach-gd32vf10x/bsp/gd32vf103_timer.c **** }
 988              		.loc 1 556 5
 556:arch/riscv/mach-gd32vf10x/bsp/gd32vf103_timer.c **** }
 989              		.loc 1 556 30 is_stmt 0
 990 0000 7C41     		lw	a5,68(a0)
 991 0002 0567     		li	a4,4096
 992 0004 D98F     		or	a5,a5,a4
 993 0006 7CC1     		sw	a5,68(a0)
 557:arch/riscv/mach-gd32vf10x/bsp/gd32vf103_timer.c **** 
 994              		.loc 1 557 1
 995 0008 8280     		ret
 996              		.cfi_endproc
 997              	.LFE29:
 999              		.section	.text.timer_break_disable,"ax",@progbits
 1000              		.align	1
 1001              		.globl	timer_break_disable
 1003              	timer_break_disable:
 1004              	.LFB30:
 566:arch/riscv/mach-gd32vf10x/bsp/gd32vf103_timer.c ****     TIMER_CCHP(timer_periph) &= ~(uint32_t)TIMER_CCHP_BRKEN;
 1005              		.loc 1 566 1 is_stmt 1
 1006              		.cfi_startproc
 1007              	.LVL59:
 567:arch/riscv/mach-gd32vf10x/bsp/gd32vf103_timer.c **** }
 1008              		.loc 1 567 5
 567:arch/riscv/mach-gd32vf10x/bsp/gd32vf103_timer.c **** }
 1009              		.loc 1 567 30 is_stmt 0
 1010 0000 7C41     		lw	a5,68(a0)
 1011 0002 7D77     		li	a4,-4096
 1012 0004 7D17     		addi	a4,a4,-1
 1013 0006 F98F     		and	a5,a5,a4
 1014 0008 7CC1     		sw	a5,68(a0)
 568:arch/riscv/mach-gd32vf10x/bsp/gd32vf103_timer.c **** 
 1015              		.loc 1 568 1
 1016 000a 8280     		ret
 1017              		.cfi_endproc
 1018              	.LFE30:
 1020              		.section	.text.timer_automatic_output_enable,"ax",@progbits
 1021              		.align	1
 1022              		.globl	timer_automatic_output_enable
 1024              	timer_automatic_output_enable:
 1025              	.LFB31:
 577:arch/riscv/mach-gd32vf10x/bsp/gd32vf103_timer.c ****     TIMER_CCHP(timer_periph) |= (uint32_t)TIMER_CCHP_OAEN;
 1026              		.loc 1 577 1 is_stmt 1
 1027              		.cfi_startproc
 1028              	.LVL60:
 578:arch/riscv/mach-gd32vf10x/bsp/gd32vf103_timer.c **** }
 1029              		.loc 1 578 5
 578:arch/riscv/mach-gd32vf10x/bsp/gd32vf103_timer.c **** }
 1030              		.loc 1 578 30 is_stmt 0
 1031 0000 7C41     		lw	a5,68(a0)
 1032 0002 1167     		li	a4,16384
 1033 0004 D98F     		or	a5,a5,a4
GAS LISTING C:\Users\test\AppData\Local\Temp\ccx0JFmY.s 			page 47


 1034 0006 7CC1     		sw	a5,68(a0)
 579:arch/riscv/mach-gd32vf10x/bsp/gd32vf103_timer.c **** 
 1035              		.loc 1 579 1
 1036 0008 8280     		ret
 1037              		.cfi_endproc
 1038              	.LFE31:
 1040              		.section	.text.timer_automatic_output_disable,"ax",@progbits
 1041              		.align	1
 1042              		.globl	timer_automatic_output_disable
 1044              	timer_automatic_output_disable:
 1045              	.LFB32:
 588:arch/riscv/mach-gd32vf10x/bsp/gd32vf103_timer.c ****     TIMER_CCHP(timer_periph) &= ~(uint32_t)TIMER_CCHP_OAEN;
 1046              		.loc 1 588 1 is_stmt 1
 1047              		.cfi_startproc
 1048              	.LVL61:
 589:arch/riscv/mach-gd32vf10x/bsp/gd32vf103_timer.c **** }
 1049              		.loc 1 589 5
 589:arch/riscv/mach-gd32vf10x/bsp/gd32vf103_timer.c **** }
 1050              		.loc 1 589 30 is_stmt 0
 1051 0000 7C41     		lw	a5,68(a0)
 1052 0002 7177     		li	a4,-16384
 1053 0004 7D17     		addi	a4,a4,-1
 1054 0006 F98F     		and	a5,a5,a4
 1055 0008 7CC1     		sw	a5,68(a0)
 590:arch/riscv/mach-gd32vf10x/bsp/gd32vf103_timer.c **** 
 1056              		.loc 1 590 1
 1057 000a 8280     		ret
 1058              		.cfi_endproc
 1059              	.LFE32:
 1061              		.section	.text.timer_primary_output_config,"ax",@progbits
 1062              		.align	1
 1063              		.globl	timer_primary_output_config
 1065              	timer_primary_output_config:
 1066              	.LFB33:
 600:arch/riscv/mach-gd32vf10x/bsp/gd32vf103_timer.c ****     if(ENABLE == newvalue){
 1067              		.loc 1 600 1 is_stmt 1
 1068              		.cfi_startproc
 1069              	.LVL62:
 601:arch/riscv/mach-gd32vf10x/bsp/gd32vf103_timer.c ****         TIMER_CCHP(timer_periph) |= (uint32_t)TIMER_CCHP_POEN;
 1070              		.loc 1 601 5
 601:arch/riscv/mach-gd32vf10x/bsp/gd32vf103_timer.c ****         TIMER_CCHP(timer_periph) |= (uint32_t)TIMER_CCHP_POEN;
 1071              		.loc 1 601 7 is_stmt 0
 1072 0000 8547     		li	a5,1
 1073 0002 6388F500 		beq	a1,a5,.L67
 604:arch/riscv/mach-gd32vf10x/bsp/gd32vf103_timer.c ****     }
 1074              		.loc 1 604 9 is_stmt 1
 604:arch/riscv/mach-gd32vf10x/bsp/gd32vf103_timer.c ****     }
 1075              		.loc 1 604 34 is_stmt 0
 1076 0006 7C41     		lw	a5,68(a0)
 1077 0008 6177     		li	a4,-32768
 1078 000a 7D17     		addi	a4,a4,-1
 1079 000c F98F     		and	a5,a5,a4
 1080 000e 7CC1     		sw	a5,68(a0)
 606:arch/riscv/mach-gd32vf10x/bsp/gd32vf103_timer.c **** 
 1081              		.loc 1 606 1
 1082 0010 8280     		ret
 1083              	.L67:
GAS LISTING C:\Users\test\AppData\Local\Temp\ccx0JFmY.s 			page 48


 602:arch/riscv/mach-gd32vf10x/bsp/gd32vf103_timer.c ****     }else{
 1084              		.loc 1 602 9 is_stmt 1
 602:arch/riscv/mach-gd32vf10x/bsp/gd32vf103_timer.c ****     }else{
 1085              		.loc 1 602 34 is_stmt 0
 1086 0012 7C41     		lw	a5,68(a0)
 1087 0014 2167     		li	a4,32768
 1088 0016 D98F     		or	a5,a5,a4
 1089 0018 7CC1     		sw	a5,68(a0)
 1090 001a 8280     		ret
 1091              		.cfi_endproc
 1092              	.LFE33:
 1094              		.section	.text.timer_channel_control_shadow_config,"ax",@progbits
 1095              		.align	1
 1096              		.globl	timer_channel_control_shadow_config
 1098              	timer_channel_control_shadow_config:
 1099              	.LFB34:
 616:arch/riscv/mach-gd32vf10x/bsp/gd32vf103_timer.c ****      if(ENABLE == newvalue){
 1100              		.loc 1 616 1 is_stmt 1
 1101              		.cfi_startproc
 1102              	.LVL63:
 617:arch/riscv/mach-gd32vf10x/bsp/gd32vf103_timer.c ****         TIMER_CTL1(timer_periph) |= (uint32_t)TIMER_CTL1_CCSE;
 1103              		.loc 1 617 6
 617:arch/riscv/mach-gd32vf10x/bsp/gd32vf103_timer.c ****         TIMER_CTL1(timer_periph) |= (uint32_t)TIMER_CTL1_CCSE;
 1104              		.loc 1 617 8 is_stmt 0
 1105 0000 8547     		li	a5,1
 1106 0002 6386F500 		beq	a1,a5,.L71
 620:arch/riscv/mach-gd32vf10x/bsp/gd32vf103_timer.c ****     }
 1107              		.loc 1 620 9 is_stmt 1
 620:arch/riscv/mach-gd32vf10x/bsp/gd32vf103_timer.c ****     }
 1108              		.loc 1 620 34 is_stmt 0
 1109 0006 5C41     		lw	a5,4(a0)
 1110 0008 F99B     		andi	a5,a5,-2
 1111 000a 5CC1     		sw	a5,4(a0)
 622:arch/riscv/mach-gd32vf10x/bsp/gd32vf103_timer.c **** 
 1112              		.loc 1 622 1
 1113 000c 8280     		ret
 1114              	.L71:
 618:arch/riscv/mach-gd32vf10x/bsp/gd32vf103_timer.c ****     }else{
 1115              		.loc 1 618 9 is_stmt 1
 618:arch/riscv/mach-gd32vf10x/bsp/gd32vf103_timer.c ****     }else{
 1116              		.loc 1 618 34 is_stmt 0
 1117 000e 5C41     		lw	a5,4(a0)
 1118 0010 93E71700 		ori	a5,a5,1
 1119 0014 5CC1     		sw	a5,4(a0)
 1120 0016 8280     		ret
 1121              		.cfi_endproc
 1122              	.LFE34:
 1124              		.section	.text.timer_channel_control_shadow_update_config,"ax",@progbits
 1125              		.align	1
 1126              		.globl	timer_channel_control_shadow_update_config
 1128              	timer_channel_control_shadow_update_config:
 1129              	.LFB35:
 635:arch/riscv/mach-gd32vf10x/bsp/gd32vf103_timer.c ****     if(TIMER_UPDATECTL_CCU == ccuctl){
 1130              		.loc 1 635 1 is_stmt 1
 1131              		.cfi_startproc
 1132              	.LVL64:
 636:arch/riscv/mach-gd32vf10x/bsp/gd32vf103_timer.c ****         TIMER_CTL1(timer_periph) &= (~(uint32_t)TIMER_CTL1_CCUC);
GAS LISTING C:\Users\test\AppData\Local\Temp\ccx0JFmY.s 			page 49


 1133              		.loc 1 636 5
 636:arch/riscv/mach-gd32vf10x/bsp/gd32vf103_timer.c ****         TIMER_CTL1(timer_periph) &= (~(uint32_t)TIMER_CTL1_CCUC);
 1134              		.loc 1 636 7 is_stmt 0
 1135 0000 89E5     		bne	a1,zero,.L73
 637:arch/riscv/mach-gd32vf10x/bsp/gd32vf103_timer.c ****     }else if(TIMER_UPDATECTL_CCUTRI == ccuctl){
 1136              		.loc 1 637 9 is_stmt 1
 637:arch/riscv/mach-gd32vf10x/bsp/gd32vf103_timer.c ****     }else if(TIMER_UPDATECTL_CCUTRI == ccuctl){
 1137              		.loc 1 637 34 is_stmt 0
 1138 0002 5C41     		lw	a5,4(a0)
 1139 0004 ED9B     		andi	a5,a5,-5
 1140 0006 5CC1     		sw	a5,4(a0)
 1141 0008 8280     		ret
 1142              	.L73:
 638:arch/riscv/mach-gd32vf10x/bsp/gd32vf103_timer.c ****         TIMER_CTL1(timer_periph) |= (uint32_t)TIMER_CTL1_CCUC;
 1143              		.loc 1 638 11 is_stmt 1
 638:arch/riscv/mach-gd32vf10x/bsp/gd32vf103_timer.c ****         TIMER_CTL1(timer_periph) |= (uint32_t)TIMER_CTL1_CCUC;
 1144              		.loc 1 638 13 is_stmt 0
 1145 000a 9147     		li	a5,4
 1146 000c 6383F500 		beq	a1,a5,.L75
 643:arch/riscv/mach-gd32vf10x/bsp/gd32vf103_timer.c **** 
 1147              		.loc 1 643 1
 1148 0010 8280     		ret
 1149              	.L75:
 639:arch/riscv/mach-gd32vf10x/bsp/gd32vf103_timer.c ****     }else{
 1150              		.loc 1 639 9 is_stmt 1
 639:arch/riscv/mach-gd32vf10x/bsp/gd32vf103_timer.c ****     }else{
 1151              		.loc 1 639 34 is_stmt 0
 1152 0012 5C41     		lw	a5,4(a0)
 1153 0014 93E74700 		ori	a5,a5,4
 1154 0018 5CC1     		sw	a5,4(a0)
 642:arch/riscv/mach-gd32vf10x/bsp/gd32vf103_timer.c **** }
 1155              		.loc 1 642 5 is_stmt 1
 643:arch/riscv/mach-gd32vf10x/bsp/gd32vf103_timer.c **** 
 1156              		.loc 1 643 1 is_stmt 0
 1157 001a 8280     		ret
 1158              		.cfi_endproc
 1159              	.LFE35:
 1161              		.section	.text.timer_channel_output_struct_para_init,"ax",@progbits
 1162              		.align	1
 1163              		.globl	timer_channel_output_struct_para_init
 1165              	timer_channel_output_struct_para_init:
 1166              	.LFB36:
 652:arch/riscv/mach-gd32vf10x/bsp/gd32vf103_timer.c ****     /* initialize the channel output parameter struct member with the default value */
 1167              		.loc 1 652 1 is_stmt 1
 1168              		.cfi_startproc
 1169              	.LVL65:
 654:arch/riscv/mach-gd32vf10x/bsp/gd32vf103_timer.c ****     ocpara->outputnstate = TIMER_CCXN_DISABLE;
 1170              		.loc 1 654 5
 654:arch/riscv/mach-gd32vf10x/bsp/gd32vf103_timer.c ****     ocpara->outputnstate = TIMER_CCXN_DISABLE;
 1171              		.loc 1 654 26 is_stmt 0
 1172 0000 23100500 		sh	zero,0(a0)
 655:arch/riscv/mach-gd32vf10x/bsp/gd32vf103_timer.c ****     ocpara->ocpolarity   = TIMER_OC_POLARITY_HIGH;
 1173              		.loc 1 655 5 is_stmt 1
 655:arch/riscv/mach-gd32vf10x/bsp/gd32vf103_timer.c ****     ocpara->ocpolarity   = TIMER_OC_POLARITY_HIGH;
 1174              		.loc 1 655 26 is_stmt 0
 1175 0004 23110500 		sh	zero,2(a0)
 656:arch/riscv/mach-gd32vf10x/bsp/gd32vf103_timer.c ****     ocpara->ocnpolarity  = TIMER_OCN_POLARITY_HIGH;
GAS LISTING C:\Users\test\AppData\Local\Temp\ccx0JFmY.s 			page 50


 1176              		.loc 1 656 5 is_stmt 1
 656:arch/riscv/mach-gd32vf10x/bsp/gd32vf103_timer.c ****     ocpara->ocnpolarity  = TIMER_OCN_POLARITY_HIGH;
 1177              		.loc 1 656 26 is_stmt 0
 1178 0008 23120500 		sh	zero,4(a0)
 657:arch/riscv/mach-gd32vf10x/bsp/gd32vf103_timer.c ****     ocpara->ocidlestate  = TIMER_OC_IDLE_STATE_LOW;
 1179              		.loc 1 657 5 is_stmt 1
 657:arch/riscv/mach-gd32vf10x/bsp/gd32vf103_timer.c ****     ocpara->ocidlestate  = TIMER_OC_IDLE_STATE_LOW;
 1180              		.loc 1 657 26 is_stmt 0
 1181 000c 23130500 		sh	zero,6(a0)
 658:arch/riscv/mach-gd32vf10x/bsp/gd32vf103_timer.c ****     ocpara->ocnidlestate = TIMER_OCN_IDLE_STATE_LOW;
 1182              		.loc 1 658 5 is_stmt 1
 658:arch/riscv/mach-gd32vf10x/bsp/gd32vf103_timer.c ****     ocpara->ocnidlestate = TIMER_OCN_IDLE_STATE_LOW;
 1183              		.loc 1 658 26 is_stmt 0
 1184 0010 23140500 		sh	zero,8(a0)
 659:arch/riscv/mach-gd32vf10x/bsp/gd32vf103_timer.c **** }
 1185              		.loc 1 659 5 is_stmt 1
 659:arch/riscv/mach-gd32vf10x/bsp/gd32vf103_timer.c **** }
 1186              		.loc 1 659 26 is_stmt 0
 1187 0014 23150500 		sh	zero,10(a0)
 660:arch/riscv/mach-gd32vf10x/bsp/gd32vf103_timer.c **** 
 1188              		.loc 1 660 1
 1189 0018 8280     		ret
 1190              		.cfi_endproc
 1191              	.LFE36:
 1193              		.section	.text.timer_channel_output_config,"ax",@progbits
 1194              		.align	1
 1195              		.globl	timer_channel_output_config
 1197              	timer_channel_output_config:
 1198              	.LFB37:
 682:arch/riscv/mach-gd32vf10x/bsp/gd32vf103_timer.c ****     switch(channel){
 1199              		.loc 1 682 1 is_stmt 1
 1200              		.cfi_startproc
 1201              	.LVL66:
 683:arch/riscv/mach-gd32vf10x/bsp/gd32vf103_timer.c ****     /* configure TIMER_CH_0 */
 1202              		.loc 1 683 5
 1203 0000 8547     		li	a5,1
 1204 0002 6385F50C 		beq	a1,a5,.L78
 1205 0006 D9C5     		beq	a1,zero,.L79
 1206 0008 8947     		li	a5,2
 1207 000a 6387F504 		beq	a1,a5,.L80
 1208 000e 8D47     		li	a5,3
 1209 0010 6393F504 		bne	a1,a5,.L87
 780:arch/riscv/mach-gd32vf10x/bsp/gd32vf103_timer.c ****         /* set the CH3EN bit */
 1210              		.loc 1 780 9
 780:arch/riscv/mach-gd32vf10x/bsp/gd32vf103_timer.c ****         /* set the CH3EN bit */
 1211              		.loc 1 780 36 is_stmt 0
 1212 0014 1C51     		lw	a5,32(a0)
 1213 0016 7D77     		li	a4,-4096
 1214 0018 7D17     		addi	a4,a4,-1
 1215 001a F98F     		and	a5,a5,a4
 1216 001c 1CD1     		sw	a5,32(a0)
 782:arch/riscv/mach-gd32vf10x/bsp/gd32vf103_timer.c ****         /* reset the CH3P bit */
 1217              		.loc 1 782 9 is_stmt 1
 782:arch/riscv/mach-gd32vf10x/bsp/gd32vf103_timer.c ****         /* reset the CH3P bit */
 1218              		.loc 1 782 50 is_stmt 0
 1219 001e 83570600 		lhu	a5,0(a2)
 782:arch/riscv/mach-gd32vf10x/bsp/gd32vf103_timer.c ****         /* reset the CH3P bit */
GAS LISTING C:\Users\test\AppData\Local\Temp\ccx0JFmY.s 			page 51


 1220              		.loc 1 782 36
 1221 0022 1851     		lw	a4,32(a0)
 784:arch/riscv/mach-gd32vf10x/bsp/gd32vf103_timer.c ****         /* set the CH3P bit */
 1222              		.loc 1 784 36
 1223 0024 F976     		li	a3,-8192
 782:arch/riscv/mach-gd32vf10x/bsp/gd32vf103_timer.c ****         /* reset the CH3P bit */
 1224              		.loc 1 782 39
 1225 0026 B207     		slli	a5,a5,12
 782:arch/riscv/mach-gd32vf10x/bsp/gd32vf103_timer.c ****         /* reset the CH3P bit */
 1226              		.loc 1 782 36
 1227 0028 D98F     		or	a5,a5,a4
 1228 002a 1CD1     		sw	a5,32(a0)
 784:arch/riscv/mach-gd32vf10x/bsp/gd32vf103_timer.c ****         /* set the CH3P bit */
 1229              		.loc 1 784 9 is_stmt 1
 784:arch/riscv/mach-gd32vf10x/bsp/gd32vf103_timer.c ****         /* set the CH3P bit */
 1230              		.loc 1 784 36 is_stmt 0
 1231 002c 1851     		lw	a4,32(a0)
 1232 002e FD16     		addi	a3,a3,-1
 786:arch/riscv/mach-gd32vf10x/bsp/gd32vf103_timer.c **** 
 1233              		.loc 1 786 50
 1234 0030 83574600 		lhu	a5,4(a2)
 784:arch/riscv/mach-gd32vf10x/bsp/gd32vf103_timer.c ****         /* set the CH3P bit */
 1235              		.loc 1 784 36
 1236 0034 758F     		and	a4,a4,a3
 1237 0036 18D1     		sw	a4,32(a0)
 786:arch/riscv/mach-gd32vf10x/bsp/gd32vf103_timer.c **** 
 1238              		.loc 1 786 9 is_stmt 1
 786:arch/riscv/mach-gd32vf10x/bsp/gd32vf103_timer.c **** 
 1239              		.loc 1 786 36 is_stmt 0
 1240 0038 1451     		lw	a3,32(a0)
 786:arch/riscv/mach-gd32vf10x/bsp/gd32vf103_timer.c **** 
 1241              		.loc 1 786 39
 1242 003a B207     		slli	a5,a5,12
 788:arch/riscv/mach-gd32vf10x/bsp/gd32vf103_timer.c ****             /* reset the ISO3 bit */
 1243              		.loc 1 788 12
 1244 003c 37370140 		li	a4,1073819648
 786:arch/riscv/mach-gd32vf10x/bsp/gd32vf103_timer.c **** 
 1245              		.loc 1 786 36
 1246 0040 D58F     		or	a5,a5,a3
 1247 0042 1CD1     		sw	a5,32(a0)
 788:arch/riscv/mach-gd32vf10x/bsp/gd32vf103_timer.c ****             /* reset the ISO3 bit */
 1248              		.loc 1 788 9 is_stmt 1
 788:arch/riscv/mach-gd32vf10x/bsp/gd32vf103_timer.c ****             /* reset the ISO3 bit */
 1249              		.loc 1 788 12 is_stmt 0
 1250 0044 930707C0 		addi	a5,a4,-1024
 1251 0048 630AF51E 		beq	a0,a5,.L88
 1252              	.L86:
 794:arch/riscv/mach-gd32vf10x/bsp/gd32vf103_timer.c ****         break;
 1253              		.loc 1 794 9 is_stmt 1
 794:arch/riscv/mach-gd32vf10x/bsp/gd32vf103_timer.c ****         break;
 1254              		.loc 1 794 36 is_stmt 0
 1255 004c 5C4D     		lw	a5,28(a0)
 1256 004e 93F7F7CF 		andi	a5,a5,-769
 1257 0052 5CCD     		sw	a5,28(a0)
 795:arch/riscv/mach-gd32vf10x/bsp/gd32vf103_timer.c ****     default:
 1258              		.loc 1 795 9 is_stmt 1
 799:arch/riscv/mach-gd32vf10x/bsp/gd32vf103_timer.c **** 
GAS LISTING C:\Users\test\AppData\Local\Temp\ccx0JFmY.s 			page 52


 1259              		.loc 1 799 1 is_stmt 0
 1260 0054 8280     		ret
 1261              	.L87:
 1262 0056 8280     		ret
 1263              	.L80:
 749:arch/riscv/mach-gd32vf10x/bsp/gd32vf103_timer.c ****         /* set the CH2EN bit */
 1264              		.loc 1 749 9 is_stmt 1
 749:arch/riscv/mach-gd32vf10x/bsp/gd32vf103_timer.c ****         /* set the CH2EN bit */
 1265              		.loc 1 749 36 is_stmt 0
 1266 0058 1451     		lw	a3,32(a0)
 751:arch/riscv/mach-gd32vf10x/bsp/gd32vf103_timer.c ****         /* reset the CH2P bit */
 1267              		.loc 1 751 50
 1268 005a 03570600 		lhu	a4,0(a2)
 755:arch/riscv/mach-gd32vf10x/bsp/gd32vf103_timer.c **** 
 1269              		.loc 1 755 50
 1270 005e 83574600 		lhu	a5,4(a2)
 749:arch/riscv/mach-gd32vf10x/bsp/gd32vf103_timer.c ****         /* set the CH2EN bit */
 1271              		.loc 1 749 36
 1272 0062 93F6F6EF 		andi	a3,a3,-257
 1273 0066 14D1     		sw	a3,32(a0)
 751:arch/riscv/mach-gd32vf10x/bsp/gd32vf103_timer.c ****         /* reset the CH2P bit */
 1274              		.loc 1 751 9 is_stmt 1
 751:arch/riscv/mach-gd32vf10x/bsp/gd32vf103_timer.c ****         /* reset the CH2P bit */
 1275              		.loc 1 751 36 is_stmt 0
 1276 0068 1451     		lw	a3,32(a0)
 751:arch/riscv/mach-gd32vf10x/bsp/gd32vf103_timer.c ****         /* reset the CH2P bit */
 1277              		.loc 1 751 39
 1278 006a 2207     		slli	a4,a4,8
 755:arch/riscv/mach-gd32vf10x/bsp/gd32vf103_timer.c **** 
 1279              		.loc 1 755 39
 1280 006c A207     		slli	a5,a5,8
 751:arch/riscv/mach-gd32vf10x/bsp/gd32vf103_timer.c ****         /* reset the CH2P bit */
 1281              		.loc 1 751 36
 1282 006e 558F     		or	a4,a4,a3
 1283 0070 18D1     		sw	a4,32(a0)
 753:arch/riscv/mach-gd32vf10x/bsp/gd32vf103_timer.c ****         /* set the CH2P bit */
 1284              		.loc 1 753 9 is_stmt 1
 753:arch/riscv/mach-gd32vf10x/bsp/gd32vf103_timer.c ****         /* set the CH2P bit */
 1285              		.loc 1 753 36 is_stmt 0
 1286 0072 1451     		lw	a3,32(a0)
 757:arch/riscv/mach-gd32vf10x/bsp/gd32vf103_timer.c ****             /* reset the CH2NEN bit */
 1287              		.loc 1 757 12
 1288 0074 37370140 		li	a4,1073819648
 1289 0078 930507C0 		addi	a1,a4,-1024
 1290              	.LVL67:
 753:arch/riscv/mach-gd32vf10x/bsp/gd32vf103_timer.c ****         /* set the CH2P bit */
 1291              		.loc 1 753 36
 1292 007c 93F6F6DF 		andi	a3,a3,-513
 1293 0080 14D1     		sw	a3,32(a0)
 755:arch/riscv/mach-gd32vf10x/bsp/gd32vf103_timer.c **** 
 1294              		.loc 1 755 9 is_stmt 1
 755:arch/riscv/mach-gd32vf10x/bsp/gd32vf103_timer.c **** 
 1295              		.loc 1 755 36 is_stmt 0
 1296 0082 1451     		lw	a3,32(a0)
 1297 0084 D58F     		or	a5,a5,a3
 1298 0086 1CD1     		sw	a5,32(a0)
 757:arch/riscv/mach-gd32vf10x/bsp/gd32vf103_timer.c ****             /* reset the CH2NEN bit */
GAS LISTING C:\Users\test\AppData\Local\Temp\ccx0JFmY.s 			page 53


 1299              		.loc 1 757 9 is_stmt 1
 757:arch/riscv/mach-gd32vf10x/bsp/gd32vf103_timer.c ****             /* reset the CH2NEN bit */
 1300              		.loc 1 757 12 is_stmt 0
 1301 0088 6301B514 		beq	a0,a1,.L89
 1302              	.LVL68:
 1303              	.L85:
 775:arch/riscv/mach-gd32vf10x/bsp/gd32vf103_timer.c ****         break;
 1304              		.loc 1 775 9 is_stmt 1
 775:arch/riscv/mach-gd32vf10x/bsp/gd32vf103_timer.c ****         break;
 1305              		.loc 1 775 36 is_stmt 0
 1306 008c 5C4D     		lw	a5,28(a0)
 1307 008e F19B     		andi	a5,a5,-4
 1308 0090 5CCD     		sw	a5,28(a0)
 776:arch/riscv/mach-gd32vf10x/bsp/gd32vf103_timer.c ****     /* configure TIMER_CH_3 */
 1309              		.loc 1 776 9 is_stmt 1
 1310 0092 8280     		ret
 1311              	.LVL69:
 1312              	.L79:
 687:arch/riscv/mach-gd32vf10x/bsp/gd32vf103_timer.c ****         /* set the CH0EN bit */
 1313              		.loc 1 687 9
 687:arch/riscv/mach-gd32vf10x/bsp/gd32vf103_timer.c ****         /* set the CH0EN bit */
 1314              		.loc 1 687 36 is_stmt 0
 1315 0094 1C51     		lw	a5,32(a0)
 689:arch/riscv/mach-gd32vf10x/bsp/gd32vf103_timer.c ****         /* reset the CH0P bit */
 1316              		.loc 1 689 39
 1317 0096 83560600 		lhu	a3,0(a2)
 693:arch/riscv/mach-gd32vf10x/bsp/gd32vf103_timer.c **** 
 1318              		.loc 1 693 39
 1319 009a 03574600 		lhu	a4,4(a2)
 687:arch/riscv/mach-gd32vf10x/bsp/gd32vf103_timer.c ****         /* set the CH0EN bit */
 1320              		.loc 1 687 36
 1321 009e F99B     		andi	a5,a5,-2
 1322 00a0 1CD1     		sw	a5,32(a0)
 689:arch/riscv/mach-gd32vf10x/bsp/gd32vf103_timer.c ****         /* reset the CH0P bit */
 1323              		.loc 1 689 9 is_stmt 1
 689:arch/riscv/mach-gd32vf10x/bsp/gd32vf103_timer.c ****         /* reset the CH0P bit */
 1324              		.loc 1 689 36 is_stmt 0
 1325 00a2 03280502 		lw	a6,32(a0)
 695:arch/riscv/mach-gd32vf10x/bsp/gd32vf103_timer.c ****             /* reset the CH0NEN bit */
 1326              		.loc 1 695 12
 1327 00a6 B7370140 		li	a5,1073819648
 1328 00aa 938507C0 		addi	a1,a5,-1024
 1329              	.LVL70:
 689:arch/riscv/mach-gd32vf10x/bsp/gd32vf103_timer.c ****         /* reset the CH0P bit */
 1330              		.loc 1 689 36
 1331 00ae B3E60601 		or	a3,a3,a6
 1332 00b2 14D1     		sw	a3,32(a0)
 691:arch/riscv/mach-gd32vf10x/bsp/gd32vf103_timer.c ****         /* set the CH0P bit */
 1333              		.loc 1 691 9 is_stmt 1
 691:arch/riscv/mach-gd32vf10x/bsp/gd32vf103_timer.c ****         /* set the CH0P bit */
 1334              		.loc 1 691 36 is_stmt 0
 1335 00b4 1451     		lw	a3,32(a0)
 1336 00b6 F59A     		andi	a3,a3,-3
 1337 00b8 14D1     		sw	a3,32(a0)
 693:arch/riscv/mach-gd32vf10x/bsp/gd32vf103_timer.c **** 
 1338              		.loc 1 693 9 is_stmt 1
 693:arch/riscv/mach-gd32vf10x/bsp/gd32vf103_timer.c **** 
GAS LISTING C:\Users\test\AppData\Local\Temp\ccx0JFmY.s 			page 54


 1339              		.loc 1 693 36 is_stmt 0
 1340 00ba 1451     		lw	a3,32(a0)
 1341 00bc 558F     		or	a4,a4,a3
 1342 00be 18D1     		sw	a4,32(a0)
 695:arch/riscv/mach-gd32vf10x/bsp/gd32vf103_timer.c ****             /* reset the CH0NEN bit */
 1343              		.loc 1 695 9 is_stmt 1
 695:arch/riscv/mach-gd32vf10x/bsp/gd32vf103_timer.c ****             /* reset the CH0NEN bit */
 1344              		.loc 1 695 12 is_stmt 0
 1345 00c0 6307B50A 		beq	a0,a1,.L90
 1346              	.LVL71:
 1347              	.L83:
 713:arch/riscv/mach-gd32vf10x/bsp/gd32vf103_timer.c ****         break;
 1348              		.loc 1 713 9 is_stmt 1
 713:arch/riscv/mach-gd32vf10x/bsp/gd32vf103_timer.c ****         break;
 1349              		.loc 1 713 36 is_stmt 0
 1350 00c4 1C4D     		lw	a5,24(a0)
 1351 00c6 F19B     		andi	a5,a5,-4
 1352 00c8 1CCD     		sw	a5,24(a0)
 714:arch/riscv/mach-gd32vf10x/bsp/gd32vf103_timer.c ****     /* configure TIMER_CH_1 */
 1353              		.loc 1 714 9 is_stmt 1
 1354 00ca 8280     		ret
 1355              	.LVL72:
 1356              	.L78:
 718:arch/riscv/mach-gd32vf10x/bsp/gd32vf103_timer.c ****         /* set the CH1EN bit */
 1357              		.loc 1 718 9
 718:arch/riscv/mach-gd32vf10x/bsp/gd32vf103_timer.c ****         /* set the CH1EN bit */
 1358              		.loc 1 718 36 is_stmt 0
 1359 00cc 1451     		lw	a3,32(a0)
 720:arch/riscv/mach-gd32vf10x/bsp/gd32vf103_timer.c ****         /* reset the CH1P bit */
 1360              		.loc 1 720 50
 1361 00ce 03570600 		lhu	a4,0(a2)
 724:arch/riscv/mach-gd32vf10x/bsp/gd32vf103_timer.c **** 
 1362              		.loc 1 724 50
 1363 00d2 83574600 		lhu	a5,4(a2)
 718:arch/riscv/mach-gd32vf10x/bsp/gd32vf103_timer.c ****         /* set the CH1EN bit */
 1364              		.loc 1 718 36
 1365 00d6 BD9A     		andi	a3,a3,-17
 1366 00d8 14D1     		sw	a3,32(a0)
 720:arch/riscv/mach-gd32vf10x/bsp/gd32vf103_timer.c ****         /* reset the CH1P bit */
 1367              		.loc 1 720 9 is_stmt 1
 720:arch/riscv/mach-gd32vf10x/bsp/gd32vf103_timer.c ****         /* reset the CH1P bit */
 1368              		.loc 1 720 36 is_stmt 0
 1369 00da 1451     		lw	a3,32(a0)
 720:arch/riscv/mach-gd32vf10x/bsp/gd32vf103_timer.c ****         /* reset the CH1P bit */
 1370              		.loc 1 720 39
 1371 00dc 1207     		slli	a4,a4,4
 724:arch/riscv/mach-gd32vf10x/bsp/gd32vf103_timer.c **** 
 1372              		.loc 1 724 39
 1373 00de 9207     		slli	a5,a5,4
 720:arch/riscv/mach-gd32vf10x/bsp/gd32vf103_timer.c ****         /* reset the CH1P bit */
 1374              		.loc 1 720 36
 1375 00e0 558F     		or	a4,a4,a3
 1376 00e2 18D1     		sw	a4,32(a0)
 722:arch/riscv/mach-gd32vf10x/bsp/gd32vf103_timer.c ****         /* set the CH1P bit */
 1377              		.loc 1 722 9 is_stmt 1
 722:arch/riscv/mach-gd32vf10x/bsp/gd32vf103_timer.c ****         /* set the CH1P bit */
 1378              		.loc 1 722 36 is_stmt 0
GAS LISTING C:\Users\test\AppData\Local\Temp\ccx0JFmY.s 			page 55


 1379 00e4 1451     		lw	a3,32(a0)
 726:arch/riscv/mach-gd32vf10x/bsp/gd32vf103_timer.c ****             /* reset the CH1NEN bit */
 1380              		.loc 1 726 12
 1381 00e6 37370140 		li	a4,1073819648
 1382 00ea 930507C0 		addi	a1,a4,-1024
 1383              	.LVL73:
 722:arch/riscv/mach-gd32vf10x/bsp/gd32vf103_timer.c ****         /* set the CH1P bit */
 1384              		.loc 1 722 36
 1385 00ee 93F6F6FD 		andi	a3,a3,-33
 1386 00f2 14D1     		sw	a3,32(a0)
 724:arch/riscv/mach-gd32vf10x/bsp/gd32vf103_timer.c **** 
 1387              		.loc 1 724 9 is_stmt 1
 724:arch/riscv/mach-gd32vf10x/bsp/gd32vf103_timer.c **** 
 1388              		.loc 1 724 36 is_stmt 0
 1389 00f4 1451     		lw	a3,32(a0)
 1390 00f6 D58F     		or	a5,a5,a3
 1391 00f8 1CD1     		sw	a5,32(a0)
 726:arch/riscv/mach-gd32vf10x/bsp/gd32vf103_timer.c ****             /* reset the CH1NEN bit */
 1392              		.loc 1 726 9 is_stmt 1
 726:arch/riscv/mach-gd32vf10x/bsp/gd32vf103_timer.c ****             /* reset the CH1NEN bit */
 1393              		.loc 1 726 12 is_stmt 0
 1394 00fa 6307B500 		beq	a0,a1,.L91
 1395              	.LVL74:
 1396              	.L84:
 744:arch/riscv/mach-gd32vf10x/bsp/gd32vf103_timer.c ****         break;
 1397              		.loc 1 744 9 is_stmt 1
 744:arch/riscv/mach-gd32vf10x/bsp/gd32vf103_timer.c ****         break;
 1398              		.loc 1 744 36 is_stmt 0
 1399 00fe 1C4D     		lw	a5,24(a0)
 1400 0100 93F7F7CF 		andi	a5,a5,-769
 1401 0104 1CCD     		sw	a5,24(a0)
 745:arch/riscv/mach-gd32vf10x/bsp/gd32vf103_timer.c ****     /* configure TIMER_CH_2 */
 1402              		.loc 1 745 9 is_stmt 1
 1403 0106 8280     		ret
 1404              	.LVL75:
 1405              	.L91:
 728:arch/riscv/mach-gd32vf10x/bsp/gd32vf103_timer.c ****             /* set the CH1NEN bit */
 1406              		.loc 1 728 13
 728:arch/riscv/mach-gd32vf10x/bsp/gd32vf103_timer.c ****             /* set the CH1NEN bit */
 1407              		.loc 1 728 40 is_stmt 0
 1408 0108 0C51     		lw	a1,32(a0)
 730:arch/riscv/mach-gd32vf10x/bsp/gd32vf103_timer.c ****             /* reset the CH1NP bit */
 1409              		.loc 1 730 54
 1410 010a 83562600 		lhu	a3,2(a2)
 734:arch/riscv/mach-gd32vf10x/bsp/gd32vf103_timer.c ****             /* reset the ISO1 bit */
 1411              		.loc 1 734 54
 1412 010e 83576600 		lhu	a5,6(a2)
 728:arch/riscv/mach-gd32vf10x/bsp/gd32vf103_timer.c ****             /* set the CH1NEN bit */
 1413              		.loc 1 728 40
 1414 0112 93F5F5FB 		andi	a1,a1,-65
 1415 0116 0CD1     		sw	a1,32(a0)
 730:arch/riscv/mach-gd32vf10x/bsp/gd32vf103_timer.c ****             /* reset the CH1NP bit */
 1416              		.loc 1 730 13 is_stmt 1
 730:arch/riscv/mach-gd32vf10x/bsp/gd32vf103_timer.c ****             /* reset the CH1NP bit */
 1417              		.loc 1 730 40 is_stmt 0
 1418 0118 0C51     		lw	a1,32(a0)
 730:arch/riscv/mach-gd32vf10x/bsp/gd32vf103_timer.c ****             /* reset the CH1NP bit */
GAS LISTING C:\Users\test\AppData\Local\Temp\ccx0JFmY.s 			page 56


 1419              		.loc 1 730 43
 1420 011a 9206     		slli	a3,a3,4
 734:arch/riscv/mach-gd32vf10x/bsp/gd32vf103_timer.c ****             /* reset the ISO1 bit */
 1421              		.loc 1 734 43
 1422 011c 9207     		slli	a5,a5,4
 730:arch/riscv/mach-gd32vf10x/bsp/gd32vf103_timer.c ****             /* reset the CH1NP bit */
 1423              		.loc 1 730 40
 1424 011e CD8E     		or	a3,a3,a1
 1425 0120 14D1     		sw	a3,32(a0)
 732:arch/riscv/mach-gd32vf10x/bsp/gd32vf103_timer.c ****             /* set the CH1NP bit */
 1426              		.loc 1 732 13 is_stmt 1
 732:arch/riscv/mach-gd32vf10x/bsp/gd32vf103_timer.c ****             /* set the CH1NP bit */
 1427              		.loc 1 732 40 is_stmt 0
 1428 0122 0C51     		lw	a1,32(a0)
 738:arch/riscv/mach-gd32vf10x/bsp/gd32vf103_timer.c ****             /* reset the ISO1N bit */
 1429              		.loc 1 738 52
 1430 0124 83568600 		lhu	a3,8(a2)
 732:arch/riscv/mach-gd32vf10x/bsp/gd32vf103_timer.c ****             /* set the CH1NP bit */
 1431              		.loc 1 732 40
 1432 0128 93F5F5F7 		andi	a1,a1,-129
 1433 012c 0CD1     		sw	a1,32(a0)
 734:arch/riscv/mach-gd32vf10x/bsp/gd32vf103_timer.c ****             /* reset the ISO1 bit */
 1434              		.loc 1 734 13 is_stmt 1
 734:arch/riscv/mach-gd32vf10x/bsp/gd32vf103_timer.c ****             /* reset the ISO1 bit */
 1435              		.loc 1 734 40 is_stmt 0
 1436 012e 0C51     		lw	a1,32(a0)
 738:arch/riscv/mach-gd32vf10x/bsp/gd32vf103_timer.c ****             /* reset the ISO1N bit */
 1437              		.loc 1 738 41
 1438 0130 8A06     		slli	a3,a3,2
 734:arch/riscv/mach-gd32vf10x/bsp/gd32vf103_timer.c ****             /* reset the ISO1 bit */
 1439              		.loc 1 734 40
 1440 0132 CD8F     		or	a5,a5,a1
 1441 0134 1CD1     		sw	a5,32(a0)
 736:arch/riscv/mach-gd32vf10x/bsp/gd32vf103_timer.c ****             /* set the ISO1 bit */
 1442              		.loc 1 736 13 is_stmt 1
 736:arch/riscv/mach-gd32vf10x/bsp/gd32vf103_timer.c ****             /* set the ISO1 bit */
 1443              		.loc 1 736 38 is_stmt 0
 1444 0136 832547C0 		lw	a1,-1020(a4)
 742:arch/riscv/mach-gd32vf10x/bsp/gd32vf103_timer.c ****         }
 1445              		.loc 1 742 52
 1446 013a 8357A600 		lhu	a5,10(a2)
 736:arch/riscv/mach-gd32vf10x/bsp/gd32vf103_timer.c ****             /* set the ISO1 bit */
 1447              		.loc 1 736 38
 1448 013e 93F5F5BF 		andi	a1,a1,-1025
 1449 0142 2322B7C0 		sw	a1,-1020(a4)
 738:arch/riscv/mach-gd32vf10x/bsp/gd32vf103_timer.c ****             /* reset the ISO1N bit */
 1450              		.loc 1 738 13 is_stmt 1
 738:arch/riscv/mach-gd32vf10x/bsp/gd32vf103_timer.c ****             /* reset the ISO1N bit */
 1451              		.loc 1 738 38 is_stmt 0
 1452 0146 032647C0 		lw	a2,-1020(a4)
 1453              	.LVL76:
 742:arch/riscv/mach-gd32vf10x/bsp/gd32vf103_timer.c ****         }
 1454              		.loc 1 742 41
 1455 014a 8A07     		slli	a5,a5,2
 738:arch/riscv/mach-gd32vf10x/bsp/gd32vf103_timer.c ****             /* reset the ISO1N bit */
 1456              		.loc 1 738 38
 1457 014c D18E     		or	a3,a3,a2
GAS LISTING C:\Users\test\AppData\Local\Temp\ccx0JFmY.s 			page 57


 1458 014e 2322D7C0 		sw	a3,-1020(a4)
 740:arch/riscv/mach-gd32vf10x/bsp/gd32vf103_timer.c ****             /* set the ISO1N bit */
 1459              		.loc 1 740 13 is_stmt 1
 740:arch/riscv/mach-gd32vf10x/bsp/gd32vf103_timer.c ****             /* set the ISO1N bit */
 1460              		.loc 1 740 38 is_stmt 0
 1461 0152 832647C0 		lw	a3,-1020(a4)
 1462 0156 7D76     		li	a2,-4096
 1463 0158 1306F67F 		addi	a2,a2,2047
 1464 015c F18E     		and	a3,a3,a2
 1465 015e 2322D7C0 		sw	a3,-1020(a4)
 742:arch/riscv/mach-gd32vf10x/bsp/gd32vf103_timer.c ****         }
 1466              		.loc 1 742 13 is_stmt 1
 742:arch/riscv/mach-gd32vf10x/bsp/gd32vf103_timer.c ****         }
 1467              		.loc 1 742 38 is_stmt 0
 1468 0162 832647C0 		lw	a3,-1020(a4)
 1469 0166 D58F     		or	a5,a5,a3
 1470 0168 2322F7C0 		sw	a5,-1020(a4)
 1471 016c 49BF     		j	.L84
 1472              	.LVL77:
 1473              	.L90:
 697:arch/riscv/mach-gd32vf10x/bsp/gd32vf103_timer.c ****             /* set the CH0NEN bit */
 1474              		.loc 1 697 13 is_stmt 1
 697:arch/riscv/mach-gd32vf10x/bsp/gd32vf103_timer.c ****             /* set the CH0NEN bit */
 1475              		.loc 1 697 40 is_stmt 0
 1476 016e 1851     		lw	a4,32(a0)
 699:arch/riscv/mach-gd32vf10x/bsp/gd32vf103_timer.c ****             /* reset the CH0NP bit */
 1477              		.loc 1 699 43
 1478 0170 03582600 		lhu	a6,2(a2)
 703:arch/riscv/mach-gd32vf10x/bsp/gd32vf103_timer.c ****             /* reset the ISO0 bit */
 1479              		.loc 1 703 43
 1480 0174 83556600 		lhu	a1,6(a2)
 697:arch/riscv/mach-gd32vf10x/bsp/gd32vf103_timer.c ****             /* set the CH0NEN bit */
 1481              		.loc 1 697 40
 1482 0178 6D9B     		andi	a4,a4,-5
 1483 017a 18D1     		sw	a4,32(a0)
 699:arch/riscv/mach-gd32vf10x/bsp/gd32vf103_timer.c ****             /* reset the CH0NP bit */
 1484              		.loc 1 699 13 is_stmt 1
 699:arch/riscv/mach-gd32vf10x/bsp/gd32vf103_timer.c ****             /* reset the CH0NP bit */
 1485              		.loc 1 699 40 is_stmt 0
 1486 017c 83280502 		lw	a7,32(a0)
 707:arch/riscv/mach-gd32vf10x/bsp/gd32vf103_timer.c ****             /* reset the ISO0N bit */
 1487              		.loc 1 707 41
 1488 0180 83568600 		lhu	a3,8(a2)
 711:arch/riscv/mach-gd32vf10x/bsp/gd32vf103_timer.c ****         }
 1489              		.loc 1 711 41
 1490 0184 0357A600 		lhu	a4,10(a2)
 699:arch/riscv/mach-gd32vf10x/bsp/gd32vf103_timer.c ****             /* reset the CH0NP bit */
 1491              		.loc 1 699 40
 1492 0188 33681801 		or	a6,a6,a7
 1493 018c 23200503 		sw	a6,32(a0)
 701:arch/riscv/mach-gd32vf10x/bsp/gd32vf103_timer.c ****             /* set the CH0NP bit */
 1494              		.loc 1 701 13 is_stmt 1
 701:arch/riscv/mach-gd32vf10x/bsp/gd32vf103_timer.c ****             /* set the CH0NP bit */
 1495              		.loc 1 701 40 is_stmt 0
 1496 0190 1051     		lw	a2,32(a0)
 1497              	.LVL78:
 1498 0192 5D9A     		andi	a2,a2,-9
GAS LISTING C:\Users\test\AppData\Local\Temp\ccx0JFmY.s 			page 58


 1499 0194 10D1     		sw	a2,32(a0)
 703:arch/riscv/mach-gd32vf10x/bsp/gd32vf103_timer.c ****             /* reset the ISO0 bit */
 1500              		.loc 1 703 13 is_stmt 1
 703:arch/riscv/mach-gd32vf10x/bsp/gd32vf103_timer.c ****             /* reset the ISO0 bit */
 1501              		.loc 1 703 40 is_stmt 0
 1502 0196 1051     		lw	a2,32(a0)
 1503 0198 D18D     		or	a1,a1,a2
 1504 019a 0CD1     		sw	a1,32(a0)
 705:arch/riscv/mach-gd32vf10x/bsp/gd32vf103_timer.c ****             /* set the ISO0 bit */
 1505              		.loc 1 705 13 is_stmt 1
 705:arch/riscv/mach-gd32vf10x/bsp/gd32vf103_timer.c ****             /* set the ISO0 bit */
 1506              		.loc 1 705 38 is_stmt 0
 1507 019c 03A647C0 		lw	a2,-1020(a5)
 1508 01a0 1376F6EF 		andi	a2,a2,-257
 1509 01a4 23A2C7C0 		sw	a2,-1020(a5)
 707:arch/riscv/mach-gd32vf10x/bsp/gd32vf103_timer.c ****             /* reset the ISO0N bit */
 1510              		.loc 1 707 13 is_stmt 1
 707:arch/riscv/mach-gd32vf10x/bsp/gd32vf103_timer.c ****             /* reset the ISO0N bit */
 1511              		.loc 1 707 38 is_stmt 0
 1512 01a8 03A647C0 		lw	a2,-1020(a5)
 1513 01ac D18E     		or	a3,a3,a2
 1514 01ae 23A2D7C0 		sw	a3,-1020(a5)
 709:arch/riscv/mach-gd32vf10x/bsp/gd32vf103_timer.c ****             /* set the ISO0N bit */
 1515              		.loc 1 709 13 is_stmt 1
 709:arch/riscv/mach-gd32vf10x/bsp/gd32vf103_timer.c ****             /* set the ISO0N bit */
 1516              		.loc 1 709 38 is_stmt 0
 1517 01b2 83A647C0 		lw	a3,-1020(a5)
 1518 01b6 93F6F6DF 		andi	a3,a3,-513
 1519 01ba 23A2D7C0 		sw	a3,-1020(a5)
 711:arch/riscv/mach-gd32vf10x/bsp/gd32vf103_timer.c ****         }
 1520              		.loc 1 711 13 is_stmt 1
 711:arch/riscv/mach-gd32vf10x/bsp/gd32vf103_timer.c ****         }
 1521              		.loc 1 711 38 is_stmt 0
 1522 01be 83A647C0 		lw	a3,-1020(a5)
 1523 01c2 558F     		or	a4,a4,a3
 1524 01c4 23A2E7C0 		sw	a4,-1020(a5)
 1525 01c8 F5BD     		j	.L83
 1526              	.LVL79:
 1527              	.L89:
 759:arch/riscv/mach-gd32vf10x/bsp/gd32vf103_timer.c ****             /* set the CH2NEN bit */
 1528              		.loc 1 759 13 is_stmt 1
 759:arch/riscv/mach-gd32vf10x/bsp/gd32vf103_timer.c ****             /* set the CH2NEN bit */
 1529              		.loc 1 759 40 is_stmt 0
 1530 01ca 0C51     		lw	a1,32(a0)
 761:arch/riscv/mach-gd32vf10x/bsp/gd32vf103_timer.c ****             /* reset the CH2NP bit */
 1531              		.loc 1 761 54
 1532 01cc 83572600 		lhu	a5,2(a2)
 763:arch/riscv/mach-gd32vf10x/bsp/gd32vf103_timer.c ****             /* set the CH2NP bit */
 1533              		.loc 1 763 40
 1534 01d0 FD76     		li	a3,-4096
 759:arch/riscv/mach-gd32vf10x/bsp/gd32vf103_timer.c ****             /* set the CH2NEN bit */
 1535              		.loc 1 759 40
 1536 01d2 93F5F5BF 		andi	a1,a1,-1025
 1537 01d6 0CD1     		sw	a1,32(a0)
 761:arch/riscv/mach-gd32vf10x/bsp/gd32vf103_timer.c ****             /* reset the CH2NP bit */
 1538              		.loc 1 761 13 is_stmt 1
 761:arch/riscv/mach-gd32vf10x/bsp/gd32vf103_timer.c ****             /* reset the CH2NP bit */
GAS LISTING C:\Users\test\AppData\Local\Temp\ccx0JFmY.s 			page 59


 1539              		.loc 1 761 40 is_stmt 0
 1540 01d8 0C51     		lw	a1,32(a0)
 761:arch/riscv/mach-gd32vf10x/bsp/gd32vf103_timer.c ****             /* reset the CH2NP bit */
 1541              		.loc 1 761 43
 1542 01da A207     		slli	a5,a5,8
 763:arch/riscv/mach-gd32vf10x/bsp/gd32vf103_timer.c ****             /* set the CH2NP bit */
 1543              		.loc 1 763 40
 1544 01dc 9388F67F 		addi	a7,a3,2047
 761:arch/riscv/mach-gd32vf10x/bsp/gd32vf103_timer.c ****             /* reset the CH2NP bit */
 1545              		.loc 1 761 40
 1546 01e0 CD8F     		or	a5,a5,a1
 1547 01e2 1CD1     		sw	a5,32(a0)
 763:arch/riscv/mach-gd32vf10x/bsp/gd32vf103_timer.c ****             /* set the CH2NP bit */
 1548              		.loc 1 763 13 is_stmt 1
 763:arch/riscv/mach-gd32vf10x/bsp/gd32vf103_timer.c ****             /* set the CH2NP bit */
 1549              		.loc 1 763 40 is_stmt 0
 1550 01e4 03280502 		lw	a6,32(a0)
 767:arch/riscv/mach-gd32vf10x/bsp/gd32vf103_timer.c ****             /* set the ISO2 bit */
 1551              		.loc 1 767 38
 1552 01e8 9385F6FF 		addi	a1,a3,-1
 765:arch/riscv/mach-gd32vf10x/bsp/gd32vf103_timer.c ****             /* reset the ISO2 bit */
 1553              		.loc 1 765 54
 1554 01ec 83576600 		lhu	a5,6(a2)
 763:arch/riscv/mach-gd32vf10x/bsp/gd32vf103_timer.c ****             /* set the CH2NP bit */
 1555              		.loc 1 763 40
 1556 01f0 B3761801 		and	a3,a6,a7
 1557 01f4 14D1     		sw	a3,32(a0)
 765:arch/riscv/mach-gd32vf10x/bsp/gd32vf103_timer.c ****             /* reset the ISO2 bit */
 1558              		.loc 1 765 13 is_stmt 1
 765:arch/riscv/mach-gd32vf10x/bsp/gd32vf103_timer.c ****             /* reset the ISO2 bit */
 1559              		.loc 1 765 40 is_stmt 0
 1560 01f6 03280502 		lw	a6,32(a0)
 765:arch/riscv/mach-gd32vf10x/bsp/gd32vf103_timer.c ****             /* reset the ISO2 bit */
 1561              		.loc 1 765 43
 1562 01fa A207     		slli	a5,a5,8
 769:arch/riscv/mach-gd32vf10x/bsp/gd32vf103_timer.c ****             /* reset the ISO2N bit */
 1563              		.loc 1 769 52
 1564 01fc 83568600 		lhu	a3,8(a2)
 765:arch/riscv/mach-gd32vf10x/bsp/gd32vf103_timer.c ****             /* reset the ISO2 bit */
 1565              		.loc 1 765 40
 1566 0200 B3E70701 		or	a5,a5,a6
 1567 0204 1CD1     		sw	a5,32(a0)
 767:arch/riscv/mach-gd32vf10x/bsp/gd32vf103_timer.c ****             /* set the ISO2 bit */
 1568              		.loc 1 767 13 is_stmt 1
 767:arch/riscv/mach-gd32vf10x/bsp/gd32vf103_timer.c ****             /* set the ISO2 bit */
 1569              		.loc 1 767 38 is_stmt 0
 1570 0206 832747C0 		lw	a5,-1020(a4)
 769:arch/riscv/mach-gd32vf10x/bsp/gd32vf103_timer.c ****             /* reset the ISO2N bit */
 1571              		.loc 1 769 41
 1572 020a 9206     		slli	a3,a3,4
 767:arch/riscv/mach-gd32vf10x/bsp/gd32vf103_timer.c ****             /* set the ISO2 bit */
 1573              		.loc 1 767 38
 1574 020c FD8D     		and	a1,a5,a1
 1575 020e 2322B7C0 		sw	a1,-1020(a4)
 769:arch/riscv/mach-gd32vf10x/bsp/gd32vf103_timer.c ****             /* reset the ISO2N bit */
 1576              		.loc 1 769 13 is_stmt 1
 769:arch/riscv/mach-gd32vf10x/bsp/gd32vf103_timer.c ****             /* reset the ISO2N bit */
GAS LISTING C:\Users\test\AppData\Local\Temp\ccx0JFmY.s 			page 60


 1577              		.loc 1 769 38 is_stmt 0
 1578 0212 832547C0 		lw	a1,-1020(a4)
 773:arch/riscv/mach-gd32vf10x/bsp/gd32vf103_timer.c ****         }
 1579              		.loc 1 773 52
 1580 0216 8357A600 		lhu	a5,10(a2)
 771:arch/riscv/mach-gd32vf10x/bsp/gd32vf103_timer.c ****             /* set the ISO2N bit */
 1581              		.loc 1 771 38
 1582 021a 7976     		li	a2,-8192
 1583              	.LVL80:
 769:arch/riscv/mach-gd32vf10x/bsp/gd32vf103_timer.c ****             /* reset the ISO2N bit */
 1584              		.loc 1 769 38
 1585 021c CD8E     		or	a3,a3,a1
 1586 021e 2322D7C0 		sw	a3,-1020(a4)
 771:arch/riscv/mach-gd32vf10x/bsp/gd32vf103_timer.c ****             /* set the ISO2N bit */
 1587              		.loc 1 771 13 is_stmt 1
 771:arch/riscv/mach-gd32vf10x/bsp/gd32vf103_timer.c ****             /* set the ISO2N bit */
 1588              		.loc 1 771 38 is_stmt 0
 1589 0222 832647C0 		lw	a3,-1020(a4)
 1590 0226 7D16     		addi	a2,a2,-1
 773:arch/riscv/mach-gd32vf10x/bsp/gd32vf103_timer.c ****         }
 1591              		.loc 1 773 41
 1592 0228 9207     		slli	a5,a5,4
 771:arch/riscv/mach-gd32vf10x/bsp/gd32vf103_timer.c ****             /* set the ISO2N bit */
 1593              		.loc 1 771 38
 1594 022a F18E     		and	a3,a3,a2
 1595 022c 2322D7C0 		sw	a3,-1020(a4)
 773:arch/riscv/mach-gd32vf10x/bsp/gd32vf103_timer.c ****         }
 1596              		.loc 1 773 13 is_stmt 1
 773:arch/riscv/mach-gd32vf10x/bsp/gd32vf103_timer.c ****         }
 1597              		.loc 1 773 38 is_stmt 0
 1598 0230 832647C0 		lw	a3,-1020(a4)
 1599 0234 D58F     		or	a5,a5,a3
 1600 0236 2322F7C0 		sw	a5,-1020(a4)
 1601 023a 89BD     		j	.L85
 1602              	.LVL81:
 1603              	.L88:
 790:arch/riscv/mach-gd32vf10x/bsp/gd32vf103_timer.c ****             /* set the ISO3 bit */
 1604              		.loc 1 790 13 is_stmt 1
 790:arch/riscv/mach-gd32vf10x/bsp/gd32vf103_timer.c ****             /* set the ISO3 bit */
 1605              		.loc 1 790 38 is_stmt 0
 1606 023c 832747C0 		lw	a5,-1020(a4)
 1607 0240 F176     		li	a3,-16384
 1608 0242 FD16     		addi	a3,a3,-1
 1609 0244 F58F     		and	a5,a5,a3
 1610 0246 2322F7C0 		sw	a5,-1020(a4)
 792:arch/riscv/mach-gd32vf10x/bsp/gd32vf103_timer.c ****         }
 1611              		.loc 1 792 13 is_stmt 1
 792:arch/riscv/mach-gd32vf10x/bsp/gd32vf103_timer.c ****         }
 1612              		.loc 1 792 52 is_stmt 0
 1613 024a 83578600 		lhu	a5,8(a2)
 792:arch/riscv/mach-gd32vf10x/bsp/gd32vf103_timer.c ****         }
 1614              		.loc 1 792 38
 1615 024e 832647C0 		lw	a3,-1020(a4)
 792:arch/riscv/mach-gd32vf10x/bsp/gd32vf103_timer.c ****         }
 1616              		.loc 1 792 41
 1617 0252 9A07     		slli	a5,a5,6
 792:arch/riscv/mach-gd32vf10x/bsp/gd32vf103_timer.c ****         }
GAS LISTING C:\Users\test\AppData\Local\Temp\ccx0JFmY.s 			page 61


 1618              		.loc 1 792 38
 1619 0254 D58F     		or	a5,a5,a3
 1620 0256 2322F7C0 		sw	a5,-1020(a4)
 1621 025a CDBB     		j	.L86
 1622              		.cfi_endproc
 1623              	.LFE37:
 1625              		.section	.text.timer_channel_output_mode_config,"ax",@progbits
 1626              		.align	1
 1627              		.globl	timer_channel_output_mode_config
 1629              	timer_channel_output_mode_config:
 1630              	.LFB38:
 824:arch/riscv/mach-gd32vf10x/bsp/gd32vf103_timer.c ****     switch(channel){
 1631              		.loc 1 824 1 is_stmt 1
 1632              		.cfi_startproc
 1633              	.LVL82:
 825:arch/riscv/mach-gd32vf10x/bsp/gd32vf103_timer.c ****     /* configure TIMER_CH_0 */
 1634              		.loc 1 825 5
 1635 0000 8547     		li	a5,1
 1636 0002 6384F502 		beq	a1,a5,.L93
 1637 0006 A1C5     		beq	a1,zero,.L94
 1638 0008 8947     		li	a5,2
 1639 000a 638AF502 		beq	a1,a5,.L95
 1640 000e 8D47     		li	a5,3
 1641 0010 639CF500 		bne	a1,a5,.L98
 843:arch/riscv/mach-gd32vf10x/bsp/gd32vf103_timer.c ****         TIMER_CHCTL1(timer_periph) |= (uint32_t)((uint32_t)(ocmode) << 8U);
 1642              		.loc 1 843 9
 843:arch/riscv/mach-gd32vf10x/bsp/gd32vf103_timer.c ****         TIMER_CHCTL1(timer_periph) |= (uint32_t)((uint32_t)(ocmode) << 8U);
 1643              		.loc 1 843 36 is_stmt 0
 1644 0014 5C4D     		lw	a5,28(a0)
 1645 0016 6577     		li	a4,-28672
 1646 0018 7D17     		addi	a4,a4,-1
 1647 001a F98F     		and	a5,a5,a4
 1648 001c 5CCD     		sw	a5,28(a0)
 844:arch/riscv/mach-gd32vf10x/bsp/gd32vf103_timer.c ****         break;
 1649              		.loc 1 844 9 is_stmt 1
 844:arch/riscv/mach-gd32vf10x/bsp/gd32vf103_timer.c ****         break;
 1650              		.loc 1 844 36 is_stmt 0
 1651 001e 5C4D     		lw	a5,28(a0)
 844:arch/riscv/mach-gd32vf10x/bsp/gd32vf103_timer.c ****         break;
 1652              		.loc 1 844 39
 1653 0020 2206     		slli	a2,a2,8
 1654              	.LVL83:
 844:arch/riscv/mach-gd32vf10x/bsp/gd32vf103_timer.c ****         break;
 1655              		.loc 1 844 36
 1656 0022 5D8E     		or	a2,a2,a5
 1657 0024 50CD     		sw	a2,28(a0)
 845:arch/riscv/mach-gd32vf10x/bsp/gd32vf103_timer.c ****     default:
 1658              		.loc 1 845 9 is_stmt 1
 849:arch/riscv/mach-gd32vf10x/bsp/gd32vf103_timer.c **** 
 1659              		.loc 1 849 1 is_stmt 0
 1660 0026 8280     		ret
 1661              	.LVL84:
 1662              	.L98:
 1663 0028 8280     		ret
 1664              	.L93:
 833:arch/riscv/mach-gd32vf10x/bsp/gd32vf103_timer.c ****         TIMER_CHCTL0(timer_periph) |= (uint32_t)((uint32_t)(ocmode) << 8U);
 1665              		.loc 1 833 9 is_stmt 1
GAS LISTING C:\Users\test\AppData\Local\Temp\ccx0JFmY.s 			page 62


 833:arch/riscv/mach-gd32vf10x/bsp/gd32vf103_timer.c ****         TIMER_CHCTL0(timer_periph) |= (uint32_t)((uint32_t)(ocmode) << 8U);
 1666              		.loc 1 833 36 is_stmt 0
 1667 002a 1C4D     		lw	a5,24(a0)
 1668 002c 6577     		li	a4,-28672
 1669 002e 7D17     		addi	a4,a4,-1
 1670 0030 F98F     		and	a5,a5,a4
 1671 0032 1CCD     		sw	a5,24(a0)
 834:arch/riscv/mach-gd32vf10x/bsp/gd32vf103_timer.c ****         break;
 1672              		.loc 1 834 9 is_stmt 1
 834:arch/riscv/mach-gd32vf10x/bsp/gd32vf103_timer.c ****         break;
 1673              		.loc 1 834 36 is_stmt 0
 1674 0034 1C4D     		lw	a5,24(a0)
 834:arch/riscv/mach-gd32vf10x/bsp/gd32vf103_timer.c ****         break;
 1675              		.loc 1 834 39
 1676 0036 2206     		slli	a2,a2,8
 1677              	.LVL85:
 834:arch/riscv/mach-gd32vf10x/bsp/gd32vf103_timer.c ****         break;
 1678              		.loc 1 834 36
 1679 0038 5D8E     		or	a2,a2,a5
 1680 003a 10CD     		sw	a2,24(a0)
 835:arch/riscv/mach-gd32vf10x/bsp/gd32vf103_timer.c ****     /* configure TIMER_CH_2 */
 1681              		.loc 1 835 9 is_stmt 1
 1682 003c 8280     		ret
 1683              	.LVL86:
 1684              	.L95:
 838:arch/riscv/mach-gd32vf10x/bsp/gd32vf103_timer.c ****         TIMER_CHCTL1(timer_periph) |= (uint32_t)ocmode;
 1685              		.loc 1 838 9
 838:arch/riscv/mach-gd32vf10x/bsp/gd32vf103_timer.c ****         TIMER_CHCTL1(timer_periph) |= (uint32_t)ocmode;
 1686              		.loc 1 838 36 is_stmt 0
 1687 003e 5C4D     		lw	a5,28(a0)
 1688 0040 93F7F7F8 		andi	a5,a5,-113
 1689 0044 5CCD     		sw	a5,28(a0)
 839:arch/riscv/mach-gd32vf10x/bsp/gd32vf103_timer.c ****         break;
 1690              		.loc 1 839 9 is_stmt 1
 839:arch/riscv/mach-gd32vf10x/bsp/gd32vf103_timer.c ****         break;
 1691              		.loc 1 839 36 is_stmt 0
 1692 0046 5C4D     		lw	a5,28(a0)
 1693 0048 5D8E     		or	a2,a2,a5
 1694              	.LVL87:
 1695 004a 50CD     		sw	a2,28(a0)
 840:arch/riscv/mach-gd32vf10x/bsp/gd32vf103_timer.c ****     /* configure TIMER_CH_3 */
 1696              		.loc 1 840 9 is_stmt 1
 1697 004c 8280     		ret
 1698              	.LVL88:
 1699              	.L94:
 828:arch/riscv/mach-gd32vf10x/bsp/gd32vf103_timer.c ****         TIMER_CHCTL0(timer_periph) |= (uint32_t)ocmode;
 1700              		.loc 1 828 9
 828:arch/riscv/mach-gd32vf10x/bsp/gd32vf103_timer.c ****         TIMER_CHCTL0(timer_periph) |= (uint32_t)ocmode;
 1701              		.loc 1 828 36 is_stmt 0
 1702 004e 1C4D     		lw	a5,24(a0)
 1703 0050 93F7F7F8 		andi	a5,a5,-113
 1704 0054 1CCD     		sw	a5,24(a0)
 829:arch/riscv/mach-gd32vf10x/bsp/gd32vf103_timer.c ****         break;
 1705              		.loc 1 829 9 is_stmt 1
 829:arch/riscv/mach-gd32vf10x/bsp/gd32vf103_timer.c ****         break;
 1706              		.loc 1 829 36 is_stmt 0
 1707 0056 1C4D     		lw	a5,24(a0)
GAS LISTING C:\Users\test\AppData\Local\Temp\ccx0JFmY.s 			page 63


 1708 0058 5D8E     		or	a2,a2,a5
 1709              	.LVL89:
 1710 005a 10CD     		sw	a2,24(a0)
 830:arch/riscv/mach-gd32vf10x/bsp/gd32vf103_timer.c ****     /* configure TIMER_CH_1 */
 1711              		.loc 1 830 9 is_stmt 1
 1712 005c 8280     		ret
 1713              		.cfi_endproc
 1714              	.LFE38:
 1716              		.section	.text.timer_channel_output_pulse_value_config,"ax",@progbits
 1717              		.align	1
 1718              		.globl	timer_channel_output_pulse_value_config
 1720              	timer_channel_output_pulse_value_config:
 1721              	.LFB39:
 865:arch/riscv/mach-gd32vf10x/bsp/gd32vf103_timer.c ****     switch(channel){
 1722              		.loc 1 865 1
 1723              		.cfi_startproc
 1724              	.LVL90:
 866:arch/riscv/mach-gd32vf10x/bsp/gd32vf103_timer.c ****     /* configure TIMER_CH_0 */
 1725              		.loc 1 866 5
 1726 0000 8547     		li	a5,1
 1727 0002 638CF500 		beq	a1,a5,.L100
 1728 0006 91CD     		beq	a1,zero,.L101
 1729 0008 8947     		li	a5,2
 1730 000a 638AF500 		beq	a1,a5,.L102
 1731 000e 8D47     		li	a5,3
 1732 0010 6394F500 		bne	a1,a5,.L105
 881:arch/riscv/mach-gd32vf10x/bsp/gd32vf103_timer.c ****         break;
 1733              		.loc 1 881 10
 881:arch/riscv/mach-gd32vf10x/bsp/gd32vf103_timer.c ****         break;
 1734              		.loc 1 881 36 is_stmt 0
 1735 0014 30C1     		sw	a2,64(a0)
 882:arch/riscv/mach-gd32vf10x/bsp/gd32vf103_timer.c ****     default:
 1736              		.loc 1 882 9 is_stmt 1
 886:arch/riscv/mach-gd32vf10x/bsp/gd32vf103_timer.c **** 
 1737              		.loc 1 886 1 is_stmt 0
 1738 0016 8280     		ret
 1739              	.L105:
 1740 0018 8280     		ret
 1741              	.L100:
 873:arch/riscv/mach-gd32vf10x/bsp/gd32vf103_timer.c ****         break;
 1742              		.loc 1 873 9 is_stmt 1
 873:arch/riscv/mach-gd32vf10x/bsp/gd32vf103_timer.c ****         break;
 1743              		.loc 1 873 35 is_stmt 0
 1744 001a 10DD     		sw	a2,56(a0)
 874:arch/riscv/mach-gd32vf10x/bsp/gd32vf103_timer.c ****     /* configure TIMER_CH_2 */
 1745              		.loc 1 874 9 is_stmt 1
 1746 001c 8280     		ret
 1747              	.L102:
 877:arch/riscv/mach-gd32vf10x/bsp/gd32vf103_timer.c ****         break;
 1748              		.loc 1 877 9
 877:arch/riscv/mach-gd32vf10x/bsp/gd32vf103_timer.c ****         break;
 1749              		.loc 1 877 35 is_stmt 0
 1750 001e 50DD     		sw	a2,60(a0)
 878:arch/riscv/mach-gd32vf10x/bsp/gd32vf103_timer.c ****     /* configure TIMER_CH_3 */
 1751              		.loc 1 878 9 is_stmt 1
 1752 0020 8280     		ret
 1753              	.L101:
GAS LISTING C:\Users\test\AppData\Local\Temp\ccx0JFmY.s 			page 64


 869:arch/riscv/mach-gd32vf10x/bsp/gd32vf103_timer.c ****         break;
 1754              		.loc 1 869 9
 869:arch/riscv/mach-gd32vf10x/bsp/gd32vf103_timer.c ****         break;
 1755              		.loc 1 869 35 is_stmt 0
 1756 0022 50D9     		sw	a2,52(a0)
 870:arch/riscv/mach-gd32vf10x/bsp/gd32vf103_timer.c ****     /* configure TIMER_CH_1 */
 1757              		.loc 1 870 9 is_stmt 1
 1758 0024 8280     		ret
 1759              		.cfi_endproc
 1760              	.LFE39:
 1762              		.section	.text.timer_channel_output_shadow_config,"ax",@progbits
 1763              		.align	1
 1764              		.globl	timer_channel_output_shadow_config
 1766              	timer_channel_output_shadow_config:
 1767              	.LFB40:
 905:arch/riscv/mach-gd32vf10x/bsp/gd32vf103_timer.c ****     switch(channel){
 1768              		.loc 1 905 1
 1769              		.cfi_startproc
 1770              	.LVL91:
 906:arch/riscv/mach-gd32vf10x/bsp/gd32vf103_timer.c ****     /* configure TIMER_CH_0 */
 1771              		.loc 1 906 5
 1772 0000 8547     		li	a5,1
 1773 0002 6385F502 		beq	a1,a5,.L107
 1774 0006 A9C5     		beq	a1,zero,.L108
 1775 0008 8947     		li	a5,2
 1776 000a 638CF502 		beq	a1,a5,.L109
 1777 000e 8D47     		li	a5,3
 1778 0010 639DF500 		bne	a1,a5,.L112
 924:arch/riscv/mach-gd32vf10x/bsp/gd32vf103_timer.c ****         TIMER_CHCTL1(timer_periph) |= (uint32_t)((uint32_t)(ocshadow) << 8U);
 1779              		.loc 1 924 9
 924:arch/riscv/mach-gd32vf10x/bsp/gd32vf103_timer.c ****         TIMER_CHCTL1(timer_periph) |= (uint32_t)((uint32_t)(ocshadow) << 8U);
 1780              		.loc 1 924 36 is_stmt 0
 1781 0014 5C4D     		lw	a5,28(a0)
 1782 0016 7D77     		li	a4,-4096
 1783 0018 1307F77F 		addi	a4,a4,2047
 1784 001c F98F     		and	a5,a5,a4
 1785 001e 5CCD     		sw	a5,28(a0)
 925:arch/riscv/mach-gd32vf10x/bsp/gd32vf103_timer.c ****         break;
 1786              		.loc 1 925 9 is_stmt 1
 925:arch/riscv/mach-gd32vf10x/bsp/gd32vf103_timer.c ****         break;
 1787              		.loc 1 925 36 is_stmt 0
 1788 0020 5C4D     		lw	a5,28(a0)
 925:arch/riscv/mach-gd32vf10x/bsp/gd32vf103_timer.c ****         break;
 1789              		.loc 1 925 39
 1790 0022 2206     		slli	a2,a2,8
 1791              	.LVL92:
 925:arch/riscv/mach-gd32vf10x/bsp/gd32vf103_timer.c ****         break;
 1792              		.loc 1 925 36
 1793 0024 5D8E     		or	a2,a2,a5
 1794 0026 50CD     		sw	a2,28(a0)
 926:arch/riscv/mach-gd32vf10x/bsp/gd32vf103_timer.c ****     default:
 1795              		.loc 1 926 9 is_stmt 1
 930:arch/riscv/mach-gd32vf10x/bsp/gd32vf103_timer.c **** 
 1796              		.loc 1 930 1 is_stmt 0
 1797 0028 8280     		ret
 1798              	.LVL93:
 1799              	.L112:
GAS LISTING C:\Users\test\AppData\Local\Temp\ccx0JFmY.s 			page 65


 1800 002a 8280     		ret
 1801              	.L107:
 914:arch/riscv/mach-gd32vf10x/bsp/gd32vf103_timer.c ****         TIMER_CHCTL0(timer_periph) |= (uint32_t)((uint32_t)(ocshadow) << 8U);
 1802              		.loc 1 914 9 is_stmt 1
 914:arch/riscv/mach-gd32vf10x/bsp/gd32vf103_timer.c ****         TIMER_CHCTL0(timer_periph) |= (uint32_t)((uint32_t)(ocshadow) << 8U);
 1803              		.loc 1 914 36 is_stmt 0
 1804 002c 1C4D     		lw	a5,24(a0)
 1805 002e 7D77     		li	a4,-4096
 1806 0030 1307F77F 		addi	a4,a4,2047
 1807 0034 F98F     		and	a5,a5,a4
 1808 0036 1CCD     		sw	a5,24(a0)
 915:arch/riscv/mach-gd32vf10x/bsp/gd32vf103_timer.c ****         break;
 1809              		.loc 1 915 9 is_stmt 1
 915:arch/riscv/mach-gd32vf10x/bsp/gd32vf103_timer.c ****         break;
 1810              		.loc 1 915 36 is_stmt 0
 1811 0038 1C4D     		lw	a5,24(a0)
 915:arch/riscv/mach-gd32vf10x/bsp/gd32vf103_timer.c ****         break;
 1812              		.loc 1 915 39
 1813 003a 2206     		slli	a2,a2,8
 1814              	.LVL94:
 915:arch/riscv/mach-gd32vf10x/bsp/gd32vf103_timer.c ****         break;
 1815              		.loc 1 915 36
 1816 003c 5D8E     		or	a2,a2,a5
 1817 003e 10CD     		sw	a2,24(a0)
 916:arch/riscv/mach-gd32vf10x/bsp/gd32vf103_timer.c ****     /* configure TIMER_CH_2 */
 1818              		.loc 1 916 9 is_stmt 1
 1819 0040 8280     		ret
 1820              	.LVL95:
 1821              	.L109:
 919:arch/riscv/mach-gd32vf10x/bsp/gd32vf103_timer.c ****         TIMER_CHCTL1(timer_periph) |= (uint32_t)ocshadow;
 1822              		.loc 1 919 9
 919:arch/riscv/mach-gd32vf10x/bsp/gd32vf103_timer.c ****         TIMER_CHCTL1(timer_periph) |= (uint32_t)ocshadow;
 1823              		.loc 1 919 36 is_stmt 0
 1824 0042 5C4D     		lw	a5,28(a0)
 1825 0044 DD9B     		andi	a5,a5,-9
 1826 0046 5CCD     		sw	a5,28(a0)
 920:arch/riscv/mach-gd32vf10x/bsp/gd32vf103_timer.c ****         break;
 1827              		.loc 1 920 9 is_stmt 1
 920:arch/riscv/mach-gd32vf10x/bsp/gd32vf103_timer.c ****         break;
 1828              		.loc 1 920 36 is_stmt 0
 1829 0048 5C4D     		lw	a5,28(a0)
 1830 004a 5D8E     		or	a2,a2,a5
 1831              	.LVL96:
 1832 004c 50CD     		sw	a2,28(a0)
 921:arch/riscv/mach-gd32vf10x/bsp/gd32vf103_timer.c ****     /* configure TIMER_CH_3 */
 1833              		.loc 1 921 9 is_stmt 1
 1834 004e 8280     		ret
 1835              	.LVL97:
 1836              	.L108:
 909:arch/riscv/mach-gd32vf10x/bsp/gd32vf103_timer.c ****         TIMER_CHCTL0(timer_periph) |= (uint32_t)ocshadow;
 1837              		.loc 1 909 9
 909:arch/riscv/mach-gd32vf10x/bsp/gd32vf103_timer.c ****         TIMER_CHCTL0(timer_periph) |= (uint32_t)ocshadow;
 1838              		.loc 1 909 36 is_stmt 0
 1839 0050 1C4D     		lw	a5,24(a0)
 1840 0052 DD9B     		andi	a5,a5,-9
 1841 0054 1CCD     		sw	a5,24(a0)
 910:arch/riscv/mach-gd32vf10x/bsp/gd32vf103_timer.c ****         break;
GAS LISTING C:\Users\test\AppData\Local\Temp\ccx0JFmY.s 			page 66


 1842              		.loc 1 910 9 is_stmt 1
 910:arch/riscv/mach-gd32vf10x/bsp/gd32vf103_timer.c ****         break;
 1843              		.loc 1 910 36 is_stmt 0
 1844 0056 1C4D     		lw	a5,24(a0)
 1845 0058 5D8E     		or	a2,a2,a5
 1846              	.LVL98:
 1847 005a 10CD     		sw	a2,24(a0)
 911:arch/riscv/mach-gd32vf10x/bsp/gd32vf103_timer.c ****     /* configure TIMER_CH_1 */
 1848              		.loc 1 911 9 is_stmt 1
 1849 005c 8280     		ret
 1850              		.cfi_endproc
 1851              	.LFE40:
 1853              		.section	.text.timer_channel_output_fast_config,"ax",@progbits
 1854              		.align	1
 1855              		.globl	timer_channel_output_fast_config
 1857              	timer_channel_output_fast_config:
 1858              	.LFB41:
 949:arch/riscv/mach-gd32vf10x/bsp/gd32vf103_timer.c ****     switch(channel){
 1859              		.loc 1 949 1
 1860              		.cfi_startproc
 1861              	.LVL99:
 950:arch/riscv/mach-gd32vf10x/bsp/gd32vf103_timer.c ****     /* configure TIMER_CH_0 */
 1862              		.loc 1 950 5
 1863 0000 8547     		li	a5,1
 1864 0002 6383F502 		beq	a1,a5,.L114
 1865 0006 A9C1     		beq	a1,zero,.L115
 1866 0008 8947     		li	a5,2
 1867 000a 6388F502 		beq	a1,a5,.L116
 1868 000e 8D47     		li	a5,3
 1869 0010 639BF500 		bne	a1,a5,.L119
 968:arch/riscv/mach-gd32vf10x/bsp/gd32vf103_timer.c ****         TIMER_CHCTL1(timer_periph) |= (uint32_t)((uint32_t)ocfast << 8U);
 1870              		.loc 1 968 9
 968:arch/riscv/mach-gd32vf10x/bsp/gd32vf103_timer.c ****         TIMER_CHCTL1(timer_periph) |= (uint32_t)((uint32_t)ocfast << 8U);
 1871              		.loc 1 968 36 is_stmt 0
 1872 0014 5C4D     		lw	a5,28(a0)
 969:arch/riscv/mach-gd32vf10x/bsp/gd32vf103_timer.c ****         break;
 1873              		.loc 1 969 39
 1874 0016 2206     		slli	a2,a2,8
 1875              	.LVL100:
 968:arch/riscv/mach-gd32vf10x/bsp/gd32vf103_timer.c ****         TIMER_CHCTL1(timer_periph) |= (uint32_t)((uint32_t)ocfast << 8U);
 1876              		.loc 1 968 36
 1877 0018 93F7F7BF 		andi	a5,a5,-1025
 1878 001c 5CCD     		sw	a5,28(a0)
 969:arch/riscv/mach-gd32vf10x/bsp/gd32vf103_timer.c ****         break;
 1879              		.loc 1 969 9 is_stmt 1
 969:arch/riscv/mach-gd32vf10x/bsp/gd32vf103_timer.c ****         break;
 1880              		.loc 1 969 36 is_stmt 0
 1881 001e 5C4D     		lw	a5,28(a0)
 1882 0020 5D8E     		or	a2,a2,a5
 1883 0022 50CD     		sw	a2,28(a0)
 970:arch/riscv/mach-gd32vf10x/bsp/gd32vf103_timer.c ****     default:
 1884              		.loc 1 970 9 is_stmt 1
 974:arch/riscv/mach-gd32vf10x/bsp/gd32vf103_timer.c **** 
 1885              		.loc 1 974 1 is_stmt 0
 1886 0024 8280     		ret
 1887              	.LVL101:
 1888              	.L119:
GAS LISTING C:\Users\test\AppData\Local\Temp\ccx0JFmY.s 			page 67


 1889 0026 8280     		ret
 1890              	.L114:
 958:arch/riscv/mach-gd32vf10x/bsp/gd32vf103_timer.c ****         TIMER_CHCTL0(timer_periph) |= (uint32_t)((uint32_t)ocfast << 8U);
 1891              		.loc 1 958 9 is_stmt 1
 958:arch/riscv/mach-gd32vf10x/bsp/gd32vf103_timer.c ****         TIMER_CHCTL0(timer_periph) |= (uint32_t)((uint32_t)ocfast << 8U);
 1892              		.loc 1 958 36 is_stmt 0
 1893 0028 1C4D     		lw	a5,24(a0)
 959:arch/riscv/mach-gd32vf10x/bsp/gd32vf103_timer.c ****         break;
 1894              		.loc 1 959 39
 1895 002a 2206     		slli	a2,a2,8
 1896              	.LVL102:
 958:arch/riscv/mach-gd32vf10x/bsp/gd32vf103_timer.c ****         TIMER_CHCTL0(timer_periph) |= (uint32_t)((uint32_t)ocfast << 8U);
 1897              		.loc 1 958 36
 1898 002c 93F7F7BF 		andi	a5,a5,-1025
 1899 0030 1CCD     		sw	a5,24(a0)
 959:arch/riscv/mach-gd32vf10x/bsp/gd32vf103_timer.c ****         break;
 1900              		.loc 1 959 9 is_stmt 1
 959:arch/riscv/mach-gd32vf10x/bsp/gd32vf103_timer.c ****         break;
 1901              		.loc 1 959 36 is_stmt 0
 1902 0032 1C4D     		lw	a5,24(a0)
 1903 0034 5D8E     		or	a2,a2,a5
 1904 0036 10CD     		sw	a2,24(a0)
 960:arch/riscv/mach-gd32vf10x/bsp/gd32vf103_timer.c ****     /* configure TIMER_CH_2 */
 1905              		.loc 1 960 9 is_stmt 1
 1906 0038 8280     		ret
 1907              	.LVL103:
 1908              	.L116:
 963:arch/riscv/mach-gd32vf10x/bsp/gd32vf103_timer.c ****         TIMER_CHCTL1(timer_periph) |= (uint32_t)ocfast;
 1909              		.loc 1 963 9
 963:arch/riscv/mach-gd32vf10x/bsp/gd32vf103_timer.c ****         TIMER_CHCTL1(timer_periph) |= (uint32_t)ocfast;
 1910              		.loc 1 963 36 is_stmt 0
 1911 003a 5C4D     		lw	a5,28(a0)
 1912 003c ED9B     		andi	a5,a5,-5
 1913 003e 5CCD     		sw	a5,28(a0)
 964:arch/riscv/mach-gd32vf10x/bsp/gd32vf103_timer.c ****         break;
 1914              		.loc 1 964 9 is_stmt 1
 964:arch/riscv/mach-gd32vf10x/bsp/gd32vf103_timer.c ****         break;
 1915              		.loc 1 964 36 is_stmt 0
 1916 0040 5C4D     		lw	a5,28(a0)
 1917 0042 5D8E     		or	a2,a2,a5
 1918              	.LVL104:
 1919 0044 50CD     		sw	a2,28(a0)
 965:arch/riscv/mach-gd32vf10x/bsp/gd32vf103_timer.c ****     /* configure TIMER_CH_3 */
 1920              		.loc 1 965 9 is_stmt 1
 1921 0046 8280     		ret
 1922              	.LVL105:
 1923              	.L115:
 953:arch/riscv/mach-gd32vf10x/bsp/gd32vf103_timer.c ****         TIMER_CHCTL0(timer_periph) |= (uint32_t)ocfast;
 1924              		.loc 1 953 9
 953:arch/riscv/mach-gd32vf10x/bsp/gd32vf103_timer.c ****         TIMER_CHCTL0(timer_periph) |= (uint32_t)ocfast;
 1925              		.loc 1 953 36 is_stmt 0
 1926 0048 1C4D     		lw	a5,24(a0)
 1927 004a ED9B     		andi	a5,a5,-5
 1928 004c 1CCD     		sw	a5,24(a0)
 954:arch/riscv/mach-gd32vf10x/bsp/gd32vf103_timer.c ****         break;
 1929              		.loc 1 954 9 is_stmt 1
 954:arch/riscv/mach-gd32vf10x/bsp/gd32vf103_timer.c ****         break;
GAS LISTING C:\Users\test\AppData\Local\Temp\ccx0JFmY.s 			page 68


 1930              		.loc 1 954 36 is_stmt 0
 1931 004e 1C4D     		lw	a5,24(a0)
 1932 0050 5D8E     		or	a2,a2,a5
 1933              	.LVL106:
 1934 0052 10CD     		sw	a2,24(a0)
 955:arch/riscv/mach-gd32vf10x/bsp/gd32vf103_timer.c ****     /* configure TIMER_CH_1 */
 1935              		.loc 1 955 9 is_stmt 1
 1936 0054 8280     		ret
 1937              		.cfi_endproc
 1938              	.LFE41:
 1940              		.section	.text.timer_channel_output_clear_config,"ax",@progbits
 1941              		.align	1
 1942              		.globl	timer_channel_output_clear_config
 1944              	timer_channel_output_clear_config:
 1945              	.LFB42:
 993:arch/riscv/mach-gd32vf10x/bsp/gd32vf103_timer.c ****     switch(channel){
 1946              		.loc 1 993 1
 1947              		.cfi_startproc
 1948              	.LVL107:
 994:arch/riscv/mach-gd32vf10x/bsp/gd32vf103_timer.c ****     /* configure TIMER_CH_0 */
 1949              		.loc 1 994 5
 1950 0000 8547     		li	a5,1
 1951 0002 6384F502 		beq	a1,a5,.L121
 1952 0006 A1C5     		beq	a1,zero,.L122
 1953 0008 8947     		li	a5,2
 1954 000a 638AF502 		beq	a1,a5,.L123
 1955 000e 8D47     		li	a5,3
 1956 0010 639CF500 		bne	a1,a5,.L126
1012:arch/riscv/mach-gd32vf10x/bsp/gd32vf103_timer.c ****         TIMER_CHCTL1(timer_periph) |= (uint32_t)((uint32_t)occlear << 8U);
 1957              		.loc 1 1012 9
1012:arch/riscv/mach-gd32vf10x/bsp/gd32vf103_timer.c ****         TIMER_CHCTL1(timer_periph) |= (uint32_t)((uint32_t)occlear << 8U);
 1958              		.loc 1 1012 36 is_stmt 0
 1959 0014 5C4D     		lw	a5,28(a0)
 1960 0016 6177     		li	a4,-32768
 1961 0018 7D17     		addi	a4,a4,-1
 1962 001a F98F     		and	a5,a5,a4
 1963 001c 5CCD     		sw	a5,28(a0)
1013:arch/riscv/mach-gd32vf10x/bsp/gd32vf103_timer.c ****         break;
 1964              		.loc 1 1013 9 is_stmt 1
1013:arch/riscv/mach-gd32vf10x/bsp/gd32vf103_timer.c ****         break;
 1965              		.loc 1 1013 36 is_stmt 0
 1966 001e 5C4D     		lw	a5,28(a0)
1013:arch/riscv/mach-gd32vf10x/bsp/gd32vf103_timer.c ****         break;
 1967              		.loc 1 1013 39
 1968 0020 2206     		slli	a2,a2,8
 1969              	.LVL108:
1013:arch/riscv/mach-gd32vf10x/bsp/gd32vf103_timer.c ****         break;
 1970              		.loc 1 1013 36
 1971 0022 5D8E     		or	a2,a2,a5
 1972 0024 50CD     		sw	a2,28(a0)
1014:arch/riscv/mach-gd32vf10x/bsp/gd32vf103_timer.c ****     default:
 1973              		.loc 1 1014 9 is_stmt 1
1018:arch/riscv/mach-gd32vf10x/bsp/gd32vf103_timer.c **** 
 1974              		.loc 1 1018 1 is_stmt 0
 1975 0026 8280     		ret
 1976              	.LVL109:
 1977              	.L126:
GAS LISTING C:\Users\test\AppData\Local\Temp\ccx0JFmY.s 			page 69


 1978 0028 8280     		ret
 1979              	.L121:
1002:arch/riscv/mach-gd32vf10x/bsp/gd32vf103_timer.c ****         TIMER_CHCTL0(timer_periph) |= (uint32_t)((uint32_t)occlear << 8U);
 1980              		.loc 1 1002 9 is_stmt 1
1002:arch/riscv/mach-gd32vf10x/bsp/gd32vf103_timer.c ****         TIMER_CHCTL0(timer_periph) |= (uint32_t)((uint32_t)occlear << 8U);
 1981              		.loc 1 1002 36 is_stmt 0
 1982 002a 1C4D     		lw	a5,24(a0)
 1983 002c 6177     		li	a4,-32768
 1984 002e 7D17     		addi	a4,a4,-1
 1985 0030 F98F     		and	a5,a5,a4
 1986 0032 1CCD     		sw	a5,24(a0)
1003:arch/riscv/mach-gd32vf10x/bsp/gd32vf103_timer.c ****         break;
 1987              		.loc 1 1003 9 is_stmt 1
1003:arch/riscv/mach-gd32vf10x/bsp/gd32vf103_timer.c ****         break;
 1988              		.loc 1 1003 36 is_stmt 0
 1989 0034 1C4D     		lw	a5,24(a0)
1003:arch/riscv/mach-gd32vf10x/bsp/gd32vf103_timer.c ****         break;
 1990              		.loc 1 1003 39
 1991 0036 2206     		slli	a2,a2,8
 1992              	.LVL110:
1003:arch/riscv/mach-gd32vf10x/bsp/gd32vf103_timer.c ****         break;
 1993              		.loc 1 1003 36
 1994 0038 5D8E     		or	a2,a2,a5
 1995 003a 10CD     		sw	a2,24(a0)
1004:arch/riscv/mach-gd32vf10x/bsp/gd32vf103_timer.c ****     /* configure TIMER_CH_2 */
 1996              		.loc 1 1004 9 is_stmt 1
 1997 003c 8280     		ret
 1998              	.LVL111:
 1999              	.L123:
1007:arch/riscv/mach-gd32vf10x/bsp/gd32vf103_timer.c ****         TIMER_CHCTL1(timer_periph) |= (uint32_t)occlear;
 2000              		.loc 1 1007 9
1007:arch/riscv/mach-gd32vf10x/bsp/gd32vf103_timer.c ****         TIMER_CHCTL1(timer_periph) |= (uint32_t)occlear;
 2001              		.loc 1 1007 36 is_stmt 0
 2002 003e 5C4D     		lw	a5,28(a0)
 2003 0040 93F7F7F7 		andi	a5,a5,-129
 2004 0044 5CCD     		sw	a5,28(a0)
1008:arch/riscv/mach-gd32vf10x/bsp/gd32vf103_timer.c ****         break;
 2005              		.loc 1 1008 9 is_stmt 1
1008:arch/riscv/mach-gd32vf10x/bsp/gd32vf103_timer.c ****         break;
 2006              		.loc 1 1008 36 is_stmt 0
 2007 0046 5C4D     		lw	a5,28(a0)
 2008 0048 5D8E     		or	a2,a2,a5
 2009              	.LVL112:
 2010 004a 50CD     		sw	a2,28(a0)
1009:arch/riscv/mach-gd32vf10x/bsp/gd32vf103_timer.c ****     /* configure TIMER_CH_3 */
 2011              		.loc 1 1009 9 is_stmt 1
 2012 004c 8280     		ret
 2013              	.LVL113:
 2014              	.L122:
 997:arch/riscv/mach-gd32vf10x/bsp/gd32vf103_timer.c ****         TIMER_CHCTL0(timer_periph) |= (uint32_t)occlear;
 2015              		.loc 1 997 9
 997:arch/riscv/mach-gd32vf10x/bsp/gd32vf103_timer.c ****         TIMER_CHCTL0(timer_periph) |= (uint32_t)occlear;
 2016              		.loc 1 997 36 is_stmt 0
 2017 004e 1C4D     		lw	a5,24(a0)
 2018 0050 93F7F7F7 		andi	a5,a5,-129
 2019 0054 1CCD     		sw	a5,24(a0)
 998:arch/riscv/mach-gd32vf10x/bsp/gd32vf103_timer.c ****         break;
GAS LISTING C:\Users\test\AppData\Local\Temp\ccx0JFmY.s 			page 70


 2020              		.loc 1 998 9 is_stmt 1
 998:arch/riscv/mach-gd32vf10x/bsp/gd32vf103_timer.c ****         break;
 2021              		.loc 1 998 36 is_stmt 0
 2022 0056 1C4D     		lw	a5,24(a0)
 2023 0058 5D8E     		or	a2,a2,a5
 2024              	.LVL114:
 2025 005a 10CD     		sw	a2,24(a0)
 999:arch/riscv/mach-gd32vf10x/bsp/gd32vf103_timer.c ****     /* configure TIMER_CH_1 */
 2026              		.loc 1 999 9 is_stmt 1
 2027 005c 8280     		ret
 2028              		.cfi_endproc
 2029              	.LFE42:
 2031              		.section	.text.timer_channel_output_polarity_config,"ax",@progbits
 2032              		.align	1
 2033              		.globl	timer_channel_output_polarity_config
 2035              	timer_channel_output_polarity_config:
 2036              	.LFB43:
1037:arch/riscv/mach-gd32vf10x/bsp/gd32vf103_timer.c ****     switch(channel){
 2037              		.loc 1 1037 1
 2038              		.cfi_startproc
 2039              	.LVL115:
1038:arch/riscv/mach-gd32vf10x/bsp/gd32vf103_timer.c ****     /* configure TIMER_CH_0 */
 2040              		.loc 1 1038 5
 2041 0000 8547     		li	a5,1
 2042 0002 6384F502 		beq	a1,a5,.L128
 2043 0006 A1C5     		beq	a1,zero,.L129
 2044 0008 8947     		li	a5,2
 2045 000a 6389F502 		beq	a1,a5,.L130
 2046 000e 8D47     		li	a5,3
 2047 0010 639CF500 		bne	a1,a5,.L133
1056:arch/riscv/mach-gd32vf10x/bsp/gd32vf103_timer.c ****         TIMER_CHCTL2(timer_periph) |= (uint32_t)((uint32_t)ocpolarity << 12U);
 2048              		.loc 1 1056 9
1056:arch/riscv/mach-gd32vf10x/bsp/gd32vf103_timer.c ****         TIMER_CHCTL2(timer_periph) |= (uint32_t)((uint32_t)ocpolarity << 12U);
 2049              		.loc 1 1056 36 is_stmt 0
 2050 0014 1C51     		lw	a5,32(a0)
 2051 0016 7977     		li	a4,-8192
 2052 0018 7D17     		addi	a4,a4,-1
 2053 001a F98F     		and	a5,a5,a4
 2054 001c 1CD1     		sw	a5,32(a0)
1057:arch/riscv/mach-gd32vf10x/bsp/gd32vf103_timer.c ****         break;
 2055              		.loc 1 1057 9 is_stmt 1
1057:arch/riscv/mach-gd32vf10x/bsp/gd32vf103_timer.c ****         break;
 2056              		.loc 1 1057 36 is_stmt 0
 2057 001e 1C51     		lw	a5,32(a0)
1057:arch/riscv/mach-gd32vf10x/bsp/gd32vf103_timer.c ****         break;
 2058              		.loc 1 1057 39
 2059 0020 3206     		slli	a2,a2,12
 2060              	.LVL116:
1057:arch/riscv/mach-gd32vf10x/bsp/gd32vf103_timer.c ****         break;
 2061              		.loc 1 1057 36
 2062 0022 5D8E     		or	a2,a2,a5
 2063 0024 10D1     		sw	a2,32(a0)
1058:arch/riscv/mach-gd32vf10x/bsp/gd32vf103_timer.c ****     default:
 2064              		.loc 1 1058 9 is_stmt 1
1062:arch/riscv/mach-gd32vf10x/bsp/gd32vf103_timer.c **** 
 2065              		.loc 1 1062 1 is_stmt 0
 2066 0026 8280     		ret
GAS LISTING C:\Users\test\AppData\Local\Temp\ccx0JFmY.s 			page 71


 2067              	.LVL117:
 2068              	.L133:
 2069 0028 8280     		ret
 2070              	.L128:
1046:arch/riscv/mach-gd32vf10x/bsp/gd32vf103_timer.c ****         TIMER_CHCTL2(timer_periph) |= (uint32_t)((uint32_t)ocpolarity << 4U);
 2071              		.loc 1 1046 9 is_stmt 1
1046:arch/riscv/mach-gd32vf10x/bsp/gd32vf103_timer.c ****         TIMER_CHCTL2(timer_periph) |= (uint32_t)((uint32_t)ocpolarity << 4U);
 2072              		.loc 1 1046 36 is_stmt 0
 2073 002a 1C51     		lw	a5,32(a0)
1047:arch/riscv/mach-gd32vf10x/bsp/gd32vf103_timer.c ****         break;
 2074              		.loc 1 1047 39
 2075 002c 1206     		slli	a2,a2,4
 2076              	.LVL118:
1046:arch/riscv/mach-gd32vf10x/bsp/gd32vf103_timer.c ****         TIMER_CHCTL2(timer_periph) |= (uint32_t)((uint32_t)ocpolarity << 4U);
 2077              		.loc 1 1046 36
 2078 002e 93F7F7FD 		andi	a5,a5,-33
 2079 0032 1CD1     		sw	a5,32(a0)
1047:arch/riscv/mach-gd32vf10x/bsp/gd32vf103_timer.c ****         break;
 2080              		.loc 1 1047 9 is_stmt 1
1047:arch/riscv/mach-gd32vf10x/bsp/gd32vf103_timer.c ****         break;
 2081              		.loc 1 1047 36 is_stmt 0
 2082 0034 1C51     		lw	a5,32(a0)
 2083 0036 5D8E     		or	a2,a2,a5
 2084 0038 10D1     		sw	a2,32(a0)
1048:arch/riscv/mach-gd32vf10x/bsp/gd32vf103_timer.c ****     /* configure TIMER_CH_2 */
 2085              		.loc 1 1048 9 is_stmt 1
 2086 003a 8280     		ret
 2087              	.LVL119:
 2088              	.L130:
1051:arch/riscv/mach-gd32vf10x/bsp/gd32vf103_timer.c ****         TIMER_CHCTL2(timer_periph) |= (uint32_t)((uint32_t)ocpolarity << 8U);
 2089              		.loc 1 1051 9
1051:arch/riscv/mach-gd32vf10x/bsp/gd32vf103_timer.c ****         TIMER_CHCTL2(timer_periph) |= (uint32_t)((uint32_t)ocpolarity << 8U);
 2090              		.loc 1 1051 36 is_stmt 0
 2091 003c 1C51     		lw	a5,32(a0)
1052:arch/riscv/mach-gd32vf10x/bsp/gd32vf103_timer.c ****         break;
 2092              		.loc 1 1052 39
 2093 003e 2206     		slli	a2,a2,8
 2094              	.LVL120:
1051:arch/riscv/mach-gd32vf10x/bsp/gd32vf103_timer.c ****         TIMER_CHCTL2(timer_periph) |= (uint32_t)((uint32_t)ocpolarity << 8U);
 2095              		.loc 1 1051 36
 2096 0040 93F7F7DF 		andi	a5,a5,-513
 2097 0044 1CD1     		sw	a5,32(a0)
1052:arch/riscv/mach-gd32vf10x/bsp/gd32vf103_timer.c ****         break;
 2098              		.loc 1 1052 9 is_stmt 1
1052:arch/riscv/mach-gd32vf10x/bsp/gd32vf103_timer.c ****         break;
 2099              		.loc 1 1052 36 is_stmt 0
 2100 0046 1C51     		lw	a5,32(a0)
 2101 0048 5D8E     		or	a2,a2,a5
 2102 004a 10D1     		sw	a2,32(a0)
1053:arch/riscv/mach-gd32vf10x/bsp/gd32vf103_timer.c ****     /* configure TIMER_CH_3 */
 2103              		.loc 1 1053 9 is_stmt 1
 2104 004c 8280     		ret
 2105              	.LVL121:
 2106              	.L129:
1041:arch/riscv/mach-gd32vf10x/bsp/gd32vf103_timer.c ****         TIMER_CHCTL2(timer_periph) |= (uint32_t)ocpolarity;
 2107              		.loc 1 1041 9
1041:arch/riscv/mach-gd32vf10x/bsp/gd32vf103_timer.c ****         TIMER_CHCTL2(timer_periph) |= (uint32_t)ocpolarity;
GAS LISTING C:\Users\test\AppData\Local\Temp\ccx0JFmY.s 			page 72


 2108              		.loc 1 1041 36 is_stmt 0
 2109 004e 1C51     		lw	a5,32(a0)
 2110 0050 F59B     		andi	a5,a5,-3
 2111 0052 1CD1     		sw	a5,32(a0)
1042:arch/riscv/mach-gd32vf10x/bsp/gd32vf103_timer.c ****         break;
 2112              		.loc 1 1042 9 is_stmt 1
1042:arch/riscv/mach-gd32vf10x/bsp/gd32vf103_timer.c ****         break;
 2113              		.loc 1 1042 36 is_stmt 0
 2114 0054 1C51     		lw	a5,32(a0)
 2115 0056 5D8E     		or	a2,a2,a5
 2116              	.LVL122:
 2117 0058 10D1     		sw	a2,32(a0)
1043:arch/riscv/mach-gd32vf10x/bsp/gd32vf103_timer.c ****     /* configure TIMER_CH_1 */
 2118              		.loc 1 1043 9 is_stmt 1
 2119 005a 8280     		ret
 2120              		.cfi_endproc
 2121              	.LFE43:
 2123              		.section	.text.timer_channel_complementary_output_polarity_config,"ax",@progbits
 2124              		.align	1
 2125              		.globl	timer_channel_complementary_output_polarity_config
 2127              	timer_channel_complementary_output_polarity_config:
 2128              	.LFB44:
1080:arch/riscv/mach-gd32vf10x/bsp/gd32vf103_timer.c ****     switch(channel){
 2129              		.loc 1 1080 1
 2130              		.cfi_startproc
 2131              	.LVL123:
1081:arch/riscv/mach-gd32vf10x/bsp/gd32vf103_timer.c ****     /* configure TIMER_CH_0 */
 2132              		.loc 1 1081 5
 2133 0000 8547     		li	a5,1
 2134 0002 6382F502 		beq	a1,a5,.L135
 2135 0006 8DC9     		beq	a1,zero,.L136
 2136 0008 8947     		li	a5,2
 2137 000a 639DF500 		bne	a1,a5,.L139
1094:arch/riscv/mach-gd32vf10x/bsp/gd32vf103_timer.c ****         TIMER_CHCTL2(timer_periph) |= (uint32_t)((uint32_t)ocnpolarity << 8U);
 2138              		.loc 1 1094 9
1094:arch/riscv/mach-gd32vf10x/bsp/gd32vf103_timer.c ****         TIMER_CHCTL2(timer_periph) |= (uint32_t)((uint32_t)ocnpolarity << 8U);
 2139              		.loc 1 1094 36 is_stmt 0
 2140 000e 1C51     		lw	a5,32(a0)
 2141 0010 7D77     		li	a4,-4096
 2142 0012 1307F77F 		addi	a4,a4,2047
 2143 0016 F98F     		and	a5,a5,a4
 2144 0018 1CD1     		sw	a5,32(a0)
1095:arch/riscv/mach-gd32vf10x/bsp/gd32vf103_timer.c ****         break;
 2145              		.loc 1 1095 9 is_stmt 1
1095:arch/riscv/mach-gd32vf10x/bsp/gd32vf103_timer.c ****         break;
 2146              		.loc 1 1095 36 is_stmt 0
 2147 001a 1C51     		lw	a5,32(a0)
1095:arch/riscv/mach-gd32vf10x/bsp/gd32vf103_timer.c ****         break;
 2148              		.loc 1 1095 39
 2149 001c 2206     		slli	a2,a2,8
 2150              	.LVL124:
1095:arch/riscv/mach-gd32vf10x/bsp/gd32vf103_timer.c ****         break;
 2151              		.loc 1 1095 36
 2152 001e 5D8E     		or	a2,a2,a5
 2153 0020 10D1     		sw	a2,32(a0)
1096:arch/riscv/mach-gd32vf10x/bsp/gd32vf103_timer.c ****     default:
 2154              		.loc 1 1096 9 is_stmt 1
GAS LISTING C:\Users\test\AppData\Local\Temp\ccx0JFmY.s 			page 73


1100:arch/riscv/mach-gd32vf10x/bsp/gd32vf103_timer.c **** 
 2155              		.loc 1 1100 1 is_stmt 0
 2156 0022 8280     		ret
 2157              	.LVL125:
 2158              	.L139:
 2159 0024 8280     		ret
 2160              	.L135:
1089:arch/riscv/mach-gd32vf10x/bsp/gd32vf103_timer.c ****         TIMER_CHCTL2(timer_periph) |= (uint32_t)((uint32_t)ocnpolarity << 4U);
 2161              		.loc 1 1089 9 is_stmt 1
1089:arch/riscv/mach-gd32vf10x/bsp/gd32vf103_timer.c ****         TIMER_CHCTL2(timer_periph) |= (uint32_t)((uint32_t)ocnpolarity << 4U);
 2162              		.loc 1 1089 36 is_stmt 0
 2163 0026 1C51     		lw	a5,32(a0)
1090:arch/riscv/mach-gd32vf10x/bsp/gd32vf103_timer.c ****         break;
 2164              		.loc 1 1090 39
 2165 0028 1206     		slli	a2,a2,4
 2166              	.LVL126:
1089:arch/riscv/mach-gd32vf10x/bsp/gd32vf103_timer.c ****         TIMER_CHCTL2(timer_periph) |= (uint32_t)((uint32_t)ocnpolarity << 4U);
 2167              		.loc 1 1089 36
 2168 002a 93F7F7F7 		andi	a5,a5,-129
 2169 002e 1CD1     		sw	a5,32(a0)
1090:arch/riscv/mach-gd32vf10x/bsp/gd32vf103_timer.c ****         break;
 2170              		.loc 1 1090 9 is_stmt 1
1090:arch/riscv/mach-gd32vf10x/bsp/gd32vf103_timer.c ****         break;
 2171              		.loc 1 1090 36 is_stmt 0
 2172 0030 1C51     		lw	a5,32(a0)
 2173 0032 5D8E     		or	a2,a2,a5
 2174 0034 10D1     		sw	a2,32(a0)
1091:arch/riscv/mach-gd32vf10x/bsp/gd32vf103_timer.c ****     /* configure TIMER_CH_2 */
 2175              		.loc 1 1091 9 is_stmt 1
 2176 0036 8280     		ret
 2177              	.LVL127:
 2178              	.L136:
1084:arch/riscv/mach-gd32vf10x/bsp/gd32vf103_timer.c ****         TIMER_CHCTL2(timer_periph) |= (uint32_t)ocnpolarity;
 2179              		.loc 1 1084 9
1084:arch/riscv/mach-gd32vf10x/bsp/gd32vf103_timer.c ****         TIMER_CHCTL2(timer_periph) |= (uint32_t)ocnpolarity;
 2180              		.loc 1 1084 36 is_stmt 0
 2181 0038 1C51     		lw	a5,32(a0)
 2182 003a DD9B     		andi	a5,a5,-9
 2183 003c 1CD1     		sw	a5,32(a0)
1085:arch/riscv/mach-gd32vf10x/bsp/gd32vf103_timer.c ****         break;
 2184              		.loc 1 1085 9 is_stmt 1
1085:arch/riscv/mach-gd32vf10x/bsp/gd32vf103_timer.c ****         break;
 2185              		.loc 1 1085 36 is_stmt 0
 2186 003e 1C51     		lw	a5,32(a0)
 2187 0040 5D8E     		or	a2,a2,a5
 2188              	.LVL128:
 2189 0042 10D1     		sw	a2,32(a0)
1086:arch/riscv/mach-gd32vf10x/bsp/gd32vf103_timer.c ****     /* configure TIMER_CH_1 */
 2190              		.loc 1 1086 9 is_stmt 1
 2191 0044 8280     		ret
 2192              		.cfi_endproc
 2193              	.LFE44:
 2195              		.section	.text.timer_channel_output_state_config,"ax",@progbits
 2196              		.align	1
 2197              		.globl	timer_channel_output_state_config
 2199              	timer_channel_output_state_config:
 2200              	.LFB45:
GAS LISTING C:\Users\test\AppData\Local\Temp\ccx0JFmY.s 			page 74


1119:arch/riscv/mach-gd32vf10x/bsp/gd32vf103_timer.c ****     switch(channel){
 2201              		.loc 1 1119 1
 2202              		.cfi_startproc
 2203              	.LVL129:
1120:arch/riscv/mach-gd32vf10x/bsp/gd32vf103_timer.c ****     /* configure TIMER_CH_0 */
 2204              		.loc 1 1120 5
 2205 0000 8547     		li	a5,1
 2206 0002 6384F502 		beq	a1,a5,.L141
 2207 0006 B9C1     		beq	a1,zero,.L142
 2208 0008 8947     		li	a5,2
 2209 000a 6388F502 		beq	a1,a5,.L143
 2210 000e 8D47     		li	a5,3
 2211 0010 639CF500 		bne	a1,a5,.L146
1138:arch/riscv/mach-gd32vf10x/bsp/gd32vf103_timer.c ****         TIMER_CHCTL2(timer_periph) |= (uint32_t)((uint32_t)state << 12U);
 2212              		.loc 1 1138 9
1138:arch/riscv/mach-gd32vf10x/bsp/gd32vf103_timer.c ****         TIMER_CHCTL2(timer_periph) |= (uint32_t)((uint32_t)state << 12U);
 2213              		.loc 1 1138 36 is_stmt 0
 2214 0014 1C51     		lw	a5,32(a0)
 2215 0016 7D77     		li	a4,-4096
 2216 0018 7D17     		addi	a4,a4,-1
 2217 001a F98F     		and	a5,a5,a4
 2218 001c 1CD1     		sw	a5,32(a0)
1139:arch/riscv/mach-gd32vf10x/bsp/gd32vf103_timer.c ****         break;
 2219              		.loc 1 1139 9 is_stmt 1
1139:arch/riscv/mach-gd32vf10x/bsp/gd32vf103_timer.c ****         break;
 2220              		.loc 1 1139 36 is_stmt 0
 2221 001e 1C51     		lw	a5,32(a0)
1139:arch/riscv/mach-gd32vf10x/bsp/gd32vf103_timer.c ****         break;
 2222              		.loc 1 1139 39
 2223 0020 3206     		slli	a2,a2,12
 2224              	.LVL130:
1139:arch/riscv/mach-gd32vf10x/bsp/gd32vf103_timer.c ****         break;
 2225              		.loc 1 1139 36
 2226 0022 5D8E     		or	a2,a2,a5
 2227 0024 10D1     		sw	a2,32(a0)
1140:arch/riscv/mach-gd32vf10x/bsp/gd32vf103_timer.c ****     default:
 2228              		.loc 1 1140 9 is_stmt 1
1144:arch/riscv/mach-gd32vf10x/bsp/gd32vf103_timer.c **** 
 2229              		.loc 1 1144 1 is_stmt 0
 2230 0026 8280     		ret
 2231              	.LVL131:
 2232              	.L146:
 2233 0028 8280     		ret
 2234              	.L141:
1128:arch/riscv/mach-gd32vf10x/bsp/gd32vf103_timer.c ****         TIMER_CHCTL2(timer_periph) |= (uint32_t)((uint32_t)state << 4U);
 2235              		.loc 1 1128 9 is_stmt 1
1128:arch/riscv/mach-gd32vf10x/bsp/gd32vf103_timer.c ****         TIMER_CHCTL2(timer_periph) |= (uint32_t)((uint32_t)state << 4U);
 2236              		.loc 1 1128 36 is_stmt 0
 2237 002a 1C51     		lw	a5,32(a0)
1129:arch/riscv/mach-gd32vf10x/bsp/gd32vf103_timer.c ****         break;
 2238              		.loc 1 1129 39
 2239 002c 1206     		slli	a2,a2,4
 2240              	.LVL132:
1128:arch/riscv/mach-gd32vf10x/bsp/gd32vf103_timer.c ****         TIMER_CHCTL2(timer_periph) |= (uint32_t)((uint32_t)state << 4U);
 2241              		.loc 1 1128 36
 2242 002e BD9B     		andi	a5,a5,-17
 2243 0030 1CD1     		sw	a5,32(a0)
GAS LISTING C:\Users\test\AppData\Local\Temp\ccx0JFmY.s 			page 75


1129:arch/riscv/mach-gd32vf10x/bsp/gd32vf103_timer.c ****         break;
 2244              		.loc 1 1129 9 is_stmt 1
1129:arch/riscv/mach-gd32vf10x/bsp/gd32vf103_timer.c ****         break;
 2245              		.loc 1 1129 36 is_stmt 0
 2246 0032 1C51     		lw	a5,32(a0)
 2247 0034 5D8E     		or	a2,a2,a5
 2248 0036 10D1     		sw	a2,32(a0)
1130:arch/riscv/mach-gd32vf10x/bsp/gd32vf103_timer.c ****     /* configure TIMER_CH_2 */
 2249              		.loc 1 1130 9 is_stmt 1
 2250 0038 8280     		ret
 2251              	.LVL133:
 2252              	.L143:
1133:arch/riscv/mach-gd32vf10x/bsp/gd32vf103_timer.c ****         TIMER_CHCTL2(timer_periph) |= (uint32_t)((uint32_t)state << 8U);
 2253              		.loc 1 1133 9
1133:arch/riscv/mach-gd32vf10x/bsp/gd32vf103_timer.c ****         TIMER_CHCTL2(timer_periph) |= (uint32_t)((uint32_t)state << 8U);
 2254              		.loc 1 1133 36 is_stmt 0
 2255 003a 1C51     		lw	a5,32(a0)
1134:arch/riscv/mach-gd32vf10x/bsp/gd32vf103_timer.c ****         break;
 2256              		.loc 1 1134 39
 2257 003c 2206     		slli	a2,a2,8
 2258              	.LVL134:
1133:arch/riscv/mach-gd32vf10x/bsp/gd32vf103_timer.c ****         TIMER_CHCTL2(timer_periph) |= (uint32_t)((uint32_t)state << 8U);
 2259              		.loc 1 1133 36
 2260 003e 93F7F7EF 		andi	a5,a5,-257
 2261 0042 1CD1     		sw	a5,32(a0)
1134:arch/riscv/mach-gd32vf10x/bsp/gd32vf103_timer.c ****         break;
 2262              		.loc 1 1134 9 is_stmt 1
1134:arch/riscv/mach-gd32vf10x/bsp/gd32vf103_timer.c ****         break;
 2263              		.loc 1 1134 36 is_stmt 0
 2264 0044 1C51     		lw	a5,32(a0)
 2265 0046 5D8E     		or	a2,a2,a5
 2266 0048 10D1     		sw	a2,32(a0)
1135:arch/riscv/mach-gd32vf10x/bsp/gd32vf103_timer.c ****     /* configure TIMER_CH_3 */
 2267              		.loc 1 1135 9 is_stmt 1
 2268 004a 8280     		ret
 2269              	.LVL135:
 2270              	.L142:
1123:arch/riscv/mach-gd32vf10x/bsp/gd32vf103_timer.c ****         TIMER_CHCTL2(timer_periph) |= (uint32_t)state;
 2271              		.loc 1 1123 9
1123:arch/riscv/mach-gd32vf10x/bsp/gd32vf103_timer.c ****         TIMER_CHCTL2(timer_periph) |= (uint32_t)state;
 2272              		.loc 1 1123 36 is_stmt 0
 2273 004c 1C51     		lw	a5,32(a0)
 2274 004e F99B     		andi	a5,a5,-2
 2275 0050 1CD1     		sw	a5,32(a0)
1124:arch/riscv/mach-gd32vf10x/bsp/gd32vf103_timer.c ****         break;
 2276              		.loc 1 1124 9 is_stmt 1
1124:arch/riscv/mach-gd32vf10x/bsp/gd32vf103_timer.c ****         break;
 2277              		.loc 1 1124 36 is_stmt 0
 2278 0052 1C51     		lw	a5,32(a0)
 2279 0054 5D8E     		or	a2,a5,a2
 2280              	.LVL136:
 2281 0056 10D1     		sw	a2,32(a0)
1125:arch/riscv/mach-gd32vf10x/bsp/gd32vf103_timer.c ****     /* configure TIMER_CH_1 */
 2282              		.loc 1 1125 9 is_stmt 1
 2283 0058 8280     		ret
 2284              		.cfi_endproc
 2285              	.LFE45:
GAS LISTING C:\Users\test\AppData\Local\Temp\ccx0JFmY.s 			page 76


 2287              		.section	.text.timer_channel_complementary_output_state_config,"ax",@progbits
 2288              		.align	1
 2289              		.globl	timer_channel_complementary_output_state_config
 2291              	timer_channel_complementary_output_state_config:
 2292              	.LFB46:
1162:arch/riscv/mach-gd32vf10x/bsp/gd32vf103_timer.c ****     switch(channel){
 2293              		.loc 1 1162 1
 2294              		.cfi_startproc
 2295              	.LVL137:
1163:arch/riscv/mach-gd32vf10x/bsp/gd32vf103_timer.c ****     /* configure TIMER_CH_0 */
 2296              		.loc 1 1163 5
 2297 0000 8547     		li	a5,1
 2298 0002 6380F502 		beq	a1,a5,.L148
 2299 0006 9DC5     		beq	a1,zero,.L149
 2300 0008 8947     		li	a5,2
 2301 000a 639BF500 		bne	a1,a5,.L152
1176:arch/riscv/mach-gd32vf10x/bsp/gd32vf103_timer.c ****         TIMER_CHCTL2(timer_periph) |= (uint32_t)((uint32_t)ocnstate << 8U);
 2302              		.loc 1 1176 9
1176:arch/riscv/mach-gd32vf10x/bsp/gd32vf103_timer.c ****         TIMER_CHCTL2(timer_periph) |= (uint32_t)((uint32_t)ocnstate << 8U);
 2303              		.loc 1 1176 36 is_stmt 0
 2304 000e 1C51     		lw	a5,32(a0)
1177:arch/riscv/mach-gd32vf10x/bsp/gd32vf103_timer.c ****         break;
 2305              		.loc 1 1177 39
 2306 0010 2206     		slli	a2,a2,8
 2307              	.LVL138:
1176:arch/riscv/mach-gd32vf10x/bsp/gd32vf103_timer.c ****         TIMER_CHCTL2(timer_periph) |= (uint32_t)((uint32_t)ocnstate << 8U);
 2308              		.loc 1 1176 36
 2309 0012 93F7F7BF 		andi	a5,a5,-1025
 2310 0016 1CD1     		sw	a5,32(a0)
1177:arch/riscv/mach-gd32vf10x/bsp/gd32vf103_timer.c ****         break;
 2311              		.loc 1 1177 9 is_stmt 1
1177:arch/riscv/mach-gd32vf10x/bsp/gd32vf103_timer.c ****         break;
 2312              		.loc 1 1177 36 is_stmt 0
 2313 0018 1C51     		lw	a5,32(a0)
 2314 001a 5D8E     		or	a2,a2,a5
 2315 001c 10D1     		sw	a2,32(a0)
1178:arch/riscv/mach-gd32vf10x/bsp/gd32vf103_timer.c ****     default:
 2316              		.loc 1 1178 9 is_stmt 1
1182:arch/riscv/mach-gd32vf10x/bsp/gd32vf103_timer.c **** 
 2317              		.loc 1 1182 1 is_stmt 0
 2318 001e 8280     		ret
 2319              	.LVL139:
 2320              	.L152:
 2321 0020 8280     		ret
 2322              	.L148:
1171:arch/riscv/mach-gd32vf10x/bsp/gd32vf103_timer.c ****         TIMER_CHCTL2(timer_periph) |= (uint32_t)((uint32_t)ocnstate << 4U);
 2323              		.loc 1 1171 9 is_stmt 1
1171:arch/riscv/mach-gd32vf10x/bsp/gd32vf103_timer.c ****         TIMER_CHCTL2(timer_periph) |= (uint32_t)((uint32_t)ocnstate << 4U);
 2324              		.loc 1 1171 36 is_stmt 0
 2325 0022 1C51     		lw	a5,32(a0)
1172:arch/riscv/mach-gd32vf10x/bsp/gd32vf103_timer.c ****         break;
 2326              		.loc 1 1172 39
 2327 0024 1206     		slli	a2,a2,4
 2328              	.LVL140:
1171:arch/riscv/mach-gd32vf10x/bsp/gd32vf103_timer.c ****         TIMER_CHCTL2(timer_periph) |= (uint32_t)((uint32_t)ocnstate << 4U);
 2329              		.loc 1 1171 36
 2330 0026 93F7F7FB 		andi	a5,a5,-65
GAS LISTING C:\Users\test\AppData\Local\Temp\ccx0JFmY.s 			page 77


 2331 002a 1CD1     		sw	a5,32(a0)
1172:arch/riscv/mach-gd32vf10x/bsp/gd32vf103_timer.c ****         break;
 2332              		.loc 1 1172 9 is_stmt 1
1172:arch/riscv/mach-gd32vf10x/bsp/gd32vf103_timer.c ****         break;
 2333              		.loc 1 1172 36 is_stmt 0
 2334 002c 1C51     		lw	a5,32(a0)
 2335 002e 5D8E     		or	a2,a2,a5
 2336 0030 10D1     		sw	a2,32(a0)
1173:arch/riscv/mach-gd32vf10x/bsp/gd32vf103_timer.c ****     /* configure TIMER_CH_2 */
 2337              		.loc 1 1173 9 is_stmt 1
 2338 0032 8280     		ret
 2339              	.LVL141:
 2340              	.L149:
1166:arch/riscv/mach-gd32vf10x/bsp/gd32vf103_timer.c ****         TIMER_CHCTL2(timer_periph) |= (uint32_t)ocnstate;
 2341              		.loc 1 1166 9
1166:arch/riscv/mach-gd32vf10x/bsp/gd32vf103_timer.c ****         TIMER_CHCTL2(timer_periph) |= (uint32_t)ocnstate;
 2342              		.loc 1 1166 36 is_stmt 0
 2343 0034 1C51     		lw	a5,32(a0)
 2344 0036 ED9B     		andi	a5,a5,-5
 2345 0038 1CD1     		sw	a5,32(a0)
1167:arch/riscv/mach-gd32vf10x/bsp/gd32vf103_timer.c ****         break;
 2346              		.loc 1 1167 9 is_stmt 1
1167:arch/riscv/mach-gd32vf10x/bsp/gd32vf103_timer.c ****         break;
 2347              		.loc 1 1167 36 is_stmt 0
 2348 003a 1C51     		lw	a5,32(a0)
 2349 003c 5D8E     		or	a2,a2,a5
 2350              	.LVL142:
 2351 003e 10D1     		sw	a2,32(a0)
1168:arch/riscv/mach-gd32vf10x/bsp/gd32vf103_timer.c ****     /* configure TIMER_CH_1 */
 2352              		.loc 1 1168 9 is_stmt 1
 2353 0040 8280     		ret
 2354              		.cfi_endproc
 2355              	.LFE46:
 2357              		.section	.text.timer_channel_input_struct_para_init,"ax",@progbits
 2358              		.align	1
 2359              		.globl	timer_channel_input_struct_para_init
 2361              	timer_channel_input_struct_para_init:
 2362              	.LFB47:
1191:arch/riscv/mach-gd32vf10x/bsp/gd32vf103_timer.c ****     /* initialize the channel input parameter struct member with the default value */
 2363              		.loc 1 1191 1
 2364              		.cfi_startproc
 2365              	.LVL143:
1193:arch/riscv/mach-gd32vf10x/bsp/gd32vf103_timer.c ****     icpara->icselection = TIMER_IC_SELECTION_DIRECTTI;
 2366              		.loc 1 1193 5
1194:arch/riscv/mach-gd32vf10x/bsp/gd32vf103_timer.c ****     icpara->icprescaler = TIMER_IC_PSC_DIV1;
 2367              		.loc 1 1194 25 is_stmt 0
 2368 0000 8547     		li	a5,1
1193:arch/riscv/mach-gd32vf10x/bsp/gd32vf103_timer.c ****     icpara->icselection = TIMER_IC_SELECTION_DIRECTTI;
 2369              		.loc 1 1193 25
 2370 0002 23100500 		sh	zero,0(a0)
1194:arch/riscv/mach-gd32vf10x/bsp/gd32vf103_timer.c ****     icpara->icprescaler = TIMER_IC_PSC_DIV1;
 2371              		.loc 1 1194 5 is_stmt 1
1194:arch/riscv/mach-gd32vf10x/bsp/gd32vf103_timer.c ****     icpara->icprescaler = TIMER_IC_PSC_DIV1;
 2372              		.loc 1 1194 25 is_stmt 0
 2373 0006 2311F500 		sh	a5,2(a0)
1195:arch/riscv/mach-gd32vf10x/bsp/gd32vf103_timer.c ****     icpara->icfilter    = 0U;
 2374              		.loc 1 1195 5 is_stmt 1
GAS LISTING C:\Users\test\AppData\Local\Temp\ccx0JFmY.s 			page 78


1195:arch/riscv/mach-gd32vf10x/bsp/gd32vf103_timer.c ****     icpara->icfilter    = 0U;
 2375              		.loc 1 1195 25 is_stmt 0
 2376 000a 23120500 		sh	zero,4(a0)
1196:arch/riscv/mach-gd32vf10x/bsp/gd32vf103_timer.c **** }
 2377              		.loc 1 1196 5 is_stmt 1
1196:arch/riscv/mach-gd32vf10x/bsp/gd32vf103_timer.c **** }
 2378              		.loc 1 1196 25 is_stmt 0
 2379 000e 23130500 		sh	zero,6(a0)
1197:arch/riscv/mach-gd32vf10x/bsp/gd32vf103_timer.c **** 
 2380              		.loc 1 1197 1
 2381 0012 8280     		ret
 2382              		.cfi_endproc
 2383              	.LFE47:
 2385              		.section	.text.timer_channel_input_capture_prescaler_config,"ax",@progbits
 2386              		.align	1
 2387              		.globl	timer_channel_input_capture_prescaler_config
 2389              	timer_channel_input_capture_prescaler_config:
 2390              	.LFB49:
1325:arch/riscv/mach-gd32vf10x/bsp/gd32vf103_timer.c ****     switch(channel){
 2391              		.loc 1 1325 1 is_stmt 1
 2392              		.cfi_startproc
 2393              	.LVL144:
1326:arch/riscv/mach-gd32vf10x/bsp/gd32vf103_timer.c ****     /* configure TIMER_CH_0 */
 2394              		.loc 1 1326 5
 2395 0000 0547     		li	a4,1
 2396 0002 6385E502 		beq	a1,a4,.L155
 2397 0006 9DCD     		beq	a1,zero,.L156
 2398 0008 0947     		li	a4,2
 2399 000a 6386E502 		beq	a1,a4,.L157
 2400 000e 0D47     		li	a4,3
 2401 0010 639DE500 		bne	a1,a4,.L160
1344:arch/riscv/mach-gd32vf10x/bsp/gd32vf103_timer.c ****         TIMER_CHCTL1(timer_periph) |= ((uint32_t)prescaler << 8U);
 2402              		.loc 1 1344 9
1344:arch/riscv/mach-gd32vf10x/bsp/gd32vf103_timer.c ****         TIMER_CHCTL1(timer_periph) |= ((uint32_t)prescaler << 8U);
 2403              		.loc 1 1344 36 is_stmt 0
 2404 0014 584D     		lw	a4,28(a0)
 2405 0016 FD76     		li	a3,-4096
 2406 0018 9386F63F 		addi	a3,a3,1023
 2407 001c 758F     		and	a4,a4,a3
 2408 001e 58CD     		sw	a4,28(a0)
1345:arch/riscv/mach-gd32vf10x/bsp/gd32vf103_timer.c ****         break;
 2409              		.loc 1 1345 9 is_stmt 1
1345:arch/riscv/mach-gd32vf10x/bsp/gd32vf103_timer.c ****         break;
 2410              		.loc 1 1345 36 is_stmt 0
 2411 0020 584D     		lw	a4,28(a0)
1345:arch/riscv/mach-gd32vf10x/bsp/gd32vf103_timer.c ****         break;
 2412              		.loc 1 1345 60
 2413 0022 2206     		slli	a2,a2,8
 2414              	.LVL145:
1345:arch/riscv/mach-gd32vf10x/bsp/gd32vf103_timer.c ****         break;
 2415              		.loc 1 1345 36
 2416 0024 598E     		or	a2,a2,a4
 2417 0026 50CD     		sw	a2,28(a0)
1346:arch/riscv/mach-gd32vf10x/bsp/gd32vf103_timer.c ****     default:
 2418              		.loc 1 1346 9 is_stmt 1
 2419              		.loc 1 1350 1 is_stmt 0
 2420 0028 8280     		ret
GAS LISTING C:\Users\test\AppData\Local\Temp\ccx0JFmY.s 			page 79


 2421              	.LVL146:
 2422              	.L160:
 2423 002a 8280     		ret
 2424              	.L155:
 2425 002c B285     		mv	a1,a2
 2426              	.LVL147:
 2427 002e 17030000 		tail	timer_channel_input_capture_prescaler_config.part.0
 2427      67000300 
 2428              	.LVL148:
 2429              	.L157:
1339:arch/riscv/mach-gd32vf10x/bsp/gd32vf103_timer.c ****         TIMER_CHCTL1(timer_periph) |= (uint32_t)prescaler;
 2430              		.loc 1 1339 9 is_stmt 1
1339:arch/riscv/mach-gd32vf10x/bsp/gd32vf103_timer.c ****         TIMER_CHCTL1(timer_periph) |= (uint32_t)prescaler;
 2431              		.loc 1 1339 36 is_stmt 0
 2432 0036 584D     		lw	a4,28(a0)
 2433 0038 4D9B     		andi	a4,a4,-13
 2434 003a 58CD     		sw	a4,28(a0)
1340:arch/riscv/mach-gd32vf10x/bsp/gd32vf103_timer.c ****         break;
 2435              		.loc 1 1340 9 is_stmt 1
1340:arch/riscv/mach-gd32vf10x/bsp/gd32vf103_timer.c ****         break;
 2436              		.loc 1 1340 36 is_stmt 0
 2437 003c 4C4D     		lw	a1,28(a0)
 2438              	.LVL149:
 2439 003e 4D8E     		or	a2,a2,a1
 2440              	.LVL150:
 2441 0040 50CD     		sw	a2,28(a0)
1341:arch/riscv/mach-gd32vf10x/bsp/gd32vf103_timer.c ****     /* configure TIMER_CH_3 */
 2442              		.loc 1 1341 9 is_stmt 1
 2443 0042 8280     		ret
 2444              	.LVL151:
 2445              	.L156:
1329:arch/riscv/mach-gd32vf10x/bsp/gd32vf103_timer.c ****         TIMER_CHCTL0(timer_periph) |= (uint32_t)prescaler;
 2446              		.loc 1 1329 9
1329:arch/riscv/mach-gd32vf10x/bsp/gd32vf103_timer.c ****         TIMER_CHCTL0(timer_periph) |= (uint32_t)prescaler;
 2447              		.loc 1 1329 36 is_stmt 0
 2448 0044 184D     		lw	a4,24(a0)
 2449 0046 4D9B     		andi	a4,a4,-13
 2450 0048 18CD     		sw	a4,24(a0)
1330:arch/riscv/mach-gd32vf10x/bsp/gd32vf103_timer.c ****         break;
 2451              		.loc 1 1330 9 is_stmt 1
1330:arch/riscv/mach-gd32vf10x/bsp/gd32vf103_timer.c ****         break;
 2452              		.loc 1 1330 36 is_stmt 0
 2453 004a 0C4D     		lw	a1,24(a0)
 2454              	.LVL152:
 2455 004c 4D8E     		or	a2,a2,a1
 2456              	.LVL153:
 2457 004e 10CD     		sw	a2,24(a0)
1331:arch/riscv/mach-gd32vf10x/bsp/gd32vf103_timer.c ****     /* configure TIMER_CH_1 */
 2458              		.loc 1 1331 9 is_stmt 1
 2459 0050 8280     		ret
 2460              		.cfi_endproc
 2461              	.LFE49:
 2463              		.section	.text.timer_input_capture_config,"ax",@progbits
 2464              		.align	1
 2465              		.globl	timer_input_capture_config
 2467              	timer_input_capture_config:
 2468              	.LFB48:
GAS LISTING C:\Users\test\AppData\Local\Temp\ccx0JFmY.s 			page 80


1220:arch/riscv/mach-gd32vf10x/bsp/gd32vf103_timer.c ****     switch(channel){
 2469              		.loc 1 1220 1
 2470              		.cfi_startproc
 2471              	.LVL154:
1221:arch/riscv/mach-gd32vf10x/bsp/gd32vf103_timer.c ****     /* configure TIMER_CH_0 */
 2472              		.loc 1 1221 5
 2473 0000 8547     		li	a5,1
 2474 0002 6389F506 		beq	a1,a5,.L162
 2475 0006 63820512 		beq	a1,zero,.L163
 2476 000a 8947     		li	a5,2
 2477 000c 6380F50C 		beq	a1,a5,.L164
 2478 0010 8D47     		li	a5,3
 2479 0012 639BF504 		bne	a1,a5,.L166
1282:arch/riscv/mach-gd32vf10x/bsp/gd32vf103_timer.c **** 
 2480              		.loc 1 1282 9
1282:arch/riscv/mach-gd32vf10x/bsp/gd32vf103_timer.c **** 
 2481              		.loc 1 1282 36 is_stmt 0
 2482 0016 1C51     		lw	a5,32(a0)
 2483 0018 7D77     		li	a4,-4096
 2484 001a 7D17     		addi	a4,a4,-1
 2485 001c F98F     		and	a5,a5,a4
 2486 001e 1CD1     		sw	a5,32(a0)
1285:arch/riscv/mach-gd32vf10x/bsp/gd32vf103_timer.c ****         TIMER_CHCTL2(timer_periph) |= (uint32_t)((uint32_t)(icpara->icpolarity) << 12U);
 2487              		.loc 1 1285 9 is_stmt 1
1285:arch/riscv/mach-gd32vf10x/bsp/gd32vf103_timer.c ****         TIMER_CHCTL2(timer_periph) |= (uint32_t)((uint32_t)(icpara->icpolarity) << 12U);
 2488              		.loc 1 1285 36 is_stmt 0
 2489 0020 1C51     		lw	a5,32(a0)
 2490 0022 7977     		li	a4,-8192
 2491 0024 7D17     		addi	a4,a4,-1
 2492 0026 F98F     		and	a5,a5,a4
 2493 0028 1CD1     		sw	a5,32(a0)
1286:arch/riscv/mach-gd32vf10x/bsp/gd32vf103_timer.c **** 
 2494              		.loc 1 1286 9 is_stmt 1
1286:arch/riscv/mach-gd32vf10x/bsp/gd32vf103_timer.c **** 
 2495              		.loc 1 1286 50 is_stmt 0
 2496 002a 83570600 		lhu	a5,0(a2)
1286:arch/riscv/mach-gd32vf10x/bsp/gd32vf103_timer.c **** 
 2497              		.loc 1 1286 36
 2498 002e 1451     		lw	a3,32(a0)
1290:arch/riscv/mach-gd32vf10x/bsp/gd32vf103_timer.c **** 
 2499              		.loc 1 1290 50
 2500 0030 03572600 		lhu	a4,2(a2)
1286:arch/riscv/mach-gd32vf10x/bsp/gd32vf103_timer.c **** 
 2501              		.loc 1 1286 39
 2502 0034 B207     		slli	a5,a5,12
1286:arch/riscv/mach-gd32vf10x/bsp/gd32vf103_timer.c **** 
 2503              		.loc 1 1286 36
 2504 0036 D58F     		or	a5,a5,a3
 2505 0038 1CD1     		sw	a5,32(a0)
1289:arch/riscv/mach-gd32vf10x/bsp/gd32vf103_timer.c ****         TIMER_CHCTL1(timer_periph) |= (uint32_t)((uint32_t)(icpara->icselection) << 8U);
 2506              		.loc 1 1289 9 is_stmt 1
1289:arch/riscv/mach-gd32vf10x/bsp/gd32vf103_timer.c ****         TIMER_CHCTL1(timer_periph) |= (uint32_t)((uint32_t)(icpara->icselection) << 8U);
 2507              		.loc 1 1289 36 is_stmt 0
 2508 003a 5C4D     		lw	a5,28(a0)
1290:arch/riscv/mach-gd32vf10x/bsp/gd32vf103_timer.c **** 
 2509              		.loc 1 1290 39
 2510 003c 2207     		slli	a4,a4,8
GAS LISTING C:\Users\test\AppData\Local\Temp\ccx0JFmY.s 			page 81


1289:arch/riscv/mach-gd32vf10x/bsp/gd32vf103_timer.c ****         TIMER_CHCTL1(timer_periph) |= (uint32_t)((uint32_t)(icpara->icselection) << 8U);
 2511              		.loc 1 1289 36
 2512 003e 93F7F7CF 		andi	a5,a5,-769
 2513 0042 5CCD     		sw	a5,28(a0)
1290:arch/riscv/mach-gd32vf10x/bsp/gd32vf103_timer.c **** 
 2514              		.loc 1 1290 9 is_stmt 1
1290:arch/riscv/mach-gd32vf10x/bsp/gd32vf103_timer.c **** 
 2515              		.loc 1 1290 36 is_stmt 0
 2516 0044 544D     		lw	a3,28(a0)
1294:arch/riscv/mach-gd32vf10x/bsp/gd32vf103_timer.c **** 
 2517              		.loc 1 1294 50
 2518 0046 83576600 		lhu	a5,6(a2)
1290:arch/riscv/mach-gd32vf10x/bsp/gd32vf103_timer.c **** 
 2519              		.loc 1 1290 36
 2520 004a 558F     		or	a4,a4,a3
 2521 004c 58CD     		sw	a4,28(a0)
1293:arch/riscv/mach-gd32vf10x/bsp/gd32vf103_timer.c ****         TIMER_CHCTL1(timer_periph) |= (uint32_t)((uint32_t)(icpara->icfilter) << 12U);
 2522              		.loc 1 1293 9 is_stmt 1
1293:arch/riscv/mach-gd32vf10x/bsp/gd32vf103_timer.c ****         TIMER_CHCTL1(timer_periph) |= (uint32_t)((uint32_t)(icpara->icfilter) << 12U);
 2523              		.loc 1 1293 36 is_stmt 0
 2524 004e 584D     		lw	a4,28(a0)
 2525 0050 C576     		li	a3,-61440
 2526 0052 FD16     		addi	a3,a3,-1
 2527 0054 758F     		and	a4,a4,a3
 2528 0056 58CD     		sw	a4,28(a0)
1294:arch/riscv/mach-gd32vf10x/bsp/gd32vf103_timer.c **** 
 2529              		.loc 1 1294 9 is_stmt 1
1294:arch/riscv/mach-gd32vf10x/bsp/gd32vf103_timer.c **** 
 2530              		.loc 1 1294 36 is_stmt 0
 2531 0058 584D     		lw	a4,28(a0)
1294:arch/riscv/mach-gd32vf10x/bsp/gd32vf103_timer.c **** 
 2532              		.loc 1 1294 39
 2533 005a B207     		slli	a5,a5,12
1294:arch/riscv/mach-gd32vf10x/bsp/gd32vf103_timer.c **** 
 2534              		.loc 1 1294 36
 2535 005c D98F     		or	a5,a5,a4
 2536 005e 5CCD     		sw	a5,28(a0)
1297:arch/riscv/mach-gd32vf10x/bsp/gd32vf103_timer.c ****         break;
 2537              		.loc 1 1297 9 is_stmt 1
1297:arch/riscv/mach-gd32vf10x/bsp/gd32vf103_timer.c ****         break;
 2538              		.loc 1 1297 36 is_stmt 0
 2539 0060 1C51     		lw	a5,32(a0)
 2540 0062 0567     		li	a4,4096
 2541 0064 D98F     		or	a5,a5,a4
 2542 0066 1CD1     		sw	a5,32(a0)
1298:arch/riscv/mach-gd32vf10x/bsp/gd32vf103_timer.c ****     default:
 2543              		.loc 1 1298 9 is_stmt 1
 2544              	.L166:
1303:arch/riscv/mach-gd32vf10x/bsp/gd32vf103_timer.c **** }
 2545              		.loc 1 1303 5
 2546 0068 03564600 		lhu	a2,4(a2)
 2547              	.LVL155:
 2548 006c 17030000 		tail	timer_channel_input_capture_prescaler_config
 2548      67000300 
 2549              	.LVL156:
 2550              	.L162:
1244:arch/riscv/mach-gd32vf10x/bsp/gd32vf103_timer.c **** 
GAS LISTING C:\Users\test\AppData\Local\Temp\ccx0JFmY.s 			page 82


 2551              		.loc 1 1244 9
1244:arch/riscv/mach-gd32vf10x/bsp/gd32vf103_timer.c **** 
 2552              		.loc 1 1244 36 is_stmt 0
 2553 0074 1451     		lw	a3,32(a0)
1248:arch/riscv/mach-gd32vf10x/bsp/gd32vf103_timer.c ****         /* reset the CH1MS bit */
 2554              		.loc 1 1248 50
 2555 0076 83570600 		lhu	a5,0(a2)
1251:arch/riscv/mach-gd32vf10x/bsp/gd32vf103_timer.c ****         /* reset the CH1CAPFLT bit */
 2556              		.loc 1 1251 50
 2557 007a 03572600 		lhu	a4,2(a2)
1244:arch/riscv/mach-gd32vf10x/bsp/gd32vf103_timer.c **** 
 2558              		.loc 1 1244 36
 2559 007e BD9A     		andi	a3,a3,-17
 2560 0080 14D1     		sw	a3,32(a0)
1247:arch/riscv/mach-gd32vf10x/bsp/gd32vf103_timer.c ****         TIMER_CHCTL2(timer_periph) |= (uint32_t)((uint32_t)(icpara->icpolarity) << 4U);
 2561              		.loc 1 1247 9 is_stmt 1
1247:arch/riscv/mach-gd32vf10x/bsp/gd32vf103_timer.c ****         TIMER_CHCTL2(timer_periph) |= (uint32_t)((uint32_t)(icpara->icpolarity) << 4U);
 2562              		.loc 1 1247 36 is_stmt 0
 2563 0082 1451     		lw	a3,32(a0)
1248:arch/riscv/mach-gd32vf10x/bsp/gd32vf103_timer.c ****         /* reset the CH1MS bit */
 2564              		.loc 1 1248 39
 2565 0084 9207     		slli	a5,a5,4
1251:arch/riscv/mach-gd32vf10x/bsp/gd32vf103_timer.c ****         /* reset the CH1CAPFLT bit */
 2566              		.loc 1 1251 39
 2567 0086 2207     		slli	a4,a4,8
1247:arch/riscv/mach-gd32vf10x/bsp/gd32vf103_timer.c ****         TIMER_CHCTL2(timer_periph) |= (uint32_t)((uint32_t)(icpara->icpolarity) << 4U);
 2568              		.loc 1 1247 36
 2569 0088 93F6F6F5 		andi	a3,a3,-161
 2570 008c 14D1     		sw	a3,32(a0)
1248:arch/riscv/mach-gd32vf10x/bsp/gd32vf103_timer.c ****         /* reset the CH1MS bit */
 2571              		.loc 1 1248 9 is_stmt 1
1248:arch/riscv/mach-gd32vf10x/bsp/gd32vf103_timer.c ****         /* reset the CH1MS bit */
 2572              		.loc 1 1248 36 is_stmt 0
 2573 008e 1451     		lw	a3,32(a0)
 2574 0090 D58F     		or	a5,a5,a3
 2575 0092 1CD1     		sw	a5,32(a0)
1250:arch/riscv/mach-gd32vf10x/bsp/gd32vf103_timer.c ****         TIMER_CHCTL0(timer_periph) |= (uint32_t)((uint32_t)(icpara->icselection) << 8U);
 2576              		.loc 1 1250 9 is_stmt 1
1250:arch/riscv/mach-gd32vf10x/bsp/gd32vf103_timer.c ****         TIMER_CHCTL0(timer_periph) |= (uint32_t)((uint32_t)(icpara->icselection) << 8U);
 2577              		.loc 1 1250 36 is_stmt 0
 2578 0094 144D     		lw	a3,24(a0)
1254:arch/riscv/mach-gd32vf10x/bsp/gd32vf103_timer.c **** 
 2579              		.loc 1 1254 50
 2580 0096 83576600 		lhu	a5,6(a2)
1303:arch/riscv/mach-gd32vf10x/bsp/gd32vf103_timer.c **** }
 2581              		.loc 1 1303 5
 2582 009a 03564600 		lhu	a2,4(a2)
 2583              	.LVL157:
1250:arch/riscv/mach-gd32vf10x/bsp/gd32vf103_timer.c ****         TIMER_CHCTL0(timer_periph) |= (uint32_t)((uint32_t)(icpara->icselection) << 8U);
 2584              		.loc 1 1250 36
 2585 009e 93F6F6CF 		andi	a3,a3,-769
 2586 00a2 14CD     		sw	a3,24(a0)
1251:arch/riscv/mach-gd32vf10x/bsp/gd32vf103_timer.c ****         /* reset the CH1CAPFLT bit */
 2587              		.loc 1 1251 9 is_stmt 1
1251:arch/riscv/mach-gd32vf10x/bsp/gd32vf103_timer.c ****         /* reset the CH1CAPFLT bit */
 2588              		.loc 1 1251 36 is_stmt 0
 2589 00a4 144D     		lw	a3,24(a0)
GAS LISTING C:\Users\test\AppData\Local\Temp\ccx0JFmY.s 			page 83


1254:arch/riscv/mach-gd32vf10x/bsp/gd32vf103_timer.c **** 
 2590              		.loc 1 1254 39
 2591 00a6 B207     		slli	a5,a5,12
1251:arch/riscv/mach-gd32vf10x/bsp/gd32vf103_timer.c ****         /* reset the CH1CAPFLT bit */
 2592              		.loc 1 1251 36
 2593 00a8 558F     		or	a4,a4,a3
 2594 00aa 18CD     		sw	a4,24(a0)
1253:arch/riscv/mach-gd32vf10x/bsp/gd32vf103_timer.c ****         TIMER_CHCTL0(timer_periph) |= (uint32_t)((uint32_t)(icpara->icfilter) << 12U);
 2595              		.loc 1 1253 9 is_stmt 1
1253:arch/riscv/mach-gd32vf10x/bsp/gd32vf103_timer.c ****         TIMER_CHCTL0(timer_periph) |= (uint32_t)((uint32_t)(icpara->icfilter) << 12U);
 2596              		.loc 1 1253 36 is_stmt 0
 2597 00ac 184D     		lw	a4,24(a0)
 2598 00ae C576     		li	a3,-61440
 2599 00b0 FD16     		addi	a3,a3,-1
 2600 00b2 758F     		and	a4,a4,a3
 2601 00b4 18CD     		sw	a4,24(a0)
1254:arch/riscv/mach-gd32vf10x/bsp/gd32vf103_timer.c **** 
 2602              		.loc 1 1254 9 is_stmt 1
1254:arch/riscv/mach-gd32vf10x/bsp/gd32vf103_timer.c **** 
 2603              		.loc 1 1254 36 is_stmt 0
 2604 00b6 184D     		lw	a4,24(a0)
 2605 00b8 D98F     		or	a5,a5,a4
 2606 00ba 1CCD     		sw	a5,24(a0)
1257:arch/riscv/mach-gd32vf10x/bsp/gd32vf103_timer.c ****         break;
 2607              		.loc 1 1257 9 is_stmt 1
1257:arch/riscv/mach-gd32vf10x/bsp/gd32vf103_timer.c ****         break;
 2608              		.loc 1 1257 36 is_stmt 0
 2609 00bc 1C51     		lw	a5,32(a0)
 2610 00be 93E70701 		ori	a5,a5,16
 2611 00c2 1CD1     		sw	a5,32(a0)
1258:arch/riscv/mach-gd32vf10x/bsp/gd32vf103_timer.c ****     /* configure TIMER_CH_2 */
 2612              		.loc 1 1258 9 is_stmt 1
1303:arch/riscv/mach-gd32vf10x/bsp/gd32vf103_timer.c **** }
 2613              		.loc 1 1303 5
 2614 00c4 17030000 		tail	timer_channel_input_capture_prescaler_config
 2614      67000300 
 2615              	.LVL158:
 2616              	.L164:
1262:arch/riscv/mach-gd32vf10x/bsp/gd32vf103_timer.c **** 
 2617              		.loc 1 1262 9
1262:arch/riscv/mach-gd32vf10x/bsp/gd32vf103_timer.c **** 
 2618              		.loc 1 1262 36 is_stmt 0
 2619 00cc 1C51     		lw	a5,32(a0)
1265:arch/riscv/mach-gd32vf10x/bsp/gd32vf103_timer.c ****         TIMER_CHCTL2(timer_periph) |= (uint32_t)((uint32_t)(icpara->icpolarity) << 8U);
 2620              		.loc 1 1265 36
 2621 00ce 7D78     		li	a6,-4096
 2622 00d0 1308F85F 		addi	a6,a6,1535
1262:arch/riscv/mach-gd32vf10x/bsp/gd32vf103_timer.c **** 
 2623              		.loc 1 1262 36
 2624 00d4 93F7F7EF 		andi	a5,a5,-257
 2625 00d8 1CD1     		sw	a5,32(a0)
1265:arch/riscv/mach-gd32vf10x/bsp/gd32vf103_timer.c ****         TIMER_CHCTL2(timer_periph) |= (uint32_t)((uint32_t)(icpara->icpolarity) << 8U);
 2626              		.loc 1 1265 9 is_stmt 1
1265:arch/riscv/mach-gd32vf10x/bsp/gd32vf103_timer.c ****         TIMER_CHCTL2(timer_periph) |= (uint32_t)((uint32_t)(icpara->icpolarity) << 8U);
 2627              		.loc 1 1265 36 is_stmt 0
 2628 00da 1C51     		lw	a5,32(a0)
1266:arch/riscv/mach-gd32vf10x/bsp/gd32vf103_timer.c **** 
GAS LISTING C:\Users\test\AppData\Local\Temp\ccx0JFmY.s 			page 84


 2629              		.loc 1 1266 50
 2630 00dc 03570600 		lhu	a4,0(a2)
1270:arch/riscv/mach-gd32vf10x/bsp/gd32vf103_timer.c **** 
 2631              		.loc 1 1270 39
 2632 00e0 83562600 		lhu	a3,2(a2)
1265:arch/riscv/mach-gd32vf10x/bsp/gd32vf103_timer.c ****         TIMER_CHCTL2(timer_periph) |= (uint32_t)((uint32_t)(icpara->icpolarity) << 8U);
 2633              		.loc 1 1265 36
 2634 00e4 B3F70701 		and	a5,a5,a6
 2635 00e8 1CD1     		sw	a5,32(a0)
1266:arch/riscv/mach-gd32vf10x/bsp/gd32vf103_timer.c **** 
 2636              		.loc 1 1266 9 is_stmt 1
1266:arch/riscv/mach-gd32vf10x/bsp/gd32vf103_timer.c **** 
 2637              		.loc 1 1266 36 is_stmt 0
 2638 00ea 03280502 		lw	a6,32(a0)
1266:arch/riscv/mach-gd32vf10x/bsp/gd32vf103_timer.c **** 
 2639              		.loc 1 1266 39
 2640 00ee 2207     		slli	a4,a4,8
1274:arch/riscv/mach-gd32vf10x/bsp/gd32vf103_timer.c **** 
 2641              		.loc 1 1274 50
 2642 00f0 83576600 		lhu	a5,6(a2)
1266:arch/riscv/mach-gd32vf10x/bsp/gd32vf103_timer.c **** 
 2643              		.loc 1 1266 36
 2644 00f4 33670701 		or	a4,a4,a6
 2645 00f8 18D1     		sw	a4,32(a0)
1269:arch/riscv/mach-gd32vf10x/bsp/gd32vf103_timer.c ****         TIMER_CHCTL1(timer_periph) |= (uint32_t)((uint32_t)(icpara->icselection));
 2646              		.loc 1 1269 9 is_stmt 1
1269:arch/riscv/mach-gd32vf10x/bsp/gd32vf103_timer.c ****         TIMER_CHCTL1(timer_periph) |= (uint32_t)((uint32_t)(icpara->icselection));
 2647              		.loc 1 1269 36 is_stmt 0
 2648 00fa 584D     		lw	a4,28(a0)
1274:arch/riscv/mach-gd32vf10x/bsp/gd32vf103_timer.c **** 
 2649              		.loc 1 1274 39
 2650 00fc 9207     		slli	a5,a5,4
1303:arch/riscv/mach-gd32vf10x/bsp/gd32vf103_timer.c **** }
 2651              		.loc 1 1303 5
 2652 00fe 03564600 		lhu	a2,4(a2)
 2653              	.LVL159:
1269:arch/riscv/mach-gd32vf10x/bsp/gd32vf103_timer.c ****         TIMER_CHCTL1(timer_periph) |= (uint32_t)((uint32_t)(icpara->icselection));
 2654              		.loc 1 1269 36
 2655 0102 719B     		andi	a4,a4,-4
 2656 0104 58CD     		sw	a4,28(a0)
1270:arch/riscv/mach-gd32vf10x/bsp/gd32vf103_timer.c **** 
 2657              		.loc 1 1270 9 is_stmt 1
1270:arch/riscv/mach-gd32vf10x/bsp/gd32vf103_timer.c **** 
 2658              		.loc 1 1270 36 is_stmt 0
 2659 0106 584D     		lw	a4,28(a0)
 2660 0108 558F     		or	a4,a3,a4
 2661 010a 58CD     		sw	a4,28(a0)
1273:arch/riscv/mach-gd32vf10x/bsp/gd32vf103_timer.c ****         TIMER_CHCTL1(timer_periph) |= (uint32_t)((uint32_t)(icpara->icfilter) << 4U);
 2662              		.loc 1 1273 9 is_stmt 1
1273:arch/riscv/mach-gd32vf10x/bsp/gd32vf103_timer.c ****         TIMER_CHCTL1(timer_periph) |= (uint32_t)((uint32_t)(icpara->icfilter) << 4U);
 2663              		.loc 1 1273 36 is_stmt 0
 2664 010c 584D     		lw	a4,28(a0)
 2665 010e 1377F7F0 		andi	a4,a4,-241
 2666 0112 58CD     		sw	a4,28(a0)
1274:arch/riscv/mach-gd32vf10x/bsp/gd32vf103_timer.c **** 
 2667              		.loc 1 1274 9 is_stmt 1
1274:arch/riscv/mach-gd32vf10x/bsp/gd32vf103_timer.c **** 
GAS LISTING C:\Users\test\AppData\Local\Temp\ccx0JFmY.s 			page 85


 2668              		.loc 1 1274 36 is_stmt 0
 2669 0114 584D     		lw	a4,28(a0)
 2670 0116 D98F     		or	a5,a5,a4
 2671 0118 5CCD     		sw	a5,28(a0)
1277:arch/riscv/mach-gd32vf10x/bsp/gd32vf103_timer.c ****         break;
 2672              		.loc 1 1277 9 is_stmt 1
1277:arch/riscv/mach-gd32vf10x/bsp/gd32vf103_timer.c ****         break;
 2673              		.loc 1 1277 36 is_stmt 0
 2674 011a 1C51     		lw	a5,32(a0)
 2675 011c 93E70710 		ori	a5,a5,256
 2676 0120 1CD1     		sw	a5,32(a0)
1278:arch/riscv/mach-gd32vf10x/bsp/gd32vf103_timer.c ****     /* configure TIMER_CH_3 */
 2677              		.loc 1 1278 9 is_stmt 1
1303:arch/riscv/mach-gd32vf10x/bsp/gd32vf103_timer.c **** }
 2678              		.loc 1 1303 5
 2679 0122 17030000 		tail	timer_channel_input_capture_prescaler_config
 2679      67000300 
 2680              	.LVL160:
 2681              	.L163:
1225:arch/riscv/mach-gd32vf10x/bsp/gd32vf103_timer.c **** 
 2682              		.loc 1 1225 9
1225:arch/riscv/mach-gd32vf10x/bsp/gd32vf103_timer.c **** 
 2683              		.loc 1 1225 36 is_stmt 0
 2684 012a 1C51     		lw	a5,32(a0)
1229:arch/riscv/mach-gd32vf10x/bsp/gd32vf103_timer.c ****         /* reset the CH0MS bit */
 2685              		.loc 1 1229 39
 2686 012c 83560600 		lhu	a3,0(a2)
1232:arch/riscv/mach-gd32vf10x/bsp/gd32vf103_timer.c ****         /* reset the CH0CAPFLT bit */
 2687              		.loc 1 1232 39
 2688 0130 03572600 		lhu	a4,2(a2)
1225:arch/riscv/mach-gd32vf10x/bsp/gd32vf103_timer.c **** 
 2689              		.loc 1 1225 36
 2690 0134 F99B     		andi	a5,a5,-2
 2691 0136 1CD1     		sw	a5,32(a0)
1228:arch/riscv/mach-gd32vf10x/bsp/gd32vf103_timer.c ****         TIMER_CHCTL2(timer_periph) |= (uint32_t)(icpara->icpolarity);
 2692              		.loc 1 1228 9 is_stmt 1
1228:arch/riscv/mach-gd32vf10x/bsp/gd32vf103_timer.c ****         TIMER_CHCTL2(timer_periph) |= (uint32_t)(icpara->icpolarity);
 2693              		.loc 1 1228 36 is_stmt 0
 2694 0138 03280502 		lw	a6,32(a0)
1235:arch/riscv/mach-gd32vf10x/bsp/gd32vf103_timer.c **** 
 2695              		.loc 1 1235 50
 2696 013c 83576600 		lhu	a5,6(a2)
1303:arch/riscv/mach-gd32vf10x/bsp/gd32vf103_timer.c **** }
 2697              		.loc 1 1303 5
 2698 0140 03564600 		lhu	a2,4(a2)
 2699              	.LVL161:
1228:arch/riscv/mach-gd32vf10x/bsp/gd32vf103_timer.c ****         TIMER_CHCTL2(timer_periph) |= (uint32_t)(icpara->icpolarity);
 2700              		.loc 1 1228 36
 2701 0144 137858FF 		andi	a6,a6,-11
 2702 0148 23200503 		sw	a6,32(a0)
1229:arch/riscv/mach-gd32vf10x/bsp/gd32vf103_timer.c ****         /* reset the CH0MS bit */
 2703              		.loc 1 1229 9 is_stmt 1
1229:arch/riscv/mach-gd32vf10x/bsp/gd32vf103_timer.c ****         /* reset the CH0MS bit */
 2704              		.loc 1 1229 36 is_stmt 0
 2705 014c 03280502 		lw	a6,32(a0)
1235:arch/riscv/mach-gd32vf10x/bsp/gd32vf103_timer.c **** 
 2706              		.loc 1 1235 39
GAS LISTING C:\Users\test\AppData\Local\Temp\ccx0JFmY.s 			page 86


 2707 0150 9207     		slli	a5,a5,4
1229:arch/riscv/mach-gd32vf10x/bsp/gd32vf103_timer.c ****         /* reset the CH0MS bit */
 2708              		.loc 1 1229 36
 2709 0152 B3E60601 		or	a3,a3,a6
 2710 0156 14D1     		sw	a3,32(a0)
1231:arch/riscv/mach-gd32vf10x/bsp/gd32vf103_timer.c ****         TIMER_CHCTL0(timer_periph) |= (uint32_t)(icpara->icselection);
 2711              		.loc 1 1231 9 is_stmt 1
1231:arch/riscv/mach-gd32vf10x/bsp/gd32vf103_timer.c ****         TIMER_CHCTL0(timer_periph) |= (uint32_t)(icpara->icselection);
 2712              		.loc 1 1231 36 is_stmt 0
 2713 0158 144D     		lw	a3,24(a0)
 2714 015a F19A     		andi	a3,a3,-4
 2715 015c 14CD     		sw	a3,24(a0)
1232:arch/riscv/mach-gd32vf10x/bsp/gd32vf103_timer.c ****         /* reset the CH0CAPFLT bit */
 2716              		.loc 1 1232 9 is_stmt 1
1232:arch/riscv/mach-gd32vf10x/bsp/gd32vf103_timer.c ****         /* reset the CH0CAPFLT bit */
 2717              		.loc 1 1232 36 is_stmt 0
 2718 015e 144D     		lw	a3,24(a0)
 2719 0160 558F     		or	a4,a4,a3
 2720 0162 18CD     		sw	a4,24(a0)
1234:arch/riscv/mach-gd32vf10x/bsp/gd32vf103_timer.c ****         TIMER_CHCTL0(timer_periph) |= (uint32_t)((uint32_t)(icpara->icfilter) << 4U);
 2721              		.loc 1 1234 9 is_stmt 1
1234:arch/riscv/mach-gd32vf10x/bsp/gd32vf103_timer.c ****         TIMER_CHCTL0(timer_periph) |= (uint32_t)((uint32_t)(icpara->icfilter) << 4U);
 2722              		.loc 1 1234 36 is_stmt 0
 2723 0164 184D     		lw	a4,24(a0)
 2724 0166 1377F7F0 		andi	a4,a4,-241
 2725 016a 18CD     		sw	a4,24(a0)
1235:arch/riscv/mach-gd32vf10x/bsp/gd32vf103_timer.c **** 
 2726              		.loc 1 1235 9 is_stmt 1
1235:arch/riscv/mach-gd32vf10x/bsp/gd32vf103_timer.c **** 
 2727              		.loc 1 1235 36 is_stmt 0
 2728 016c 184D     		lw	a4,24(a0)
 2729 016e D98F     		or	a5,a5,a4
 2730 0170 1CCD     		sw	a5,24(a0)
1238:arch/riscv/mach-gd32vf10x/bsp/gd32vf103_timer.c ****         break;
 2731              		.loc 1 1238 9 is_stmt 1
1238:arch/riscv/mach-gd32vf10x/bsp/gd32vf103_timer.c ****         break;
 2732              		.loc 1 1238 36 is_stmt 0
 2733 0172 1C51     		lw	a5,32(a0)
 2734 0174 93E71700 		ori	a5,a5,1
 2735 0178 1CD1     		sw	a5,32(a0)
1239:arch/riscv/mach-gd32vf10x/bsp/gd32vf103_timer.c ****     
 2736              		.loc 1 1239 9 is_stmt 1
1303:arch/riscv/mach-gd32vf10x/bsp/gd32vf103_timer.c **** }
 2737              		.loc 1 1303 5
 2738 017a 17030000 		tail	timer_channel_input_capture_prescaler_config
 2738      67000300 
 2739              	.LVL162:
 2740              		.cfi_endproc
 2741              	.LFE48:
 2743              		.section	.text.timer_channel_capture_value_register_read,"ax",@progbits
 2744              		.align	1
 2745              		.globl	timer_channel_capture_value_register_read
 2747              	timer_channel_capture_value_register_read:
 2748              	.LFB50:
1351:arch/riscv/mach-gd32vf10x/bsp/gd32vf103_timer.c **** 
1352:arch/riscv/mach-gd32vf10x/bsp/gd32vf103_timer.c **** /*!
1353:arch/riscv/mach-gd32vf10x/bsp/gd32vf103_timer.c ****     \brief      read TIMER channel capture compare register value
GAS LISTING C:\Users\test\AppData\Local\Temp\ccx0JFmY.s 			page 87


1354:arch/riscv/mach-gd32vf10x/bsp/gd32vf103_timer.c ****     \param[in]  timer_periph: please refer to the following parameters
1355:arch/riscv/mach-gd32vf10x/bsp/gd32vf103_timer.c ****     \param[in]  channel:
1356:arch/riscv/mach-gd32vf10x/bsp/gd32vf103_timer.c ****                 only one parameter can be selected which is shown as below: 
1357:arch/riscv/mach-gd32vf10x/bsp/gd32vf103_timer.c ****       \arg        TIMER_CH_0: TIMER channel 0(TIMERx(x=0..4))
1358:arch/riscv/mach-gd32vf10x/bsp/gd32vf103_timer.c ****       \arg        TIMER_CH_1: TIMER channel 1(TIMERx(x=0..4))
1359:arch/riscv/mach-gd32vf10x/bsp/gd32vf103_timer.c ****       \arg        TIMER_CH_2: TIMER channel 2(TIMERx(x=0..4))
1360:arch/riscv/mach-gd32vf10x/bsp/gd32vf103_timer.c ****       \arg        TIMER_CH_3: TIMER channel 3(TIMERx(x=0..4))
1361:arch/riscv/mach-gd32vf10x/bsp/gd32vf103_timer.c ****     \param[out] none
1362:arch/riscv/mach-gd32vf10x/bsp/gd32vf103_timer.c ****     \retval     channel capture compare register value
1363:arch/riscv/mach-gd32vf10x/bsp/gd32vf103_timer.c **** */
1364:arch/riscv/mach-gd32vf10x/bsp/gd32vf103_timer.c **** uint32_t timer_channel_capture_value_register_read(uint32_t timer_periph, uint16_t channel)
1365:arch/riscv/mach-gd32vf10x/bsp/gd32vf103_timer.c **** {
 2749              		.loc 1 1365 1
 2750              		.cfi_startproc
 2751              	.LVL163:
1366:arch/riscv/mach-gd32vf10x/bsp/gd32vf103_timer.c ****     uint32_t count_value = 0U;
 2752              		.loc 1 1366 5
1367:arch/riscv/mach-gd32vf10x/bsp/gd32vf103_timer.c **** 
1368:arch/riscv/mach-gd32vf10x/bsp/gd32vf103_timer.c ****     switch(channel){
 2753              		.loc 1 1368 5
 2754 0000 8547     		li	a5,1
 2755 0002 638DF500 		beq	a1,a5,.L168
 2756 0006 99CD     		beq	a1,zero,.L169
 2757 0008 8947     		li	a5,2
 2758 000a 638BF500 		beq	a1,a5,.L170
 2759 000e 8D47     		li	a5,3
 2760 0010 6394F500 		bne	a1,a5,.L173
1369:arch/riscv/mach-gd32vf10x/bsp/gd32vf103_timer.c ****     case TIMER_CH_0:
1370:arch/riscv/mach-gd32vf10x/bsp/gd32vf103_timer.c ****         /* read TIMER channel 0 capture compare register value */
1371:arch/riscv/mach-gd32vf10x/bsp/gd32vf103_timer.c ****         count_value = TIMER_CH0CV(timer_periph);
1372:arch/riscv/mach-gd32vf10x/bsp/gd32vf103_timer.c ****         break;
1373:arch/riscv/mach-gd32vf10x/bsp/gd32vf103_timer.c ****     case TIMER_CH_1:
1374:arch/riscv/mach-gd32vf10x/bsp/gd32vf103_timer.c ****         /* read TIMER channel 1 capture compare register value */
1375:arch/riscv/mach-gd32vf10x/bsp/gd32vf103_timer.c ****         count_value = TIMER_CH1CV(timer_periph);
1376:arch/riscv/mach-gd32vf10x/bsp/gd32vf103_timer.c ****         break;
1377:arch/riscv/mach-gd32vf10x/bsp/gd32vf103_timer.c ****     case TIMER_CH_2:
1378:arch/riscv/mach-gd32vf10x/bsp/gd32vf103_timer.c ****         /* read TIMER channel 2 capture compare register value */
1379:arch/riscv/mach-gd32vf10x/bsp/gd32vf103_timer.c ****         count_value = TIMER_CH2CV(timer_periph);
1380:arch/riscv/mach-gd32vf10x/bsp/gd32vf103_timer.c ****         break;
1381:arch/riscv/mach-gd32vf10x/bsp/gd32vf103_timer.c ****     case TIMER_CH_3:
1382:arch/riscv/mach-gd32vf10x/bsp/gd32vf103_timer.c ****         /* read TIMER channel 3 capture compare register value */
1383:arch/riscv/mach-gd32vf10x/bsp/gd32vf103_timer.c ****         count_value = TIMER_CH3CV(timer_periph);
 2761              		.loc 1 1383 9
 2762              		.loc 1 1383 21 is_stmt 0
 2763 0014 2841     		lw	a0,64(a0)
 2764              	.LVL164:
1384:arch/riscv/mach-gd32vf10x/bsp/gd32vf103_timer.c ****         break;
 2765              		.loc 1 1384 9 is_stmt 1
1385:arch/riscv/mach-gd32vf10x/bsp/gd32vf103_timer.c ****     default:
1386:arch/riscv/mach-gd32vf10x/bsp/gd32vf103_timer.c ****         break;
1387:arch/riscv/mach-gd32vf10x/bsp/gd32vf103_timer.c ****     }
1388:arch/riscv/mach-gd32vf10x/bsp/gd32vf103_timer.c ****     return (count_value);
 2766              		.loc 1 1388 5
1389:arch/riscv/mach-gd32vf10x/bsp/gd32vf103_timer.c **** }
 2767              		.loc 1 1389 1 is_stmt 0
 2768 0016 8280     		ret
 2769              	.LVL165:
GAS LISTING C:\Users\test\AppData\Local\Temp\ccx0JFmY.s 			page 88


 2770              	.L173:
1366:arch/riscv/mach-gd32vf10x/bsp/gd32vf103_timer.c **** 
 2771              		.loc 1 1366 14
 2772 0018 0145     		li	a0,0
 2773              	.LVL166:
 2774 001a 8280     		ret
 2775              	.LVL167:
 2776              	.L168:
1375:arch/riscv/mach-gd32vf10x/bsp/gd32vf103_timer.c ****         break;
 2777              		.loc 1 1375 9 is_stmt 1
1375:arch/riscv/mach-gd32vf10x/bsp/gd32vf103_timer.c ****         break;
 2778              		.loc 1 1375 21 is_stmt 0
 2779 001c 085D     		lw	a0,56(a0)
 2780              	.LVL168:
1376:arch/riscv/mach-gd32vf10x/bsp/gd32vf103_timer.c ****     case TIMER_CH_2:
 2781              		.loc 1 1376 9 is_stmt 1
 2782 001e 8280     		ret
 2783              	.LVL169:
 2784              	.L170:
1379:arch/riscv/mach-gd32vf10x/bsp/gd32vf103_timer.c ****         break;
 2785              		.loc 1 1379 9
1379:arch/riscv/mach-gd32vf10x/bsp/gd32vf103_timer.c ****         break;
 2786              		.loc 1 1379 21 is_stmt 0
 2787 0020 485D     		lw	a0,60(a0)
 2788              	.LVL170:
1380:arch/riscv/mach-gd32vf10x/bsp/gd32vf103_timer.c ****     case TIMER_CH_3:
 2789              		.loc 1 1380 9 is_stmt 1
 2790 0022 8280     		ret
 2791              	.LVL171:
 2792              	.L169:
1371:arch/riscv/mach-gd32vf10x/bsp/gd32vf103_timer.c ****         break;
 2793              		.loc 1 1371 9
1371:arch/riscv/mach-gd32vf10x/bsp/gd32vf103_timer.c ****         break;
 2794              		.loc 1 1371 21 is_stmt 0
 2795 0024 4859     		lw	a0,52(a0)
 2796              	.LVL172:
1372:arch/riscv/mach-gd32vf10x/bsp/gd32vf103_timer.c ****     case TIMER_CH_1:
 2797              		.loc 1 1372 9 is_stmt 1
 2798 0026 8280     		ret
 2799              		.cfi_endproc
 2800              	.LFE50:
 2802              		.section	.text.timer_input_pwm_capture_config,"ax",@progbits
 2803              		.align	1
 2804              		.globl	timer_input_pwm_capture_config
 2806              	timer_input_pwm_capture_config:
 2807              	.LFB51:
1390:arch/riscv/mach-gd32vf10x/bsp/gd32vf103_timer.c **** 
1391:arch/riscv/mach-gd32vf10x/bsp/gd32vf103_timer.c **** /*!
1392:arch/riscv/mach-gd32vf10x/bsp/gd32vf103_timer.c ****     \brief      configure TIMER input pwm capture function 
1393:arch/riscv/mach-gd32vf10x/bsp/gd32vf103_timer.c ****     \param[in]  timer_periph: TIMERx(x=0..4)
1394:arch/riscv/mach-gd32vf10x/bsp/gd32vf103_timer.c ****     \param[in]  channel:
1395:arch/riscv/mach-gd32vf10x/bsp/gd32vf103_timer.c ****                 only one parameter can be selected which is shown as below: 
1396:arch/riscv/mach-gd32vf10x/bsp/gd32vf103_timer.c ****       \arg        TIMER_CH_0: TIMER channel 0
1397:arch/riscv/mach-gd32vf10x/bsp/gd32vf103_timer.c ****       \arg        TIMER_CH_1: TIMER channel 1
1398:arch/riscv/mach-gd32vf10x/bsp/gd32vf103_timer.c ****      \param[in] icpwm: TIMER channel intput pwm parameter struct
1399:arch/riscv/mach-gd32vf10x/bsp/gd32vf103_timer.c ****                   icpolarity: TIMER_IC_POLARITY_RISING, TIMER_IC_POLARITY_FALLING
1400:arch/riscv/mach-gd32vf10x/bsp/gd32vf103_timer.c ****                   icselection: TIMER_IC_SELECTION_DIRECTTI, TIMER_IC_SELECTION_INDIRECTTI
GAS LISTING C:\Users\test\AppData\Local\Temp\ccx0JFmY.s 			page 89


1401:arch/riscv/mach-gd32vf10x/bsp/gd32vf103_timer.c ****                   icprescaler: TIMER_IC_PSC_DIV1, TIMER_IC_PSC_DIV2, TIMER_IC_PSC_DIV4, 
1402:arch/riscv/mach-gd32vf10x/bsp/gd32vf103_timer.c ****                                TIMER_IC_PSC_DIV8
1403:arch/riscv/mach-gd32vf10x/bsp/gd32vf103_timer.c ****                   icfilter: 0~15
1404:arch/riscv/mach-gd32vf10x/bsp/gd32vf103_timer.c ****     \param[out] none
1405:arch/riscv/mach-gd32vf10x/bsp/gd32vf103_timer.c ****     \retval     none
1406:arch/riscv/mach-gd32vf10x/bsp/gd32vf103_timer.c **** */
1407:arch/riscv/mach-gd32vf10x/bsp/gd32vf103_timer.c **** void timer_input_pwm_capture_config(uint32_t timer_periph, uint16_t channel, timer_ic_parameter_str
1408:arch/riscv/mach-gd32vf10x/bsp/gd32vf103_timer.c **** {
 2808              		.loc 1 1408 1
 2809              		.cfi_startproc
 2810              	.LVL173:
1409:arch/riscv/mach-gd32vf10x/bsp/gd32vf103_timer.c ****     uint16_t icpolarity  = 0x0U;
 2811              		.loc 1 1409 5
1410:arch/riscv/mach-gd32vf10x/bsp/gd32vf103_timer.c ****     uint16_t icselection = 0x0U;
 2812              		.loc 1 1410 5
1411:arch/riscv/mach-gd32vf10x/bsp/gd32vf103_timer.c **** 
1412:arch/riscv/mach-gd32vf10x/bsp/gd32vf103_timer.c ****     /* Set channel input polarity */
1413:arch/riscv/mach-gd32vf10x/bsp/gd32vf103_timer.c ****     if(TIMER_IC_POLARITY_RISING == icpwm->icpolarity){
 2813              		.loc 1 1413 5
1414:arch/riscv/mach-gd32vf10x/bsp/gd32vf103_timer.c ****         icpolarity = TIMER_IC_POLARITY_FALLING;
1415:arch/riscv/mach-gd32vf10x/bsp/gd32vf103_timer.c ****     }else{
1416:arch/riscv/mach-gd32vf10x/bsp/gd32vf103_timer.c ****         icpolarity = TIMER_IC_POLARITY_RISING;
1417:arch/riscv/mach-gd32vf10x/bsp/gd32vf103_timer.c ****     }
1418:arch/riscv/mach-gd32vf10x/bsp/gd32vf103_timer.c ****     /* Set channel input mode selection */
1419:arch/riscv/mach-gd32vf10x/bsp/gd32vf103_timer.c ****     if(TIMER_IC_SELECTION_DIRECTTI == icpwm->icselection){
 2814              		.loc 1 1419 44 is_stmt 0
 2815 0000 03572600 		lhu	a4,2(a2)
1413:arch/riscv/mach-gd32vf10x/bsp/gd32vf103_timer.c ****         icpolarity = TIMER_IC_POLARITY_FALLING;
 2816              		.loc 1 1413 41
 2817 0004 83560600 		lhu	a3,0(a2)
1408:arch/riscv/mach-gd32vf10x/bsp/gd32vf103_timer.c ****     uint16_t icpolarity  = 0x0U;
 2818              		.loc 1 1408 1
 2819 0008 0111     		addi	sp,sp,-32
 2820              	.LCFI16:
 2821              		.cfi_def_cfa_offset 32
 2822 000a 03586600 		lhu	a6,6(a2)
 2823 000e 26CA     		sw	s1,20(sp)
 2824              		.cfi_offset 9, -12
 2825              		.loc 1 1419 7
 2826 0010 9304F7FF 		addi	s1,a4,-1
1408:arch/riscv/mach-gd32vf10x/bsp/gd32vf103_timer.c ****     uint16_t icpolarity  = 0x0U;
 2827              		.loc 1 1408 1
 2828 0014 22CC     		sw	s0,24(sp)
 2829 0016 4EC6     		sw	s3,12(sp)
 2830              		.loc 1 1419 7
 2831 0018 93B41400 		seqz	s1,s1
 2832              		.cfi_offset 8, -8
 2833              		.cfi_offset 19, -20
1413:arch/riscv/mach-gd32vf10x/bsp/gd32vf103_timer.c ****         icpolarity = TIMER_IC_POLARITY_FALLING;
 2834              		.loc 1 1413 7
 2835 001c 93B91600 		seqz	s3,a3
1408:arch/riscv/mach-gd32vf10x/bsp/gd32vf103_timer.c ****     uint16_t icpolarity  = 0x0U;
 2836              		.loc 1 1408 1
 2837 0020 06CE     		sw	ra,28(sp)
 2838 0022 4AC8     		sw	s2,16(sp)
 2839              		.cfi_offset 1, -4
 2840              		.cfi_offset 18, -16
GAS LISTING C:\Users\test\AppData\Local\Temp\ccx0JFmY.s 			page 90


1408:arch/riscv/mach-gd32vf10x/bsp/gd32vf103_timer.c ****     uint16_t icpolarity  = 0x0U;
 2841              		.loc 1 1408 1
 2842 0024 2A84     		mv	s0,a0
1413:arch/riscv/mach-gd32vf10x/bsp/gd32vf103_timer.c ****         icpolarity = TIMER_IC_POLARITY_FALLING;
 2843              		.loc 1 1413 7
 2844 0026 8609     		slli	s3,s3,1
 2845              	.LVL174:
 2846              		.loc 1 1419 5 is_stmt 1
 2847              		.loc 1 1419 7 is_stmt 0
 2848 0028 8504     		addi	s1,s1,1
 2849              	.LVL175:
1420:arch/riscv/mach-gd32vf10x/bsp/gd32vf103_timer.c ****         icselection = TIMER_IC_SELECTION_INDIRECTTI;
1421:arch/riscv/mach-gd32vf10x/bsp/gd32vf103_timer.c ****     }else{
1422:arch/riscv/mach-gd32vf10x/bsp/gd32vf103_timer.c ****         icselection = TIMER_IC_SELECTION_DIRECTTI;
1423:arch/riscv/mach-gd32vf10x/bsp/gd32vf103_timer.c ****     }
1424:arch/riscv/mach-gd32vf10x/bsp/gd32vf103_timer.c **** 
1425:arch/riscv/mach-gd32vf10x/bsp/gd32vf103_timer.c ****     if(TIMER_CH_0 == channel){
 2850              		.loc 1 1425 5 is_stmt 1
 2851 002a 1313C800 		slli	t1,a6,12
 2852 002e 83584600 		lhu	a7,4(a2)
 2853              		.loc 1 1425 7 is_stmt 0
 2854 0032 C5E5     		bne	a1,zero,.L177
1426:arch/riscv/mach-gd32vf10x/bsp/gd32vf103_timer.c ****         /* reset the CH0EN bit */
1427:arch/riscv/mach-gd32vf10x/bsp/gd32vf103_timer.c ****         TIMER_CHCTL2(timer_periph) &= (~(uint32_t)TIMER_CHCTL2_CH0EN);
 2855              		.loc 1 1427 9 is_stmt 1
 2856              		.loc 1 1427 36 is_stmt 0
 2857 0034 1051     		lw	a2,32(a0)
 2858              	.LVL176:
1428:arch/riscv/mach-gd32vf10x/bsp/gd32vf103_timer.c ****         /* reset the CH0P and CH0NP bits */
1429:arch/riscv/mach-gd32vf10x/bsp/gd32vf103_timer.c ****         TIMER_CHCTL2(timer_periph) &= (~(uint32_t)(TIMER_CHCTL2_CH0P | TIMER_CHCTL2_CH0NP));
1430:arch/riscv/mach-gd32vf10x/bsp/gd32vf103_timer.c ****         /* set the CH0P and CH0NP bits */
1431:arch/riscv/mach-gd32vf10x/bsp/gd32vf103_timer.c ****         TIMER_CHCTL2(timer_periph) |= (uint32_t)(icpwm->icpolarity);
1432:arch/riscv/mach-gd32vf10x/bsp/gd32vf103_timer.c ****         /* reset the CH0MS bit */
1433:arch/riscv/mach-gd32vf10x/bsp/gd32vf103_timer.c ****         TIMER_CHCTL0(timer_periph) &= (~(uint32_t)TIMER_CHCTL0_CH0MS);
1434:arch/riscv/mach-gd32vf10x/bsp/gd32vf103_timer.c ****         /* set the CH0MS bit */
1435:arch/riscv/mach-gd32vf10x/bsp/gd32vf103_timer.c ****         TIMER_CHCTL0(timer_periph) |= (uint32_t)(icpwm->icselection);
1436:arch/riscv/mach-gd32vf10x/bsp/gd32vf103_timer.c ****         /* reset the CH0CAPFLT bit */
1437:arch/riscv/mach-gd32vf10x/bsp/gd32vf103_timer.c ****         TIMER_CHCTL0(timer_periph) &= (~(uint32_t)TIMER_CHCTL0_CH0CAPFLT);
1438:arch/riscv/mach-gd32vf10x/bsp/gd32vf103_timer.c ****         /* set the CH0CAPFLT bit */
1439:arch/riscv/mach-gd32vf10x/bsp/gd32vf103_timer.c ****         TIMER_CHCTL0(timer_periph) |= ((uint32_t)(icpwm->icfilter) << 4U);
 2859              		.loc 1 1439 68
 2860 0036 1208     		slli	a6,a6,4
 2861              	.LBB18:
 2862              	.LBB19:
 2863 0038 C685     		mv	a1,a7
 2864              	.LVL177:
 2865              	.LBE19:
 2866              	.LBE18:
1427:arch/riscv/mach-gd32vf10x/bsp/gd32vf103_timer.c ****         /* reset the CH0P and CH0NP bits */
 2867              		.loc 1 1427 36
 2868 003a 799A     		andi	a2,a2,-2
 2869 003c 10D1     		sw	a2,32(a0)
1429:arch/riscv/mach-gd32vf10x/bsp/gd32vf103_timer.c ****         /* set the CH0P and CH0NP bits */
 2870              		.loc 1 1429 9 is_stmt 1
1429:arch/riscv/mach-gd32vf10x/bsp/gd32vf103_timer.c ****         /* set the CH0P and CH0NP bits */
 2871              		.loc 1 1429 36 is_stmt 0
 2872 003e 1051     		lw	a2,32(a0)
GAS LISTING C:\Users\test\AppData\Local\Temp\ccx0JFmY.s 			page 91


1440:arch/riscv/mach-gd32vf10x/bsp/gd32vf103_timer.c ****         /* set the CH0EN bit */
1441:arch/riscv/mach-gd32vf10x/bsp/gd32vf103_timer.c ****         TIMER_CHCTL2(timer_periph) |= (uint32_t)TIMER_CHCTL2_CH0EN;
1442:arch/riscv/mach-gd32vf10x/bsp/gd32vf103_timer.c ****         /* configure TIMER channel input capture prescaler value */
1443:arch/riscv/mach-gd32vf10x/bsp/gd32vf103_timer.c ****         timer_channel_input_capture_prescaler_config(timer_periph, TIMER_CH_0, (uint16_t)(icpwm->ic
1444:arch/riscv/mach-gd32vf10x/bsp/gd32vf103_timer.c **** 
1445:arch/riscv/mach-gd32vf10x/bsp/gd32vf103_timer.c ****         /* reset the CH1EN bit */
1446:arch/riscv/mach-gd32vf10x/bsp/gd32vf103_timer.c ****         TIMER_CHCTL2(timer_periph) &= (~(uint32_t)TIMER_CHCTL2_CH1EN);
1447:arch/riscv/mach-gd32vf10x/bsp/gd32vf103_timer.c ****         /* reset the CH1P and CH1NP bits */
1448:arch/riscv/mach-gd32vf10x/bsp/gd32vf103_timer.c ****         TIMER_CHCTL2(timer_periph) &= (~(uint32_t)(TIMER_CHCTL2_CH1P | TIMER_CHCTL2_CH1NP));
1449:arch/riscv/mach-gd32vf10x/bsp/gd32vf103_timer.c ****         /* set the CH1P and CH1NP bits */
1450:arch/riscv/mach-gd32vf10x/bsp/gd32vf103_timer.c ****         TIMER_CHCTL2(timer_periph) |= (uint32_t)((uint32_t)icpolarity<< 4U);
 2873              		.loc 1 1450 39
 2874 0040 9209     		slli	s3,s3,4
1451:arch/riscv/mach-gd32vf10x/bsp/gd32vf103_timer.c ****         /* reset the CH1MS bit */
1452:arch/riscv/mach-gd32vf10x/bsp/gd32vf103_timer.c ****         TIMER_CHCTL0(timer_periph) &= (~(uint32_t)TIMER_CHCTL0_CH1MS);
1453:arch/riscv/mach-gd32vf10x/bsp/gd32vf103_timer.c ****         /* set the CH1MS bit */
1454:arch/riscv/mach-gd32vf10x/bsp/gd32vf103_timer.c ****         TIMER_CHCTL0(timer_periph) |= (uint32_t)((uint32_t)icselection << 8U);
 2875              		.loc 1 1454 39
 2876 0042 A204     		slli	s1,s1,8
1429:arch/riscv/mach-gd32vf10x/bsp/gd32vf103_timer.c ****         /* set the CH0P and CH0NP bits */
 2877              		.loc 1 1429 36
 2878 0044 559A     		andi	a2,a2,-11
 2879 0046 10D1     		sw	a2,32(a0)
1431:arch/riscv/mach-gd32vf10x/bsp/gd32vf103_timer.c ****         /* reset the CH0MS bit */
 2880              		.loc 1 1431 9 is_stmt 1
1431:arch/riscv/mach-gd32vf10x/bsp/gd32vf103_timer.c ****         /* reset the CH0MS bit */
 2881              		.loc 1 1431 36 is_stmt 0
 2882 0048 1051     		lw	a2,32(a0)
 2883 004a D18E     		or	a3,a2,a3
 2884 004c 14D1     		sw	a3,32(a0)
1433:arch/riscv/mach-gd32vf10x/bsp/gd32vf103_timer.c ****         /* set the CH0MS bit */
 2885              		.loc 1 1433 9 is_stmt 1
1433:arch/riscv/mach-gd32vf10x/bsp/gd32vf103_timer.c ****         /* set the CH0MS bit */
 2886              		.loc 1 1433 36 is_stmt 0
 2887 004e 144D     		lw	a3,24(a0)
 2888 0050 F19A     		andi	a3,a3,-4
 2889 0052 14CD     		sw	a3,24(a0)
1435:arch/riscv/mach-gd32vf10x/bsp/gd32vf103_timer.c ****         /* reset the CH0CAPFLT bit */
 2890              		.loc 1 1435 9 is_stmt 1
1435:arch/riscv/mach-gd32vf10x/bsp/gd32vf103_timer.c ****         /* reset the CH0CAPFLT bit */
 2891              		.loc 1 1435 36 is_stmt 0
 2892 0054 144D     		lw	a3,24(a0)
 2893 0056 558F     		or	a4,a3,a4
 2894 0058 18CD     		sw	a4,24(a0)
1437:arch/riscv/mach-gd32vf10x/bsp/gd32vf103_timer.c ****         /* set the CH0CAPFLT bit */
 2895              		.loc 1 1437 9 is_stmt 1
1437:arch/riscv/mach-gd32vf10x/bsp/gd32vf103_timer.c ****         /* set the CH0CAPFLT bit */
 2896              		.loc 1 1437 36 is_stmt 0
 2897 005a 184D     		lw	a4,24(a0)
1455:arch/riscv/mach-gd32vf10x/bsp/gd32vf103_timer.c ****         /* reset the CH1CAPFLT bit */
1456:arch/riscv/mach-gd32vf10x/bsp/gd32vf103_timer.c ****         TIMER_CHCTL0(timer_periph) &= (~(uint32_t)TIMER_CHCTL0_CH1CAPFLT);
 2898              		.loc 1 1456 36
 2899 005c C576     		li	a3,-61440
 2900 005e FD16     		addi	a3,a3,-1
1437:arch/riscv/mach-gd32vf10x/bsp/gd32vf103_timer.c ****         /* set the CH0CAPFLT bit */
 2901              		.loc 1 1437 36
 2902 0060 1377F7F0 		andi	a4,a4,-241
GAS LISTING C:\Users\test\AppData\Local\Temp\ccx0JFmY.s 			page 92


 2903 0064 18CD     		sw	a4,24(a0)
1439:arch/riscv/mach-gd32vf10x/bsp/gd32vf103_timer.c ****         /* set the CH0EN bit */
 2904              		.loc 1 1439 9 is_stmt 1
1439:arch/riscv/mach-gd32vf10x/bsp/gd32vf103_timer.c ****         /* set the CH0EN bit */
 2905              		.loc 1 1439 36 is_stmt 0
 2906 0066 184D     		lw	a4,24(a0)
 2907 0068 3368E800 		or	a6,a6,a4
 2908 006c 232C0501 		sw	a6,24(a0)
1441:arch/riscv/mach-gd32vf10x/bsp/gd32vf103_timer.c ****         /* configure TIMER channel input capture prescaler value */
 2909              		.loc 1 1441 9 is_stmt 1
1441:arch/riscv/mach-gd32vf10x/bsp/gd32vf103_timer.c ****         /* configure TIMER channel input capture prescaler value */
 2910              		.loc 1 1441 36 is_stmt 0
 2911 0070 1851     		lw	a4,32(a0)
 2912 0072 13671700 		ori	a4,a4,1
 2913 0076 18D1     		sw	a4,32(a0)
1443:arch/riscv/mach-gd32vf10x/bsp/gd32vf103_timer.c **** 
 2914              		.loc 1 1443 9 is_stmt 1
 2915              	.LVL178:
 2916              	.LBB22:
 2917              	.LBB23:
1326:arch/riscv/mach-gd32vf10x/bsp/gd32vf103_timer.c ****     /* configure TIMER_CH_0 */
 2918              		.loc 1 1326 5
1329:arch/riscv/mach-gd32vf10x/bsp/gd32vf103_timer.c ****         TIMER_CHCTL0(timer_periph) |= (uint32_t)prescaler;
 2919              		.loc 1 1329 9
1329:arch/riscv/mach-gd32vf10x/bsp/gd32vf103_timer.c ****         TIMER_CHCTL0(timer_periph) |= (uint32_t)prescaler;
 2920              		.loc 1 1329 36 is_stmt 0
 2921 0078 184D     		lw	a4,24(a0)
 2922 007a 4D9B     		andi	a4,a4,-13
 2923 007c 18CD     		sw	a4,24(a0)
1330:arch/riscv/mach-gd32vf10x/bsp/gd32vf103_timer.c ****         break;
 2924              		.loc 1 1330 9 is_stmt 1
1330:arch/riscv/mach-gd32vf10x/bsp/gd32vf103_timer.c ****         break;
 2925              		.loc 1 1330 36 is_stmt 0
 2926 007e 184D     		lw	a4,24(a0)
 2927 0080 B3E8E800 		or	a7,a7,a4
 2928 0084 232C1501 		sw	a7,24(a0)
1331:arch/riscv/mach-gd32vf10x/bsp/gd32vf103_timer.c ****     /* configure TIMER_CH_1 */
 2929              		.loc 1 1331 9 is_stmt 1
 2930              	.LVL179:
 2931              	.LBE23:
 2932              	.LBE22:
1446:arch/riscv/mach-gd32vf10x/bsp/gd32vf103_timer.c ****         /* reset the CH1P and CH1NP bits */
 2933              		.loc 1 1446 9
1446:arch/riscv/mach-gd32vf10x/bsp/gd32vf103_timer.c ****         /* reset the CH1P and CH1NP bits */
 2934              		.loc 1 1446 36 is_stmt 0
 2935 0088 1851     		lw	a4,32(a0)
 2936 008a 3D9B     		andi	a4,a4,-17
 2937 008c 18D1     		sw	a4,32(a0)
1448:arch/riscv/mach-gd32vf10x/bsp/gd32vf103_timer.c ****         /* set the CH1P and CH1NP bits */
 2938              		.loc 1 1448 9 is_stmt 1
1448:arch/riscv/mach-gd32vf10x/bsp/gd32vf103_timer.c ****         /* set the CH1P and CH1NP bits */
 2939              		.loc 1 1448 36 is_stmt 0
 2940 008e 1851     		lw	a4,32(a0)
 2941 0090 1377F7F5 		andi	a4,a4,-161
 2942 0094 18D1     		sw	a4,32(a0)
1450:arch/riscv/mach-gd32vf10x/bsp/gd32vf103_timer.c ****         /* reset the CH1MS bit */
 2943              		.loc 1 1450 9 is_stmt 1
GAS LISTING C:\Users\test\AppData\Local\Temp\ccx0JFmY.s 			page 93


1450:arch/riscv/mach-gd32vf10x/bsp/gd32vf103_timer.c ****         /* reset the CH1MS bit */
 2944              		.loc 1 1450 36 is_stmt 0
 2945 0096 1851     		lw	a4,32(a0)
 2946 0098 B3E9E900 		or	s3,s3,a4
 2947 009c 23203503 		sw	s3,32(a0)
1452:arch/riscv/mach-gd32vf10x/bsp/gd32vf103_timer.c ****         /* set the CH1MS bit */
 2948              		.loc 1 1452 9 is_stmt 1
1452:arch/riscv/mach-gd32vf10x/bsp/gd32vf103_timer.c ****         /* set the CH1MS bit */
 2949              		.loc 1 1452 36 is_stmt 0
 2950 00a0 184D     		lw	a4,24(a0)
 2951 00a2 1377F7CF 		andi	a4,a4,-769
 2952 00a6 18CD     		sw	a4,24(a0)
1454:arch/riscv/mach-gd32vf10x/bsp/gd32vf103_timer.c ****         /* reset the CH1CAPFLT bit */
 2953              		.loc 1 1454 9 is_stmt 1
1454:arch/riscv/mach-gd32vf10x/bsp/gd32vf103_timer.c ****         /* reset the CH1CAPFLT bit */
 2954              		.loc 1 1454 36 is_stmt 0
 2955 00a8 184D     		lw	a4,24(a0)
 2956 00aa D98C     		or	s1,s1,a4
 2957 00ac 04CD     		sw	s1,24(a0)
 2958              		.loc 1 1456 9 is_stmt 1
 2959              		.loc 1 1456 36 is_stmt 0
 2960 00ae 184D     		lw	a4,24(a0)
 2961 00b0 758F     		and	a4,a4,a3
 2962 00b2 18CD     		sw	a4,24(a0)
1457:arch/riscv/mach-gd32vf10x/bsp/gd32vf103_timer.c ****         /* set the CH1CAPFLT bit */
1458:arch/riscv/mach-gd32vf10x/bsp/gd32vf103_timer.c ****         TIMER_CHCTL0(timer_periph) |= (uint32_t)((uint32_t)(icpwm->icfilter) << 12U);
 2963              		.loc 1 1458 9 is_stmt 1
 2964              		.loc 1 1458 36 is_stmt 0
 2965 00b4 184D     		lw	a4,24(a0)
1459:arch/riscv/mach-gd32vf10x/bsp/gd32vf103_timer.c ****         /* set the CH1EN bit */
1460:arch/riscv/mach-gd32vf10x/bsp/gd32vf103_timer.c ****         TIMER_CHCTL2(timer_periph) |= (uint32_t)TIMER_CHCTL2_CH1EN;
1461:arch/riscv/mach-gd32vf10x/bsp/gd32vf103_timer.c ****         /* configure TIMER channel input capture prescaler value */
1462:arch/riscv/mach-gd32vf10x/bsp/gd32vf103_timer.c ****         timer_channel_input_capture_prescaler_config(timer_periph, TIMER_CH_1, (uint16_t)(icpwm->ic
1463:arch/riscv/mach-gd32vf10x/bsp/gd32vf103_timer.c ****     }else{
1464:arch/riscv/mach-gd32vf10x/bsp/gd32vf103_timer.c ****         /* reset the CH1EN bit */
1465:arch/riscv/mach-gd32vf10x/bsp/gd32vf103_timer.c ****         TIMER_CHCTL2(timer_periph) &= (~(uint32_t)TIMER_CHCTL2_CH1EN);
1466:arch/riscv/mach-gd32vf10x/bsp/gd32vf103_timer.c ****         /* reset the CH1P and CH1NP bits */
1467:arch/riscv/mach-gd32vf10x/bsp/gd32vf103_timer.c ****         TIMER_CHCTL2(timer_periph) &= (~(uint32_t)(TIMER_CHCTL2_CH1P | TIMER_CHCTL2_CH1NP));
1468:arch/riscv/mach-gd32vf10x/bsp/gd32vf103_timer.c ****         /* set the CH1P and CH1NP bits */
1469:arch/riscv/mach-gd32vf10x/bsp/gd32vf103_timer.c ****         TIMER_CHCTL2(timer_periph) |= (uint32_t)((uint32_t)(icpwm->icpolarity) << 4U);
1470:arch/riscv/mach-gd32vf10x/bsp/gd32vf103_timer.c ****         /* reset the CH1MS bit */
1471:arch/riscv/mach-gd32vf10x/bsp/gd32vf103_timer.c ****         TIMER_CHCTL0(timer_periph) &= (~(uint32_t)TIMER_CHCTL0_CH1MS);
1472:arch/riscv/mach-gd32vf10x/bsp/gd32vf103_timer.c ****         /* set the CH1MS bit */
1473:arch/riscv/mach-gd32vf10x/bsp/gd32vf103_timer.c ****         TIMER_CHCTL0(timer_periph) |= (uint32_t)((uint32_t)(icpwm->icselection) << 8U);
1474:arch/riscv/mach-gd32vf10x/bsp/gd32vf103_timer.c ****         /* reset the CH1CAPFLT bit */
1475:arch/riscv/mach-gd32vf10x/bsp/gd32vf103_timer.c ****         TIMER_CHCTL0(timer_periph) &= (~(uint32_t)TIMER_CHCTL0_CH1CAPFLT);
1476:arch/riscv/mach-gd32vf10x/bsp/gd32vf103_timer.c ****         /* set the CH1CAPFLT bit */
1477:arch/riscv/mach-gd32vf10x/bsp/gd32vf103_timer.c ****         TIMER_CHCTL0(timer_periph) |= (uint32_t)((uint32_t)(icpwm->icfilter) << 12U);
1478:arch/riscv/mach-gd32vf10x/bsp/gd32vf103_timer.c ****         /* set the CH1EN bit */
1479:arch/riscv/mach-gd32vf10x/bsp/gd32vf103_timer.c ****         TIMER_CHCTL2(timer_periph) |= (uint32_t)TIMER_CHCTL2_CH1EN;
1480:arch/riscv/mach-gd32vf10x/bsp/gd32vf103_timer.c ****         /* configure TIMER channel input capture prescaler value */
1481:arch/riscv/mach-gd32vf10x/bsp/gd32vf103_timer.c ****         timer_channel_input_capture_prescaler_config(timer_periph, TIMER_CH_1, (uint16_t)(icpwm->ic
1482:arch/riscv/mach-gd32vf10x/bsp/gd32vf103_timer.c **** 
1483:arch/riscv/mach-gd32vf10x/bsp/gd32vf103_timer.c ****         /* reset the CH0EN bit */
1484:arch/riscv/mach-gd32vf10x/bsp/gd32vf103_timer.c ****         TIMER_CHCTL2(timer_periph) &= (~(uint32_t)TIMER_CHCTL2_CH0EN);
1485:arch/riscv/mach-gd32vf10x/bsp/gd32vf103_timer.c ****         /* reset the CH0P and CH0NP bits */
1486:arch/riscv/mach-gd32vf10x/bsp/gd32vf103_timer.c ****         TIMER_CHCTL2(timer_periph) &= (~(uint32_t)(TIMER_CHCTL2_CH0P | TIMER_CHCTL2_CH0NP));
GAS LISTING C:\Users\test\AppData\Local\Temp\ccx0JFmY.s 			page 94


1487:arch/riscv/mach-gd32vf10x/bsp/gd32vf103_timer.c ****         /* set the CH0P and CH0NP bits */
1488:arch/riscv/mach-gd32vf10x/bsp/gd32vf103_timer.c ****         TIMER_CHCTL2(timer_periph) |= (uint32_t)icpolarity;
1489:arch/riscv/mach-gd32vf10x/bsp/gd32vf103_timer.c ****         /* reset the CH0MS bit */
1490:arch/riscv/mach-gd32vf10x/bsp/gd32vf103_timer.c ****         TIMER_CHCTL0(timer_periph) &= (~(uint32_t)TIMER_CHCTL0_CH0MS);
1491:arch/riscv/mach-gd32vf10x/bsp/gd32vf103_timer.c ****         /* set the CH0MS bit */
1492:arch/riscv/mach-gd32vf10x/bsp/gd32vf103_timer.c ****         TIMER_CHCTL0(timer_periph) |= (uint32_t)icselection;
1493:arch/riscv/mach-gd32vf10x/bsp/gd32vf103_timer.c ****         /* reset the CH0CAPFLT bit */
1494:arch/riscv/mach-gd32vf10x/bsp/gd32vf103_timer.c ****         TIMER_CHCTL0(timer_periph) &= (~(uint32_t)TIMER_CHCTL0_CH0CAPFLT);
1495:arch/riscv/mach-gd32vf10x/bsp/gd32vf103_timer.c ****         /* set the CH0CAPFLT bit */
1496:arch/riscv/mach-gd32vf10x/bsp/gd32vf103_timer.c ****         TIMER_CHCTL0(timer_periph) |= ((uint32_t)(icpwm->icfilter) << 4U);
1497:arch/riscv/mach-gd32vf10x/bsp/gd32vf103_timer.c ****         /* set the CH0EN bit */
1498:arch/riscv/mach-gd32vf10x/bsp/gd32vf103_timer.c ****         TIMER_CHCTL2(timer_periph) |= (uint32_t)TIMER_CHCTL2_CH0EN;
1499:arch/riscv/mach-gd32vf10x/bsp/gd32vf103_timer.c ****         /* configure TIMER channel input capture prescaler value */
1500:arch/riscv/mach-gd32vf10x/bsp/gd32vf103_timer.c ****         timer_channel_input_capture_prescaler_config(timer_periph, TIMER_CH_0, (uint16_t)(icpwm->ic
1501:arch/riscv/mach-gd32vf10x/bsp/gd32vf103_timer.c ****     }
1502:arch/riscv/mach-gd32vf10x/bsp/gd32vf103_timer.c **** }
 2966              		.loc 1 1502 1
 2967 00b6 6244     		lw	s0,24(sp)
 2968              		.cfi_remember_state
 2969              		.cfi_restore 8
 2970 00b8 F240     		lw	ra,28(sp)
 2971              		.cfi_restore 1
1458:arch/riscv/mach-gd32vf10x/bsp/gd32vf103_timer.c ****         /* set the CH1EN bit */
 2972              		.loc 1 1458 36
 2973 00ba 33636700 		or	t1,a4,t1
 2974 00be 232C6500 		sw	t1,24(a0)
1460:arch/riscv/mach-gd32vf10x/bsp/gd32vf103_timer.c ****         /* configure TIMER channel input capture prescaler value */
 2975              		.loc 1 1460 9 is_stmt 1
1460:arch/riscv/mach-gd32vf10x/bsp/gd32vf103_timer.c ****         /* configure TIMER channel input capture prescaler value */
 2976              		.loc 1 1460 36 is_stmt 0
 2977 00c2 1851     		lw	a4,32(a0)
 2978              		.loc 1 1502 1
 2979 00c4 D244     		lw	s1,20(sp)
 2980              		.cfi_restore 9
 2981 00c6 4249     		lw	s2,16(sp)
 2982              		.cfi_restore 18
 2983 00c8 B249     		lw	s3,12(sp)
 2984              		.cfi_restore 19
1460:arch/riscv/mach-gd32vf10x/bsp/gd32vf103_timer.c ****         /* configure TIMER channel input capture prescaler value */
 2985              		.loc 1 1460 36
 2986 00ca 13670701 		ori	a4,a4,16
 2987 00ce 18D1     		sw	a4,32(a0)
1462:arch/riscv/mach-gd32vf10x/bsp/gd32vf103_timer.c ****     }else{
 2988              		.loc 1 1462 9 is_stmt 1
 2989              	.LVL180:
 2990              	.LBB24:
 2991              	.LBB20:
1326:arch/riscv/mach-gd32vf10x/bsp/gd32vf103_timer.c ****     /* configure TIMER_CH_0 */
 2992              		.loc 1 1326 5
 2993              	.LBE20:
 2994              	.LBE24:
 2995              		.loc 1 1502 1 is_stmt 0
 2996 00d0 0561     		addi	sp,sp,32
 2997              	.LCFI17:
 2998              		.cfi_def_cfa_offset 0
 2999              	.LBB25:
 3000              	.LBB21:
GAS LISTING C:\Users\test\AppData\Local\Temp\ccx0JFmY.s 			page 95


 3001 00d2 17030000 		tail	timer_channel_input_capture_prescaler_config.part.0
 3001      67000300 
 3002              	.LVL181:
 3003              	.L177:
 3004              	.LCFI18:
 3005              		.cfi_restore_state
 3006              	.LBE21:
 3007              	.LBE25:
1465:arch/riscv/mach-gd32vf10x/bsp/gd32vf103_timer.c ****         /* reset the CH1P and CH1NP bits */
 3008              		.loc 1 1465 36
 3009 00da 1C51     		lw	a5,32(a0)
1469:arch/riscv/mach-gd32vf10x/bsp/gd32vf103_timer.c ****         /* reset the CH1MS bit */
 3010              		.loc 1 1469 39
 3011 00dc 9206     		slli	a3,a3,4
1473:arch/riscv/mach-gd32vf10x/bsp/gd32vf103_timer.c ****         /* reset the CH1CAPFLT bit */
 3012              		.loc 1 1473 39
 3013 00de 2207     		slli	a4,a4,8
1465:arch/riscv/mach-gd32vf10x/bsp/gd32vf103_timer.c ****         /* reset the CH1P and CH1NP bits */
 3014              		.loc 1 1465 36
 3015 00e0 BD9B     		andi	a5,a5,-17
 3016 00e2 1CD1     		sw	a5,32(a0)
1467:arch/riscv/mach-gd32vf10x/bsp/gd32vf103_timer.c ****         /* set the CH1P and CH1NP bits */
 3017              		.loc 1 1467 36
 3018 00e4 1C51     		lw	a5,32(a0)
 3019              	.LBB26:
 3020              	.LBB27:
 3021 00e6 C685     		mv	a1,a7
 3022              	.LVL182:
 3023 00e8 3289     		mv	s2,a2
 3024              	.LBE27:
 3025              	.LBE26:
1465:arch/riscv/mach-gd32vf10x/bsp/gd32vf103_timer.c ****         /* reset the CH1P and CH1NP bits */
 3026              		.loc 1 1465 9 is_stmt 1
1467:arch/riscv/mach-gd32vf10x/bsp/gd32vf103_timer.c ****         /* set the CH1P and CH1NP bits */
 3027              		.loc 1 1467 9
1467:arch/riscv/mach-gd32vf10x/bsp/gd32vf103_timer.c ****         /* set the CH1P and CH1NP bits */
 3028              		.loc 1 1467 36 is_stmt 0
 3029 00ea 93F7F7F5 		andi	a5,a5,-161
 3030 00ee 1CD1     		sw	a5,32(a0)
1469:arch/riscv/mach-gd32vf10x/bsp/gd32vf103_timer.c ****         /* reset the CH1MS bit */
 3031              		.loc 1 1469 9 is_stmt 1
1469:arch/riscv/mach-gd32vf10x/bsp/gd32vf103_timer.c ****         /* reset the CH1MS bit */
 3032              		.loc 1 1469 36 is_stmt 0
 3033 00f0 1C51     		lw	a5,32(a0)
 3034 00f2 DD8E     		or	a3,a3,a5
 3035 00f4 14D1     		sw	a3,32(a0)
1471:arch/riscv/mach-gd32vf10x/bsp/gd32vf103_timer.c ****         /* set the CH1MS bit */
 3036              		.loc 1 1471 9 is_stmt 1
1471:arch/riscv/mach-gd32vf10x/bsp/gd32vf103_timer.c ****         /* set the CH1MS bit */
 3037              		.loc 1 1471 36 is_stmt 0
 3038 00f6 1C4D     		lw	a5,24(a0)
 3039 00f8 93F7F7CF 		andi	a5,a5,-769
 3040 00fc 1CCD     		sw	a5,24(a0)
1473:arch/riscv/mach-gd32vf10x/bsp/gd32vf103_timer.c ****         /* reset the CH1CAPFLT bit */
 3041              		.loc 1 1473 9 is_stmt 1
1473:arch/riscv/mach-gd32vf10x/bsp/gd32vf103_timer.c ****         /* reset the CH1CAPFLT bit */
 3042              		.loc 1 1473 36 is_stmt 0
GAS LISTING C:\Users\test\AppData\Local\Temp\ccx0JFmY.s 			page 96


 3043 00fe 1C4D     		lw	a5,24(a0)
 3044 0100 5D8F     		or	a4,a4,a5
 3045 0102 18CD     		sw	a4,24(a0)
1475:arch/riscv/mach-gd32vf10x/bsp/gd32vf103_timer.c ****         /* set the CH1CAPFLT bit */
 3046              		.loc 1 1475 9 is_stmt 1
1475:arch/riscv/mach-gd32vf10x/bsp/gd32vf103_timer.c ****         /* set the CH1CAPFLT bit */
 3047              		.loc 1 1475 36 is_stmt 0
 3048 0104 1C4D     		lw	a5,24(a0)
 3049 0106 4577     		li	a4,-61440
 3050 0108 7D17     		addi	a4,a4,-1
 3051 010a F98F     		and	a5,a5,a4
 3052 010c 1CCD     		sw	a5,24(a0)
1477:arch/riscv/mach-gd32vf10x/bsp/gd32vf103_timer.c ****         /* set the CH1EN bit */
 3053              		.loc 1 1477 9 is_stmt 1
1477:arch/riscv/mach-gd32vf10x/bsp/gd32vf103_timer.c ****         /* set the CH1EN bit */
 3054              		.loc 1 1477 36 is_stmt 0
 3055 010e 1C4D     		lw	a5,24(a0)
 3056 0110 B3E76700 		or	a5,a5,t1
 3057 0114 1CCD     		sw	a5,24(a0)
1479:arch/riscv/mach-gd32vf10x/bsp/gd32vf103_timer.c ****         /* configure TIMER channel input capture prescaler value */
 3058              		.loc 1 1479 9 is_stmt 1
1479:arch/riscv/mach-gd32vf10x/bsp/gd32vf103_timer.c ****         /* configure TIMER channel input capture prescaler value */
 3059              		.loc 1 1479 36 is_stmt 0
 3060 0116 1C51     		lw	a5,32(a0)
 3061 0118 93E70701 		ori	a5,a5,16
 3062 011c 1CD1     		sw	a5,32(a0)
1481:arch/riscv/mach-gd32vf10x/bsp/gd32vf103_timer.c **** 
 3063              		.loc 1 1481 9 is_stmt 1
 3064              	.LVL183:
 3065              	.LBB29:
 3066              	.LBB28:
1326:arch/riscv/mach-gd32vf10x/bsp/gd32vf103_timer.c ****     /* configure TIMER_CH_0 */
 3067              		.loc 1 1326 5
 3068 011e 97000000 		call	timer_channel_input_capture_prescaler_config.part.0
 3068      E7800000 
 3069              	.LVL184:
 3070              	.LBE28:
 3071              	.LBE29:
1484:arch/riscv/mach-gd32vf10x/bsp/gd32vf103_timer.c ****         /* reset the CH0P and CH0NP bits */
 3072              		.loc 1 1484 9
1484:arch/riscv/mach-gd32vf10x/bsp/gd32vf103_timer.c ****         /* reset the CH0P and CH0NP bits */
 3073              		.loc 1 1484 36 is_stmt 0
 3074 0126 1450     		lw	a3,32(s0)
1496:arch/riscv/mach-gd32vf10x/bsp/gd32vf103_timer.c ****         /* set the CH0EN bit */
 3075              		.loc 1 1496 40
 3076 0128 83576900 		lhu	a5,6(s2)
1500:arch/riscv/mach-gd32vf10x/bsp/gd32vf103_timer.c ****     }
 3077              		.loc 1 1500 96
 3078 012c 03574900 		lhu	a4,4(s2)
1484:arch/riscv/mach-gd32vf10x/bsp/gd32vf103_timer.c ****         /* reset the CH0P and CH0NP bits */
 3079              		.loc 1 1484 36
 3080 0130 F99A     		andi	a3,a3,-2
 3081 0132 14D0     		sw	a3,32(s0)
1486:arch/riscv/mach-gd32vf10x/bsp/gd32vf103_timer.c ****         /* set the CH0P and CH0NP bits */
 3082              		.loc 1 1486 9 is_stmt 1
1486:arch/riscv/mach-gd32vf10x/bsp/gd32vf103_timer.c ****         /* set the CH0P and CH0NP bits */
 3083              		.loc 1 1486 36 is_stmt 0
GAS LISTING C:\Users\test\AppData\Local\Temp\ccx0JFmY.s 			page 97


 3084 0134 1450     		lw	a3,32(s0)
1496:arch/riscv/mach-gd32vf10x/bsp/gd32vf103_timer.c ****         /* set the CH0EN bit */
 3085              		.loc 1 1496 68
 3086 0136 9207     		slli	a5,a5,4
 3087              		.loc 1 1502 1
 3088 0138 F240     		lw	ra,28(sp)
 3089              		.cfi_restore 1
1486:arch/riscv/mach-gd32vf10x/bsp/gd32vf103_timer.c ****         /* set the CH0P and CH0NP bits */
 3090              		.loc 1 1486 36
 3091 013a D59A     		andi	a3,a3,-11
 3092 013c 14D0     		sw	a3,32(s0)
1488:arch/riscv/mach-gd32vf10x/bsp/gd32vf103_timer.c ****         /* reset the CH0MS bit */
 3093              		.loc 1 1488 9 is_stmt 1
1488:arch/riscv/mach-gd32vf10x/bsp/gd32vf103_timer.c ****         /* reset the CH0MS bit */
 3094              		.loc 1 1488 36 is_stmt 0
 3095 013e 1450     		lw	a3,32(s0)
 3096              		.loc 1 1502 1
 3097 0140 4249     		lw	s2,16(sp)
 3098              		.cfi_restore 18
 3099              	.LVL185:
1488:arch/riscv/mach-gd32vf10x/bsp/gd32vf103_timer.c ****         /* reset the CH0MS bit */
 3100              		.loc 1 1488 36
 3101 0142 B3E93601 		or	s3,a3,s3
 3102 0146 23203403 		sw	s3,32(s0)
1490:arch/riscv/mach-gd32vf10x/bsp/gd32vf103_timer.c ****         /* set the CH0MS bit */
 3103              		.loc 1 1490 9 is_stmt 1
1490:arch/riscv/mach-gd32vf10x/bsp/gd32vf103_timer.c ****         /* set the CH0MS bit */
 3104              		.loc 1 1490 36 is_stmt 0
 3105 014a 144C     		lw	a3,24(s0)
 3106              		.loc 1 1502 1
 3107 014c B249     		lw	s3,12(sp)
 3108              		.cfi_restore 19
1490:arch/riscv/mach-gd32vf10x/bsp/gd32vf103_timer.c ****         /* set the CH0MS bit */
 3109              		.loc 1 1490 36
 3110 014e F19A     		andi	a3,a3,-4
 3111 0150 14CC     		sw	a3,24(s0)
1492:arch/riscv/mach-gd32vf10x/bsp/gd32vf103_timer.c ****         /* reset the CH0CAPFLT bit */
 3112              		.loc 1 1492 9 is_stmt 1
1492:arch/riscv/mach-gd32vf10x/bsp/gd32vf103_timer.c ****         /* reset the CH0CAPFLT bit */
 3113              		.loc 1 1492 36 is_stmt 0
 3114 0152 144C     		lw	a3,24(s0)
 3115 0154 D58C     		or	s1,a3,s1
 3116 0156 04CC     		sw	s1,24(s0)
1494:arch/riscv/mach-gd32vf10x/bsp/gd32vf103_timer.c ****         /* set the CH0CAPFLT bit */
 3117              		.loc 1 1494 9 is_stmt 1
1494:arch/riscv/mach-gd32vf10x/bsp/gd32vf103_timer.c ****         /* set the CH0CAPFLT bit */
 3118              		.loc 1 1494 36 is_stmt 0
 3119 0158 144C     		lw	a3,24(s0)
 3120              		.loc 1 1502 1
 3121 015a D244     		lw	s1,20(sp)
 3122              		.cfi_restore 9
1494:arch/riscv/mach-gd32vf10x/bsp/gd32vf103_timer.c ****         /* set the CH0CAPFLT bit */
 3123              		.loc 1 1494 36
 3124 015c 93F6F6F0 		andi	a3,a3,-241
 3125 0160 14CC     		sw	a3,24(s0)
1496:arch/riscv/mach-gd32vf10x/bsp/gd32vf103_timer.c ****         /* set the CH0EN bit */
 3126              		.loc 1 1496 9 is_stmt 1
GAS LISTING C:\Users\test\AppData\Local\Temp\ccx0JFmY.s 			page 98


1496:arch/riscv/mach-gd32vf10x/bsp/gd32vf103_timer.c ****         /* set the CH0EN bit */
 3127              		.loc 1 1496 36 is_stmt 0
 3128 0162 144C     		lw	a3,24(s0)
 3129 0164 D58F     		or	a5,a5,a3
 3130 0166 1CCC     		sw	a5,24(s0)
1498:arch/riscv/mach-gd32vf10x/bsp/gd32vf103_timer.c ****         /* configure TIMER channel input capture prescaler value */
 3131              		.loc 1 1498 9 is_stmt 1
1498:arch/riscv/mach-gd32vf10x/bsp/gd32vf103_timer.c ****         /* configure TIMER channel input capture prescaler value */
 3132              		.loc 1 1498 36 is_stmt 0
 3133 0168 1C50     		lw	a5,32(s0)
 3134 016a 93E71700 		ori	a5,a5,1
 3135 016e 1CD0     		sw	a5,32(s0)
1500:arch/riscv/mach-gd32vf10x/bsp/gd32vf103_timer.c ****     }
 3136              		.loc 1 1500 9 is_stmt 1
 3137              	.LVL186:
 3138              	.LBB30:
 3139              	.LBB31:
1326:arch/riscv/mach-gd32vf10x/bsp/gd32vf103_timer.c ****     /* configure TIMER_CH_0 */
 3140              		.loc 1 1326 5
1329:arch/riscv/mach-gd32vf10x/bsp/gd32vf103_timer.c ****         TIMER_CHCTL0(timer_periph) |= (uint32_t)prescaler;
 3141              		.loc 1 1329 9
1329:arch/riscv/mach-gd32vf10x/bsp/gd32vf103_timer.c ****         TIMER_CHCTL0(timer_periph) |= (uint32_t)prescaler;
 3142              		.loc 1 1329 36 is_stmt 0
 3143 0170 1C4C     		lw	a5,24(s0)
 3144 0172 CD9B     		andi	a5,a5,-13
 3145 0174 1CCC     		sw	a5,24(s0)
1330:arch/riscv/mach-gd32vf10x/bsp/gd32vf103_timer.c ****         break;
 3146              		.loc 1 1330 9 is_stmt 1
1330:arch/riscv/mach-gd32vf10x/bsp/gd32vf103_timer.c ****         break;
 3147              		.loc 1 1330 36 is_stmt 0
 3148 0176 1C4C     		lw	a5,24(s0)
 3149 0178 D98F     		or	a5,a4,a5
 3150 017a 1CCC     		sw	a5,24(s0)
1331:arch/riscv/mach-gd32vf10x/bsp/gd32vf103_timer.c ****     /* configure TIMER_CH_1 */
 3151              		.loc 1 1331 9 is_stmt 1
 3152              	.LBE31:
 3153              	.LBE30:
 3154              		.loc 1 1502 1 is_stmt 0
 3155 017c 6244     		lw	s0,24(sp)
 3156              		.cfi_restore 8
 3157              	.LVL187:
 3158 017e 0561     		addi	sp,sp,32
 3159              	.LCFI19:
 3160              		.cfi_def_cfa_offset 0
 3161 0180 8280     		jr	ra
 3162              		.cfi_endproc
 3163              	.LFE51:
 3165              		.section	.text.timer_hall_mode_config,"ax",@progbits
 3166              		.align	1
 3167              		.globl	timer_hall_mode_config
 3169              	timer_hall_mode_config:
 3170              	.LFB52:
1503:arch/riscv/mach-gd32vf10x/bsp/gd32vf103_timer.c **** 
1504:arch/riscv/mach-gd32vf10x/bsp/gd32vf103_timer.c **** /*!
1505:arch/riscv/mach-gd32vf10x/bsp/gd32vf103_timer.c ****     \brief      configure TIMER hall sensor mode
1506:arch/riscv/mach-gd32vf10x/bsp/gd32vf103_timer.c ****     \param[in]  timer_periph: TIMERx(x=0..4)
1507:arch/riscv/mach-gd32vf10x/bsp/gd32vf103_timer.c ****     \param[in]  hallmode:
GAS LISTING C:\Users\test\AppData\Local\Temp\ccx0JFmY.s 			page 99


1508:arch/riscv/mach-gd32vf10x/bsp/gd32vf103_timer.c ****                 only one parameter can be selected which is shown as below: 
1509:arch/riscv/mach-gd32vf10x/bsp/gd32vf103_timer.c ****       \arg        TIMER_HALLINTERFACE_ENABLE: TIMER hall sensor mode enable
1510:arch/riscv/mach-gd32vf10x/bsp/gd32vf103_timer.c ****       \arg        TIMER_HALLINTERFACE_DISABLE: TIMER hall sensor mode disable
1511:arch/riscv/mach-gd32vf10x/bsp/gd32vf103_timer.c ****     \param[out] none
1512:arch/riscv/mach-gd32vf10x/bsp/gd32vf103_timer.c ****     \retval     none
1513:arch/riscv/mach-gd32vf10x/bsp/gd32vf103_timer.c **** */
1514:arch/riscv/mach-gd32vf10x/bsp/gd32vf103_timer.c **** void timer_hall_mode_config(uint32_t timer_periph, uint32_t hallmode)    
1515:arch/riscv/mach-gd32vf10x/bsp/gd32vf103_timer.c **** {
 3171              		.loc 1 1515 1 is_stmt 1
 3172              		.cfi_startproc
 3173              	.LVL188:
1516:arch/riscv/mach-gd32vf10x/bsp/gd32vf103_timer.c ****     if(TIMER_HALLINTERFACE_ENABLE == hallmode){
 3174              		.loc 1 1516 5
 3175              		.loc 1 1516 7 is_stmt 0
 3176 0000 93070008 		li	a5,128
 3177 0004 6388F500 		beq	a1,a5,.L184
1517:arch/riscv/mach-gd32vf10x/bsp/gd32vf103_timer.c ****         TIMER_CTL1(timer_periph) |= (uint32_t)TIMER_CTL1_TI0S;
1518:arch/riscv/mach-gd32vf10x/bsp/gd32vf103_timer.c ****     }else if(TIMER_HALLINTERFACE_DISABLE == hallmode){
 3178              		.loc 1 1518 11 is_stmt 1
 3179              		.loc 1 1518 13 is_stmt 0
 3180 0008 89E5     		bne	a1,zero,.L181
1519:arch/riscv/mach-gd32vf10x/bsp/gd32vf103_timer.c ****         TIMER_CTL1(timer_periph) &= ~(uint32_t)TIMER_CTL1_TI0S;
 3181              		.loc 1 1519 9 is_stmt 1
 3182              		.loc 1 1519 34 is_stmt 0
 3183 000a 5C41     		lw	a5,4(a0)
 3184 000c 93F7F7F7 		andi	a5,a5,-129
 3185 0010 5CC1     		sw	a5,4(a0)
1520:arch/riscv/mach-gd32vf10x/bsp/gd32vf103_timer.c ****     }else{
1521:arch/riscv/mach-gd32vf10x/bsp/gd32vf103_timer.c ****         /* illegal parameters */        
1522:arch/riscv/mach-gd32vf10x/bsp/gd32vf103_timer.c ****     }
 3186              		.loc 1 1522 5 is_stmt 1
 3187              	.L181:
1523:arch/riscv/mach-gd32vf10x/bsp/gd32vf103_timer.c **** }
 3188              		.loc 1 1523 1 is_stmt 0
 3189 0012 8280     		ret
 3190              	.L184:
1517:arch/riscv/mach-gd32vf10x/bsp/gd32vf103_timer.c ****     }else if(TIMER_HALLINTERFACE_DISABLE == hallmode){
 3191              		.loc 1 1517 9 is_stmt 1
1517:arch/riscv/mach-gd32vf10x/bsp/gd32vf103_timer.c ****     }else if(TIMER_HALLINTERFACE_DISABLE == hallmode){
 3192              		.loc 1 1517 34 is_stmt 0
 3193 0014 5C41     		lw	a5,4(a0)
 3194 0016 93E70708 		ori	a5,a5,128
 3195 001a 5CC1     		sw	a5,4(a0)
 3196 001c 8280     		ret
 3197              		.cfi_endproc
 3198              	.LFE52:
 3200              		.section	.text.timer_input_trigger_source_select,"ax",@progbits
 3201              		.align	1
 3202              		.globl	timer_input_trigger_source_select
 3204              	timer_input_trigger_source_select:
 3205              	.LFB53:
1524:arch/riscv/mach-gd32vf10x/bsp/gd32vf103_timer.c **** 
1525:arch/riscv/mach-gd32vf10x/bsp/gd32vf103_timer.c **** /*!
1526:arch/riscv/mach-gd32vf10x/bsp/gd32vf103_timer.c ****     \brief      select TIMER input trigger source 
1527:arch/riscv/mach-gd32vf10x/bsp/gd32vf103_timer.c ****     \param[in]  timer_periph: TIMERx(x=0..4)
1528:arch/riscv/mach-gd32vf10x/bsp/gd32vf103_timer.c ****     \param[in]  intrigger:
1529:arch/riscv/mach-gd32vf10x/bsp/gd32vf103_timer.c ****                 only one parameter can be selected which is shown as below: 
GAS LISTING C:\Users\test\AppData\Local\Temp\ccx0JFmY.s 			page 100


1530:arch/riscv/mach-gd32vf10x/bsp/gd32vf103_timer.c ****       \arg        TIMER_SMCFG_TRGSEL_ITI0: internal trigger 0(TIMERx(x=0..4))
1531:arch/riscv/mach-gd32vf10x/bsp/gd32vf103_timer.c ****       \arg        TIMER_SMCFG_TRGSEL_ITI1: internal trigger 1(TIMERx(x=0..4))
1532:arch/riscv/mach-gd32vf10x/bsp/gd32vf103_timer.c ****       \arg        TIMER_SMCFG_TRGSEL_ITI2: internal trigger 2(TIMERx(x=0..4))
1533:arch/riscv/mach-gd32vf10x/bsp/gd32vf103_timer.c ****       \arg        TIMER_SMCFG_TRGSEL_ITI3: internal trigger 3(TIMERx(x=0..4))
1534:arch/riscv/mach-gd32vf10x/bsp/gd32vf103_timer.c ****       \arg        TIMER_SMCFG_TRGSEL_CI0F_ED: TI0 edge detector(TIMERx(x=0..4))
1535:arch/riscv/mach-gd32vf10x/bsp/gd32vf103_timer.c ****       \arg        TIMER_SMCFG_TRGSEL_CI0FE0: filtered TIMER input 0(TIMERx(x=0..4))
1536:arch/riscv/mach-gd32vf10x/bsp/gd32vf103_timer.c ****       \arg        TIMER_SMCFG_TRGSEL_CI1FE1: filtered TIMER input 1(TIMERx(x=0..4))
1537:arch/riscv/mach-gd32vf10x/bsp/gd32vf103_timer.c ****       \arg        TIMER_SMCFG_TRGSEL_ETIFP: filtered external trigger input(TIMERx(x=0..4))
1538:arch/riscv/mach-gd32vf10x/bsp/gd32vf103_timer.c ****     \param[out] none
1539:arch/riscv/mach-gd32vf10x/bsp/gd32vf103_timer.c ****     \retval     none
1540:arch/riscv/mach-gd32vf10x/bsp/gd32vf103_timer.c **** */
1541:arch/riscv/mach-gd32vf10x/bsp/gd32vf103_timer.c **** void timer_input_trigger_source_select(uint32_t timer_periph, uint32_t intrigger)
1542:arch/riscv/mach-gd32vf10x/bsp/gd32vf103_timer.c **** {
 3206              		.loc 1 1542 1 is_stmt 1
 3207              		.cfi_startproc
 3208              	.LVL189:
1543:arch/riscv/mach-gd32vf10x/bsp/gd32vf103_timer.c ****     TIMER_SMCFG(timer_periph) &= (~(uint32_t)TIMER_SMCFG_TRGS);
 3209              		.loc 1 1543 5
 3210              		.loc 1 1543 31 is_stmt 0
 3211 0000 1C45     		lw	a5,8(a0)
 3212 0002 93F7F7F8 		andi	a5,a5,-113
 3213 0006 1CC5     		sw	a5,8(a0)
1544:arch/riscv/mach-gd32vf10x/bsp/gd32vf103_timer.c ****     TIMER_SMCFG(timer_periph) |= (uint32_t)intrigger;
 3214              		.loc 1 1544 5 is_stmt 1
 3215              		.loc 1 1544 31 is_stmt 0
 3216 0008 1C45     		lw	a5,8(a0)
 3217 000a DD8D     		or	a1,a5,a1
 3218              	.LVL190:
 3219 000c 0CC5     		sw	a1,8(a0)
1545:arch/riscv/mach-gd32vf10x/bsp/gd32vf103_timer.c **** }
 3220              		.loc 1 1545 1
 3221 000e 8280     		ret
 3222              		.cfi_endproc
 3223              	.LFE53:
 3225              		.section	.text.timer_master_output_trigger_source_select,"ax",@progbits
 3226              		.align	1
 3227              		.globl	timer_master_output_trigger_source_select
 3229              	timer_master_output_trigger_source_select:
 3230              	.LFB54:
1546:arch/riscv/mach-gd32vf10x/bsp/gd32vf103_timer.c **** 
1547:arch/riscv/mach-gd32vf10x/bsp/gd32vf103_timer.c **** /*!
1548:arch/riscv/mach-gd32vf10x/bsp/gd32vf103_timer.c ****     \brief      select TIMER master mode output trigger source 
1549:arch/riscv/mach-gd32vf10x/bsp/gd32vf103_timer.c ****     \param[in]  timer_periph: TIMERx(x=0..6)
1550:arch/riscv/mach-gd32vf10x/bsp/gd32vf103_timer.c ****     \param[in]  outrigger:
1551:arch/riscv/mach-gd32vf10x/bsp/gd32vf103_timer.c ****                 only one parameter can be selected which is shown as below: 
1552:arch/riscv/mach-gd32vf10x/bsp/gd32vf103_timer.c ****       \arg        TIMER_TRI_OUT_SRC_RESET: the UPG bit as trigger output(TIMERx(x=0..6))
1553:arch/riscv/mach-gd32vf10x/bsp/gd32vf103_timer.c ****       \arg        TIMER_TRI_OUT_SRC_ENABLE: the counter enable signal TIMER_CTL0_CEN as trigger out
1554:arch/riscv/mach-gd32vf10x/bsp/gd32vf103_timer.c ****       \arg        TIMER_TRI_OUT_SRC_UPDATE: update event as trigger output(TIMERx(x=0..6))
1555:arch/riscv/mach-gd32vf10x/bsp/gd32vf103_timer.c ****       \arg        TIMER_TRI_OUT_SRC_CH0: a capture or a compare match occurred in channel 0 as trig
1556:arch/riscv/mach-gd32vf10x/bsp/gd32vf103_timer.c ****       \arg        TIMER_TRI_OUT_SRC_O0CPRE: O0CPRE as trigger output(TIMERx(x=0..4))
1557:arch/riscv/mach-gd32vf10x/bsp/gd32vf103_timer.c ****       \arg        TIMER_TRI_OUT_SRC_O1CPRE: O1CPRE as trigger output(TIMERx(x=0..4))
1558:arch/riscv/mach-gd32vf10x/bsp/gd32vf103_timer.c ****       \arg        TIMER_TRI_OUT_SRC_O2CPRE: O2CPRE as trigger output(TIMERx(x=0..4))
1559:arch/riscv/mach-gd32vf10x/bsp/gd32vf103_timer.c ****       \arg        TIMER_TRI_OUT_SRC_O3CPRE: O3CPRE as trigger output(TIMERx(x=0..4))
1560:arch/riscv/mach-gd32vf10x/bsp/gd32vf103_timer.c ****     \param[out] none
1561:arch/riscv/mach-gd32vf10x/bsp/gd32vf103_timer.c ****     \retval     none
1562:arch/riscv/mach-gd32vf10x/bsp/gd32vf103_timer.c **** */
1563:arch/riscv/mach-gd32vf10x/bsp/gd32vf103_timer.c **** void timer_master_output_trigger_source_select(uint32_t timer_periph, uint32_t outrigger)
GAS LISTING C:\Users\test\AppData\Local\Temp\ccx0JFmY.s 			page 101


1564:arch/riscv/mach-gd32vf10x/bsp/gd32vf103_timer.c **** {
 3231              		.loc 1 1564 1 is_stmt 1
 3232              		.cfi_startproc
 3233              	.LVL191:
1565:arch/riscv/mach-gd32vf10x/bsp/gd32vf103_timer.c ****     TIMER_CTL1(timer_periph) &= (~(uint32_t)TIMER_CTL1_MMC);
 3234              		.loc 1 1565 5
 3235              		.loc 1 1565 30 is_stmt 0
 3236 0000 5C41     		lw	a5,4(a0)
 3237 0002 93F7F7F8 		andi	a5,a5,-113
 3238 0006 5CC1     		sw	a5,4(a0)
1566:arch/riscv/mach-gd32vf10x/bsp/gd32vf103_timer.c ****     TIMER_CTL1(timer_periph) |= (uint32_t)outrigger;
 3239              		.loc 1 1566 5 is_stmt 1
 3240              		.loc 1 1566 30 is_stmt 0
 3241 0008 5C41     		lw	a5,4(a0)
 3242 000a DD8D     		or	a1,a5,a1
 3243              	.LVL192:
 3244 000c 4CC1     		sw	a1,4(a0)
1567:arch/riscv/mach-gd32vf10x/bsp/gd32vf103_timer.c **** }
 3245              		.loc 1 1567 1
 3246 000e 8280     		ret
 3247              		.cfi_endproc
 3248              	.LFE54:
 3250              		.section	.text.timer_slave_mode_select,"ax",@progbits
 3251              		.align	1
 3252              		.globl	timer_slave_mode_select
 3254              	timer_slave_mode_select:
 3255              	.LFB55:
1568:arch/riscv/mach-gd32vf10x/bsp/gd32vf103_timer.c **** 
1569:arch/riscv/mach-gd32vf10x/bsp/gd32vf103_timer.c **** /*!
1570:arch/riscv/mach-gd32vf10x/bsp/gd32vf103_timer.c ****     \brief      select TIMER slave mode 
1571:arch/riscv/mach-gd32vf10x/bsp/gd32vf103_timer.c ****     \param[in]  timer_periph: TIMERx(x=0..4)
1572:arch/riscv/mach-gd32vf10x/bsp/gd32vf103_timer.c ****     \param[in]  slavemode:
1573:arch/riscv/mach-gd32vf10x/bsp/gd32vf103_timer.c ****                 only one parameter can be selected which is shown as below: 
1574:arch/riscv/mach-gd32vf10x/bsp/gd32vf103_timer.c ****       \arg        TIMER_SLAVE_MODE_DISABLE: slave mode disable
1575:arch/riscv/mach-gd32vf10x/bsp/gd32vf103_timer.c ****       \arg        TIMER_ENCODER_MODE0: encoder mode 0
1576:arch/riscv/mach-gd32vf10x/bsp/gd32vf103_timer.c ****       \arg        TIMER_ENCODER_MODE1: encoder mode 1
1577:arch/riscv/mach-gd32vf10x/bsp/gd32vf103_timer.c ****       \arg        TIMER_ENCODER_MODE2: encoder mode 2
1578:arch/riscv/mach-gd32vf10x/bsp/gd32vf103_timer.c ****       \arg        TIMER_SLAVE_MODE_RESTART: restart mode
1579:arch/riscv/mach-gd32vf10x/bsp/gd32vf103_timer.c ****       \arg        TIMER_SLAVE_MODE_PAUSE: pause mode
1580:arch/riscv/mach-gd32vf10x/bsp/gd32vf103_timer.c ****       \arg        TIMER_SLAVE_MODE_EVENT: event mode
1581:arch/riscv/mach-gd32vf10x/bsp/gd32vf103_timer.c ****       \arg        TIMER_SLAVE_MODE_EXTERNAL0: external clock mode 0
1582:arch/riscv/mach-gd32vf10x/bsp/gd32vf103_timer.c ****     \param[out] none
1583:arch/riscv/mach-gd32vf10x/bsp/gd32vf103_timer.c ****     \retval     none
1584:arch/riscv/mach-gd32vf10x/bsp/gd32vf103_timer.c **** */
1585:arch/riscv/mach-gd32vf10x/bsp/gd32vf103_timer.c **** 
1586:arch/riscv/mach-gd32vf10x/bsp/gd32vf103_timer.c **** void timer_slave_mode_select(uint32_t timer_periph, uint32_t slavemode)
1587:arch/riscv/mach-gd32vf10x/bsp/gd32vf103_timer.c **** {
 3256              		.loc 1 1587 1 is_stmt 1
 3257              		.cfi_startproc
 3258              	.LVL193:
1588:arch/riscv/mach-gd32vf10x/bsp/gd32vf103_timer.c ****     TIMER_SMCFG(timer_periph) &= (~(uint32_t)TIMER_SMCFG_SMC);
 3259              		.loc 1 1588 5
 3260              		.loc 1 1588 31 is_stmt 0
 3261 0000 1C45     		lw	a5,8(a0)
 3262 0002 E19B     		andi	a5,a5,-8
 3263 0004 1CC5     		sw	a5,8(a0)
1589:arch/riscv/mach-gd32vf10x/bsp/gd32vf103_timer.c ****     TIMER_SMCFG(timer_periph) |= (uint32_t)slavemode;
GAS LISTING C:\Users\test\AppData\Local\Temp\ccx0JFmY.s 			page 102


 3264              		.loc 1 1589 5 is_stmt 1
 3265              		.loc 1 1589 31 is_stmt 0
 3266 0006 1C45     		lw	a5,8(a0)
 3267 0008 DD8D     		or	a1,a5,a1
 3268              	.LVL194:
 3269 000a 0CC5     		sw	a1,8(a0)
1590:arch/riscv/mach-gd32vf10x/bsp/gd32vf103_timer.c **** }
 3270              		.loc 1 1590 1
 3271 000c 8280     		ret
 3272              		.cfi_endproc
 3273              	.LFE55:
 3275              		.section	.text.timer_master_slave_mode_config,"ax",@progbits
 3276              		.align	1
 3277              		.globl	timer_master_slave_mode_config
 3279              	timer_master_slave_mode_config:
 3280              	.LFB56:
1591:arch/riscv/mach-gd32vf10x/bsp/gd32vf103_timer.c **** 
1592:arch/riscv/mach-gd32vf10x/bsp/gd32vf103_timer.c **** /*!
1593:arch/riscv/mach-gd32vf10x/bsp/gd32vf103_timer.c ****     \brief      configure TIMER master slave mode 
1594:arch/riscv/mach-gd32vf10x/bsp/gd32vf103_timer.c ****     \param[in]  timer_periph: TIMERx(x=0..4)
1595:arch/riscv/mach-gd32vf10x/bsp/gd32vf103_timer.c ****     \param[in]  masterslave:
1596:arch/riscv/mach-gd32vf10x/bsp/gd32vf103_timer.c ****                 only one parameter can be selected which is shown as below: 
1597:arch/riscv/mach-gd32vf10x/bsp/gd32vf103_timer.c ****       \arg        TIMER_MASTER_SLAVE_MODE_ENABLE: master slave mode enable
1598:arch/riscv/mach-gd32vf10x/bsp/gd32vf103_timer.c ****       \arg        TIMER_MASTER_SLAVE_MODE_DISABLE: master slave mode disable
1599:arch/riscv/mach-gd32vf10x/bsp/gd32vf103_timer.c ****     \param[out] none
1600:arch/riscv/mach-gd32vf10x/bsp/gd32vf103_timer.c ****     \retval     none
1601:arch/riscv/mach-gd32vf10x/bsp/gd32vf103_timer.c **** */ 
1602:arch/riscv/mach-gd32vf10x/bsp/gd32vf103_timer.c **** void timer_master_slave_mode_config(uint32_t timer_periph, uint32_t masterslave)
1603:arch/riscv/mach-gd32vf10x/bsp/gd32vf103_timer.c **** {
 3281              		.loc 1 1603 1 is_stmt 1
 3282              		.cfi_startproc
 3283              	.LVL195:
1604:arch/riscv/mach-gd32vf10x/bsp/gd32vf103_timer.c ****     if(TIMER_MASTER_SLAVE_MODE_ENABLE == masterslave){
 3284              		.loc 1 1604 5
 3285              		.loc 1 1604 7 is_stmt 0
 3286 0000 93070008 		li	a5,128
 3287 0004 6388F500 		beq	a1,a5,.L191
1605:arch/riscv/mach-gd32vf10x/bsp/gd32vf103_timer.c ****         TIMER_SMCFG(timer_periph) |= (uint32_t)TIMER_SMCFG_MSM;
1606:arch/riscv/mach-gd32vf10x/bsp/gd32vf103_timer.c ****     }else if(TIMER_MASTER_SLAVE_MODE_DISABLE == masterslave){
 3288              		.loc 1 1606 11 is_stmt 1
 3289              		.loc 1 1606 13 is_stmt 0
 3290 0008 89E5     		bne	a1,zero,.L188
1607:arch/riscv/mach-gd32vf10x/bsp/gd32vf103_timer.c ****         TIMER_SMCFG(timer_periph) &= ~(uint32_t)TIMER_SMCFG_MSM;
 3291              		.loc 1 1607 9 is_stmt 1
 3292              		.loc 1 1607 35 is_stmt 0
 3293 000a 1C45     		lw	a5,8(a0)
 3294 000c 93F7F7F7 		andi	a5,a5,-129
 3295 0010 1CC5     		sw	a5,8(a0)
1608:arch/riscv/mach-gd32vf10x/bsp/gd32vf103_timer.c ****     }else{
1609:arch/riscv/mach-gd32vf10x/bsp/gd32vf103_timer.c ****         /* illegal parameters */        
1610:arch/riscv/mach-gd32vf10x/bsp/gd32vf103_timer.c ****     }
 3296              		.loc 1 1610 5 is_stmt 1
 3297              	.L188:
1611:arch/riscv/mach-gd32vf10x/bsp/gd32vf103_timer.c **** }
 3298              		.loc 1 1611 1 is_stmt 0
 3299 0012 8280     		ret
 3300              	.L191:
GAS LISTING C:\Users\test\AppData\Local\Temp\ccx0JFmY.s 			page 103


1605:arch/riscv/mach-gd32vf10x/bsp/gd32vf103_timer.c ****     }else if(TIMER_MASTER_SLAVE_MODE_DISABLE == masterslave){
 3301              		.loc 1 1605 9 is_stmt 1
1605:arch/riscv/mach-gd32vf10x/bsp/gd32vf103_timer.c ****     }else if(TIMER_MASTER_SLAVE_MODE_DISABLE == masterslave){
 3302              		.loc 1 1605 35 is_stmt 0
 3303 0014 1C45     		lw	a5,8(a0)
 3304 0016 93E70708 		ori	a5,a5,128
 3305 001a 1CC5     		sw	a5,8(a0)
 3306 001c 8280     		ret
 3307              		.cfi_endproc
 3308              	.LFE56:
 3310              		.section	.text.timer_external_trigger_config,"ax",@progbits
 3311              		.align	1
 3312              		.globl	timer_external_trigger_config
 3314              	timer_external_trigger_config:
 3315              	.LFB57:
1612:arch/riscv/mach-gd32vf10x/bsp/gd32vf103_timer.c **** 
1613:arch/riscv/mach-gd32vf10x/bsp/gd32vf103_timer.c **** /*!
1614:arch/riscv/mach-gd32vf10x/bsp/gd32vf103_timer.c ****     \brief      configure TIMER external trigger input
1615:arch/riscv/mach-gd32vf10x/bsp/gd32vf103_timer.c ****     \param[in]  timer_periph: TIMERx(x=0..4)
1616:arch/riscv/mach-gd32vf10x/bsp/gd32vf103_timer.c ****     \param[in]  extprescaler:
1617:arch/riscv/mach-gd32vf10x/bsp/gd32vf103_timer.c ****                 only one parameter can be selected which is shown as below: 
1618:arch/riscv/mach-gd32vf10x/bsp/gd32vf103_timer.c ****       \arg        TIMER_EXT_TRI_PSC_OFF: no divided
1619:arch/riscv/mach-gd32vf10x/bsp/gd32vf103_timer.c ****       \arg        TIMER_EXT_TRI_PSC_DIV2: divided by 2
1620:arch/riscv/mach-gd32vf10x/bsp/gd32vf103_timer.c ****       \arg        TIMER_EXT_TRI_PSC_DIV4: divided by 4
1621:arch/riscv/mach-gd32vf10x/bsp/gd32vf103_timer.c ****       \arg        TIMER_EXT_TRI_PSC_DIV8: divided by 8
1622:arch/riscv/mach-gd32vf10x/bsp/gd32vf103_timer.c ****     \param[in]  extpolarity:
1623:arch/riscv/mach-gd32vf10x/bsp/gd32vf103_timer.c ****                 only one parameter can be selected which is shown as below: 
1624:arch/riscv/mach-gd32vf10x/bsp/gd32vf103_timer.c ****       \arg        TIMER_ETP_FALLING: active low or falling edge active
1625:arch/riscv/mach-gd32vf10x/bsp/gd32vf103_timer.c ****       \arg        TIMER_ETP_RISING: active high or rising edge active
1626:arch/riscv/mach-gd32vf10x/bsp/gd32vf103_timer.c ****     \param[in]  extfilter: a value between 0 and 15
1627:arch/riscv/mach-gd32vf10x/bsp/gd32vf103_timer.c ****     \param[out] none
1628:arch/riscv/mach-gd32vf10x/bsp/gd32vf103_timer.c ****     \retval     none
1629:arch/riscv/mach-gd32vf10x/bsp/gd32vf103_timer.c **** */
1630:arch/riscv/mach-gd32vf10x/bsp/gd32vf103_timer.c **** void timer_external_trigger_config(uint32_t timer_periph, uint32_t extprescaler, uint32_t extpolari
1631:arch/riscv/mach-gd32vf10x/bsp/gd32vf103_timer.c **** {
 3316              		.loc 1 1631 1 is_stmt 1
 3317              		.cfi_startproc
 3318              	.LVL196:
1632:arch/riscv/mach-gd32vf10x/bsp/gd32vf103_timer.c ****     TIMER_SMCFG(timer_periph) &= (~(uint32_t)(TIMER_SMCFG_ETP | TIMER_SMCFG_ETPSC | TIMER_SMCFG_ETF
 3319              		.loc 1 1632 5
 3320              		.loc 1 1632 31 is_stmt 0
 3321 0000 1C45     		lw	a5,8(a0)
 3322 0002 5177     		li	a4,-49152
 3323 0004 1307F70F 		addi	a4,a4,255
 3324 0008 F98F     		and	a5,a5,a4
 3325 000a 1CC5     		sw	a5,8(a0)
1633:arch/riscv/mach-gd32vf10x/bsp/gd32vf103_timer.c ****     TIMER_SMCFG(timer_periph) |= (uint32_t)(extprescaler | extpolarity);
 3326              		.loc 1 1633 5 is_stmt 1
 3327              		.loc 1 1633 31 is_stmt 0
 3328 000c 1C45     		lw	a5,8(a0)
 3329              		.loc 1 1633 58
 3330 000e 4D8E     		or	a2,a1,a2
 3331              	.LVL197:
1634:arch/riscv/mach-gd32vf10x/bsp/gd32vf103_timer.c ****     TIMER_SMCFG(timer_periph) |= (uint32_t)(extfilter << 8U);
 3332              		.loc 1 1634 55
 3333 0010 A206     		slli	a3,a3,8
 3334              	.LVL198:
GAS LISTING C:\Users\test\AppData\Local\Temp\ccx0JFmY.s 			page 104


1633:arch/riscv/mach-gd32vf10x/bsp/gd32vf103_timer.c ****     TIMER_SMCFG(timer_periph) |= (uint32_t)(extprescaler | extpolarity);
 3335              		.loc 1 1633 31
 3336 0012 5D8E     		or	a2,a2,a5
 3337 0014 10C5     		sw	a2,8(a0)
 3338              		.loc 1 1634 5 is_stmt 1
 3339              		.loc 1 1634 31 is_stmt 0
 3340 0016 1C45     		lw	a5,8(a0)
 3341 0018 DD8E     		or	a3,a3,a5
 3342 001a 14C5     		sw	a3,8(a0)
1635:arch/riscv/mach-gd32vf10x/bsp/gd32vf103_timer.c **** }
 3343              		.loc 1 1635 1
 3344 001c 8280     		ret
 3345              		.cfi_endproc
 3346              	.LFE57:
 3348              		.section	.text.timer_quadrature_decoder_mode_config,"ax",@progbits
 3349              		.align	1
 3350              		.globl	timer_quadrature_decoder_mode_config
 3352              	timer_quadrature_decoder_mode_config:
 3353              	.LFB58:
1636:arch/riscv/mach-gd32vf10x/bsp/gd32vf103_timer.c **** 
1637:arch/riscv/mach-gd32vf10x/bsp/gd32vf103_timer.c **** /*!
1638:arch/riscv/mach-gd32vf10x/bsp/gd32vf103_timer.c ****     \brief      configure TIMER quadrature decoder mode
1639:arch/riscv/mach-gd32vf10x/bsp/gd32vf103_timer.c ****     \param[in]  timer_periph: TIMERx(x=0..4)
1640:arch/riscv/mach-gd32vf10x/bsp/gd32vf103_timer.c ****     \param[in]  decomode:
1641:arch/riscv/mach-gd32vf10x/bsp/gd32vf103_timer.c ****                 only one parameter can be selected which is shown as below: 
1642:arch/riscv/mach-gd32vf10x/bsp/gd32vf103_timer.c ****       \arg        TIMER_ENCODER_MODE0: counter counts on CI0FE0 edge depending on CI1FE1 level
1643:arch/riscv/mach-gd32vf10x/bsp/gd32vf103_timer.c ****       \arg        TIMER_ENCODER_MODE1: counter counts on CI1FE1 edge depending on CI0FE0 level
1644:arch/riscv/mach-gd32vf10x/bsp/gd32vf103_timer.c ****       \arg        TIMER_ENCODER_MODE2: counter counts on both CI0FE0 and CI1FE1 edges depending on 
1645:arch/riscv/mach-gd32vf10x/bsp/gd32vf103_timer.c ****     \param[in]  ic0polarity:
1646:arch/riscv/mach-gd32vf10x/bsp/gd32vf103_timer.c ****                 only one parameter can be selected which is shown as below: 
1647:arch/riscv/mach-gd32vf10x/bsp/gd32vf103_timer.c ****       \arg        TIMER_IC_POLARITY_RISING: capture rising edge
1648:arch/riscv/mach-gd32vf10x/bsp/gd32vf103_timer.c ****       \arg        TIMER_IC_POLARITY_FALLING: capture falling edge
1649:arch/riscv/mach-gd32vf10x/bsp/gd32vf103_timer.c ****     \param[in]  ic1polarity:
1650:arch/riscv/mach-gd32vf10x/bsp/gd32vf103_timer.c ****                 only one parameter can be selected which is shown as below: 
1651:arch/riscv/mach-gd32vf10x/bsp/gd32vf103_timer.c ****       \arg        TIMER_IC_POLARITY_RISING: capture rising edge
1652:arch/riscv/mach-gd32vf10x/bsp/gd32vf103_timer.c ****       \arg        TIMER_IC_POLARITY_FALLING: capture falling edge
1653:arch/riscv/mach-gd32vf10x/bsp/gd32vf103_timer.c ****     \param[out] none
1654:arch/riscv/mach-gd32vf10x/bsp/gd32vf103_timer.c ****     \retval     none
1655:arch/riscv/mach-gd32vf10x/bsp/gd32vf103_timer.c **** */
1656:arch/riscv/mach-gd32vf10x/bsp/gd32vf103_timer.c **** void timer_quadrature_decoder_mode_config(uint32_t timer_periph, uint32_t decomode, uint16_t ic0pol
1657:arch/riscv/mach-gd32vf10x/bsp/gd32vf103_timer.c **** {
 3354              		.loc 1 1657 1 is_stmt 1
 3355              		.cfi_startproc
 3356              	.LVL199:
1658:arch/riscv/mach-gd32vf10x/bsp/gd32vf103_timer.c ****     /* configure the quadrature decoder mode */
1659:arch/riscv/mach-gd32vf10x/bsp/gd32vf103_timer.c ****     TIMER_SMCFG(timer_periph) &= (~(uint32_t)TIMER_SMCFG_SMC);
 3357              		.loc 1 1659 5
 3358              		.loc 1 1659 31 is_stmt 0
 3359 0000 1C45     		lw	a5,8(a0)
1660:arch/riscv/mach-gd32vf10x/bsp/gd32vf103_timer.c ****     TIMER_SMCFG(timer_periph) |= (uint32_t)decomode;
1661:arch/riscv/mach-gd32vf10x/bsp/gd32vf103_timer.c ****     /* configure input capture selection */
1662:arch/riscv/mach-gd32vf10x/bsp/gd32vf103_timer.c ****     TIMER_CHCTL0(timer_periph) &= (uint32_t)(((~(uint32_t)TIMER_CHCTL0_CH0MS)) & ((~(uint32_t)TIMER
1663:arch/riscv/mach-gd32vf10x/bsp/gd32vf103_timer.c ****     TIMER_CHCTL0(timer_periph) |= (uint32_t)(TIMER_IC_SELECTION_DIRECTTI | ((uint32_t)TIMER_IC_SELE
1664:arch/riscv/mach-gd32vf10x/bsp/gd32vf103_timer.c ****     /* configure channel input capture polarity */
1665:arch/riscv/mach-gd32vf10x/bsp/gd32vf103_timer.c ****     TIMER_CHCTL2(timer_periph) &= (~(uint32_t)(TIMER_CHCTL2_CH0P | TIMER_CHCTL2_CH0NP));
1666:arch/riscv/mach-gd32vf10x/bsp/gd32vf103_timer.c ****     TIMER_CHCTL2(timer_periph) &= (~(uint32_t)(TIMER_CHCTL2_CH1P | TIMER_CHCTL2_CH1NP));
1667:arch/riscv/mach-gd32vf10x/bsp/gd32vf103_timer.c ****     TIMER_CHCTL2(timer_periph) |= ((uint32_t)ic0polarity | ((uint32_t)ic1polarity << 4U));
GAS LISTING C:\Users\test\AppData\Local\Temp\ccx0JFmY.s 			page 105


 3360              		.loc 1 1667 83
 3361 0002 9206     		slli	a3,a3,4
 3362              	.LVL200:
 3363              		.loc 1 1667 58
 3364 0004 D18E     		or	a3,a3,a2
1659:arch/riscv/mach-gd32vf10x/bsp/gd32vf103_timer.c ****     TIMER_SMCFG(timer_periph) |= (uint32_t)decomode;
 3365              		.loc 1 1659 31
 3366 0006 E19B     		andi	a5,a5,-8
 3367 0008 1CC5     		sw	a5,8(a0)
1660:arch/riscv/mach-gd32vf10x/bsp/gd32vf103_timer.c ****     TIMER_SMCFG(timer_periph) |= (uint32_t)decomode;
 3368              		.loc 1 1660 5 is_stmt 1
1660:arch/riscv/mach-gd32vf10x/bsp/gd32vf103_timer.c ****     TIMER_SMCFG(timer_periph) |= (uint32_t)decomode;
 3369              		.loc 1 1660 31 is_stmt 0
 3370 000a 1C45     		lw	a5,8(a0)
 3371 000c DD8D     		or	a1,a5,a1
 3372              	.LVL201:
 3373 000e 0CC5     		sw	a1,8(a0)
1662:arch/riscv/mach-gd32vf10x/bsp/gd32vf103_timer.c ****     TIMER_CHCTL0(timer_periph) |= (uint32_t)(TIMER_IC_SELECTION_DIRECTTI | ((uint32_t)TIMER_IC_SELE
 3374              		.loc 1 1662 5 is_stmt 1
1662:arch/riscv/mach-gd32vf10x/bsp/gd32vf103_timer.c ****     TIMER_CHCTL0(timer_periph) |= (uint32_t)(TIMER_IC_SELECTION_DIRECTTI | ((uint32_t)TIMER_IC_SELE
 3375              		.loc 1 1662 32 is_stmt 0
 3376 0010 1C4D     		lw	a5,24(a0)
 3377 0012 93F7C7CF 		andi	a5,a5,-772
 3378 0016 1CCD     		sw	a5,24(a0)
1663:arch/riscv/mach-gd32vf10x/bsp/gd32vf103_timer.c ****     /* configure channel input capture polarity */
 3379              		.loc 1 1663 5 is_stmt 1
1663:arch/riscv/mach-gd32vf10x/bsp/gd32vf103_timer.c ****     /* configure channel input capture polarity */
 3380              		.loc 1 1663 32 is_stmt 0
 3381 0018 1C4D     		lw	a5,24(a0)
 3382 001a 93E71710 		ori	a5,a5,257
 3383 001e 1CCD     		sw	a5,24(a0)
1665:arch/riscv/mach-gd32vf10x/bsp/gd32vf103_timer.c ****     TIMER_CHCTL2(timer_periph) &= (~(uint32_t)(TIMER_CHCTL2_CH1P | TIMER_CHCTL2_CH1NP));
 3384              		.loc 1 1665 5 is_stmt 1
1665:arch/riscv/mach-gd32vf10x/bsp/gd32vf103_timer.c ****     TIMER_CHCTL2(timer_periph) &= (~(uint32_t)(TIMER_CHCTL2_CH1P | TIMER_CHCTL2_CH1NP));
 3385              		.loc 1 1665 32 is_stmt 0
 3386 0020 1C51     		lw	a5,32(a0)
 3387 0022 D59B     		andi	a5,a5,-11
 3388 0024 1CD1     		sw	a5,32(a0)
1666:arch/riscv/mach-gd32vf10x/bsp/gd32vf103_timer.c ****     TIMER_CHCTL2(timer_periph) |= ((uint32_t)ic0polarity | ((uint32_t)ic1polarity << 4U));
 3389              		.loc 1 1666 5 is_stmt 1
1666:arch/riscv/mach-gd32vf10x/bsp/gd32vf103_timer.c ****     TIMER_CHCTL2(timer_periph) |= ((uint32_t)ic0polarity | ((uint32_t)ic1polarity << 4U));
 3390              		.loc 1 1666 32 is_stmt 0
 3391 0026 1C51     		lw	a5,32(a0)
 3392 0028 93F7F7F5 		andi	a5,a5,-161
 3393 002c 1CD1     		sw	a5,32(a0)
 3394              		.loc 1 1667 5 is_stmt 1
 3395              		.loc 1 1667 32 is_stmt 0
 3396 002e 1051     		lw	a2,32(a0)
 3397              	.LVL202:
 3398 0030 D18E     		or	a3,a3,a2
 3399 0032 14D1     		sw	a3,32(a0)
1668:arch/riscv/mach-gd32vf10x/bsp/gd32vf103_timer.c **** }
 3400              		.loc 1 1668 1
 3401 0034 8280     		ret
 3402              		.cfi_endproc
 3403              	.LFE58:
 3405              		.section	.text.timer_internal_clock_config,"ax",@progbits
GAS LISTING C:\Users\test\AppData\Local\Temp\ccx0JFmY.s 			page 106


 3406              		.align	1
 3407              		.globl	timer_internal_clock_config
 3409              	timer_internal_clock_config:
 3410              	.LFB59:
1669:arch/riscv/mach-gd32vf10x/bsp/gd32vf103_timer.c **** 
1670:arch/riscv/mach-gd32vf10x/bsp/gd32vf103_timer.c **** /*!
1671:arch/riscv/mach-gd32vf10x/bsp/gd32vf103_timer.c ****     \brief      configure TIMER internal clock mode
1672:arch/riscv/mach-gd32vf10x/bsp/gd32vf103_timer.c ****     \param[in]  timer_periph: TIMERx(x=0..4)
1673:arch/riscv/mach-gd32vf10x/bsp/gd32vf103_timer.c ****     \param[out] none
1674:arch/riscv/mach-gd32vf10x/bsp/gd32vf103_timer.c ****     \retval     none
1675:arch/riscv/mach-gd32vf10x/bsp/gd32vf103_timer.c **** */
1676:arch/riscv/mach-gd32vf10x/bsp/gd32vf103_timer.c **** void timer_internal_clock_config(uint32_t timer_periph)
1677:arch/riscv/mach-gd32vf10x/bsp/gd32vf103_timer.c **** {
 3411              		.loc 1 1677 1 is_stmt 1
 3412              		.cfi_startproc
 3413              	.LVL203:
1678:arch/riscv/mach-gd32vf10x/bsp/gd32vf103_timer.c ****     TIMER_SMCFG(timer_periph) &= ~(uint32_t)TIMER_SMCFG_SMC;
 3414              		.loc 1 1678 5
 3415              		.loc 1 1678 31 is_stmt 0
 3416 0000 1C45     		lw	a5,8(a0)
 3417 0002 E19B     		andi	a5,a5,-8
 3418 0004 1CC5     		sw	a5,8(a0)
1679:arch/riscv/mach-gd32vf10x/bsp/gd32vf103_timer.c **** }
 3419              		.loc 1 1679 1
 3420 0006 8280     		ret
 3421              		.cfi_endproc
 3422              	.LFE59:
 3424              		.section	.text.timer_internal_trigger_as_external_clock_config,"ax",@progbits
 3425              		.align	1
 3426              		.globl	timer_internal_trigger_as_external_clock_config
 3428              	timer_internal_trigger_as_external_clock_config:
 3429              	.LFB60:
1680:arch/riscv/mach-gd32vf10x/bsp/gd32vf103_timer.c **** 
1681:arch/riscv/mach-gd32vf10x/bsp/gd32vf103_timer.c **** /*!
1682:arch/riscv/mach-gd32vf10x/bsp/gd32vf103_timer.c ****     \brief      configure TIMER the internal trigger as external clock input
1683:arch/riscv/mach-gd32vf10x/bsp/gd32vf103_timer.c ****     \param[in]  timer_periph: TIMERx(x=0..4)
1684:arch/riscv/mach-gd32vf10x/bsp/gd32vf103_timer.c ****     \param[in]  intrigger:
1685:arch/riscv/mach-gd32vf10x/bsp/gd32vf103_timer.c ****                 only one parameter can be selected which is shown as below: 
1686:arch/riscv/mach-gd32vf10x/bsp/gd32vf103_timer.c ****       \arg        TIMER_SMCFG_TRGSEL_ITI0: internal trigger 0
1687:arch/riscv/mach-gd32vf10x/bsp/gd32vf103_timer.c ****       \arg        TIMER_SMCFG_TRGSEL_ITI1: internal trigger 1
1688:arch/riscv/mach-gd32vf10x/bsp/gd32vf103_timer.c ****       \arg        TIMER_SMCFG_TRGSEL_ITI2: internal trigger 2
1689:arch/riscv/mach-gd32vf10x/bsp/gd32vf103_timer.c ****       \arg        TIMER_SMCFG_TRGSEL_ITI3: internal trigger 3
1690:arch/riscv/mach-gd32vf10x/bsp/gd32vf103_timer.c ****     \param[out] none
1691:arch/riscv/mach-gd32vf10x/bsp/gd32vf103_timer.c ****     \retval     none
1692:arch/riscv/mach-gd32vf10x/bsp/gd32vf103_timer.c **** */
1693:arch/riscv/mach-gd32vf10x/bsp/gd32vf103_timer.c **** void timer_internal_trigger_as_external_clock_config(uint32_t timer_periph, uint32_t intrigger)
1694:arch/riscv/mach-gd32vf10x/bsp/gd32vf103_timer.c **** {
 3430              		.loc 1 1694 1 is_stmt 1
 3431              		.cfi_startproc
 3432              	.LVL204:
1695:arch/riscv/mach-gd32vf10x/bsp/gd32vf103_timer.c ****     timer_input_trigger_source_select(timer_periph, intrigger);
 3433              		.loc 1 1695 5
 3434              	.LBB32:
 3435              	.LBB33:
1543:arch/riscv/mach-gd32vf10x/bsp/gd32vf103_timer.c ****     TIMER_SMCFG(timer_periph) |= (uint32_t)intrigger;
 3436              		.loc 1 1543 5
1543:arch/riscv/mach-gd32vf10x/bsp/gd32vf103_timer.c ****     TIMER_SMCFG(timer_periph) |= (uint32_t)intrigger;
GAS LISTING C:\Users\test\AppData\Local\Temp\ccx0JFmY.s 			page 107


 3437              		.loc 1 1543 31 is_stmt 0
 3438 0000 1C45     		lw	a5,8(a0)
 3439 0002 93F7F7F8 		andi	a5,a5,-113
 3440 0006 1CC5     		sw	a5,8(a0)
1544:arch/riscv/mach-gd32vf10x/bsp/gd32vf103_timer.c **** }
 3441              		.loc 1 1544 5 is_stmt 1
1544:arch/riscv/mach-gd32vf10x/bsp/gd32vf103_timer.c **** }
 3442              		.loc 1 1544 31 is_stmt 0
 3443 0008 1C45     		lw	a5,8(a0)
 3444 000a DD8D     		or	a1,a1,a5
 3445              	.LVL205:
 3446 000c 0CC5     		sw	a1,8(a0)
 3447              	.LVL206:
 3448              	.LBE33:
 3449              	.LBE32:
1696:arch/riscv/mach-gd32vf10x/bsp/gd32vf103_timer.c ****     TIMER_SMCFG(timer_periph) &= ~(uint32_t)TIMER_SMCFG_SMC;
 3450              		.loc 1 1696 5 is_stmt 1
 3451              		.loc 1 1696 31 is_stmt 0
 3452 000e 1C45     		lw	a5,8(a0)
 3453 0010 E19B     		andi	a5,a5,-8
 3454 0012 1CC5     		sw	a5,8(a0)
1697:arch/riscv/mach-gd32vf10x/bsp/gd32vf103_timer.c ****     TIMER_SMCFG(timer_periph) |= (uint32_t)TIMER_SLAVE_MODE_EXTERNAL0;
 3455              		.loc 1 1697 5 is_stmt 1
 3456              		.loc 1 1697 31 is_stmt 0
 3457 0014 1C45     		lw	a5,8(a0)
 3458 0016 93E77700 		ori	a5,a5,7
 3459 001a 1CC5     		sw	a5,8(a0)
1698:arch/riscv/mach-gd32vf10x/bsp/gd32vf103_timer.c **** }
 3460              		.loc 1 1698 1
 3461 001c 8280     		ret
 3462              		.cfi_endproc
 3463              	.LFE60:
 3465              		.section	.text.timer_external_trigger_as_external_clock_config,"ax",@progbits
 3466              		.align	1
 3467              		.globl	timer_external_trigger_as_external_clock_config
 3469              	timer_external_trigger_as_external_clock_config:
 3470              	.LFB61:
1699:arch/riscv/mach-gd32vf10x/bsp/gd32vf103_timer.c **** 
1700:arch/riscv/mach-gd32vf10x/bsp/gd32vf103_timer.c **** /*!
1701:arch/riscv/mach-gd32vf10x/bsp/gd32vf103_timer.c ****     \brief      configure TIMER the external trigger as external clock input
1702:arch/riscv/mach-gd32vf10x/bsp/gd32vf103_timer.c ****     \param[in]  timer_periph: TIMERx(x=0..4)
1703:arch/riscv/mach-gd32vf10x/bsp/gd32vf103_timer.c ****     \param[in]  extrigger:
1704:arch/riscv/mach-gd32vf10x/bsp/gd32vf103_timer.c ****                 only one parameter can be selected which is shown as below: 
1705:arch/riscv/mach-gd32vf10x/bsp/gd32vf103_timer.c ****       \arg        TIMER_SMCFG_TRGSEL_CI0F_ED: TI0 edge detector
1706:arch/riscv/mach-gd32vf10x/bsp/gd32vf103_timer.c ****       \arg        TIMER_SMCFG_TRGSEL_CI0FE0: filtered TIMER input 0
1707:arch/riscv/mach-gd32vf10x/bsp/gd32vf103_timer.c ****       \arg        TIMER_SMCFG_TRGSEL_CI1FE1: filtered TIMER input 1
1708:arch/riscv/mach-gd32vf10x/bsp/gd32vf103_timer.c ****     \param[in]  extpolarity:
1709:arch/riscv/mach-gd32vf10x/bsp/gd32vf103_timer.c ****                 only one parameter can be selected which is shown as below: 
1710:arch/riscv/mach-gd32vf10x/bsp/gd32vf103_timer.c ****       \arg        TIMER_IC_POLARITY_RISING: active low or falling edge active
1711:arch/riscv/mach-gd32vf10x/bsp/gd32vf103_timer.c ****       \arg        TIMER_IC_POLARITY_FALLING: active high or rising edge active
1712:arch/riscv/mach-gd32vf10x/bsp/gd32vf103_timer.c ****     \param[in]  extfilter: a value between 0 and 15
1713:arch/riscv/mach-gd32vf10x/bsp/gd32vf103_timer.c ****     \param[out] none
1714:arch/riscv/mach-gd32vf10x/bsp/gd32vf103_timer.c ****     \retval     none
1715:arch/riscv/mach-gd32vf10x/bsp/gd32vf103_timer.c **** */
1716:arch/riscv/mach-gd32vf10x/bsp/gd32vf103_timer.c **** void timer_external_trigger_as_external_clock_config(uint32_t timer_periph, uint32_t extrigger, uin
1717:arch/riscv/mach-gd32vf10x/bsp/gd32vf103_timer.c **** {
 3471              		.loc 1 1717 1 is_stmt 1
GAS LISTING C:\Users\test\AppData\Local\Temp\ccx0JFmY.s 			page 108


 3472              		.cfi_startproc
 3473              	.LVL207:
1718:arch/riscv/mach-gd32vf10x/bsp/gd32vf103_timer.c ****     if(TIMER_SMCFG_TRGSEL_CI1FE1 == extrigger){
 3474              		.loc 1 1718 5
 3475              		.loc 1 1718 7 is_stmt 0
 3476 0000 93070006 		li	a5,96
 3477 0004 638DF504 		beq	a1,a5,.L199
1719:arch/riscv/mach-gd32vf10x/bsp/gd32vf103_timer.c ****         /* reset the CH1EN bit */
1720:arch/riscv/mach-gd32vf10x/bsp/gd32vf103_timer.c ****         TIMER_CHCTL2(timer_periph) &= (~(uint32_t)TIMER_CHCTL2_CH1EN);
1721:arch/riscv/mach-gd32vf10x/bsp/gd32vf103_timer.c ****         /* reset the CH1NP bit */
1722:arch/riscv/mach-gd32vf10x/bsp/gd32vf103_timer.c ****         TIMER_CHCTL2(timer_periph) &= (~(uint32_t)(TIMER_CHCTL2_CH1P | TIMER_CHCTL2_CH1NP));
1723:arch/riscv/mach-gd32vf10x/bsp/gd32vf103_timer.c ****         /* set the CH1NP bit */
1724:arch/riscv/mach-gd32vf10x/bsp/gd32vf103_timer.c ****         TIMER_CHCTL2(timer_periph) |= (uint32_t)((uint32_t)extpolarity << 4U);
1725:arch/riscv/mach-gd32vf10x/bsp/gd32vf103_timer.c ****         /* reset the CH1MS bit */
1726:arch/riscv/mach-gd32vf10x/bsp/gd32vf103_timer.c ****         TIMER_CHCTL0(timer_periph) &= (~(uint32_t)TIMER_CHCTL0_CH1MS);
1727:arch/riscv/mach-gd32vf10x/bsp/gd32vf103_timer.c ****         /* set the CH1MS bit */
1728:arch/riscv/mach-gd32vf10x/bsp/gd32vf103_timer.c ****         TIMER_CHCTL0(timer_periph) |= (uint32_t)((uint32_t)TIMER_IC_SELECTION_DIRECTTI << 8U);
1729:arch/riscv/mach-gd32vf10x/bsp/gd32vf103_timer.c ****         /* reset the CH1CAPFLT bit */
1730:arch/riscv/mach-gd32vf10x/bsp/gd32vf103_timer.c ****         TIMER_CHCTL0(timer_periph) &= (~(uint32_t)TIMER_CHCTL0_CH1CAPFLT);
1731:arch/riscv/mach-gd32vf10x/bsp/gd32vf103_timer.c ****         /* set the CH1CAPFLT bit */
1732:arch/riscv/mach-gd32vf10x/bsp/gd32vf103_timer.c ****         TIMER_CHCTL0(timer_periph) |= (uint32_t)(extfilter << 12U);
1733:arch/riscv/mach-gd32vf10x/bsp/gd32vf103_timer.c ****         /* set the CH1EN bit */
1734:arch/riscv/mach-gd32vf10x/bsp/gd32vf103_timer.c ****         TIMER_CHCTL2(timer_periph) |= (uint32_t)TIMER_CHCTL2_CH1EN;
1735:arch/riscv/mach-gd32vf10x/bsp/gd32vf103_timer.c ****     }else{
1736:arch/riscv/mach-gd32vf10x/bsp/gd32vf103_timer.c ****         /* reset the CH0EN bit */
1737:arch/riscv/mach-gd32vf10x/bsp/gd32vf103_timer.c ****         TIMER_CHCTL2(timer_periph) &= (~(uint32_t)TIMER_CHCTL2_CH0EN);
 3478              		.loc 1 1737 9 is_stmt 1
 3479              		.loc 1 1737 36 is_stmt 0
 3480 0008 1C51     		lw	a5,32(a0)
1738:arch/riscv/mach-gd32vf10x/bsp/gd32vf103_timer.c ****         /* reset the CH0P and CH0NP bits */
1739:arch/riscv/mach-gd32vf10x/bsp/gd32vf103_timer.c ****         TIMER_CHCTL2(timer_periph) &= (~(uint32_t)(TIMER_CHCTL2_CH0P | TIMER_CHCTL2_CH0NP));
1740:arch/riscv/mach-gd32vf10x/bsp/gd32vf103_timer.c ****         /* set the CH0P and CH0NP bits */
1741:arch/riscv/mach-gd32vf10x/bsp/gd32vf103_timer.c ****         TIMER_CHCTL2(timer_periph) |= (uint32_t)extpolarity;
1742:arch/riscv/mach-gd32vf10x/bsp/gd32vf103_timer.c ****         /* reset the CH0MS bit */
1743:arch/riscv/mach-gd32vf10x/bsp/gd32vf103_timer.c ****         TIMER_CHCTL0(timer_periph) &= (~(uint32_t)TIMER_CHCTL0_CH0MS);
1744:arch/riscv/mach-gd32vf10x/bsp/gd32vf103_timer.c ****         /* set the CH0MS bit */
1745:arch/riscv/mach-gd32vf10x/bsp/gd32vf103_timer.c ****         TIMER_CHCTL0(timer_periph) |= (uint32_t)TIMER_IC_SELECTION_DIRECTTI;
1746:arch/riscv/mach-gd32vf10x/bsp/gd32vf103_timer.c ****         /* reset the CH0CAPFLT bit */
1747:arch/riscv/mach-gd32vf10x/bsp/gd32vf103_timer.c ****         TIMER_CHCTL0(timer_periph) &= (~(uint32_t)TIMER_CHCTL0_CH0CAPFLT);
1748:arch/riscv/mach-gd32vf10x/bsp/gd32vf103_timer.c ****         /* reset the CH0CAPFLT bit */
1749:arch/riscv/mach-gd32vf10x/bsp/gd32vf103_timer.c ****         TIMER_CHCTL0(timer_periph) |= (uint32_t)(extfilter << 4U);
 3481              		.loc 1 1749 60
 3482 000a 9206     		slli	a3,a3,4
 3483              	.LVL208:
1737:arch/riscv/mach-gd32vf10x/bsp/gd32vf103_timer.c ****         /* reset the CH0P and CH0NP bits */
 3484              		.loc 1 1737 36
 3485 000c F99B     		andi	a5,a5,-2
 3486 000e 1CD1     		sw	a5,32(a0)
1739:arch/riscv/mach-gd32vf10x/bsp/gd32vf103_timer.c ****         /* set the CH0P and CH0NP bits */
 3487              		.loc 1 1739 9 is_stmt 1
1739:arch/riscv/mach-gd32vf10x/bsp/gd32vf103_timer.c ****         /* set the CH0P and CH0NP bits */
 3488              		.loc 1 1739 36 is_stmt 0
 3489 0010 1C51     		lw	a5,32(a0)
 3490 0012 D59B     		andi	a5,a5,-11
 3491 0014 1CD1     		sw	a5,32(a0)
1741:arch/riscv/mach-gd32vf10x/bsp/gd32vf103_timer.c ****         /* reset the CH0MS bit */
 3492              		.loc 1 1741 9 is_stmt 1
GAS LISTING C:\Users\test\AppData\Local\Temp\ccx0JFmY.s 			page 109


1741:arch/riscv/mach-gd32vf10x/bsp/gd32vf103_timer.c ****         /* reset the CH0MS bit */
 3493              		.loc 1 1741 36 is_stmt 0
 3494 0016 1C51     		lw	a5,32(a0)
 3495 0018 5D8E     		or	a2,a5,a2
 3496              	.LVL209:
 3497 001a 10D1     		sw	a2,32(a0)
1743:arch/riscv/mach-gd32vf10x/bsp/gd32vf103_timer.c ****         /* set the CH0MS bit */
 3498              		.loc 1 1743 9 is_stmt 1
1743:arch/riscv/mach-gd32vf10x/bsp/gd32vf103_timer.c ****         /* set the CH0MS bit */
 3499              		.loc 1 1743 36 is_stmt 0
 3500 001c 1C4D     		lw	a5,24(a0)
 3501 001e F19B     		andi	a5,a5,-4
 3502 0020 1CCD     		sw	a5,24(a0)
1745:arch/riscv/mach-gd32vf10x/bsp/gd32vf103_timer.c ****         /* reset the CH0CAPFLT bit */
 3503              		.loc 1 1745 9 is_stmt 1
1745:arch/riscv/mach-gd32vf10x/bsp/gd32vf103_timer.c ****         /* reset the CH0CAPFLT bit */
 3504              		.loc 1 1745 36 is_stmt 0
 3505 0022 1C4D     		lw	a5,24(a0)
 3506 0024 93E71700 		ori	a5,a5,1
 3507 0028 1CCD     		sw	a5,24(a0)
1747:arch/riscv/mach-gd32vf10x/bsp/gd32vf103_timer.c ****         /* reset the CH0CAPFLT bit */
 3508              		.loc 1 1747 9 is_stmt 1
1747:arch/riscv/mach-gd32vf10x/bsp/gd32vf103_timer.c ****         /* reset the CH0CAPFLT bit */
 3509              		.loc 1 1747 36 is_stmt 0
 3510 002a 1C4D     		lw	a5,24(a0)
 3511 002c 93F7F7F0 		andi	a5,a5,-241
 3512 0030 1CCD     		sw	a5,24(a0)
 3513              		.loc 1 1749 9 is_stmt 1
 3514              		.loc 1 1749 36 is_stmt 0
 3515 0032 1C4D     		lw	a5,24(a0)
 3516 0034 DD8E     		or	a3,a3,a5
 3517 0036 14CD     		sw	a3,24(a0)
1750:arch/riscv/mach-gd32vf10x/bsp/gd32vf103_timer.c ****         /* set the CH0EN bit */
1751:arch/riscv/mach-gd32vf10x/bsp/gd32vf103_timer.c ****         TIMER_CHCTL2(timer_periph) |= (uint32_t)TIMER_CHCTL2_CH0EN;
 3518              		.loc 1 1751 9 is_stmt 1
 3519              		.loc 1 1751 36 is_stmt 0
 3520 0038 1C51     		lw	a5,32(a0)
 3521 003a 93E71700 		ori	a5,a5,1
 3522 003e 1CD1     		sw	a5,32(a0)
 3523              	.L198:
1752:arch/riscv/mach-gd32vf10x/bsp/gd32vf103_timer.c ****     }
1753:arch/riscv/mach-gd32vf10x/bsp/gd32vf103_timer.c ****     /* select TIMER input trigger source */
1754:arch/riscv/mach-gd32vf10x/bsp/gd32vf103_timer.c ****     timer_input_trigger_source_select(timer_periph, extrigger);
 3524              		.loc 1 1754 5 is_stmt 1
 3525              	.LVL210:
 3526              	.LBB34:
 3527              	.LBB35:
1543:arch/riscv/mach-gd32vf10x/bsp/gd32vf103_timer.c ****     TIMER_SMCFG(timer_periph) |= (uint32_t)intrigger;
 3528              		.loc 1 1543 5
1543:arch/riscv/mach-gd32vf10x/bsp/gd32vf103_timer.c ****     TIMER_SMCFG(timer_periph) |= (uint32_t)intrigger;
 3529              		.loc 1 1543 31 is_stmt 0
 3530 0040 1C45     		lw	a5,8(a0)
 3531 0042 93F7F7F8 		andi	a5,a5,-113
 3532 0046 1CC5     		sw	a5,8(a0)
1544:arch/riscv/mach-gd32vf10x/bsp/gd32vf103_timer.c **** }
 3533              		.loc 1 1544 5 is_stmt 1
1544:arch/riscv/mach-gd32vf10x/bsp/gd32vf103_timer.c **** }
GAS LISTING C:\Users\test\AppData\Local\Temp\ccx0JFmY.s 			page 110


 3534              		.loc 1 1544 31 is_stmt 0
 3535 0048 1C45     		lw	a5,8(a0)
 3536 004a DD8D     		or	a1,a1,a5
 3537              	.LVL211:
 3538 004c 0CC5     		sw	a1,8(a0)
 3539              	.LVL212:
 3540              	.LBE35:
 3541              	.LBE34:
1755:arch/riscv/mach-gd32vf10x/bsp/gd32vf103_timer.c ****     /* reset the SMC bit */
1756:arch/riscv/mach-gd32vf10x/bsp/gd32vf103_timer.c ****     TIMER_SMCFG(timer_periph) &= (~(uint32_t)TIMER_SMCFG_SMC);
 3542              		.loc 1 1756 5 is_stmt 1
 3543              		.loc 1 1756 31 is_stmt 0
 3544 004e 1C45     		lw	a5,8(a0)
 3545 0050 E19B     		andi	a5,a5,-8
 3546 0052 1CC5     		sw	a5,8(a0)
1757:arch/riscv/mach-gd32vf10x/bsp/gd32vf103_timer.c ****     /* set the SMC bit */
1758:arch/riscv/mach-gd32vf10x/bsp/gd32vf103_timer.c ****     TIMER_SMCFG(timer_periph) |= (uint32_t)TIMER_SLAVE_MODE_EXTERNAL0;
 3547              		.loc 1 1758 5 is_stmt 1
 3548              		.loc 1 1758 31 is_stmt 0
 3549 0054 1C45     		lw	a5,8(a0)
 3550 0056 93E77700 		ori	a5,a5,7
 3551 005a 1CC5     		sw	a5,8(a0)
1759:arch/riscv/mach-gd32vf10x/bsp/gd32vf103_timer.c **** }
 3552              		.loc 1 1759 1
 3553 005c 8280     		ret
 3554              	.LVL213:
 3555              	.L199:
1720:arch/riscv/mach-gd32vf10x/bsp/gd32vf103_timer.c ****         /* reset the CH1NP bit */
 3556              		.loc 1 1720 9 is_stmt 1
1720:arch/riscv/mach-gd32vf10x/bsp/gd32vf103_timer.c ****         /* reset the CH1NP bit */
 3557              		.loc 1 1720 36 is_stmt 0
 3558 005e 1C51     		lw	a5,32(a0)
1724:arch/riscv/mach-gd32vf10x/bsp/gd32vf103_timer.c ****         /* reset the CH1MS bit */
 3559              		.loc 1 1724 39
 3560 0060 1206     		slli	a2,a2,4
 3561              	.LVL214:
1730:arch/riscv/mach-gd32vf10x/bsp/gd32vf103_timer.c ****         /* set the CH1CAPFLT bit */
 3562              		.loc 1 1730 36
 3563 0062 4577     		li	a4,-61440
1720:arch/riscv/mach-gd32vf10x/bsp/gd32vf103_timer.c ****         /* reset the CH1NP bit */
 3564              		.loc 1 1720 36
 3565 0064 BD9B     		andi	a5,a5,-17
 3566 0066 1CD1     		sw	a5,32(a0)
1722:arch/riscv/mach-gd32vf10x/bsp/gd32vf103_timer.c ****         /* set the CH1NP bit */
 3567              		.loc 1 1722 9 is_stmt 1
1722:arch/riscv/mach-gd32vf10x/bsp/gd32vf103_timer.c ****         /* set the CH1NP bit */
 3568              		.loc 1 1722 36 is_stmt 0
 3569 0068 1C51     		lw	a5,32(a0)
1730:arch/riscv/mach-gd32vf10x/bsp/gd32vf103_timer.c ****         /* set the CH1CAPFLT bit */
 3570              		.loc 1 1730 36
 3571 006a 7D17     		addi	a4,a4,-1
1732:arch/riscv/mach-gd32vf10x/bsp/gd32vf103_timer.c ****         /* set the CH1EN bit */
 3572              		.loc 1 1732 60
 3573 006c B206     		slli	a3,a3,12
 3574              	.LVL215:
1722:arch/riscv/mach-gd32vf10x/bsp/gd32vf103_timer.c ****         /* set the CH1NP bit */
 3575              		.loc 1 1722 36
GAS LISTING C:\Users\test\AppData\Local\Temp\ccx0JFmY.s 			page 111


 3576 006e 93F7F7F5 		andi	a5,a5,-161
 3577 0072 1CD1     		sw	a5,32(a0)
1724:arch/riscv/mach-gd32vf10x/bsp/gd32vf103_timer.c ****         /* reset the CH1MS bit */
 3578              		.loc 1 1724 9 is_stmt 1
1724:arch/riscv/mach-gd32vf10x/bsp/gd32vf103_timer.c ****         /* reset the CH1MS bit */
 3579              		.loc 1 1724 36 is_stmt 0
 3580 0074 1C51     		lw	a5,32(a0)
 3581 0076 5D8E     		or	a2,a2,a5
 3582 0078 10D1     		sw	a2,32(a0)
1726:arch/riscv/mach-gd32vf10x/bsp/gd32vf103_timer.c ****         /* set the CH1MS bit */
 3583              		.loc 1 1726 9 is_stmt 1
1726:arch/riscv/mach-gd32vf10x/bsp/gd32vf103_timer.c ****         /* set the CH1MS bit */
 3584              		.loc 1 1726 36 is_stmt 0
 3585 007a 1C4D     		lw	a5,24(a0)
 3586 007c 93F7F7CF 		andi	a5,a5,-769
 3587 0080 1CCD     		sw	a5,24(a0)
1728:arch/riscv/mach-gd32vf10x/bsp/gd32vf103_timer.c ****         /* reset the CH1CAPFLT bit */
 3588              		.loc 1 1728 9 is_stmt 1
1728:arch/riscv/mach-gd32vf10x/bsp/gd32vf103_timer.c ****         /* reset the CH1CAPFLT bit */
 3589              		.loc 1 1728 36 is_stmt 0
 3590 0082 1C4D     		lw	a5,24(a0)
 3591 0084 93E70710 		ori	a5,a5,256
 3592 0088 1CCD     		sw	a5,24(a0)
1730:arch/riscv/mach-gd32vf10x/bsp/gd32vf103_timer.c ****         /* set the CH1CAPFLT bit */
 3593              		.loc 1 1730 9 is_stmt 1
1730:arch/riscv/mach-gd32vf10x/bsp/gd32vf103_timer.c ****         /* set the CH1CAPFLT bit */
 3594              		.loc 1 1730 36 is_stmt 0
 3595 008a 1C4D     		lw	a5,24(a0)
 3596 008c F98F     		and	a5,a5,a4
 3597 008e 1CCD     		sw	a5,24(a0)
1732:arch/riscv/mach-gd32vf10x/bsp/gd32vf103_timer.c ****         /* set the CH1EN bit */
 3598              		.loc 1 1732 9 is_stmt 1
1732:arch/riscv/mach-gd32vf10x/bsp/gd32vf103_timer.c ****         /* set the CH1EN bit */
 3599              		.loc 1 1732 36 is_stmt 0
 3600 0090 1C4D     		lw	a5,24(a0)
 3601 0092 DD8E     		or	a3,a3,a5
 3602 0094 14CD     		sw	a3,24(a0)
1734:arch/riscv/mach-gd32vf10x/bsp/gd32vf103_timer.c ****     }else{
 3603              		.loc 1 1734 9 is_stmt 1
1734:arch/riscv/mach-gd32vf10x/bsp/gd32vf103_timer.c ****     }else{
 3604              		.loc 1 1734 36 is_stmt 0
 3605 0096 1C51     		lw	a5,32(a0)
 3606 0098 93E70701 		ori	a5,a5,16
 3607 009c 1CD1     		sw	a5,32(a0)
 3608 009e 4DB7     		j	.L198
 3609              		.cfi_endproc
 3610              	.LFE61:
 3612              		.section	.text.timer_external_clock_mode0_config,"ax",@progbits
 3613              		.align	1
 3614              		.globl	timer_external_clock_mode0_config
 3616              	timer_external_clock_mode0_config:
 3617              	.LFB62:
1760:arch/riscv/mach-gd32vf10x/bsp/gd32vf103_timer.c **** 
1761:arch/riscv/mach-gd32vf10x/bsp/gd32vf103_timer.c **** /*!
1762:arch/riscv/mach-gd32vf10x/bsp/gd32vf103_timer.c ****     \brief      configure TIMER the external clock mode0
1763:arch/riscv/mach-gd32vf10x/bsp/gd32vf103_timer.c ****     \param[in]  timer_periph: TIMERx(x=0..4)
1764:arch/riscv/mach-gd32vf10x/bsp/gd32vf103_timer.c ****     \param[in]  extprescaler:
GAS LISTING C:\Users\test\AppData\Local\Temp\ccx0JFmY.s 			page 112


1765:arch/riscv/mach-gd32vf10x/bsp/gd32vf103_timer.c ****                 only one parameter can be selected which is shown as below: 
1766:arch/riscv/mach-gd32vf10x/bsp/gd32vf103_timer.c ****       \arg        TIMER_EXT_TRI_PSC_OFF: no divided
1767:arch/riscv/mach-gd32vf10x/bsp/gd32vf103_timer.c ****       \arg        TIMER_EXT_TRI_PSC_DIV2: divided by 2
1768:arch/riscv/mach-gd32vf10x/bsp/gd32vf103_timer.c ****       \arg        TIMER_EXT_TRI_PSC_DIV4: divided by 4
1769:arch/riscv/mach-gd32vf10x/bsp/gd32vf103_timer.c ****       \arg        TIMER_EXT_TRI_PSC_DIV8: divided by 8
1770:arch/riscv/mach-gd32vf10x/bsp/gd32vf103_timer.c ****     \param[in]  extpolarity:
1771:arch/riscv/mach-gd32vf10x/bsp/gd32vf103_timer.c ****                 only one parameter can be selected which is shown as below: 
1772:arch/riscv/mach-gd32vf10x/bsp/gd32vf103_timer.c ****       \arg        TIMER_ETP_FALLING: active low or falling edge active
1773:arch/riscv/mach-gd32vf10x/bsp/gd32vf103_timer.c ****       \arg        TIMER_ETP_RISING: active high or rising edge active
1774:arch/riscv/mach-gd32vf10x/bsp/gd32vf103_timer.c ****     \param[in]  extfilter: a value between 0 and 15
1775:arch/riscv/mach-gd32vf10x/bsp/gd32vf103_timer.c ****     \param[out] none
1776:arch/riscv/mach-gd32vf10x/bsp/gd32vf103_timer.c ****     \retval     none
1777:arch/riscv/mach-gd32vf10x/bsp/gd32vf103_timer.c **** */
1778:arch/riscv/mach-gd32vf10x/bsp/gd32vf103_timer.c **** void timer_external_clock_mode0_config(uint32_t timer_periph, uint32_t extprescaler, uint32_t extpo
1779:arch/riscv/mach-gd32vf10x/bsp/gd32vf103_timer.c **** {
 3618              		.loc 1 1779 1 is_stmt 1
 3619              		.cfi_startproc
 3620              	.LVL216:
1780:arch/riscv/mach-gd32vf10x/bsp/gd32vf103_timer.c ****     /* configure TIMER external trigger input */
1781:arch/riscv/mach-gd32vf10x/bsp/gd32vf103_timer.c ****     timer_external_trigger_config(timer_periph, extprescaler, extpolarity, extfilter);
 3621              		.loc 1 1781 5
 3622              	.LBB36:
 3623              	.LBB37:
1632:arch/riscv/mach-gd32vf10x/bsp/gd32vf103_timer.c ****     TIMER_SMCFG(timer_periph) |= (uint32_t)(extprescaler | extpolarity);
 3624              		.loc 1 1632 5
1632:arch/riscv/mach-gd32vf10x/bsp/gd32vf103_timer.c ****     TIMER_SMCFG(timer_periph) |= (uint32_t)(extprescaler | extpolarity);
 3625              		.loc 1 1632 31 is_stmt 0
 3626 0000 1C45     		lw	a5,8(a0)
 3627 0002 5177     		li	a4,-49152
 3628 0004 1307F70F 		addi	a4,a4,255
 3629 0008 F98F     		and	a5,a5,a4
 3630 000a 1CC5     		sw	a5,8(a0)
1633:arch/riscv/mach-gd32vf10x/bsp/gd32vf103_timer.c ****     TIMER_SMCFG(timer_periph) |= (uint32_t)(extfilter << 8U);
 3631              		.loc 1 1633 5 is_stmt 1
1633:arch/riscv/mach-gd32vf10x/bsp/gd32vf103_timer.c ****     TIMER_SMCFG(timer_periph) |= (uint32_t)(extfilter << 8U);
 3632              		.loc 1 1633 31 is_stmt 0
 3633 000c 1C45     		lw	a5,8(a0)
1633:arch/riscv/mach-gd32vf10x/bsp/gd32vf103_timer.c ****     TIMER_SMCFG(timer_periph) |= (uint32_t)(extfilter << 8U);
 3634              		.loc 1 1633 58
 3635 000e 4D8E     		or	a2,a1,a2
 3636              	.LVL217:
1634:arch/riscv/mach-gd32vf10x/bsp/gd32vf103_timer.c **** }
 3637              		.loc 1 1634 55
 3638 0010 A206     		slli	a3,a3,8
 3639              	.LVL218:
1633:arch/riscv/mach-gd32vf10x/bsp/gd32vf103_timer.c ****     TIMER_SMCFG(timer_periph) |= (uint32_t)(extfilter << 8U);
 3640              		.loc 1 1633 31
 3641 0012 5D8E     		or	a2,a2,a5
 3642 0014 10C5     		sw	a2,8(a0)
1634:arch/riscv/mach-gd32vf10x/bsp/gd32vf103_timer.c **** }
 3643              		.loc 1 1634 5 is_stmt 1
1634:arch/riscv/mach-gd32vf10x/bsp/gd32vf103_timer.c **** }
 3644              		.loc 1 1634 31 is_stmt 0
 3645 0016 1C45     		lw	a5,8(a0)
 3646 0018 DD8E     		or	a3,a3,a5
 3647 001a 14C5     		sw	a3,8(a0)
 3648              	.LVL219:
GAS LISTING C:\Users\test\AppData\Local\Temp\ccx0JFmY.s 			page 113


 3649              	.LBE37:
 3650              	.LBE36:
1782:arch/riscv/mach-gd32vf10x/bsp/gd32vf103_timer.c ****     /* reset the SMC bit,TRGS bit */
1783:arch/riscv/mach-gd32vf10x/bsp/gd32vf103_timer.c ****     TIMER_SMCFG(timer_periph) &= (~(uint32_t)(TIMER_SMCFG_SMC | TIMER_SMCFG_TRGS));
 3651              		.loc 1 1783 5 is_stmt 1
 3652              		.loc 1 1783 31 is_stmt 0
 3653 001c 1C45     		lw	a5,8(a0)
 3654 001e 93F787F8 		andi	a5,a5,-120
 3655 0022 1CC5     		sw	a5,8(a0)
1784:arch/riscv/mach-gd32vf10x/bsp/gd32vf103_timer.c ****     /* set the SMC bit,TRGS bit */
1785:arch/riscv/mach-gd32vf10x/bsp/gd32vf103_timer.c ****     TIMER_SMCFG(timer_periph) |= (uint32_t)(TIMER_SLAVE_MODE_EXTERNAL0 | TIMER_SMCFG_TRGSEL_ETIFP);
 3656              		.loc 1 1785 5 is_stmt 1
 3657              		.loc 1 1785 31 is_stmt 0
 3658 0024 1C45     		lw	a5,8(a0)
 3659 0026 93E77707 		ori	a5,a5,119
 3660 002a 1CC5     		sw	a5,8(a0)
1786:arch/riscv/mach-gd32vf10x/bsp/gd32vf103_timer.c **** }
 3661              		.loc 1 1786 1
 3662 002c 8280     		ret
 3663              		.cfi_endproc
 3664              	.LFE62:
 3666              		.section	.text.timer_external_clock_mode1_config,"ax",@progbits
 3667              		.align	1
 3668              		.globl	timer_external_clock_mode1_config
 3670              	timer_external_clock_mode1_config:
 3671              	.LFB63:
1787:arch/riscv/mach-gd32vf10x/bsp/gd32vf103_timer.c **** 
1788:arch/riscv/mach-gd32vf10x/bsp/gd32vf103_timer.c **** /*!
1789:arch/riscv/mach-gd32vf10x/bsp/gd32vf103_timer.c ****     \brief      configure TIMER the external clock mode1
1790:arch/riscv/mach-gd32vf10x/bsp/gd32vf103_timer.c ****     \param[in]  timer_periph: TIMERx(x=0..4)
1791:arch/riscv/mach-gd32vf10x/bsp/gd32vf103_timer.c ****     \param[in]  extprescaler:
1792:arch/riscv/mach-gd32vf10x/bsp/gd32vf103_timer.c ****                 only one parameter can be selected which is shown as below:  
1793:arch/riscv/mach-gd32vf10x/bsp/gd32vf103_timer.c ****       \arg        TIMER_EXT_TRI_PSC_OFF: no divided
1794:arch/riscv/mach-gd32vf10x/bsp/gd32vf103_timer.c ****       \arg        TIMER_EXT_TRI_PSC_DIV2: divided by 2
1795:arch/riscv/mach-gd32vf10x/bsp/gd32vf103_timer.c ****       \arg        TIMER_EXT_TRI_PSC_DIV4: divided by 4
1796:arch/riscv/mach-gd32vf10x/bsp/gd32vf103_timer.c ****       \arg        TIMER_EXT_TRI_PSC_DIV8: divided by 8
1797:arch/riscv/mach-gd32vf10x/bsp/gd32vf103_timer.c ****     \param[in]  extpolarity:
1798:arch/riscv/mach-gd32vf10x/bsp/gd32vf103_timer.c ****                 only one parameter can be selected which is shown as below:  
1799:arch/riscv/mach-gd32vf10x/bsp/gd32vf103_timer.c ****       \arg        TIMER_ETP_FALLING: active low or falling edge active
1800:arch/riscv/mach-gd32vf10x/bsp/gd32vf103_timer.c ****       \arg        TIMER_ETP_RISING: active high or rising edge active
1801:arch/riscv/mach-gd32vf10x/bsp/gd32vf103_timer.c ****     \param[in]  extfilter: a value between 0 and 15
1802:arch/riscv/mach-gd32vf10x/bsp/gd32vf103_timer.c ****     \param[out] none
1803:arch/riscv/mach-gd32vf10x/bsp/gd32vf103_timer.c ****     \retval     none
1804:arch/riscv/mach-gd32vf10x/bsp/gd32vf103_timer.c **** */
1805:arch/riscv/mach-gd32vf10x/bsp/gd32vf103_timer.c **** void timer_external_clock_mode1_config(uint32_t timer_periph, uint32_t extprescaler, uint32_t extpo
1806:arch/riscv/mach-gd32vf10x/bsp/gd32vf103_timer.c **** {
 3672              		.loc 1 1806 1 is_stmt 1
 3673              		.cfi_startproc
 3674              	.LVL220:
1807:arch/riscv/mach-gd32vf10x/bsp/gd32vf103_timer.c ****     /* configure TIMER external trigger input */
1808:arch/riscv/mach-gd32vf10x/bsp/gd32vf103_timer.c ****     timer_external_trigger_config(timer_periph, extprescaler, extpolarity, extfilter);
 3675              		.loc 1 1808 5
 3676              	.LBB38:
 3677              	.LBB39:
1632:arch/riscv/mach-gd32vf10x/bsp/gd32vf103_timer.c ****     TIMER_SMCFG(timer_periph) |= (uint32_t)(extprescaler | extpolarity);
 3678              		.loc 1 1632 5
1632:arch/riscv/mach-gd32vf10x/bsp/gd32vf103_timer.c ****     TIMER_SMCFG(timer_periph) |= (uint32_t)(extprescaler | extpolarity);
GAS LISTING C:\Users\test\AppData\Local\Temp\ccx0JFmY.s 			page 114


 3679              		.loc 1 1632 31 is_stmt 0
 3680 0000 1C45     		lw	a5,8(a0)
 3681 0002 5177     		li	a4,-49152
 3682 0004 1307F70F 		addi	a4,a4,255
 3683 0008 F98F     		and	a5,a5,a4
 3684 000a 1CC5     		sw	a5,8(a0)
1633:arch/riscv/mach-gd32vf10x/bsp/gd32vf103_timer.c ****     TIMER_SMCFG(timer_periph) |= (uint32_t)(extfilter << 8U);
 3685              		.loc 1 1633 5 is_stmt 1
1633:arch/riscv/mach-gd32vf10x/bsp/gd32vf103_timer.c ****     TIMER_SMCFG(timer_periph) |= (uint32_t)(extfilter << 8U);
 3686              		.loc 1 1633 31 is_stmt 0
 3687 000c 1C45     		lw	a5,8(a0)
1633:arch/riscv/mach-gd32vf10x/bsp/gd32vf103_timer.c ****     TIMER_SMCFG(timer_periph) |= (uint32_t)(extfilter << 8U);
 3688              		.loc 1 1633 58
 3689 000e 4D8E     		or	a2,a1,a2
 3690              	.LVL221:
1634:arch/riscv/mach-gd32vf10x/bsp/gd32vf103_timer.c **** }
 3691              		.loc 1 1634 55
 3692 0010 A206     		slli	a3,a3,8
 3693              	.LVL222:
1633:arch/riscv/mach-gd32vf10x/bsp/gd32vf103_timer.c ****     TIMER_SMCFG(timer_periph) |= (uint32_t)(extfilter << 8U);
 3694              		.loc 1 1633 31
 3695 0012 5D8E     		or	a2,a2,a5
 3696 0014 10C5     		sw	a2,8(a0)
1634:arch/riscv/mach-gd32vf10x/bsp/gd32vf103_timer.c **** }
 3697              		.loc 1 1634 5 is_stmt 1
1634:arch/riscv/mach-gd32vf10x/bsp/gd32vf103_timer.c **** }
 3698              		.loc 1 1634 31 is_stmt 0
 3699 0016 1C45     		lw	a5,8(a0)
 3700              	.LBE39:
 3701              	.LBE38:
1809:arch/riscv/mach-gd32vf10x/bsp/gd32vf103_timer.c ****     TIMER_SMCFG(timer_periph) |= (uint32_t)TIMER_SMCFG_SMC1;
 3702              		.loc 1 1809 31
 3703 0018 1167     		li	a4,16384
 3704              	.LBB41:
 3705              	.LBB40:
1634:arch/riscv/mach-gd32vf10x/bsp/gd32vf103_timer.c **** }
 3706              		.loc 1 1634 31
 3707 001a DD8E     		or	a3,a3,a5
 3708 001c 14C5     		sw	a3,8(a0)
 3709              	.LVL223:
 3710              	.LBE40:
 3711              	.LBE41:
 3712              		.loc 1 1809 5 is_stmt 1
 3713              		.loc 1 1809 31 is_stmt 0
 3714 001e 1C45     		lw	a5,8(a0)
 3715 0020 D98F     		or	a5,a5,a4
 3716 0022 1CC5     		sw	a5,8(a0)
1810:arch/riscv/mach-gd32vf10x/bsp/gd32vf103_timer.c **** }
 3717              		.loc 1 1810 1
 3718 0024 8280     		ret
 3719              		.cfi_endproc
 3720              	.LFE63:
 3722              		.section	.text.timer_external_clock_mode1_disable,"ax",@progbits
 3723              		.align	1
 3724              		.globl	timer_external_clock_mode1_disable
 3726              	timer_external_clock_mode1_disable:
 3727              	.LFB64:
GAS LISTING C:\Users\test\AppData\Local\Temp\ccx0JFmY.s 			page 115


1811:arch/riscv/mach-gd32vf10x/bsp/gd32vf103_timer.c **** 
1812:arch/riscv/mach-gd32vf10x/bsp/gd32vf103_timer.c **** /*!
1813:arch/riscv/mach-gd32vf10x/bsp/gd32vf103_timer.c ****     \brief      disable TIMER the external clock mode1
1814:arch/riscv/mach-gd32vf10x/bsp/gd32vf103_timer.c ****     \param[in]  timer_periph: TIMERx(x=0..4)
1815:arch/riscv/mach-gd32vf10x/bsp/gd32vf103_timer.c ****     \param[out] none
1816:arch/riscv/mach-gd32vf10x/bsp/gd32vf103_timer.c ****     \retval     none
1817:arch/riscv/mach-gd32vf10x/bsp/gd32vf103_timer.c **** */
1818:arch/riscv/mach-gd32vf10x/bsp/gd32vf103_timer.c **** void timer_external_clock_mode1_disable(uint32_t timer_periph)
1819:arch/riscv/mach-gd32vf10x/bsp/gd32vf103_timer.c **** {
 3728              		.loc 1 1819 1 is_stmt 1
 3729              		.cfi_startproc
 3730              	.LVL224:
1820:arch/riscv/mach-gd32vf10x/bsp/gd32vf103_timer.c ****     TIMER_SMCFG(timer_periph) &= ~(uint32_t)TIMER_SMCFG_SMC1;
 3731              		.loc 1 1820 5
 3732              		.loc 1 1820 31 is_stmt 0
 3733 0000 1C45     		lw	a5,8(a0)
 3734 0002 7177     		li	a4,-16384
 3735 0004 7D17     		addi	a4,a4,-1
 3736 0006 F98F     		and	a5,a5,a4
 3737 0008 1CC5     		sw	a5,8(a0)
1821:arch/riscv/mach-gd32vf10x/bsp/gd32vf103_timer.c **** }
 3738              		.loc 1 1821 1
 3739 000a 8280     		ret
 3740              		.cfi_endproc
 3741              	.LFE64:
 3743              		.section	.text.timer_interrupt_enable,"ax",@progbits
 3744              		.align	1
 3745              		.globl	timer_interrupt_enable
 3747              	timer_interrupt_enable:
 3748              	.LFB65:
1822:arch/riscv/mach-gd32vf10x/bsp/gd32vf103_timer.c **** 
1823:arch/riscv/mach-gd32vf10x/bsp/gd32vf103_timer.c **** /*!
1824:arch/riscv/mach-gd32vf10x/bsp/gd32vf103_timer.c ****     \brief      enable the TIMER interrupt
1825:arch/riscv/mach-gd32vf10x/bsp/gd32vf103_timer.c ****     \param[in]  timer_periph: please refer to the following parameters 
1826:arch/riscv/mach-gd32vf10x/bsp/gd32vf103_timer.c ****     \param[in]  interrupt: specify which interrupt to enable
1827:arch/riscv/mach-gd32vf10x/bsp/gd32vf103_timer.c ****                 one or more parameters can be selected which are shown as below:
1828:arch/riscv/mach-gd32vf10x/bsp/gd32vf103_timer.c ****       \arg        TIMER_INT_UP: update interrupt enable, TIMERx(x=0..6)
1829:arch/riscv/mach-gd32vf10x/bsp/gd32vf103_timer.c ****       \arg        TIMER_INT_CH0: channel 0 interrupt enable, TIMERx(x=0..4)
1830:arch/riscv/mach-gd32vf10x/bsp/gd32vf103_timer.c ****       \arg        TIMER_INT_CH1: channel 1 interrupt enable, TIMERx(x=0..4)
1831:arch/riscv/mach-gd32vf10x/bsp/gd32vf103_timer.c ****       \arg        TIMER_INT_CH2: channel 2 interrupt enable, TIMERx(x=0..4)
1832:arch/riscv/mach-gd32vf10x/bsp/gd32vf103_timer.c ****       \arg        TIMER_INT_CH3: channel 3 interrupt enable, TIMERx(x=0..4)
1833:arch/riscv/mach-gd32vf10x/bsp/gd32vf103_timer.c ****       \arg        TIMER_INT_CMT: commutation interrupt enable, TIMERx(x=0)
1834:arch/riscv/mach-gd32vf10x/bsp/gd32vf103_timer.c ****       \arg        TIMER_INT_TRG: trigger interrupt enable, TIMERx(x=0..4)
1835:arch/riscv/mach-gd32vf10x/bsp/gd32vf103_timer.c ****       \arg        TIMER_INT_BRK: break interrupt enable, TIMERx(x=0)
1836:arch/riscv/mach-gd32vf10x/bsp/gd32vf103_timer.c ****     \param[out] none
1837:arch/riscv/mach-gd32vf10x/bsp/gd32vf103_timer.c ****     \retval     none
1838:arch/riscv/mach-gd32vf10x/bsp/gd32vf103_timer.c **** */
1839:arch/riscv/mach-gd32vf10x/bsp/gd32vf103_timer.c **** void timer_interrupt_enable(uint32_t timer_periph, uint32_t interrupt)
1840:arch/riscv/mach-gd32vf10x/bsp/gd32vf103_timer.c **** {
 3749              		.loc 1 1840 1 is_stmt 1
 3750              		.cfi_startproc
 3751              	.LVL225:
1841:arch/riscv/mach-gd32vf10x/bsp/gd32vf103_timer.c ****     TIMER_DMAINTEN(timer_periph) |= (uint32_t) interrupt; 
 3752              		.loc 1 1841 5
 3753              		.loc 1 1841 34 is_stmt 0
 3754 0000 5C45     		lw	a5,12(a0)
 3755 0002 DD8D     		or	a1,a5,a1
GAS LISTING C:\Users\test\AppData\Local\Temp\ccx0JFmY.s 			page 116


 3756              	.LVL226:
 3757 0004 4CC5     		sw	a1,12(a0)
1842:arch/riscv/mach-gd32vf10x/bsp/gd32vf103_timer.c **** }
 3758              		.loc 1 1842 1
 3759 0006 8280     		ret
 3760              		.cfi_endproc
 3761              	.LFE65:
 3763              		.section	.text.timer_interrupt_disable,"ax",@progbits
 3764              		.align	1
 3765              		.globl	timer_interrupt_disable
 3767              	timer_interrupt_disable:
 3768              	.LFB66:
1843:arch/riscv/mach-gd32vf10x/bsp/gd32vf103_timer.c **** 
1844:arch/riscv/mach-gd32vf10x/bsp/gd32vf103_timer.c **** /*!
1845:arch/riscv/mach-gd32vf10x/bsp/gd32vf103_timer.c ****     \brief      disable the TIMER interrupt
1846:arch/riscv/mach-gd32vf10x/bsp/gd32vf103_timer.c ****     \param[in]  timer_periph: TIMERx(x=0..6)
1847:arch/riscv/mach-gd32vf10x/bsp/gd32vf103_timer.c ****     \param[in]  interrupt: specify which interrupt to disbale
1848:arch/riscv/mach-gd32vf10x/bsp/gd32vf103_timer.c ****                 one or more parameters can be selected which are shown as below:
1849:arch/riscv/mach-gd32vf10x/bsp/gd32vf103_timer.c ****       \arg        TIMER_INT_UP: update interrupt enable, TIMERx(x=0..6)
1850:arch/riscv/mach-gd32vf10x/bsp/gd32vf103_timer.c ****       \arg        TIMER_INT_CH0: channel 0 interrupt enable, TIMERx(x=0..4)
1851:arch/riscv/mach-gd32vf10x/bsp/gd32vf103_timer.c ****       \arg        TIMER_INT_CH1: channel 1 interrupt enable, TIMERx(x=0..4)
1852:arch/riscv/mach-gd32vf10x/bsp/gd32vf103_timer.c ****       \arg        TIMER_INT_CH2: channel 2 interrupt enable, TIMERx(x=0..4)
1853:arch/riscv/mach-gd32vf10x/bsp/gd32vf103_timer.c ****       \arg        TIMER_INT_CH3: channel 3 interrupt enable , TIMERx(x=0..4)
1854:arch/riscv/mach-gd32vf10x/bsp/gd32vf103_timer.c ****       \arg        TIMER_INT_CMT: commutation interrupt enable, TIMERx(x=0)
1855:arch/riscv/mach-gd32vf10x/bsp/gd32vf103_timer.c ****       \arg        TIMER_INT_TRG: trigger interrupt enable, TIMERx(x=0..4)
1856:arch/riscv/mach-gd32vf10x/bsp/gd32vf103_timer.c ****       \arg        TIMER_INT_BRK: break interrupt enable, TIMERx(x=0)
1857:arch/riscv/mach-gd32vf10x/bsp/gd32vf103_timer.c ****     \param[out] none
1858:arch/riscv/mach-gd32vf10x/bsp/gd32vf103_timer.c ****     \retval     none
1859:arch/riscv/mach-gd32vf10x/bsp/gd32vf103_timer.c **** */
1860:arch/riscv/mach-gd32vf10x/bsp/gd32vf103_timer.c **** void timer_interrupt_disable(uint32_t timer_periph, uint32_t interrupt)
1861:arch/riscv/mach-gd32vf10x/bsp/gd32vf103_timer.c **** {
 3769              		.loc 1 1861 1 is_stmt 1
 3770              		.cfi_startproc
 3771              	.LVL227:
1862:arch/riscv/mach-gd32vf10x/bsp/gd32vf103_timer.c ****     TIMER_DMAINTEN(timer_periph) &= (~(uint32_t)interrupt); 
 3772              		.loc 1 1862 5
 3773              		.loc 1 1862 34 is_stmt 0
 3774 0000 5C45     		lw	a5,12(a0)
 3775              		.loc 1 1862 38
 3776 0002 93C5F5FF 		not	a1,a1
 3777              	.LVL228:
 3778              		.loc 1 1862 34
 3779 0006 FD8D     		and	a1,a1,a5
 3780              	.LVL229:
 3781 0008 4CC5     		sw	a1,12(a0)
1863:arch/riscv/mach-gd32vf10x/bsp/gd32vf103_timer.c **** }
 3782              		.loc 1 1863 1
 3783 000a 8280     		ret
 3784              		.cfi_endproc
 3785              	.LFE66:
 3787              		.section	.text.timer_interrupt_flag_get,"ax",@progbits
 3788              		.align	1
 3789              		.globl	timer_interrupt_flag_get
 3791              	timer_interrupt_flag_get:
 3792              	.LFB67:
1864:arch/riscv/mach-gd32vf10x/bsp/gd32vf103_timer.c **** 
1865:arch/riscv/mach-gd32vf10x/bsp/gd32vf103_timer.c **** /*!
GAS LISTING C:\Users\test\AppData\Local\Temp\ccx0JFmY.s 			page 117


1866:arch/riscv/mach-gd32vf10x/bsp/gd32vf103_timer.c ****     \brief      get timer interrupt flag
1867:arch/riscv/mach-gd32vf10x/bsp/gd32vf103_timer.c ****     \param[in]  timer_periph: TIMERx(x=0..6)
1868:arch/riscv/mach-gd32vf10x/bsp/gd32vf103_timer.c ****     \param[in]  interrupt: the timer interrupt bits
1869:arch/riscv/mach-gd32vf10x/bsp/gd32vf103_timer.c ****                 only one parameter can be selected which is shown as below:
1870:arch/riscv/mach-gd32vf10x/bsp/gd32vf103_timer.c ****       \arg        TIMER_INT_FLAG_UP: update interrupt flag, TIMERx(x=0..6)
1871:arch/riscv/mach-gd32vf10x/bsp/gd32vf103_timer.c ****       \arg        TIMER_INT_FLAG_CH0: channel 0 interrupt flag, TIMERx(x=0..4)
1872:arch/riscv/mach-gd32vf10x/bsp/gd32vf103_timer.c ****       \arg        TIMER_INT_FLAG_CH1: channel 1 interrupt flag, TIMERx(x=0..4)
1873:arch/riscv/mach-gd32vf10x/bsp/gd32vf103_timer.c ****       \arg        TIMER_INT_FLAG_CH2: channel 2 interrupt flag, TIMERx(x=0..4)
1874:arch/riscv/mach-gd32vf10x/bsp/gd32vf103_timer.c ****       \arg        TIMER_INT_FLAG_CH3: channel 3 interrupt flag, TIMERx(x=0..4)
1875:arch/riscv/mach-gd32vf10x/bsp/gd32vf103_timer.c ****       \arg        TIMER_INT_FLAG_CMT: channel commutation interrupt flag, TIMERx(x=0) 
1876:arch/riscv/mach-gd32vf10x/bsp/gd32vf103_timer.c ****       \arg        TIMER_INT_FLAG_TRG: trigger interrupt flag, TIMERx(x=0)
1877:arch/riscv/mach-gd32vf10x/bsp/gd32vf103_timer.c ****       \arg        TIMER_INT_FLAG_BRK: break interrupt flag, TIMERx(x=0)
1878:arch/riscv/mach-gd32vf10x/bsp/gd32vf103_timer.c ****     \param[out] none
1879:arch/riscv/mach-gd32vf10x/bsp/gd32vf103_timer.c ****     \retval     FlagStatus: SET or RESET
1880:arch/riscv/mach-gd32vf10x/bsp/gd32vf103_timer.c **** */
1881:arch/riscv/mach-gd32vf10x/bsp/gd32vf103_timer.c **** FlagStatus timer_interrupt_flag_get(uint32_t timer_periph, uint32_t interrupt)
1882:arch/riscv/mach-gd32vf10x/bsp/gd32vf103_timer.c **** {
 3793              		.loc 1 1882 1 is_stmt 1
 3794              		.cfi_startproc
 3795              	.LVL230:
1883:arch/riscv/mach-gd32vf10x/bsp/gd32vf103_timer.c ****     uint32_t val;
 3796              		.loc 1 1883 5
1884:arch/riscv/mach-gd32vf10x/bsp/gd32vf103_timer.c ****     val = (TIMER_DMAINTEN(timer_periph) & interrupt);
 3797              		.loc 1 1884 5
 3798              		.loc 1 1884 12 is_stmt 0
 3799 0000 5C45     		lw	a5,12(a0)
1885:arch/riscv/mach-gd32vf10x/bsp/gd32vf103_timer.c ****     if((RESET != (TIMER_INTF(timer_periph) & interrupt)) && (RESET != val)){
 3800              		.loc 1 1885 19
 3801 0002 0849     		lw	a0,16(a0)
 3802              	.LVL231:
 3803              		.loc 1 1885 5 is_stmt 1
 3804              		.loc 1 1885 44 is_stmt 0
 3805 0004 6D8D     		and	a0,a0,a1
 3806              		.loc 1 1885 7
 3807 0006 09C5     		beq	a0,zero,.L205
1884:arch/riscv/mach-gd32vf10x/bsp/gd32vf103_timer.c ****     val = (TIMER_DMAINTEN(timer_periph) & interrupt);
 3808              		.loc 1 1884 9 discriminator 1
 3809 0008 33F5B700 		and	a0,a5,a1
 3810              	.LVL232:
 3811              		.loc 1 1885 58 discriminator 1
 3812 000c 3335A000 		snez	a0,a0
 3813              	.LVL233:
 3814              	.L205:
1886:arch/riscv/mach-gd32vf10x/bsp/gd32vf103_timer.c ****         return SET;
1887:arch/riscv/mach-gd32vf10x/bsp/gd32vf103_timer.c ****     }else{
1888:arch/riscv/mach-gd32vf10x/bsp/gd32vf103_timer.c ****         return RESET;
1889:arch/riscv/mach-gd32vf10x/bsp/gd32vf103_timer.c ****     }
1890:arch/riscv/mach-gd32vf10x/bsp/gd32vf103_timer.c **** }
 3815              		.loc 1 1890 1
 3816 0010 8280     		ret
 3817              		.cfi_endproc
 3818              	.LFE67:
 3820              		.section	.text.timer_interrupt_flag_clear,"ax",@progbits
 3821              		.align	1
 3822              		.globl	timer_interrupt_flag_clear
 3824              	timer_interrupt_flag_clear:
 3825              	.LFB68:
GAS LISTING C:\Users\test\AppData\Local\Temp\ccx0JFmY.s 			page 118


1891:arch/riscv/mach-gd32vf10x/bsp/gd32vf103_timer.c **** 
1892:arch/riscv/mach-gd32vf10x/bsp/gd32vf103_timer.c **** /*!
1893:arch/riscv/mach-gd32vf10x/bsp/gd32vf103_timer.c ****     \brief      clear TIMER interrupt flag
1894:arch/riscv/mach-gd32vf10x/bsp/gd32vf103_timer.c ****     \param[in]  timer_periph: TIMERx(x=0..6)
1895:arch/riscv/mach-gd32vf10x/bsp/gd32vf103_timer.c ****     \param[in]  interrupt: the timer interrupt bits
1896:arch/riscv/mach-gd32vf10x/bsp/gd32vf103_timer.c ****                 one or more parameters can be selected which are shown as below:
1897:arch/riscv/mach-gd32vf10x/bsp/gd32vf103_timer.c ****       \arg        TIMER_INT_FLAG_UP: update interrupt flag, TIMERx(x=0..6)
1898:arch/riscv/mach-gd32vf10x/bsp/gd32vf103_timer.c ****       \arg        TIMER_INT_FLAG_CH0: channel 0 interrupt flag, TIMERx(x=0..4)
1899:arch/riscv/mach-gd32vf10x/bsp/gd32vf103_timer.c ****       \arg        TIMER_INT_FLAG_CH1: channel 1 interrupt flag, TIMERx(x=0..4)
1900:arch/riscv/mach-gd32vf10x/bsp/gd32vf103_timer.c ****       \arg        TIMER_INT_FLAG_CH2: channel 2 interrupt flag, TIMERx(x=0..4)
1901:arch/riscv/mach-gd32vf10x/bsp/gd32vf103_timer.c ****       \arg        TIMER_INT_FLAG_CH3: channel 3 interrupt flag, TIMERx(x=0..4)
1902:arch/riscv/mach-gd32vf10x/bsp/gd32vf103_timer.c ****       \arg        TIMER_INT_FLAG_CMT: channel commutation interrupt flag, TIMERx(x=0) 
1903:arch/riscv/mach-gd32vf10x/bsp/gd32vf103_timer.c ****       \arg        TIMER_INT_FLAG_TRG: trigger interrupt flag, TIMERx(x=0)
1904:arch/riscv/mach-gd32vf10x/bsp/gd32vf103_timer.c ****       \arg        TIMER_INT_FLAG_BRK: break interrupt flag, TIMERx(x=0)
1905:arch/riscv/mach-gd32vf10x/bsp/gd32vf103_timer.c ****     \param[out] none
1906:arch/riscv/mach-gd32vf10x/bsp/gd32vf103_timer.c ****     \retval     none
1907:arch/riscv/mach-gd32vf10x/bsp/gd32vf103_timer.c **** */
1908:arch/riscv/mach-gd32vf10x/bsp/gd32vf103_timer.c **** void timer_interrupt_flag_clear(uint32_t timer_periph, uint32_t interrupt)
1909:arch/riscv/mach-gd32vf10x/bsp/gd32vf103_timer.c **** {
 3826              		.loc 1 1909 1 is_stmt 1
 3827              		.cfi_startproc
 3828              	.LVL234:
1910:arch/riscv/mach-gd32vf10x/bsp/gd32vf103_timer.c ****     TIMER_INTF(timer_periph) = (~(uint32_t)interrupt);
 3829              		.loc 1 1910 5
 3830              		.loc 1 1910 33 is_stmt 0
 3831 0000 93C5F5FF 		not	a1,a1
 3832              	.LVL235:
 3833              		.loc 1 1910 30
 3834 0004 0CC9     		sw	a1,16(a0)
1911:arch/riscv/mach-gd32vf10x/bsp/gd32vf103_timer.c **** }
 3835              		.loc 1 1911 1
 3836 0006 8280     		ret
 3837              		.cfi_endproc
 3838              	.LFE68:
 3840              		.section	.text.timer_flag_get,"ax",@progbits
 3841              		.align	1
 3842              		.globl	timer_flag_get
 3844              	timer_flag_get:
 3845              	.LFB69:
1912:arch/riscv/mach-gd32vf10x/bsp/gd32vf103_timer.c **** 
1913:arch/riscv/mach-gd32vf10x/bsp/gd32vf103_timer.c **** /*!
1914:arch/riscv/mach-gd32vf10x/bsp/gd32vf103_timer.c ****     \brief      get TIMER flags
1915:arch/riscv/mach-gd32vf10x/bsp/gd32vf103_timer.c ****     \param[in]  timer_periph: TIMERx(x=0..6)
1916:arch/riscv/mach-gd32vf10x/bsp/gd32vf103_timer.c ****     \param[in]  flag: the timer interrupt flags
1917:arch/riscv/mach-gd32vf10x/bsp/gd32vf103_timer.c ****                 only one parameter can be selected which is shown as below:
1918:arch/riscv/mach-gd32vf10x/bsp/gd32vf103_timer.c ****       \arg        TIMER_FLAG_UP: update flag, TIMERx(x=0..6)
1919:arch/riscv/mach-gd32vf10x/bsp/gd32vf103_timer.c ****       \arg        TIMER_FLAG_CH0: channel 0 flag, TIMERx(x=0..4)
1920:arch/riscv/mach-gd32vf10x/bsp/gd32vf103_timer.c ****       \arg        TIMER_FLAG_CH1: channel 1 flag, TIMERx(x=0..4)
1921:arch/riscv/mach-gd32vf10x/bsp/gd32vf103_timer.c ****       \arg        TIMER_FLAG_CH2: channel 2 flag, TIMERx(x=0..4)
1922:arch/riscv/mach-gd32vf10x/bsp/gd32vf103_timer.c ****       \arg        TIMER_FLAG_CH3: channel 3 flag, TIMERx(x=0..4)
1923:arch/riscv/mach-gd32vf10x/bsp/gd32vf103_timer.c ****       \arg        TIMER_FLAG_CMT: channel commutation flag, TIMERx(x=0)
1924:arch/riscv/mach-gd32vf10x/bsp/gd32vf103_timer.c ****       \arg        TIMER_FLAG_TRG: trigger flag, TIMERx(x=0) 
1925:arch/riscv/mach-gd32vf10x/bsp/gd32vf103_timer.c ****       \arg        TIMER_FLAG_BRK: break flag, TIMERx(x=0)
1926:arch/riscv/mach-gd32vf10x/bsp/gd32vf103_timer.c ****       \arg        TIMER_FLAG_CH0O: channel 0 overcapture flag, TIMERx(x=0..4)
1927:arch/riscv/mach-gd32vf10x/bsp/gd32vf103_timer.c ****       \arg        TIMER_FLAG_CH1O: channel 1 overcapture flag, TIMERx(x=0..4)
1928:arch/riscv/mach-gd32vf10x/bsp/gd32vf103_timer.c ****       \arg        TIMER_FLAG_CH2O: channel 2 overcapture flag, TIMERx(x=0..4)
1929:arch/riscv/mach-gd32vf10x/bsp/gd32vf103_timer.c ****       \arg        TIMER_FLAG_CH3O: channel 3 overcapture flag, TIMERx(x=0..4)
GAS LISTING C:\Users\test\AppData\Local\Temp\ccx0JFmY.s 			page 119


1930:arch/riscv/mach-gd32vf10x/bsp/gd32vf103_timer.c ****     \param[out] none
1931:arch/riscv/mach-gd32vf10x/bsp/gd32vf103_timer.c ****     \retval     FlagStatus: SET or RESET
1932:arch/riscv/mach-gd32vf10x/bsp/gd32vf103_timer.c **** */
1933:arch/riscv/mach-gd32vf10x/bsp/gd32vf103_timer.c **** FlagStatus timer_flag_get(uint32_t timer_periph, uint32_t flag)
1934:arch/riscv/mach-gd32vf10x/bsp/gd32vf103_timer.c **** {
 3846              		.loc 1 1934 1 is_stmt 1
 3847              		.cfi_startproc
 3848              	.LVL236:
1935:arch/riscv/mach-gd32vf10x/bsp/gd32vf103_timer.c ****     if(RESET != (TIMER_INTF(timer_periph) & flag)){
 3849              		.loc 1 1935 5
 3850              		.loc 1 1935 18 is_stmt 0
 3851 0000 0849     		lw	a0,16(a0)
 3852              	.LVL237:
 3853              		.loc 1 1935 43
 3854 0002 6D8D     		and	a0,a0,a1
1936:arch/riscv/mach-gd32vf10x/bsp/gd32vf103_timer.c ****         return SET;
1937:arch/riscv/mach-gd32vf10x/bsp/gd32vf103_timer.c ****     }else{
1938:arch/riscv/mach-gd32vf10x/bsp/gd32vf103_timer.c ****         return RESET;
1939:arch/riscv/mach-gd32vf10x/bsp/gd32vf103_timer.c ****     }
1940:arch/riscv/mach-gd32vf10x/bsp/gd32vf103_timer.c **** }
 3855              		.loc 1 1940 1
 3856 0004 3335A000 		snez	a0,a0
 3857 0008 8280     		ret
 3858              		.cfi_endproc
 3859              	.LFE69:
 3861              		.section	.text.timer_flag_clear,"ax",@progbits
 3862              		.align	1
 3863              		.globl	timer_flag_clear
 3865              	timer_flag_clear:
 3866              	.LFB73:
 3867              		.cfi_startproc
 3868 0000 93C5F5FF 		not	a1,a1
 3869 0004 0CC9     		sw	a1,16(a0)
 3870 0006 8280     		ret
 3871              		.cfi_endproc
 3872              	.LFE73:
 3874              		.text
 3875              	.Letext0:
 3876              		.file 2 "d:\\risc_v_gcc\\riscv-none-embed\\include\\machine\\_default_types.h"
 3877              		.file 3 "d:\\risc_v_gcc\\riscv-none-embed\\include\\sys\\_stdint.h"
 3878              		.file 4 "arch/riscv/mach-gd32vf10x/system/gd32vf103.h"
 3879              		.file 5 "arch/riscv/mach-gd32vf10x/bsp/gd32vf103_rcu.h"
 3880              		.file 6 "arch/riscv/mach-gd32vf10x/bsp/gd32vf103_timer.h"
 3881              		.file 7 "arch/riscv/mach-gd32vf10x/system/system_gd32vf103.h"
GAS LISTING C:\Users\test\AppData\Local\Temp\ccx0JFmY.s 			page 120


DEFINED SYMBOLS
                            *ABS*:0000000000000000 gd32vf103_timer.c
C:\Users\test\AppData\Local\Temp\ccx0JFmY.s:9      .text.timer_channel_input_capture_prescaler_config.part.0:0000000000000000 timer_channel_input_capture_prescaler_config.part.0
C:\Users\test\AppData\Local\Temp\ccx0JFmY.s:13     .text.timer_channel_input_capture_prescaler_config.part.0:0000000000000000 .L0 
C:\Users\test\AppData\Local\Temp\ccx0JFmY.s:15     .text.timer_channel_input_capture_prescaler_config.part.0:0000000000000000 .L0 
C:\Users\test\AppData\Local\Temp\ccx0JFmY.s:16     .text.timer_channel_input_capture_prescaler_config.part.0:0000000000000000 .L0 
C:\Users\test\AppData\Local\Temp\ccx0JFmY.s:17     .text.timer_channel_input_capture_prescaler_config.part.0:0000000000000000 .L0 
C:\Users\test\AppData\Local\Temp\ccx0JFmY.s:23     .text.timer_channel_input_capture_prescaler_config.part.0:000000000000000c .L0 
C:\Users\test\AppData\Local\Temp\ccx0JFmY.s:24     .text.timer_channel_input_capture_prescaler_config.part.0:000000000000000c .L0 
C:\Users\test\AppData\Local\Temp\ccx0JFmY.s:26     .text.timer_channel_input_capture_prescaler_config.part.0:000000000000000e .L0 
C:\Users\test\AppData\Local\Temp\ccx0JFmY.s:29     .text.timer_channel_input_capture_prescaler_config.part.0:0000000000000010 .L0 
C:\Users\test\AppData\Local\Temp\ccx0JFmY.s:32     .text.timer_channel_input_capture_prescaler_config.part.0:0000000000000014 .L0 
C:\Users\test\AppData\Local\Temp\ccx0JFmY.s:33     .text.timer_channel_input_capture_prescaler_config.part.0:0000000000000014 .L0 
C:\Users\test\AppData\Local\Temp\ccx0JFmY.s:34     .text.timer_channel_input_capture_prescaler_config.part.0:0000000000000016 .L0 
C:\Users\test\AppData\Local\Temp\ccx0JFmY.s:41     .text.timer_deinit:0000000000000000 timer_deinit
C:\Users\test\AppData\Local\Temp\ccx0JFmY.s:44     .text.timer_deinit:0000000000000000 .L0 
C:\Users\test\AppData\Local\Temp\ccx0JFmY.s:46     .text.timer_deinit:0000000000000000 .L0 
C:\Users\test\AppData\Local\Temp\ccx0JFmY.s:47     .text.timer_deinit:0000000000000000 .L0 
C:\Users\test\AppData\Local\Temp\ccx0JFmY.s:48     .text.timer_deinit:0000000000000000 .L0 
C:\Users\test\AppData\Local\Temp\ccx0JFmY.s:50     .text.timer_deinit:0000000000000002 .L0 
C:\Users\test\AppData\Local\Temp\ccx0JFmY.s:52     .text.timer_deinit:0000000000000002 .L0 
C:\Users\test\AppData\Local\Temp\ccx0JFmY.s:54     .text.timer_deinit:0000000000000006 .L0 
C:\Users\test\AppData\Local\Temp\ccx0JFmY.s:55     .text.timer_deinit:0000000000000008 .L0 
C:\Users\test\AppData\Local\Temp\ccx0JFmY.s:57     .text.timer_deinit:0000000000000008 .L0 
C:\Users\test\AppData\Local\Temp\ccx0JFmY.s:68     .text.timer_deinit:000000000000002c .L0 
C:\Users\test\AppData\Local\Temp\ccx0JFmY.s:69     .text.timer_deinit:000000000000002e .L0 
C:\Users\test\AppData\Local\Temp\ccx0JFmY.s:70     .text.timer_deinit:000000000000002e .L0 
C:\Users\test\AppData\Local\Temp\ccx0JFmY.s:73     .text.timer_deinit:0000000000000030 .L0 
C:\Users\test\AppData\Local\Temp\ccx0JFmY.s:77     .text.timer_deinit:0000000000000032 .L0 
C:\Users\test\AppData\Local\Temp\ccx0JFmY.s:79     .text.timer_deinit:0000000000000032 .L0 
C:\Users\test\AppData\Local\Temp\ccx0JFmY.s:86     .text.timer_deinit:000000000000004a .L0 
C:\Users\test\AppData\Local\Temp\ccx0JFmY.s:91     .text.timer_deinit:0000000000000056 .L0 
C:\Users\test\AppData\Local\Temp\ccx0JFmY.s:92     .text.timer_deinit:0000000000000056 .L0 
C:\Users\test\AppData\Local\Temp\ccx0JFmY.s:93     .text.timer_deinit:0000000000000058 .L0 
C:\Users\test\AppData\Local\Temp\ccx0JFmY.s:94     .text.timer_deinit:0000000000000058 .L0 
C:\Users\test\AppData\Local\Temp\ccx0JFmY.s:96     .text.timer_deinit:0000000000000058 .L0 
C:\Users\test\AppData\Local\Temp\ccx0JFmY.s:98     .text.timer_deinit:000000000000005c .L0 
C:\Users\test\AppData\Local\Temp\ccx0JFmY.s:100    .text.timer_deinit:000000000000005e .L0 
C:\Users\test\AppData\Local\Temp\ccx0JFmY.s:102    .text.timer_deinit:000000000000005e .L0 
C:\Users\test\AppData\Local\Temp\ccx0JFmY.s:106    .text.timer_deinit:0000000000000066 .L0 
C:\Users\test\AppData\Local\Temp\ccx0JFmY.s:108    .text.timer_deinit:0000000000000066 .L0 
C:\Users\test\AppData\Local\Temp\ccx0JFmY.s:113    .text.timer_deinit:0000000000000072 .L0 
C:\Users\test\AppData\Local\Temp\ccx0JFmY.s:114    .text.timer_deinit:0000000000000072 .L0 
C:\Users\test\AppData\Local\Temp\ccx0JFmY.s:115    .text.timer_deinit:0000000000000074 .L0 
C:\Users\test\AppData\Local\Temp\ccx0JFmY.s:116    .text.timer_deinit:0000000000000074 .L0 
C:\Users\test\AppData\Local\Temp\ccx0JFmY.s:118    .text.timer_deinit:0000000000000074 .L0 
C:\Users\test\AppData\Local\Temp\ccx0JFmY.s:120    .text.timer_deinit:0000000000000078 .L0 
C:\Users\test\AppData\Local\Temp\ccx0JFmY.s:122    .text.timer_deinit:000000000000007a .L0 
C:\Users\test\AppData\Local\Temp\ccx0JFmY.s:124    .text.timer_deinit:000000000000007a .L0 
C:\Users\test\AppData\Local\Temp\ccx0JFmY.s:128    .text.timer_deinit:0000000000000082 .L0 
C:\Users\test\AppData\Local\Temp\ccx0JFmY.s:130    .text.timer_deinit:0000000000000082 .L0 
C:\Users\test\AppData\Local\Temp\ccx0JFmY.s:135    .text.timer_deinit:000000000000008e .L0 
C:\Users\test\AppData\Local\Temp\ccx0JFmY.s:136    .text.timer_deinit:000000000000008e .L0 
C:\Users\test\AppData\Local\Temp\ccx0JFmY.s:137    .text.timer_deinit:0000000000000090 .L0 
C:\Users\test\AppData\Local\Temp\ccx0JFmY.s:138    .text.timer_deinit:0000000000000090 .L0 
C:\Users\test\AppData\Local\Temp\ccx0JFmY.s:140    .text.timer_deinit:0000000000000090 .L0 
C:\Users\test\AppData\Local\Temp\ccx0JFmY.s:142    .text.timer_deinit:0000000000000094 .L0 
GAS LISTING C:\Users\test\AppData\Local\Temp\ccx0JFmY.s 			page 121


C:\Users\test\AppData\Local\Temp\ccx0JFmY.s:144    .text.timer_deinit:0000000000000096 .L0 
C:\Users\test\AppData\Local\Temp\ccx0JFmY.s:146    .text.timer_deinit:0000000000000096 .L0 
C:\Users\test\AppData\Local\Temp\ccx0JFmY.s:150    .text.timer_deinit:000000000000009e .L0 
C:\Users\test\AppData\Local\Temp\ccx0JFmY.s:152    .text.timer_deinit:000000000000009e .L0 
C:\Users\test\AppData\Local\Temp\ccx0JFmY.s:157    .text.timer_deinit:00000000000000aa .L0 
C:\Users\test\AppData\Local\Temp\ccx0JFmY.s:158    .text.timer_deinit:00000000000000aa .L0 
C:\Users\test\AppData\Local\Temp\ccx0JFmY.s:159    .text.timer_deinit:00000000000000ac .L0 
C:\Users\test\AppData\Local\Temp\ccx0JFmY.s:160    .text.timer_deinit:00000000000000ac .L0 
C:\Users\test\AppData\Local\Temp\ccx0JFmY.s:162    .text.timer_deinit:00000000000000ac .L0 
C:\Users\test\AppData\Local\Temp\ccx0JFmY.s:164    .text.timer_deinit:00000000000000b0 .L0 
C:\Users\test\AppData\Local\Temp\ccx0JFmY.s:166    .text.timer_deinit:00000000000000b2 .L0 
C:\Users\test\AppData\Local\Temp\ccx0JFmY.s:168    .text.timer_deinit:00000000000000b2 .L0 
C:\Users\test\AppData\Local\Temp\ccx0JFmY.s:172    .text.timer_deinit:00000000000000ba .L0 
C:\Users\test\AppData\Local\Temp\ccx0JFmY.s:174    .text.timer_deinit:00000000000000ba .L0 
C:\Users\test\AppData\Local\Temp\ccx0JFmY.s:179    .text.timer_deinit:00000000000000c6 .L0 
C:\Users\test\AppData\Local\Temp\ccx0JFmY.s:180    .text.timer_deinit:00000000000000c6 .L0 
C:\Users\test\AppData\Local\Temp\ccx0JFmY.s:181    .text.timer_deinit:00000000000000c8 .L0 
C:\Users\test\AppData\Local\Temp\ccx0JFmY.s:182    .text.timer_deinit:00000000000000c8 .L0 
C:\Users\test\AppData\Local\Temp\ccx0JFmY.s:184    .text.timer_deinit:00000000000000c8 .L0 
C:\Users\test\AppData\Local\Temp\ccx0JFmY.s:186    .text.timer_deinit:00000000000000cc .L0 
C:\Users\test\AppData\Local\Temp\ccx0JFmY.s:188    .text.timer_deinit:00000000000000ce .L0 
C:\Users\test\AppData\Local\Temp\ccx0JFmY.s:190    .text.timer_deinit:00000000000000ce .L0 
C:\Users\test\AppData\Local\Temp\ccx0JFmY.s:194    .text.timer_deinit:00000000000000d6 .L0 
C:\Users\test\AppData\Local\Temp\ccx0JFmY.s:196    .text.timer_deinit:00000000000000d6 .L0 
C:\Users\test\AppData\Local\Temp\ccx0JFmY.s:201    .text.timer_deinit:00000000000000e2 .L0 
C:\Users\test\AppData\Local\Temp\ccx0JFmY.s:202    .text.timer_deinit:00000000000000e2 .L0 
C:\Users\test\AppData\Local\Temp\ccx0JFmY.s:203    .text.timer_deinit:00000000000000e4 .L0 
C:\Users\test\AppData\Local\Temp\ccx0JFmY.s:204    .text.timer_deinit:00000000000000e4 .L0 
C:\Users\test\AppData\Local\Temp\ccx0JFmY.s:206    .text.timer_deinit:00000000000000e4 .L0 
C:\Users\test\AppData\Local\Temp\ccx0JFmY.s:208    .text.timer_deinit:00000000000000e8 .L0 
C:\Users\test\AppData\Local\Temp\ccx0JFmY.s:210    .text.timer_deinit:00000000000000ea .L0 
C:\Users\test\AppData\Local\Temp\ccx0JFmY.s:212    .text.timer_deinit:00000000000000ea .L0 
C:\Users\test\AppData\Local\Temp\ccx0JFmY.s:216    .text.timer_deinit:00000000000000f2 .L0 
C:\Users\test\AppData\Local\Temp\ccx0JFmY.s:218    .text.timer_deinit:00000000000000f2 .L0 
C:\Users\test\AppData\Local\Temp\ccx0JFmY.s:223    .text.timer_deinit:00000000000000fe .L0 
C:\Users\test\AppData\Local\Temp\ccx0JFmY.s:224    .text.timer_deinit:00000000000000fe .L0 
C:\Users\test\AppData\Local\Temp\ccx0JFmY.s:225    .text.timer_deinit:0000000000000100 .L0 
C:\Users\test\AppData\Local\Temp\ccx0JFmY.s:227    .text.timer_deinit:0000000000000100 .L0 
C:\Users\test\AppData\Local\Temp\ccx0JFmY.s:229    .text.timer_deinit:0000000000000104 .L0 
C:\Users\test\AppData\Local\Temp\ccx0JFmY.s:231    .text.timer_deinit:0000000000000106 .L0 
C:\Users\test\AppData\Local\Temp\ccx0JFmY.s:233    .text.timer_deinit:0000000000000106 .L0 
C:\Users\test\AppData\Local\Temp\ccx0JFmY.s:235    .text.timer_deinit:000000000000010e .L0 
C:\Users\test\AppData\Local\Temp\ccx0JFmY.s:242    .text.timer_struct_para_init:0000000000000000 timer_struct_para_init
C:\Users\test\AppData\Local\Temp\ccx0JFmY.s:245    .text.timer_struct_para_init:0000000000000000 .L0 
C:\Users\test\AppData\Local\Temp\ccx0JFmY.s:247    .text.timer_struct_para_init:0000000000000000 .L0 
C:\Users\test\AppData\Local\Temp\ccx0JFmY.s:248    .text.timer_struct_para_init:0000000000000000 .L0 
C:\Users\test\AppData\Local\Temp\ccx0JFmY.s:249    .text.timer_struct_para_init:0000000000000000 .L0 
C:\Users\test\AppData\Local\Temp\ccx0JFmY.s:250    .text.timer_struct_para_init:0000000000000000 .L0 
C:\Users\test\AppData\Local\Temp\ccx0JFmY.s:251    .text.timer_struct_para_init:0000000000000000 .L0 
C:\Users\test\AppData\Local\Temp\ccx0JFmY.s:254    .text.timer_struct_para_init:0000000000000004 .L0 
C:\Users\test\AppData\Local\Temp\ccx0JFmY.s:256    .text.timer_struct_para_init:0000000000000008 .L0 
C:\Users\test\AppData\Local\Temp\ccx0JFmY.s:258    .text.timer_struct_para_init:000000000000000c .L0 
C:\Users\test\AppData\Local\Temp\ccx0JFmY.s:259    .text.timer_struct_para_init:000000000000000c .L0 
C:\Users\test\AppData\Local\Temp\ccx0JFmY.s:261    .text.timer_struct_para_init:000000000000000e .L0 
C:\Users\test\AppData\Local\Temp\ccx0JFmY.s:262    .text.timer_struct_para_init:000000000000000e .L0 
C:\Users\test\AppData\Local\Temp\ccx0JFmY.s:264    .text.timer_struct_para_init:0000000000000012 .L0 
C:\Users\test\AppData\Local\Temp\ccx0JFmY.s:265    .text.timer_struct_para_init:0000000000000012 .L0 
GAS LISTING C:\Users\test\AppData\Local\Temp\ccx0JFmY.s 			page 122


C:\Users\test\AppData\Local\Temp\ccx0JFmY.s:267    .text.timer_struct_para_init:0000000000000016 .L0 
C:\Users\test\AppData\Local\Temp\ccx0JFmY.s:268    .text.timer_struct_para_init:0000000000000018 .L0 
C:\Users\test\AppData\Local\Temp\ccx0JFmY.s:275    .text.timer_init:0000000000000000 timer_init
C:\Users\test\AppData\Local\Temp\ccx0JFmY.s:278    .text.timer_init:0000000000000000 .L0 
C:\Users\test\AppData\Local\Temp\ccx0JFmY.s:280    .text.timer_init:0000000000000000 .L0 
C:\Users\test\AppData\Local\Temp\ccx0JFmY.s:281    .text.timer_init:0000000000000000 .L0 
C:\Users\test\AppData\Local\Temp\ccx0JFmY.s:282    .text.timer_init:0000000000000000 .L0 
C:\Users\test\AppData\Local\Temp\ccx0JFmY.s:286    .text.timer_init:000000000000000c .L0 
C:\Users\test\AppData\Local\Temp\ccx0JFmY.s:288    .text.timer_init:000000000000000e .L0 
C:\Users\test\AppData\Local\Temp\ccx0JFmY.s:289    .text.timer_init:000000000000000e .L0 
C:\Users\test\AppData\Local\Temp\ccx0JFmY.s:294    .text.timer_init:000000000000001c .L0 
C:\Users\test\AppData\Local\Temp\ccx0JFmY.s:300    .text.timer_init:000000000000002c .L0 
C:\Users\test\AppData\Local\Temp\ccx0JFmY.s:301    .text.timer_init:000000000000002c .L0 
C:\Users\test\AppData\Local\Temp\ccx0JFmY.s:303    .text.timer_init:000000000000002e .L0 
C:\Users\test\AppData\Local\Temp\ccx0JFmY.s:305    .text.timer_init:0000000000000032 .L0 
C:\Users\test\AppData\Local\Temp\ccx0JFmY.s:308    .text.timer_init:0000000000000036 .L0 
C:\Users\test\AppData\Local\Temp\ccx0JFmY.s:309    .text.timer_init:0000000000000036 .L0 
C:\Users\test\AppData\Local\Temp\ccx0JFmY.s:313    .text.timer_init:000000000000003c .L0 
C:\Users\test\AppData\Local\Temp\ccx0JFmY.s:314    .text.timer_init:000000000000003c .L0 
C:\Users\test\AppData\Local\Temp\ccx0JFmY.s:316    .text.timer_init:000000000000003e .L0 
C:\Users\test\AppData\Local\Temp\ccx0JFmY.s:318    .text.timer_init:0000000000000040 .L0 
C:\Users\test\AppData\Local\Temp\ccx0JFmY.s:319    .text.timer_init:0000000000000040 .L0 
C:\Users\test\AppData\Local\Temp\ccx0JFmY.s:321    .text.timer_init:0000000000000044 .L0 
C:\Users\test\AppData\Local\Temp\ccx0JFmY.s:322    .text.timer_init:0000000000000044 .L0 
C:\Users\test\AppData\Local\Temp\ccx0JFmY.s:324    .text.timer_init:0000000000000046 .L0 
C:\Users\test\AppData\Local\Temp\ccx0JFmY.s:326    .text.timer_init:000000000000004a .L0 
C:\Users\test\AppData\Local\Temp\ccx0JFmY.s:329    .text.timer_init:0000000000000050 .L0 
C:\Users\test\AppData\Local\Temp\ccx0JFmY.s:330    .text.timer_init:0000000000000050 .L0 
C:\Users\test\AppData\Local\Temp\ccx0JFmY.s:332    .text.timer_init:0000000000000052 .L0 
C:\Users\test\AppData\Local\Temp\ccx0JFmY.s:334    .text.timer_init:0000000000000056 .L0 
C:\Users\test\AppData\Local\Temp\ccx0JFmY.s:338    .text.timer_init:000000000000005a .L0 
C:\Users\test\AppData\Local\Temp\ccx0JFmY.s:339    .text.timer_init:000000000000005a .L0 
C:\Users\test\AppData\Local\Temp\ccx0JFmY.s:340    .text.timer_init:000000000000005a .L0 
C:\Users\test\AppData\Local\Temp\ccx0JFmY.s:344    .text.timer_init:0000000000000062 .L0 
C:\Users\test\AppData\Local\Temp\ccx0JFmY.s:347    .text.timer_init:0000000000000064 .L0 
C:\Users\test\AppData\Local\Temp\ccx0JFmY.s:348    .text.timer_init:0000000000000064 .L0 
C:\Users\test\AppData\Local\Temp\ccx0JFmY.s:350    .text.timer_init:0000000000000066 .L0 
C:\Users\test\AppData\Local\Temp\ccx0JFmY.s:352    .text.timer_init:000000000000006a .L0 
C:\Users\test\AppData\Local\Temp\ccx0JFmY.s:354    .text.timer_init:000000000000006e .L0 
C:\Users\test\AppData\Local\Temp\ccx0JFmY.s:357    .text.timer_init:0000000000000074 .L0 
C:\Users\test\AppData\Local\Temp\ccx0JFmY.s:358    .text.timer_init:0000000000000074 .L0 
C:\Users\test\AppData\Local\Temp\ccx0JFmY.s:360    .text.timer_init:0000000000000076 .L0 
C:\Users\test\AppData\Local\Temp\ccx0JFmY.s:362    .text.timer_init:000000000000007a .L0 
C:\Users\test\AppData\Local\Temp\ccx0JFmY.s:365    .text.timer_init:000000000000007e .L0 
C:\Users\test\AppData\Local\Temp\ccx0JFmY.s:366    .text.timer_init:000000000000007e .L0 
C:\Users\test\AppData\Local\Temp\ccx0JFmY.s:370    .text.timer_init:0000000000000084 .L0 
C:\Users\test\AppData\Local\Temp\ccx0JFmY.s:371    .text.timer_init:0000000000000084 .L0 
C:\Users\test\AppData\Local\Temp\ccx0JFmY.s:373    .text.timer_init:0000000000000086 .L0 
C:\Users\test\AppData\Local\Temp\ccx0JFmY.s:375    .text.timer_init:0000000000000088 .L0 
C:\Users\test\AppData\Local\Temp\ccx0JFmY.s:376    .text.timer_init:0000000000000088 .L0 
C:\Users\test\AppData\Local\Temp\ccx0JFmY.s:378    .text.timer_init:000000000000008c .L0 
C:\Users\test\AppData\Local\Temp\ccx0JFmY.s:379    .text.timer_init:000000000000008c .L0 
C:\Users\test\AppData\Local\Temp\ccx0JFmY.s:381    .text.timer_init:000000000000008e .L0 
C:\Users\test\AppData\Local\Temp\ccx0JFmY.s:383    .text.timer_init:0000000000000092 .L0 
C:\Users\test\AppData\Local\Temp\ccx0JFmY.s:385    .text.timer_init:0000000000000096 .L0 
C:\Users\test\AppData\Local\Temp\ccx0JFmY.s:388    .text.timer_init:000000000000009c .L0 
C:\Users\test\AppData\Local\Temp\ccx0JFmY.s:389    .text.timer_init:000000000000009c .L0 
GAS LISTING C:\Users\test\AppData\Local\Temp\ccx0JFmY.s 			page 123


C:\Users\test\AppData\Local\Temp\ccx0JFmY.s:391    .text.timer_init:000000000000009e .L0 
C:\Users\test\AppData\Local\Temp\ccx0JFmY.s:393    .text.timer_init:00000000000000a2 .L0 
C:\Users\test\AppData\Local\Temp\ccx0JFmY.s:395    .text.timer_init:00000000000000a6 .L0 
C:\Users\test\AppData\Local\Temp\ccx0JFmY.s:398    .text.timer_init:00000000000000aa .L0 
C:\Users\test\AppData\Local\Temp\ccx0JFmY.s:399    .text.timer_init:00000000000000aa .L0 
C:\Users\test\AppData\Local\Temp\ccx0JFmY.s:401    .text.timer_init:00000000000000ae .L0 
C:\Users\test\AppData\Local\Temp\ccx0JFmY.s:402    .text.timer_init:00000000000000ae .L0 
C:\Users\test\AppData\Local\Temp\ccx0JFmY.s:404    .text.timer_init:00000000000000b2 .L0 
C:\Users\test\AppData\Local\Temp\ccx0JFmY.s:406    .text.timer_init:00000000000000b6 .L0 
C:\Users\test\AppData\Local\Temp\ccx0JFmY.s:407    .text.timer_init:00000000000000b6 .L0 
C:\Users\test\AppData\Local\Temp\ccx0JFmY.s:411    .text.timer_init:00000000000000be .L0 
C:\Users\test\AppData\Local\Temp\ccx0JFmY.s:412    .text.timer_init:00000000000000c0 .L0 
C:\Users\test\AppData\Local\Temp\ccx0JFmY.s:419    .text.timer_enable:0000000000000000 timer_enable
C:\Users\test\AppData\Local\Temp\ccx0JFmY.s:422    .text.timer_enable:0000000000000000 .L0 
C:\Users\test\AppData\Local\Temp\ccx0JFmY.s:424    .text.timer_enable:0000000000000000 .L0 
C:\Users\test\AppData\Local\Temp\ccx0JFmY.s:425    .text.timer_enable:0000000000000000 .L0 
C:\Users\test\AppData\Local\Temp\ccx0JFmY.s:426    .text.timer_enable:0000000000000000 .L0 
C:\Users\test\AppData\Local\Temp\ccx0JFmY.s:430    .text.timer_enable:0000000000000008 .L0 
C:\Users\test\AppData\Local\Temp\ccx0JFmY.s:431    .text.timer_enable:000000000000000a .L0 
C:\Users\test\AppData\Local\Temp\ccx0JFmY.s:438    .text.timer_disable:0000000000000000 timer_disable
C:\Users\test\AppData\Local\Temp\ccx0JFmY.s:441    .text.timer_disable:0000000000000000 .L0 
C:\Users\test\AppData\Local\Temp\ccx0JFmY.s:443    .text.timer_disable:0000000000000000 .L0 
C:\Users\test\AppData\Local\Temp\ccx0JFmY.s:444    .text.timer_disable:0000000000000000 .L0 
C:\Users\test\AppData\Local\Temp\ccx0JFmY.s:445    .text.timer_disable:0000000000000000 .L0 
C:\Users\test\AppData\Local\Temp\ccx0JFmY.s:449    .text.timer_disable:0000000000000006 .L0 
C:\Users\test\AppData\Local\Temp\ccx0JFmY.s:450    .text.timer_disable:0000000000000008 .L0 
C:\Users\test\AppData\Local\Temp\ccx0JFmY.s:457    .text.timer_auto_reload_shadow_enable:0000000000000000 timer_auto_reload_shadow_enable
C:\Users\test\AppData\Local\Temp\ccx0JFmY.s:460    .text.timer_auto_reload_shadow_enable:0000000000000000 .L0 
C:\Users\test\AppData\Local\Temp\ccx0JFmY.s:462    .text.timer_auto_reload_shadow_enable:0000000000000000 .L0 
C:\Users\test\AppData\Local\Temp\ccx0JFmY.s:463    .text.timer_auto_reload_shadow_enable:0000000000000000 .L0 
C:\Users\test\AppData\Local\Temp\ccx0JFmY.s:464    .text.timer_auto_reload_shadow_enable:0000000000000000 .L0 
C:\Users\test\AppData\Local\Temp\ccx0JFmY.s:468    .text.timer_auto_reload_shadow_enable:0000000000000008 .L0 
C:\Users\test\AppData\Local\Temp\ccx0JFmY.s:469    .text.timer_auto_reload_shadow_enable:000000000000000a .L0 
C:\Users\test\AppData\Local\Temp\ccx0JFmY.s:476    .text.timer_auto_reload_shadow_disable:0000000000000000 timer_auto_reload_shadow_disable
C:\Users\test\AppData\Local\Temp\ccx0JFmY.s:479    .text.timer_auto_reload_shadow_disable:0000000000000000 .L0 
C:\Users\test\AppData\Local\Temp\ccx0JFmY.s:481    .text.timer_auto_reload_shadow_disable:0000000000000000 .L0 
C:\Users\test\AppData\Local\Temp\ccx0JFmY.s:482    .text.timer_auto_reload_shadow_disable:0000000000000000 .L0 
C:\Users\test\AppData\Local\Temp\ccx0JFmY.s:483    .text.timer_auto_reload_shadow_disable:0000000000000000 .L0 
C:\Users\test\AppData\Local\Temp\ccx0JFmY.s:487    .text.timer_auto_reload_shadow_disable:0000000000000008 .L0 
C:\Users\test\AppData\Local\Temp\ccx0JFmY.s:488    .text.timer_auto_reload_shadow_disable:000000000000000a .L0 
C:\Users\test\AppData\Local\Temp\ccx0JFmY.s:495    .text.timer_update_event_enable:0000000000000000 timer_update_event_enable
C:\Users\test\AppData\Local\Temp\ccx0JFmY.s:498    .text.timer_update_event_enable:0000000000000000 .L0 
C:\Users\test\AppData\Local\Temp\ccx0JFmY.s:500    .text.timer_update_event_enable:0000000000000000 .L0 
C:\Users\test\AppData\Local\Temp\ccx0JFmY.s:501    .text.timer_update_event_enable:0000000000000000 .L0 
C:\Users\test\AppData\Local\Temp\ccx0JFmY.s:502    .text.timer_update_event_enable:0000000000000000 .L0 
C:\Users\test\AppData\Local\Temp\ccx0JFmY.s:506    .text.timer_update_event_enable:0000000000000006 .L0 
C:\Users\test\AppData\Local\Temp\ccx0JFmY.s:507    .text.timer_update_event_enable:0000000000000008 .L0 
C:\Users\test\AppData\Local\Temp\ccx0JFmY.s:514    .text.timer_update_event_disable:0000000000000000 timer_update_event_disable
C:\Users\test\AppData\Local\Temp\ccx0JFmY.s:517    .text.timer_update_event_disable:0000000000000000 .L0 
C:\Users\test\AppData\Local\Temp\ccx0JFmY.s:519    .text.timer_update_event_disable:0000000000000000 .L0 
C:\Users\test\AppData\Local\Temp\ccx0JFmY.s:520    .text.timer_update_event_disable:0000000000000000 .L0 
C:\Users\test\AppData\Local\Temp\ccx0JFmY.s:521    .text.timer_update_event_disable:0000000000000000 .L0 
C:\Users\test\AppData\Local\Temp\ccx0JFmY.s:525    .text.timer_update_event_disable:0000000000000008 .L0 
C:\Users\test\AppData\Local\Temp\ccx0JFmY.s:526    .text.timer_update_event_disable:000000000000000a .L0 
C:\Users\test\AppData\Local\Temp\ccx0JFmY.s:533    .text.timer_counter_alignment:0000000000000000 timer_counter_alignment
C:\Users\test\AppData\Local\Temp\ccx0JFmY.s:536    .text.timer_counter_alignment:0000000000000000 .L0 
C:\Users\test\AppData\Local\Temp\ccx0JFmY.s:538    .text.timer_counter_alignment:0000000000000000 .L0 
GAS LISTING C:\Users\test\AppData\Local\Temp\ccx0JFmY.s 			page 124


C:\Users\test\AppData\Local\Temp\ccx0JFmY.s:539    .text.timer_counter_alignment:0000000000000000 .L0 
C:\Users\test\AppData\Local\Temp\ccx0JFmY.s:540    .text.timer_counter_alignment:0000000000000000 .L0 
C:\Users\test\AppData\Local\Temp\ccx0JFmY.s:544    .text.timer_counter_alignment:0000000000000008 .L0 
C:\Users\test\AppData\Local\Temp\ccx0JFmY.s:545    .text.timer_counter_alignment:0000000000000008 .L0 
C:\Users\test\AppData\Local\Temp\ccx0JFmY.s:550    .text.timer_counter_alignment:000000000000000e .L0 
C:\Users\test\AppData\Local\Temp\ccx0JFmY.s:551    .text.timer_counter_alignment:0000000000000010 .L0 
C:\Users\test\AppData\Local\Temp\ccx0JFmY.s:558    .text.timer_counter_up_direction:0000000000000000 timer_counter_up_direction
C:\Users\test\AppData\Local\Temp\ccx0JFmY.s:561    .text.timer_counter_up_direction:0000000000000000 .L0 
C:\Users\test\AppData\Local\Temp\ccx0JFmY.s:563    .text.timer_counter_up_direction:0000000000000000 .L0 
C:\Users\test\AppData\Local\Temp\ccx0JFmY.s:564    .text.timer_counter_up_direction:0000000000000000 .L0 
C:\Users\test\AppData\Local\Temp\ccx0JFmY.s:565    .text.timer_counter_up_direction:0000000000000000 .L0 
C:\Users\test\AppData\Local\Temp\ccx0JFmY.s:569    .text.timer_counter_up_direction:0000000000000006 .L0 
C:\Users\test\AppData\Local\Temp\ccx0JFmY.s:570    .text.timer_counter_up_direction:0000000000000008 .L0 
C:\Users\test\AppData\Local\Temp\ccx0JFmY.s:577    .text.timer_counter_down_direction:0000000000000000 timer_counter_down_direction
C:\Users\test\AppData\Local\Temp\ccx0JFmY.s:580    .text.timer_counter_down_direction:0000000000000000 .L0 
C:\Users\test\AppData\Local\Temp\ccx0JFmY.s:582    .text.timer_counter_down_direction:0000000000000000 .L0 
C:\Users\test\AppData\Local\Temp\ccx0JFmY.s:583    .text.timer_counter_down_direction:0000000000000000 .L0 
C:\Users\test\AppData\Local\Temp\ccx0JFmY.s:584    .text.timer_counter_down_direction:0000000000000000 .L0 
C:\Users\test\AppData\Local\Temp\ccx0JFmY.s:588    .text.timer_counter_down_direction:0000000000000008 .L0 
C:\Users\test\AppData\Local\Temp\ccx0JFmY.s:589    .text.timer_counter_down_direction:000000000000000a .L0 
C:\Users\test\AppData\Local\Temp\ccx0JFmY.s:596    .text.timer_prescaler_config:0000000000000000 timer_prescaler_config
C:\Users\test\AppData\Local\Temp\ccx0JFmY.s:599    .text.timer_prescaler_config:0000000000000000 .L0 
C:\Users\test\AppData\Local\Temp\ccx0JFmY.s:601    .text.timer_prescaler_config:0000000000000000 .L0 
C:\Users\test\AppData\Local\Temp\ccx0JFmY.s:602    .text.timer_prescaler_config:0000000000000000 .L0 
C:\Users\test\AppData\Local\Temp\ccx0JFmY.s:603    .text.timer_prescaler_config:0000000000000000 .L0 
C:\Users\test\AppData\Local\Temp\ccx0JFmY.s:605    .text.timer_prescaler_config:0000000000000002 .L0 
C:\Users\test\AppData\Local\Temp\ccx0JFmY.s:606    .text.timer_prescaler_config:0000000000000002 .L0 
C:\Users\test\AppData\Local\Temp\ccx0JFmY.s:609    .text.timer_prescaler_config:0000000000000008 .L0 
C:\Users\test\AppData\Local\Temp\ccx0JFmY.s:612    .text.timer_prescaler_config:000000000000000a .L0 
C:\Users\test\AppData\Local\Temp\ccx0JFmY.s:613    .text.timer_prescaler_config:000000000000000a .L0 
C:\Users\test\AppData\Local\Temp\ccx0JFmY.s:617    .text.timer_prescaler_config:0000000000000012 .L0 
C:\Users\test\AppData\Local\Temp\ccx0JFmY.s:618    .text.timer_prescaler_config:0000000000000014 .L0 
C:\Users\test\AppData\Local\Temp\ccx0JFmY.s:625    .text.timer_repetition_value_config:0000000000000000 timer_repetition_value_config
C:\Users\test\AppData\Local\Temp\ccx0JFmY.s:628    .text.timer_repetition_value_config:0000000000000000 .L0 
C:\Users\test\AppData\Local\Temp\ccx0JFmY.s:630    .text.timer_repetition_value_config:0000000000000000 .L0 
C:\Users\test\AppData\Local\Temp\ccx0JFmY.s:631    .text.timer_repetition_value_config:0000000000000000 .L0 
C:\Users\test\AppData\Local\Temp\ccx0JFmY.s:632    .text.timer_repetition_value_config:0000000000000000 .L0 
C:\Users\test\AppData\Local\Temp\ccx0JFmY.s:634    .text.timer_repetition_value_config:0000000000000002 .L0 
C:\Users\test\AppData\Local\Temp\ccx0JFmY.s:635    .text.timer_repetition_value_config:0000000000000004 .L0 
C:\Users\test\AppData\Local\Temp\ccx0JFmY.s:642    .text.timer_autoreload_value_config:0000000000000000 timer_autoreload_value_config
C:\Users\test\AppData\Local\Temp\ccx0JFmY.s:645    .text.timer_autoreload_value_config:0000000000000000 .L0 
C:\Users\test\AppData\Local\Temp\ccx0JFmY.s:647    .text.timer_autoreload_value_config:0000000000000000 .L0 
C:\Users\test\AppData\Local\Temp\ccx0JFmY.s:648    .text.timer_autoreload_value_config:0000000000000000 .L0 
C:\Users\test\AppData\Local\Temp\ccx0JFmY.s:649    .text.timer_autoreload_value_config:0000000000000000 .L0 
C:\Users\test\AppData\Local\Temp\ccx0JFmY.s:651    .text.timer_autoreload_value_config:0000000000000002 .L0 
C:\Users\test\AppData\Local\Temp\ccx0JFmY.s:652    .text.timer_autoreload_value_config:0000000000000004 .L0 
C:\Users\test\AppData\Local\Temp\ccx0JFmY.s:659    .text.timer_counter_value_config:0000000000000000 timer_counter_value_config
C:\Users\test\AppData\Local\Temp\ccx0JFmY.s:662    .text.timer_counter_value_config:0000000000000000 .L0 
C:\Users\test\AppData\Local\Temp\ccx0JFmY.s:664    .text.timer_counter_value_config:0000000000000000 .L0 
C:\Users\test\AppData\Local\Temp\ccx0JFmY.s:665    .text.timer_counter_value_config:0000000000000000 .L0 
C:\Users\test\AppData\Local\Temp\ccx0JFmY.s:666    .text.timer_counter_value_config:0000000000000000 .L0 
C:\Users\test\AppData\Local\Temp\ccx0JFmY.s:668    .text.timer_counter_value_config:0000000000000002 .L0 
C:\Users\test\AppData\Local\Temp\ccx0JFmY.s:669    .text.timer_counter_value_config:0000000000000004 .L0 
C:\Users\test\AppData\Local\Temp\ccx0JFmY.s:676    .text.timer_counter_read:0000000000000000 timer_counter_read
C:\Users\test\AppData\Local\Temp\ccx0JFmY.s:679    .text.timer_counter_read:0000000000000000 .L0 
C:\Users\test\AppData\Local\Temp\ccx0JFmY.s:681    .text.timer_counter_read:0000000000000000 .L0 
C:\Users\test\AppData\Local\Temp\ccx0JFmY.s:682    .text.timer_counter_read:0000000000000000 .L0 
GAS LISTING C:\Users\test\AppData\Local\Temp\ccx0JFmY.s 			page 125


C:\Users\test\AppData\Local\Temp\ccx0JFmY.s:683    .text.timer_counter_read:0000000000000000 .L0 
C:\Users\test\AppData\Local\Temp\ccx0JFmY.s:684    .text.timer_counter_read:0000000000000000 .L0 
C:\Users\test\AppData\Local\Temp\ccx0JFmY.s:687    .text.timer_counter_read:0000000000000002 .L0 
C:\Users\test\AppData\Local\Temp\ccx0JFmY.s:688    .text.timer_counter_read:0000000000000002 .L0 
C:\Users\test\AppData\Local\Temp\ccx0JFmY.s:689    .text.timer_counter_read:0000000000000004 .L0 
C:\Users\test\AppData\Local\Temp\ccx0JFmY.s:696    .text.timer_prescaler_read:0000000000000000 timer_prescaler_read
C:\Users\test\AppData\Local\Temp\ccx0JFmY.s:699    .text.timer_prescaler_read:0000000000000000 .L0 
C:\Users\test\AppData\Local\Temp\ccx0JFmY.s:701    .text.timer_prescaler_read:0000000000000000 .L0 
C:\Users\test\AppData\Local\Temp\ccx0JFmY.s:702    .text.timer_prescaler_read:0000000000000000 .L0 
C:\Users\test\AppData\Local\Temp\ccx0JFmY.s:703    .text.timer_prescaler_read:0000000000000000 .L0 
C:\Users\test\AppData\Local\Temp\ccx0JFmY.s:704    .text.timer_prescaler_read:0000000000000000 .L0 
C:\Users\test\AppData\Local\Temp\ccx0JFmY.s:707    .text.timer_prescaler_read:0000000000000002 .L0 
C:\Users\test\AppData\Local\Temp\ccx0JFmY.s:708    .text.timer_prescaler_read:0000000000000002 .L0 
C:\Users\test\AppData\Local\Temp\ccx0JFmY.s:712    .text.timer_prescaler_read:0000000000000008 .L0 
C:\Users\test\AppData\Local\Temp\ccx0JFmY.s:719    .text.timer_single_pulse_mode_config:0000000000000000 timer_single_pulse_mode_config
C:\Users\test\AppData\Local\Temp\ccx0JFmY.s:722    .text.timer_single_pulse_mode_config:0000000000000000 .L0 
C:\Users\test\AppData\Local\Temp\ccx0JFmY.s:724    .text.timer_single_pulse_mode_config:0000000000000000 .L0 
C:\Users\test\AppData\Local\Temp\ccx0JFmY.s:725    .text.timer_single_pulse_mode_config:0000000000000000 .L0 
C:\Users\test\AppData\Local\Temp\ccx0JFmY.s:726    .text.timer_single_pulse_mode_config:0000000000000000 .L0 
C:\Users\test\AppData\Local\Temp\ccx0JFmY.s:729    .text.timer_single_pulse_mode_config:0000000000000006 .L0 
C:\Users\test\AppData\Local\Temp\ccx0JFmY.s:730    .text.timer_single_pulse_mode_config:0000000000000006 .L0 
C:\Users\test\AppData\Local\Temp\ccx0JFmY.s:732    .text.timer_single_pulse_mode_config:0000000000000008 .L0 
C:\Users\test\AppData\Local\Temp\ccx0JFmY.s:733    .text.timer_single_pulse_mode_config:0000000000000008 .L0 
C:\Users\test\AppData\Local\Temp\ccx0JFmY.s:738    .text.timer_single_pulse_mode_config:000000000000000e .L0 
C:\Users\test\AppData\Local\Temp\ccx0JFmY.s:739    .text.timer_single_pulse_mode_config:000000000000000e .L0 
C:\Users\test\AppData\Local\Temp\ccx0JFmY.s:742    .text.timer_single_pulse_mode_config:0000000000000010 .L0 
C:\Users\test\AppData\Local\Temp\ccx0JFmY.s:743    .text.timer_single_pulse_mode_config:0000000000000010 .L0 
C:\Users\test\AppData\Local\Temp\ccx0JFmY.s:747    .text.timer_single_pulse_mode_config:000000000000001a .L0 
C:\Users\test\AppData\Local\Temp\ccx0JFmY.s:754    .text.timer_update_source_config:0000000000000000 timer_update_source_config
C:\Users\test\AppData\Local\Temp\ccx0JFmY.s:757    .text.timer_update_source_config:0000000000000000 .L0 
C:\Users\test\AppData\Local\Temp\ccx0JFmY.s:759    .text.timer_update_source_config:0000000000000000 .L0 
C:\Users\test\AppData\Local\Temp\ccx0JFmY.s:760    .text.timer_update_source_config:0000000000000000 .L0 
C:\Users\test\AppData\Local\Temp\ccx0JFmY.s:761    .text.timer_update_source_config:0000000000000000 .L0 
C:\Users\test\AppData\Local\Temp\ccx0JFmY.s:764    .text.timer_update_source_config:0000000000000006 .L0 
C:\Users\test\AppData\Local\Temp\ccx0JFmY.s:765    .text.timer_update_source_config:0000000000000006 .L0 
C:\Users\test\AppData\Local\Temp\ccx0JFmY.s:767    .text.timer_update_source_config:0000000000000008 .L0 
C:\Users\test\AppData\Local\Temp\ccx0JFmY.s:768    .text.timer_update_source_config:0000000000000008 .L0 
C:\Users\test\AppData\Local\Temp\ccx0JFmY.s:773    .text.timer_update_source_config:000000000000000e .L0 
C:\Users\test\AppData\Local\Temp\ccx0JFmY.s:774    .text.timer_update_source_config:000000000000000e .L0 
C:\Users\test\AppData\Local\Temp\ccx0JFmY.s:777    .text.timer_update_source_config:0000000000000010 .L0 
C:\Users\test\AppData\Local\Temp\ccx0JFmY.s:778    .text.timer_update_source_config:0000000000000010 .L0 
C:\Users\test\AppData\Local\Temp\ccx0JFmY.s:782    .text.timer_update_source_config:000000000000001a .L0 
C:\Users\test\AppData\Local\Temp\ccx0JFmY.s:789    .text.timer_dma_enable:0000000000000000 timer_dma_enable
C:\Users\test\AppData\Local\Temp\ccx0JFmY.s:792    .text.timer_dma_enable:0000000000000000 .L0 
C:\Users\test\AppData\Local\Temp\ccx0JFmY.s:794    .text.timer_dma_enable:0000000000000000 .L0 
C:\Users\test\AppData\Local\Temp\ccx0JFmY.s:795    .text.timer_dma_enable:0000000000000000 .L0 
C:\Users\test\AppData\Local\Temp\ccx0JFmY.s:796    .text.timer_dma_enable:0000000000000000 .L0 
C:\Users\test\AppData\Local\Temp\ccx0JFmY.s:801    .text.timer_dma_enable:0000000000000006 .L0 
C:\Users\test\AppData\Local\Temp\ccx0JFmY.s:802    .text.timer_dma_enable:0000000000000008 .L0 
C:\Users\test\AppData\Local\Temp\ccx0JFmY.s:809    .text.timer_dma_disable:0000000000000000 timer_dma_disable
C:\Users\test\AppData\Local\Temp\ccx0JFmY.s:812    .text.timer_dma_disable:0000000000000000 .L0 
C:\Users\test\AppData\Local\Temp\ccx0JFmY.s:814    .text.timer_dma_disable:0000000000000000 .L0 
C:\Users\test\AppData\Local\Temp\ccx0JFmY.s:815    .text.timer_dma_disable:0000000000000000 .L0 
C:\Users\test\AppData\Local\Temp\ccx0JFmY.s:816    .text.timer_dma_disable:0000000000000000 .L0 
C:\Users\test\AppData\Local\Temp\ccx0JFmY.s:818    .text.timer_dma_disable:0000000000000002 .L0 
C:\Users\test\AppData\Local\Temp\ccx0JFmY.s:821    .text.timer_dma_disable:0000000000000006 .L0 
C:\Users\test\AppData\Local\Temp\ccx0JFmY.s:824    .text.timer_dma_disable:000000000000000a .L0 
GAS LISTING C:\Users\test\AppData\Local\Temp\ccx0JFmY.s 			page 126


C:\Users\test\AppData\Local\Temp\ccx0JFmY.s:825    .text.timer_dma_disable:000000000000000c .L0 
C:\Users\test\AppData\Local\Temp\ccx0JFmY.s:832    .text.timer_channel_dma_request_source_select:0000000000000000 timer_channel_dma_request_source_select
C:\Users\test\AppData\Local\Temp\ccx0JFmY.s:835    .text.timer_channel_dma_request_source_select:0000000000000000 .L0 
C:\Users\test\AppData\Local\Temp\ccx0JFmY.s:837    .text.timer_channel_dma_request_source_select:0000000000000000 .L0 
C:\Users\test\AppData\Local\Temp\ccx0JFmY.s:838    .text.timer_channel_dma_request_source_select:0000000000000000 .L0 
C:\Users\test\AppData\Local\Temp\ccx0JFmY.s:839    .text.timer_channel_dma_request_source_select:0000000000000000 .L0 
C:\Users\test\AppData\Local\Temp\ccx0JFmY.s:842    .text.timer_channel_dma_request_source_select:0000000000000006 .L0 
C:\Users\test\AppData\Local\Temp\ccx0JFmY.s:843    .text.timer_channel_dma_request_source_select:0000000000000006 .L0 
C:\Users\test\AppData\Local\Temp\ccx0JFmY.s:845    .text.timer_channel_dma_request_source_select:0000000000000008 .L0 
C:\Users\test\AppData\Local\Temp\ccx0JFmY.s:846    .text.timer_channel_dma_request_source_select:0000000000000008 .L0 
C:\Users\test\AppData\Local\Temp\ccx0JFmY.s:851    .text.timer_channel_dma_request_source_select:000000000000000e .L0 
C:\Users\test\AppData\Local\Temp\ccx0JFmY.s:852    .text.timer_channel_dma_request_source_select:000000000000000e .L0 
C:\Users\test\AppData\Local\Temp\ccx0JFmY.s:855    .text.timer_channel_dma_request_source_select:0000000000000010 .L0 
C:\Users\test\AppData\Local\Temp\ccx0JFmY.s:856    .text.timer_channel_dma_request_source_select:0000000000000010 .L0 
C:\Users\test\AppData\Local\Temp\ccx0JFmY.s:860    .text.timer_channel_dma_request_source_select:000000000000001a .L0 
C:\Users\test\AppData\Local\Temp\ccx0JFmY.s:867    .text.timer_dma_transfer_config:0000000000000000 timer_dma_transfer_config
C:\Users\test\AppData\Local\Temp\ccx0JFmY.s:870    .text.timer_dma_transfer_config:0000000000000000 .L0 
C:\Users\test\AppData\Local\Temp\ccx0JFmY.s:872    .text.timer_dma_transfer_config:0000000000000000 .L0 
C:\Users\test\AppData\Local\Temp\ccx0JFmY.s:873    .text.timer_dma_transfer_config:0000000000000000 .L0 
C:\Users\test\AppData\Local\Temp\ccx0JFmY.s:874    .text.timer_dma_transfer_config:0000000000000000 .L0 
C:\Users\test\AppData\Local\Temp\ccx0JFmY.s:880    .text.timer_dma_transfer_config:000000000000000c .L0 
C:\Users\test\AppData\Local\Temp\ccx0JFmY.s:881    .text.timer_dma_transfer_config:000000000000000c .L0 
C:\Users\test\AppData\Local\Temp\ccx0JFmY.s:883    .text.timer_dma_transfer_config:000000000000000e .L0 
C:\Users\test\AppData\Local\Temp\ccx0JFmY.s:886    .text.timer_dma_transfer_config:0000000000000010 .L0 
C:\Users\test\AppData\Local\Temp\ccx0JFmY.s:889    .text.timer_dma_transfer_config:0000000000000014 .L0 
C:\Users\test\AppData\Local\Temp\ccx0JFmY.s:890    .text.timer_dma_transfer_config:0000000000000016 .L0 
C:\Users\test\AppData\Local\Temp\ccx0JFmY.s:897    .text.timer_event_software_generate:0000000000000000 timer_event_software_generate
C:\Users\test\AppData\Local\Temp\ccx0JFmY.s:900    .text.timer_event_software_generate:0000000000000000 .L0 
C:\Users\test\AppData\Local\Temp\ccx0JFmY.s:902    .text.timer_event_software_generate:0000000000000000 .L0 
C:\Users\test\AppData\Local\Temp\ccx0JFmY.s:903    .text.timer_event_software_generate:0000000000000000 .L0 
C:\Users\test\AppData\Local\Temp\ccx0JFmY.s:904    .text.timer_event_software_generate:0000000000000000 .L0 
C:\Users\test\AppData\Local\Temp\ccx0JFmY.s:909    .text.timer_event_software_generate:0000000000000006 .L0 
C:\Users\test\AppData\Local\Temp\ccx0JFmY.s:910    .text.timer_event_software_generate:0000000000000008 .L0 
C:\Users\test\AppData\Local\Temp\ccx0JFmY.s:917    .text.timer_break_struct_para_init:0000000000000000 timer_break_struct_para_init
C:\Users\test\AppData\Local\Temp\ccx0JFmY.s:920    .text.timer_break_struct_para_init:0000000000000000 .L0 
C:\Users\test\AppData\Local\Temp\ccx0JFmY.s:922    .text.timer_break_struct_para_init:0000000000000000 .L0 
C:\Users\test\AppData\Local\Temp\ccx0JFmY.s:923    .text.timer_break_struct_para_init:0000000000000000 .L0 
C:\Users\test\AppData\Local\Temp\ccx0JFmY.s:924    .text.timer_break_struct_para_init:0000000000000000 .L0 
C:\Users\test\AppData\Local\Temp\ccx0JFmY.s:926    .text.timer_break_struct_para_init:0000000000000004 .L0 
C:\Users\test\AppData\Local\Temp\ccx0JFmY.s:927    .text.timer_break_struct_para_init:0000000000000004 .L0 
C:\Users\test\AppData\Local\Temp\ccx0JFmY.s:929    .text.timer_break_struct_para_init:0000000000000008 .L0 
C:\Users\test\AppData\Local\Temp\ccx0JFmY.s:930    .text.timer_break_struct_para_init:0000000000000008 .L0 
C:\Users\test\AppData\Local\Temp\ccx0JFmY.s:932    .text.timer_break_struct_para_init:000000000000000c .L0 
C:\Users\test\AppData\Local\Temp\ccx0JFmY.s:933    .text.timer_break_struct_para_init:000000000000000c .L0 
C:\Users\test\AppData\Local\Temp\ccx0JFmY.s:935    .text.timer_break_struct_para_init:0000000000000010 .L0 
C:\Users\test\AppData\Local\Temp\ccx0JFmY.s:936    .text.timer_break_struct_para_init:0000000000000010 .L0 
C:\Users\test\AppData\Local\Temp\ccx0JFmY.s:938    .text.timer_break_struct_para_init:0000000000000014 .L0 
C:\Users\test\AppData\Local\Temp\ccx0JFmY.s:939    .text.timer_break_struct_para_init:0000000000000014 .L0 
C:\Users\test\AppData\Local\Temp\ccx0JFmY.s:941    .text.timer_break_struct_para_init:0000000000000018 .L0 
C:\Users\test\AppData\Local\Temp\ccx0JFmY.s:942    .text.timer_break_struct_para_init:0000000000000018 .L0 
C:\Users\test\AppData\Local\Temp\ccx0JFmY.s:944    .text.timer_break_struct_para_init:000000000000001c .L0 
C:\Users\test\AppData\Local\Temp\ccx0JFmY.s:945    .text.timer_break_struct_para_init:000000000000001e .L0 
C:\Users\test\AppData\Local\Temp\ccx0JFmY.s:952    .text.timer_break_config:0000000000000000 timer_break_config
C:\Users\test\AppData\Local\Temp\ccx0JFmY.s:955    .text.timer_break_config:0000000000000000 .L0 
C:\Users\test\AppData\Local\Temp\ccx0JFmY.s:957    .text.timer_break_config:0000000000000000 .L0 
C:\Users\test\AppData\Local\Temp\ccx0JFmY.s:958    .text.timer_break_config:0000000000000000 .L0 
C:\Users\test\AppData\Local\Temp\ccx0JFmY.s:959    .text.timer_break_config:0000000000000000 .L0 
GAS LISTING C:\Users\test\AppData\Local\Temp\ccx0JFmY.s 			page 127


C:\Users\test\AppData\Local\Temp\ccx0JFmY.s:973    .text.timer_break_config:000000000000002a .L0 
C:\Users\test\AppData\Local\Temp\ccx0JFmY.s:975    .text.timer_break_config:000000000000002c .L0 
C:\Users\test\AppData\Local\Temp\ccx0JFmY.s:976    .text.timer_break_config:000000000000002e .L0 
C:\Users\test\AppData\Local\Temp\ccx0JFmY.s:983    .text.timer_break_enable:0000000000000000 timer_break_enable
C:\Users\test\AppData\Local\Temp\ccx0JFmY.s:986    .text.timer_break_enable:0000000000000000 .L0 
C:\Users\test\AppData\Local\Temp\ccx0JFmY.s:988    .text.timer_break_enable:0000000000000000 .L0 
C:\Users\test\AppData\Local\Temp\ccx0JFmY.s:989    .text.timer_break_enable:0000000000000000 .L0 
C:\Users\test\AppData\Local\Temp\ccx0JFmY.s:990    .text.timer_break_enable:0000000000000000 .L0 
C:\Users\test\AppData\Local\Temp\ccx0JFmY.s:995    .text.timer_break_enable:0000000000000008 .L0 
C:\Users\test\AppData\Local\Temp\ccx0JFmY.s:996    .text.timer_break_enable:000000000000000a .L0 
C:\Users\test\AppData\Local\Temp\ccx0JFmY.s:1003   .text.timer_break_disable:0000000000000000 timer_break_disable
C:\Users\test\AppData\Local\Temp\ccx0JFmY.s:1006   .text.timer_break_disable:0000000000000000 .L0 
C:\Users\test\AppData\Local\Temp\ccx0JFmY.s:1008   .text.timer_break_disable:0000000000000000 .L0 
C:\Users\test\AppData\Local\Temp\ccx0JFmY.s:1009   .text.timer_break_disable:0000000000000000 .L0 
C:\Users\test\AppData\Local\Temp\ccx0JFmY.s:1010   .text.timer_break_disable:0000000000000000 .L0 
C:\Users\test\AppData\Local\Temp\ccx0JFmY.s:1016   .text.timer_break_disable:000000000000000a .L0 
C:\Users\test\AppData\Local\Temp\ccx0JFmY.s:1017   .text.timer_break_disable:000000000000000c .L0 
C:\Users\test\AppData\Local\Temp\ccx0JFmY.s:1024   .text.timer_automatic_output_enable:0000000000000000 timer_automatic_output_enable
C:\Users\test\AppData\Local\Temp\ccx0JFmY.s:1027   .text.timer_automatic_output_enable:0000000000000000 .L0 
C:\Users\test\AppData\Local\Temp\ccx0JFmY.s:1029   .text.timer_automatic_output_enable:0000000000000000 .L0 
C:\Users\test\AppData\Local\Temp\ccx0JFmY.s:1030   .text.timer_automatic_output_enable:0000000000000000 .L0 
C:\Users\test\AppData\Local\Temp\ccx0JFmY.s:1031   .text.timer_automatic_output_enable:0000000000000000 .L0 
C:\Users\test\AppData\Local\Temp\ccx0JFmY.s:1036   .text.timer_automatic_output_enable:0000000000000008 .L0 
C:\Users\test\AppData\Local\Temp\ccx0JFmY.s:1037   .text.timer_automatic_output_enable:000000000000000a .L0 
C:\Users\test\AppData\Local\Temp\ccx0JFmY.s:1044   .text.timer_automatic_output_disable:0000000000000000 timer_automatic_output_disable
C:\Users\test\AppData\Local\Temp\ccx0JFmY.s:1047   .text.timer_automatic_output_disable:0000000000000000 .L0 
C:\Users\test\AppData\Local\Temp\ccx0JFmY.s:1049   .text.timer_automatic_output_disable:0000000000000000 .L0 
C:\Users\test\AppData\Local\Temp\ccx0JFmY.s:1050   .text.timer_automatic_output_disable:0000000000000000 .L0 
C:\Users\test\AppData\Local\Temp\ccx0JFmY.s:1051   .text.timer_automatic_output_disable:0000000000000000 .L0 
C:\Users\test\AppData\Local\Temp\ccx0JFmY.s:1057   .text.timer_automatic_output_disable:000000000000000a .L0 
C:\Users\test\AppData\Local\Temp\ccx0JFmY.s:1058   .text.timer_automatic_output_disable:000000000000000c .L0 
C:\Users\test\AppData\Local\Temp\ccx0JFmY.s:1065   .text.timer_primary_output_config:0000000000000000 timer_primary_output_config
C:\Users\test\AppData\Local\Temp\ccx0JFmY.s:1068   .text.timer_primary_output_config:0000000000000000 .L0 
C:\Users\test\AppData\Local\Temp\ccx0JFmY.s:1070   .text.timer_primary_output_config:0000000000000000 .L0 
C:\Users\test\AppData\Local\Temp\ccx0JFmY.s:1071   .text.timer_primary_output_config:0000000000000000 .L0 
C:\Users\test\AppData\Local\Temp\ccx0JFmY.s:1072   .text.timer_primary_output_config:0000000000000000 .L0 
C:\Users\test\AppData\Local\Temp\ccx0JFmY.s:1075   .text.timer_primary_output_config:0000000000000006 .L0 
C:\Users\test\AppData\Local\Temp\ccx0JFmY.s:1076   .text.timer_primary_output_config:0000000000000006 .L0 
C:\Users\test\AppData\Local\Temp\ccx0JFmY.s:1082   .text.timer_primary_output_config:0000000000000010 .L0 
C:\Users\test\AppData\Local\Temp\ccx0JFmY.s:1085   .text.timer_primary_output_config:0000000000000012 .L0 
C:\Users\test\AppData\Local\Temp\ccx0JFmY.s:1086   .text.timer_primary_output_config:0000000000000012 .L0 
C:\Users\test\AppData\Local\Temp\ccx0JFmY.s:1091   .text.timer_primary_output_config:000000000000001c .L0 
C:\Users\test\AppData\Local\Temp\ccx0JFmY.s:1098   .text.timer_channel_control_shadow_config:0000000000000000 timer_channel_control_shadow_config
C:\Users\test\AppData\Local\Temp\ccx0JFmY.s:1101   .text.timer_channel_control_shadow_config:0000000000000000 .L0 
C:\Users\test\AppData\Local\Temp\ccx0JFmY.s:1103   .text.timer_channel_control_shadow_config:0000000000000000 .L0 
C:\Users\test\AppData\Local\Temp\ccx0JFmY.s:1104   .text.timer_channel_control_shadow_config:0000000000000000 .L0 
C:\Users\test\AppData\Local\Temp\ccx0JFmY.s:1105   .text.timer_channel_control_shadow_config:0000000000000000 .L0 
C:\Users\test\AppData\Local\Temp\ccx0JFmY.s:1108   .text.timer_channel_control_shadow_config:0000000000000006 .L0 
C:\Users\test\AppData\Local\Temp\ccx0JFmY.s:1109   .text.timer_channel_control_shadow_config:0000000000000006 .L0 
C:\Users\test\AppData\Local\Temp\ccx0JFmY.s:1113   .text.timer_channel_control_shadow_config:000000000000000c .L0 
C:\Users\test\AppData\Local\Temp\ccx0JFmY.s:1116   .text.timer_channel_control_shadow_config:000000000000000e .L0 
C:\Users\test\AppData\Local\Temp\ccx0JFmY.s:1117   .text.timer_channel_control_shadow_config:000000000000000e .L0 
C:\Users\test\AppData\Local\Temp\ccx0JFmY.s:1121   .text.timer_channel_control_shadow_config:0000000000000018 .L0 
C:\Users\test\AppData\Local\Temp\ccx0JFmY.s:1128   .text.timer_channel_control_shadow_update_config:0000000000000000 timer_channel_control_shadow_update_config
C:\Users\test\AppData\Local\Temp\ccx0JFmY.s:1131   .text.timer_channel_control_shadow_update_config:0000000000000000 .L0 
C:\Users\test\AppData\Local\Temp\ccx0JFmY.s:1133   .text.timer_channel_control_shadow_update_config:0000000000000000 .L0 
C:\Users\test\AppData\Local\Temp\ccx0JFmY.s:1134   .text.timer_channel_control_shadow_update_config:0000000000000000 .L0 
GAS LISTING C:\Users\test\AppData\Local\Temp\ccx0JFmY.s 			page 128


C:\Users\test\AppData\Local\Temp\ccx0JFmY.s:1135   .text.timer_channel_control_shadow_update_config:0000000000000000 .L0 
C:\Users\test\AppData\Local\Temp\ccx0JFmY.s:1137   .text.timer_channel_control_shadow_update_config:0000000000000002 .L0 
C:\Users\test\AppData\Local\Temp\ccx0JFmY.s:1138   .text.timer_channel_control_shadow_update_config:0000000000000002 .L0 
C:\Users\test\AppData\Local\Temp\ccx0JFmY.s:1144   .text.timer_channel_control_shadow_update_config:000000000000000a .L0 
C:\Users\test\AppData\Local\Temp\ccx0JFmY.s:1145   .text.timer_channel_control_shadow_update_config:000000000000000a .L0 
C:\Users\test\AppData\Local\Temp\ccx0JFmY.s:1148   .text.timer_channel_control_shadow_update_config:0000000000000010 .L0 
C:\Users\test\AppData\Local\Temp\ccx0JFmY.s:1151   .text.timer_channel_control_shadow_update_config:0000000000000012 .L0 
C:\Users\test\AppData\Local\Temp\ccx0JFmY.s:1152   .text.timer_channel_control_shadow_update_config:0000000000000012 .L0 
C:\Users\test\AppData\Local\Temp\ccx0JFmY.s:1156   .text.timer_channel_control_shadow_update_config:000000000000001a .L0 
C:\Users\test\AppData\Local\Temp\ccx0JFmY.s:1157   .text.timer_channel_control_shadow_update_config:000000000000001a .L0 
C:\Users\test\AppData\Local\Temp\ccx0JFmY.s:1158   .text.timer_channel_control_shadow_update_config:000000000000001c .L0 
C:\Users\test\AppData\Local\Temp\ccx0JFmY.s:1165   .text.timer_channel_output_struct_para_init:0000000000000000 timer_channel_output_struct_para_init
C:\Users\test\AppData\Local\Temp\ccx0JFmY.s:1168   .text.timer_channel_output_struct_para_init:0000000000000000 .L0 
C:\Users\test\AppData\Local\Temp\ccx0JFmY.s:1170   .text.timer_channel_output_struct_para_init:0000000000000000 .L0 
C:\Users\test\AppData\Local\Temp\ccx0JFmY.s:1171   .text.timer_channel_output_struct_para_init:0000000000000000 .L0 
C:\Users\test\AppData\Local\Temp\ccx0JFmY.s:1172   .text.timer_channel_output_struct_para_init:0000000000000000 .L0 
C:\Users\test\AppData\Local\Temp\ccx0JFmY.s:1174   .text.timer_channel_output_struct_para_init:0000000000000004 .L0 
C:\Users\test\AppData\Local\Temp\ccx0JFmY.s:1175   .text.timer_channel_output_struct_para_init:0000000000000004 .L0 
C:\Users\test\AppData\Local\Temp\ccx0JFmY.s:1177   .text.timer_channel_output_struct_para_init:0000000000000008 .L0 
C:\Users\test\AppData\Local\Temp\ccx0JFmY.s:1178   .text.timer_channel_output_struct_para_init:0000000000000008 .L0 
C:\Users\test\AppData\Local\Temp\ccx0JFmY.s:1180   .text.timer_channel_output_struct_para_init:000000000000000c .L0 
C:\Users\test\AppData\Local\Temp\ccx0JFmY.s:1181   .text.timer_channel_output_struct_para_init:000000000000000c .L0 
C:\Users\test\AppData\Local\Temp\ccx0JFmY.s:1183   .text.timer_channel_output_struct_para_init:0000000000000010 .L0 
C:\Users\test\AppData\Local\Temp\ccx0JFmY.s:1184   .text.timer_channel_output_struct_para_init:0000000000000010 .L0 
C:\Users\test\AppData\Local\Temp\ccx0JFmY.s:1186   .text.timer_channel_output_struct_para_init:0000000000000014 .L0 
C:\Users\test\AppData\Local\Temp\ccx0JFmY.s:1187   .text.timer_channel_output_struct_para_init:0000000000000014 .L0 
C:\Users\test\AppData\Local\Temp\ccx0JFmY.s:1189   .text.timer_channel_output_struct_para_init:0000000000000018 .L0 
C:\Users\test\AppData\Local\Temp\ccx0JFmY.s:1190   .text.timer_channel_output_struct_para_init:000000000000001a .L0 
C:\Users\test\AppData\Local\Temp\ccx0JFmY.s:1197   .text.timer_channel_output_config:0000000000000000 timer_channel_output_config
C:\Users\test\AppData\Local\Temp\ccx0JFmY.s:1200   .text.timer_channel_output_config:0000000000000000 .L0 
C:\Users\test\AppData\Local\Temp\ccx0JFmY.s:1202   .text.timer_channel_output_config:0000000000000000 .L0 
C:\Users\test\AppData\Local\Temp\ccx0JFmY.s:1203   .text.timer_channel_output_config:0000000000000000 .L0 
C:\Users\test\AppData\Local\Temp\ccx0JFmY.s:1211   .text.timer_channel_output_config:0000000000000014 .L0 
C:\Users\test\AppData\Local\Temp\ccx0JFmY.s:1212   .text.timer_channel_output_config:0000000000000014 .L0 
C:\Users\test\AppData\Local\Temp\ccx0JFmY.s:1218   .text.timer_channel_output_config:000000000000001e .L0 
C:\Users\test\AppData\Local\Temp\ccx0JFmY.s:1219   .text.timer_channel_output_config:000000000000001e .L0 
C:\Users\test\AppData\Local\Temp\ccx0JFmY.s:1221   .text.timer_channel_output_config:0000000000000022 .L0 
C:\Users\test\AppData\Local\Temp\ccx0JFmY.s:1223   .text.timer_channel_output_config:0000000000000024 .L0 
C:\Users\test\AppData\Local\Temp\ccx0JFmY.s:1225   .text.timer_channel_output_config:0000000000000026 .L0 
C:\Users\test\AppData\Local\Temp\ccx0JFmY.s:1227   .text.timer_channel_output_config:0000000000000028 .L0 
C:\Users\test\AppData\Local\Temp\ccx0JFmY.s:1230   .text.timer_channel_output_config:000000000000002c .L0 
C:\Users\test\AppData\Local\Temp\ccx0JFmY.s:1231   .text.timer_channel_output_config:000000000000002c .L0 
C:\Users\test\AppData\Local\Temp\ccx0JFmY.s:1234   .text.timer_channel_output_config:0000000000000030 .L0 
C:\Users\test\AppData\Local\Temp\ccx0JFmY.s:1236   .text.timer_channel_output_config:0000000000000034 .L0 
C:\Users\test\AppData\Local\Temp\ccx0JFmY.s:1239   .text.timer_channel_output_config:0000000000000038 .L0 
C:\Users\test\AppData\Local\Temp\ccx0JFmY.s:1240   .text.timer_channel_output_config:0000000000000038 .L0 
C:\Users\test\AppData\Local\Temp\ccx0JFmY.s:1242   .text.timer_channel_output_config:000000000000003a .L0 
C:\Users\test\AppData\Local\Temp\ccx0JFmY.s:1244   .text.timer_channel_output_config:000000000000003c .L0 
C:\Users\test\AppData\Local\Temp\ccx0JFmY.s:1246   .text.timer_channel_output_config:0000000000000040 .L0 
C:\Users\test\AppData\Local\Temp\ccx0JFmY.s:1249   .text.timer_channel_output_config:0000000000000044 .L0 
C:\Users\test\AppData\Local\Temp\ccx0JFmY.s:1250   .text.timer_channel_output_config:0000000000000044 .L0 
C:\Users\test\AppData\Local\Temp\ccx0JFmY.s:1254   .text.timer_channel_output_config:000000000000004c .L0 
C:\Users\test\AppData\Local\Temp\ccx0JFmY.s:1255   .text.timer_channel_output_config:000000000000004c .L0 
C:\Users\test\AppData\Local\Temp\ccx0JFmY.s:1259   .text.timer_channel_output_config:0000000000000054 .L0 
C:\Users\test\AppData\Local\Temp\ccx0JFmY.s:1260   .text.timer_channel_output_config:0000000000000054 .L0 
C:\Users\test\AppData\Local\Temp\ccx0JFmY.s:1265   .text.timer_channel_output_config:0000000000000058 .L0 
C:\Users\test\AppData\Local\Temp\ccx0JFmY.s:1266   .text.timer_channel_output_config:0000000000000058 .L0 
GAS LISTING C:\Users\test\AppData\Local\Temp\ccx0JFmY.s 			page 129


C:\Users\test\AppData\Local\Temp\ccx0JFmY.s:1268   .text.timer_channel_output_config:000000000000005a .L0 
C:\Users\test\AppData\Local\Temp\ccx0JFmY.s:1270   .text.timer_channel_output_config:000000000000005e .L0 
C:\Users\test\AppData\Local\Temp\ccx0JFmY.s:1272   .text.timer_channel_output_config:0000000000000062 .L0 
C:\Users\test\AppData\Local\Temp\ccx0JFmY.s:1275   .text.timer_channel_output_config:0000000000000068 .L0 
C:\Users\test\AppData\Local\Temp\ccx0JFmY.s:1276   .text.timer_channel_output_config:0000000000000068 .L0 
C:\Users\test\AppData\Local\Temp\ccx0JFmY.s:1278   .text.timer_channel_output_config:000000000000006a .L0 
C:\Users\test\AppData\Local\Temp\ccx0JFmY.s:1280   .text.timer_channel_output_config:000000000000006c .L0 
C:\Users\test\AppData\Local\Temp\ccx0JFmY.s:1282   .text.timer_channel_output_config:000000000000006e .L0 
C:\Users\test\AppData\Local\Temp\ccx0JFmY.s:1285   .text.timer_channel_output_config:0000000000000072 .L0 
C:\Users\test\AppData\Local\Temp\ccx0JFmY.s:1286   .text.timer_channel_output_config:0000000000000072 .L0 
C:\Users\test\AppData\Local\Temp\ccx0JFmY.s:1288   .text.timer_channel_output_config:0000000000000074 .L0 
C:\Users\test\AppData\Local\Temp\ccx0JFmY.s:1292   .text.timer_channel_output_config:000000000000007c .L0 
C:\Users\test\AppData\Local\Temp\ccx0JFmY.s:1295   .text.timer_channel_output_config:0000000000000082 .L0 
C:\Users\test\AppData\Local\Temp\ccx0JFmY.s:1296   .text.timer_channel_output_config:0000000000000082 .L0 
C:\Users\test\AppData\Local\Temp\ccx0JFmY.s:1300   .text.timer_channel_output_config:0000000000000088 .L0 
C:\Users\test\AppData\Local\Temp\ccx0JFmY.s:1301   .text.timer_channel_output_config:0000000000000088 .L0 
C:\Users\test\AppData\Local\Temp\ccx0JFmY.s:1305   .text.timer_channel_output_config:000000000000008c .L0 
C:\Users\test\AppData\Local\Temp\ccx0JFmY.s:1306   .text.timer_channel_output_config:000000000000008c .L0 
C:\Users\test\AppData\Local\Temp\ccx0JFmY.s:1310   .text.timer_channel_output_config:0000000000000092 .L0 
C:\Users\test\AppData\Local\Temp\ccx0JFmY.s:1314   .text.timer_channel_output_config:0000000000000094 .L0 
C:\Users\test\AppData\Local\Temp\ccx0JFmY.s:1315   .text.timer_channel_output_config:0000000000000094 .L0 
C:\Users\test\AppData\Local\Temp\ccx0JFmY.s:1317   .text.timer_channel_output_config:0000000000000096 .L0 
C:\Users\test\AppData\Local\Temp\ccx0JFmY.s:1319   .text.timer_channel_output_config:000000000000009a .L0 
C:\Users\test\AppData\Local\Temp\ccx0JFmY.s:1321   .text.timer_channel_output_config:000000000000009e .L0 
C:\Users\test\AppData\Local\Temp\ccx0JFmY.s:1324   .text.timer_channel_output_config:00000000000000a2 .L0 
C:\Users\test\AppData\Local\Temp\ccx0JFmY.s:1325   .text.timer_channel_output_config:00000000000000a2 .L0 
C:\Users\test\AppData\Local\Temp\ccx0JFmY.s:1327   .text.timer_channel_output_config:00000000000000a6 .L0 
C:\Users\test\AppData\Local\Temp\ccx0JFmY.s:1331   .text.timer_channel_output_config:00000000000000ae .L0 
C:\Users\test\AppData\Local\Temp\ccx0JFmY.s:1334   .text.timer_channel_output_config:00000000000000b4 .L0 
C:\Users\test\AppData\Local\Temp\ccx0JFmY.s:1335   .text.timer_channel_output_config:00000000000000b4 .L0 
C:\Users\test\AppData\Local\Temp\ccx0JFmY.s:1339   .text.timer_channel_output_config:00000000000000ba .L0 
C:\Users\test\AppData\Local\Temp\ccx0JFmY.s:1340   .text.timer_channel_output_config:00000000000000ba .L0 
C:\Users\test\AppData\Local\Temp\ccx0JFmY.s:1344   .text.timer_channel_output_config:00000000000000c0 .L0 
C:\Users\test\AppData\Local\Temp\ccx0JFmY.s:1345   .text.timer_channel_output_config:00000000000000c0 .L0 
C:\Users\test\AppData\Local\Temp\ccx0JFmY.s:1349   .text.timer_channel_output_config:00000000000000c4 .L0 
C:\Users\test\AppData\Local\Temp\ccx0JFmY.s:1350   .text.timer_channel_output_config:00000000000000c4 .L0 
C:\Users\test\AppData\Local\Temp\ccx0JFmY.s:1354   .text.timer_channel_output_config:00000000000000ca .L0 
C:\Users\test\AppData\Local\Temp\ccx0JFmY.s:1358   .text.timer_channel_output_config:00000000000000cc .L0 
C:\Users\test\AppData\Local\Temp\ccx0JFmY.s:1359   .text.timer_channel_output_config:00000000000000cc .L0 
C:\Users\test\AppData\Local\Temp\ccx0JFmY.s:1361   .text.timer_channel_output_config:00000000000000ce .L0 
C:\Users\test\AppData\Local\Temp\ccx0JFmY.s:1363   .text.timer_channel_output_config:00000000000000d2 .L0 
C:\Users\test\AppData\Local\Temp\ccx0JFmY.s:1365   .text.timer_channel_output_config:00000000000000d6 .L0 
C:\Users\test\AppData\Local\Temp\ccx0JFmY.s:1368   .text.timer_channel_output_config:00000000000000da .L0 
C:\Users\test\AppData\Local\Temp\ccx0JFmY.s:1369   .text.timer_channel_output_config:00000000000000da .L0 
C:\Users\test\AppData\Local\Temp\ccx0JFmY.s:1371   .text.timer_channel_output_config:00000000000000dc .L0 
C:\Users\test\AppData\Local\Temp\ccx0JFmY.s:1373   .text.timer_channel_output_config:00000000000000de .L0 
C:\Users\test\AppData\Local\Temp\ccx0JFmY.s:1375   .text.timer_channel_output_config:00000000000000e0 .L0 
C:\Users\test\AppData\Local\Temp\ccx0JFmY.s:1378   .text.timer_channel_output_config:00000000000000e4 .L0 
C:\Users\test\AppData\Local\Temp\ccx0JFmY.s:1379   .text.timer_channel_output_config:00000000000000e4 .L0 
C:\Users\test\AppData\Local\Temp\ccx0JFmY.s:1381   .text.timer_channel_output_config:00000000000000e6 .L0 
C:\Users\test\AppData\Local\Temp\ccx0JFmY.s:1385   .text.timer_channel_output_config:00000000000000ee .L0 
C:\Users\test\AppData\Local\Temp\ccx0JFmY.s:1388   .text.timer_channel_output_config:00000000000000f4 .L0 
C:\Users\test\AppData\Local\Temp\ccx0JFmY.s:1389   .text.timer_channel_output_config:00000000000000f4 .L0 
C:\Users\test\AppData\Local\Temp\ccx0JFmY.s:1393   .text.timer_channel_output_config:00000000000000fa .L0 
C:\Users\test\AppData\Local\Temp\ccx0JFmY.s:1394   .text.timer_channel_output_config:00000000000000fa .L0 
C:\Users\test\AppData\Local\Temp\ccx0JFmY.s:1398   .text.timer_channel_output_config:00000000000000fe .L0 
C:\Users\test\AppData\Local\Temp\ccx0JFmY.s:1399   .text.timer_channel_output_config:00000000000000fe .L0 
GAS LISTING C:\Users\test\AppData\Local\Temp\ccx0JFmY.s 			page 130


C:\Users\test\AppData\Local\Temp\ccx0JFmY.s:1403   .text.timer_channel_output_config:0000000000000106 .L0 
C:\Users\test\AppData\Local\Temp\ccx0JFmY.s:1407   .text.timer_channel_output_config:0000000000000108 .L0 
C:\Users\test\AppData\Local\Temp\ccx0JFmY.s:1408   .text.timer_channel_output_config:0000000000000108 .L0 
C:\Users\test\AppData\Local\Temp\ccx0JFmY.s:1410   .text.timer_channel_output_config:000000000000010a .L0 
C:\Users\test\AppData\Local\Temp\ccx0JFmY.s:1412   .text.timer_channel_output_config:000000000000010e .L0 
C:\Users\test\AppData\Local\Temp\ccx0JFmY.s:1414   .text.timer_channel_output_config:0000000000000112 .L0 
C:\Users\test\AppData\Local\Temp\ccx0JFmY.s:1417   .text.timer_channel_output_config:0000000000000118 .L0 
C:\Users\test\AppData\Local\Temp\ccx0JFmY.s:1418   .text.timer_channel_output_config:0000000000000118 .L0 
C:\Users\test\AppData\Local\Temp\ccx0JFmY.s:1420   .text.timer_channel_output_config:000000000000011a .L0 
C:\Users\test\AppData\Local\Temp\ccx0JFmY.s:1422   .text.timer_channel_output_config:000000000000011c .L0 
C:\Users\test\AppData\Local\Temp\ccx0JFmY.s:1424   .text.timer_channel_output_config:000000000000011e .L0 
C:\Users\test\AppData\Local\Temp\ccx0JFmY.s:1427   .text.timer_channel_output_config:0000000000000122 .L0 
C:\Users\test\AppData\Local\Temp\ccx0JFmY.s:1428   .text.timer_channel_output_config:0000000000000122 .L0 
C:\Users\test\AppData\Local\Temp\ccx0JFmY.s:1430   .text.timer_channel_output_config:0000000000000124 .L0 
C:\Users\test\AppData\Local\Temp\ccx0JFmY.s:1432   .text.timer_channel_output_config:0000000000000128 .L0 
C:\Users\test\AppData\Local\Temp\ccx0JFmY.s:1435   .text.timer_channel_output_config:000000000000012e .L0 
C:\Users\test\AppData\Local\Temp\ccx0JFmY.s:1436   .text.timer_channel_output_config:000000000000012e .L0 
C:\Users\test\AppData\Local\Temp\ccx0JFmY.s:1438   .text.timer_channel_output_config:0000000000000130 .L0 
C:\Users\test\AppData\Local\Temp\ccx0JFmY.s:1440   .text.timer_channel_output_config:0000000000000132 .L0 
C:\Users\test\AppData\Local\Temp\ccx0JFmY.s:1443   .text.timer_channel_output_config:0000000000000136 .L0 
C:\Users\test\AppData\Local\Temp\ccx0JFmY.s:1444   .text.timer_channel_output_config:0000000000000136 .L0 
C:\Users\test\AppData\Local\Temp\ccx0JFmY.s:1446   .text.timer_channel_output_config:000000000000013a .L0 
C:\Users\test\AppData\Local\Temp\ccx0JFmY.s:1448   .text.timer_channel_output_config:000000000000013e .L0 
C:\Users\test\AppData\Local\Temp\ccx0JFmY.s:1451   .text.timer_channel_output_config:0000000000000146 .L0 
C:\Users\test\AppData\Local\Temp\ccx0JFmY.s:1452   .text.timer_channel_output_config:0000000000000146 .L0 
C:\Users\test\AppData\Local\Temp\ccx0JFmY.s:1455   .text.timer_channel_output_config:000000000000014a .L0 
C:\Users\test\AppData\Local\Temp\ccx0JFmY.s:1457   .text.timer_channel_output_config:000000000000014c .L0 
C:\Users\test\AppData\Local\Temp\ccx0JFmY.s:1460   .text.timer_channel_output_config:0000000000000152 .L0 
C:\Users\test\AppData\Local\Temp\ccx0JFmY.s:1461   .text.timer_channel_output_config:0000000000000152 .L0 
C:\Users\test\AppData\Local\Temp\ccx0JFmY.s:1467   .text.timer_channel_output_config:0000000000000162 .L0 
C:\Users\test\AppData\Local\Temp\ccx0JFmY.s:1468   .text.timer_channel_output_config:0000000000000162 .L0 
C:\Users\test\AppData\Local\Temp\ccx0JFmY.s:1475   .text.timer_channel_output_config:000000000000016e .L0 
C:\Users\test\AppData\Local\Temp\ccx0JFmY.s:1476   .text.timer_channel_output_config:000000000000016e .L0 
C:\Users\test\AppData\Local\Temp\ccx0JFmY.s:1478   .text.timer_channel_output_config:0000000000000170 .L0 
C:\Users\test\AppData\Local\Temp\ccx0JFmY.s:1480   .text.timer_channel_output_config:0000000000000174 .L0 
C:\Users\test\AppData\Local\Temp\ccx0JFmY.s:1482   .text.timer_channel_output_config:0000000000000178 .L0 
C:\Users\test\AppData\Local\Temp\ccx0JFmY.s:1485   .text.timer_channel_output_config:000000000000017c .L0 
C:\Users\test\AppData\Local\Temp\ccx0JFmY.s:1486   .text.timer_channel_output_config:000000000000017c .L0 
C:\Users\test\AppData\Local\Temp\ccx0JFmY.s:1488   .text.timer_channel_output_config:0000000000000180 .L0 
C:\Users\test\AppData\Local\Temp\ccx0JFmY.s:1490   .text.timer_channel_output_config:0000000000000184 .L0 
C:\Users\test\AppData\Local\Temp\ccx0JFmY.s:1492   .text.timer_channel_output_config:0000000000000188 .L0 
C:\Users\test\AppData\Local\Temp\ccx0JFmY.s:1495   .text.timer_channel_output_config:0000000000000190 .L0 
C:\Users\test\AppData\Local\Temp\ccx0JFmY.s:1496   .text.timer_channel_output_config:0000000000000190 .L0 
C:\Users\test\AppData\Local\Temp\ccx0JFmY.s:1501   .text.timer_channel_output_config:0000000000000196 .L0 
C:\Users\test\AppData\Local\Temp\ccx0JFmY.s:1502   .text.timer_channel_output_config:0000000000000196 .L0 
C:\Users\test\AppData\Local\Temp\ccx0JFmY.s:1506   .text.timer_channel_output_config:000000000000019c .L0 
C:\Users\test\AppData\Local\Temp\ccx0JFmY.s:1507   .text.timer_channel_output_config:000000000000019c .L0 
C:\Users\test\AppData\Local\Temp\ccx0JFmY.s:1511   .text.timer_channel_output_config:00000000000001a8 .L0 
C:\Users\test\AppData\Local\Temp\ccx0JFmY.s:1512   .text.timer_channel_output_config:00000000000001a8 .L0 
C:\Users\test\AppData\Local\Temp\ccx0JFmY.s:1516   .text.timer_channel_output_config:00000000000001b2 .L0 
C:\Users\test\AppData\Local\Temp\ccx0JFmY.s:1517   .text.timer_channel_output_config:00000000000001b2 .L0 
C:\Users\test\AppData\Local\Temp\ccx0JFmY.s:1521   .text.timer_channel_output_config:00000000000001be .L0 
C:\Users\test\AppData\Local\Temp\ccx0JFmY.s:1522   .text.timer_channel_output_config:00000000000001be .L0 
C:\Users\test\AppData\Local\Temp\ccx0JFmY.s:1529   .text.timer_channel_output_config:00000000000001ca .L0 
C:\Users\test\AppData\Local\Temp\ccx0JFmY.s:1530   .text.timer_channel_output_config:00000000000001ca .L0 
C:\Users\test\AppData\Local\Temp\ccx0JFmY.s:1532   .text.timer_channel_output_config:00000000000001cc .L0 
C:\Users\test\AppData\Local\Temp\ccx0JFmY.s:1534   .text.timer_channel_output_config:00000000000001d0 .L0 
GAS LISTING C:\Users\test\AppData\Local\Temp\ccx0JFmY.s 			page 131


C:\Users\test\AppData\Local\Temp\ccx0JFmY.s:1536   .text.timer_channel_output_config:00000000000001d2 .L0 
C:\Users\test\AppData\Local\Temp\ccx0JFmY.s:1539   .text.timer_channel_output_config:00000000000001d8 .L0 
C:\Users\test\AppData\Local\Temp\ccx0JFmY.s:1540   .text.timer_channel_output_config:00000000000001d8 .L0 
C:\Users\test\AppData\Local\Temp\ccx0JFmY.s:1542   .text.timer_channel_output_config:00000000000001da .L0 
C:\Users\test\AppData\Local\Temp\ccx0JFmY.s:1544   .text.timer_channel_output_config:00000000000001dc .L0 
C:\Users\test\AppData\Local\Temp\ccx0JFmY.s:1546   .text.timer_channel_output_config:00000000000001e0 .L0 
C:\Users\test\AppData\Local\Temp\ccx0JFmY.s:1549   .text.timer_channel_output_config:00000000000001e4 .L0 
C:\Users\test\AppData\Local\Temp\ccx0JFmY.s:1550   .text.timer_channel_output_config:00000000000001e4 .L0 
C:\Users\test\AppData\Local\Temp\ccx0JFmY.s:1552   .text.timer_channel_output_config:00000000000001e8 .L0 
C:\Users\test\AppData\Local\Temp\ccx0JFmY.s:1554   .text.timer_channel_output_config:00000000000001ec .L0 
C:\Users\test\AppData\Local\Temp\ccx0JFmY.s:1556   .text.timer_channel_output_config:00000000000001f0 .L0 
C:\Users\test\AppData\Local\Temp\ccx0JFmY.s:1559   .text.timer_channel_output_config:00000000000001f6 .L0 
C:\Users\test\AppData\Local\Temp\ccx0JFmY.s:1560   .text.timer_channel_output_config:00000000000001f6 .L0 
C:\Users\test\AppData\Local\Temp\ccx0JFmY.s:1562   .text.timer_channel_output_config:00000000000001fa .L0 
C:\Users\test\AppData\Local\Temp\ccx0JFmY.s:1564   .text.timer_channel_output_config:00000000000001fc .L0 
C:\Users\test\AppData\Local\Temp\ccx0JFmY.s:1566   .text.timer_channel_output_config:0000000000000200 .L0 
C:\Users\test\AppData\Local\Temp\ccx0JFmY.s:1569   .text.timer_channel_output_config:0000000000000206 .L0 
C:\Users\test\AppData\Local\Temp\ccx0JFmY.s:1570   .text.timer_channel_output_config:0000000000000206 .L0 
C:\Users\test\AppData\Local\Temp\ccx0JFmY.s:1572   .text.timer_channel_output_config:000000000000020a .L0 
C:\Users\test\AppData\Local\Temp\ccx0JFmY.s:1574   .text.timer_channel_output_config:000000000000020c .L0 
C:\Users\test\AppData\Local\Temp\ccx0JFmY.s:1577   .text.timer_channel_output_config:0000000000000212 .L0 
C:\Users\test\AppData\Local\Temp\ccx0JFmY.s:1578   .text.timer_channel_output_config:0000000000000212 .L0 
C:\Users\test\AppData\Local\Temp\ccx0JFmY.s:1580   .text.timer_channel_output_config:0000000000000216 .L0 
C:\Users\test\AppData\Local\Temp\ccx0JFmY.s:1582   .text.timer_channel_output_config:000000000000021a .L0 
C:\Users\test\AppData\Local\Temp\ccx0JFmY.s:1585   .text.timer_channel_output_config:000000000000021c .L0 
C:\Users\test\AppData\Local\Temp\ccx0JFmY.s:1588   .text.timer_channel_output_config:0000000000000222 .L0 
C:\Users\test\AppData\Local\Temp\ccx0JFmY.s:1589   .text.timer_channel_output_config:0000000000000222 .L0 
C:\Users\test\AppData\Local\Temp\ccx0JFmY.s:1592   .text.timer_channel_output_config:0000000000000228 .L0 
C:\Users\test\AppData\Local\Temp\ccx0JFmY.s:1594   .text.timer_channel_output_config:000000000000022a .L0 
C:\Users\test\AppData\Local\Temp\ccx0JFmY.s:1597   .text.timer_channel_output_config:0000000000000230 .L0 
C:\Users\test\AppData\Local\Temp\ccx0JFmY.s:1598   .text.timer_channel_output_config:0000000000000230 .L0 
C:\Users\test\AppData\Local\Temp\ccx0JFmY.s:1605   .text.timer_channel_output_config:000000000000023c .L0 
C:\Users\test\AppData\Local\Temp\ccx0JFmY.s:1606   .text.timer_channel_output_config:000000000000023c .L0 
C:\Users\test\AppData\Local\Temp\ccx0JFmY.s:1612   .text.timer_channel_output_config:000000000000024a .L0 
C:\Users\test\AppData\Local\Temp\ccx0JFmY.s:1613   .text.timer_channel_output_config:000000000000024a .L0 
C:\Users\test\AppData\Local\Temp\ccx0JFmY.s:1615   .text.timer_channel_output_config:000000000000024e .L0 
C:\Users\test\AppData\Local\Temp\ccx0JFmY.s:1617   .text.timer_channel_output_config:0000000000000252 .L0 
C:\Users\test\AppData\Local\Temp\ccx0JFmY.s:1619   .text.timer_channel_output_config:0000000000000254 .L0 
C:\Users\test\AppData\Local\Temp\ccx0JFmY.s:1622   .text.timer_channel_output_config:000000000000025c .L0 
C:\Users\test\AppData\Local\Temp\ccx0JFmY.s:1629   .text.timer_channel_output_mode_config:0000000000000000 timer_channel_output_mode_config
C:\Users\test\AppData\Local\Temp\ccx0JFmY.s:1632   .text.timer_channel_output_mode_config:0000000000000000 .L0 
C:\Users\test\AppData\Local\Temp\ccx0JFmY.s:1634   .text.timer_channel_output_mode_config:0000000000000000 .L0 
C:\Users\test\AppData\Local\Temp\ccx0JFmY.s:1635   .text.timer_channel_output_mode_config:0000000000000000 .L0 
C:\Users\test\AppData\Local\Temp\ccx0JFmY.s:1643   .text.timer_channel_output_mode_config:0000000000000014 .L0 
C:\Users\test\AppData\Local\Temp\ccx0JFmY.s:1644   .text.timer_channel_output_mode_config:0000000000000014 .L0 
C:\Users\test\AppData\Local\Temp\ccx0JFmY.s:1650   .text.timer_channel_output_mode_config:000000000000001e .L0 
C:\Users\test\AppData\Local\Temp\ccx0JFmY.s:1651   .text.timer_channel_output_mode_config:000000000000001e .L0 
C:\Users\test\AppData\Local\Temp\ccx0JFmY.s:1653   .text.timer_channel_output_mode_config:0000000000000020 .L0 
C:\Users\test\AppData\Local\Temp\ccx0JFmY.s:1656   .text.timer_channel_output_mode_config:0000000000000022 .L0 
C:\Users\test\AppData\Local\Temp\ccx0JFmY.s:1659   .text.timer_channel_output_mode_config:0000000000000026 .L0 
C:\Users\test\AppData\Local\Temp\ccx0JFmY.s:1660   .text.timer_channel_output_mode_config:0000000000000026 .L0 
C:\Users\test\AppData\Local\Temp\ccx0JFmY.s:1666   .text.timer_channel_output_mode_config:000000000000002a .L0 
C:\Users\test\AppData\Local\Temp\ccx0JFmY.s:1667   .text.timer_channel_output_mode_config:000000000000002a .L0 
C:\Users\test\AppData\Local\Temp\ccx0JFmY.s:1673   .text.timer_channel_output_mode_config:0000000000000034 .L0 
C:\Users\test\AppData\Local\Temp\ccx0JFmY.s:1674   .text.timer_channel_output_mode_config:0000000000000034 .L0 
C:\Users\test\AppData\Local\Temp\ccx0JFmY.s:1676   .text.timer_channel_output_mode_config:0000000000000036 .L0 
C:\Users\test\AppData\Local\Temp\ccx0JFmY.s:1679   .text.timer_channel_output_mode_config:0000000000000038 .L0 
GAS LISTING C:\Users\test\AppData\Local\Temp\ccx0JFmY.s 			page 132


C:\Users\test\AppData\Local\Temp\ccx0JFmY.s:1682   .text.timer_channel_output_mode_config:000000000000003c .L0 
C:\Users\test\AppData\Local\Temp\ccx0JFmY.s:1686   .text.timer_channel_output_mode_config:000000000000003e .L0 
C:\Users\test\AppData\Local\Temp\ccx0JFmY.s:1687   .text.timer_channel_output_mode_config:000000000000003e .L0 
C:\Users\test\AppData\Local\Temp\ccx0JFmY.s:1691   .text.timer_channel_output_mode_config:0000000000000046 .L0 
C:\Users\test\AppData\Local\Temp\ccx0JFmY.s:1692   .text.timer_channel_output_mode_config:0000000000000046 .L0 
C:\Users\test\AppData\Local\Temp\ccx0JFmY.s:1697   .text.timer_channel_output_mode_config:000000000000004c .L0 
C:\Users\test\AppData\Local\Temp\ccx0JFmY.s:1701   .text.timer_channel_output_mode_config:000000000000004e .L0 
C:\Users\test\AppData\Local\Temp\ccx0JFmY.s:1702   .text.timer_channel_output_mode_config:000000000000004e .L0 
C:\Users\test\AppData\Local\Temp\ccx0JFmY.s:1706   .text.timer_channel_output_mode_config:0000000000000056 .L0 
C:\Users\test\AppData\Local\Temp\ccx0JFmY.s:1707   .text.timer_channel_output_mode_config:0000000000000056 .L0 
C:\Users\test\AppData\Local\Temp\ccx0JFmY.s:1712   .text.timer_channel_output_mode_config:000000000000005c .L0 
C:\Users\test\AppData\Local\Temp\ccx0JFmY.s:1713   .text.timer_channel_output_mode_config:000000000000005e .L0 
C:\Users\test\AppData\Local\Temp\ccx0JFmY.s:1720   .text.timer_channel_output_pulse_value_config:0000000000000000 timer_channel_output_pulse_value_config
C:\Users\test\AppData\Local\Temp\ccx0JFmY.s:1723   .text.timer_channel_output_pulse_value_config:0000000000000000 .L0 
C:\Users\test\AppData\Local\Temp\ccx0JFmY.s:1725   .text.timer_channel_output_pulse_value_config:0000000000000000 .L0 
C:\Users\test\AppData\Local\Temp\ccx0JFmY.s:1726   .text.timer_channel_output_pulse_value_config:0000000000000000 .L0 
C:\Users\test\AppData\Local\Temp\ccx0JFmY.s:1734   .text.timer_channel_output_pulse_value_config:0000000000000014 .L0 
C:\Users\test\AppData\Local\Temp\ccx0JFmY.s:1735   .text.timer_channel_output_pulse_value_config:0000000000000014 .L0 
C:\Users\test\AppData\Local\Temp\ccx0JFmY.s:1737   .text.timer_channel_output_pulse_value_config:0000000000000016 .L0 
C:\Users\test\AppData\Local\Temp\ccx0JFmY.s:1738   .text.timer_channel_output_pulse_value_config:0000000000000016 .L0 
C:\Users\test\AppData\Local\Temp\ccx0JFmY.s:1743   .text.timer_channel_output_pulse_value_config:000000000000001a .L0 
C:\Users\test\AppData\Local\Temp\ccx0JFmY.s:1744   .text.timer_channel_output_pulse_value_config:000000000000001a .L0 
C:\Users\test\AppData\Local\Temp\ccx0JFmY.s:1746   .text.timer_channel_output_pulse_value_config:000000000000001c .L0 
C:\Users\test\AppData\Local\Temp\ccx0JFmY.s:1749   .text.timer_channel_output_pulse_value_config:000000000000001e .L0 
C:\Users\test\AppData\Local\Temp\ccx0JFmY.s:1750   .text.timer_channel_output_pulse_value_config:000000000000001e .L0 
C:\Users\test\AppData\Local\Temp\ccx0JFmY.s:1752   .text.timer_channel_output_pulse_value_config:0000000000000020 .L0 
C:\Users\test\AppData\Local\Temp\ccx0JFmY.s:1755   .text.timer_channel_output_pulse_value_config:0000000000000022 .L0 
C:\Users\test\AppData\Local\Temp\ccx0JFmY.s:1756   .text.timer_channel_output_pulse_value_config:0000000000000022 .L0 
C:\Users\test\AppData\Local\Temp\ccx0JFmY.s:1758   .text.timer_channel_output_pulse_value_config:0000000000000024 .L0 
C:\Users\test\AppData\Local\Temp\ccx0JFmY.s:1759   .text.timer_channel_output_pulse_value_config:0000000000000026 .L0 
C:\Users\test\AppData\Local\Temp\ccx0JFmY.s:1766   .text.timer_channel_output_shadow_config:0000000000000000 timer_channel_output_shadow_config
C:\Users\test\AppData\Local\Temp\ccx0JFmY.s:1769   .text.timer_channel_output_shadow_config:0000000000000000 .L0 
C:\Users\test\AppData\Local\Temp\ccx0JFmY.s:1771   .text.timer_channel_output_shadow_config:0000000000000000 .L0 
C:\Users\test\AppData\Local\Temp\ccx0JFmY.s:1772   .text.timer_channel_output_shadow_config:0000000000000000 .L0 
C:\Users\test\AppData\Local\Temp\ccx0JFmY.s:1780   .text.timer_channel_output_shadow_config:0000000000000014 .L0 
C:\Users\test\AppData\Local\Temp\ccx0JFmY.s:1781   .text.timer_channel_output_shadow_config:0000000000000014 .L0 
C:\Users\test\AppData\Local\Temp\ccx0JFmY.s:1787   .text.timer_channel_output_shadow_config:0000000000000020 .L0 
C:\Users\test\AppData\Local\Temp\ccx0JFmY.s:1788   .text.timer_channel_output_shadow_config:0000000000000020 .L0 
C:\Users\test\AppData\Local\Temp\ccx0JFmY.s:1790   .text.timer_channel_output_shadow_config:0000000000000022 .L0 
C:\Users\test\AppData\Local\Temp\ccx0JFmY.s:1793   .text.timer_channel_output_shadow_config:0000000000000024 .L0 
C:\Users\test\AppData\Local\Temp\ccx0JFmY.s:1796   .text.timer_channel_output_shadow_config:0000000000000028 .L0 
C:\Users\test\AppData\Local\Temp\ccx0JFmY.s:1797   .text.timer_channel_output_shadow_config:0000000000000028 .L0 
C:\Users\test\AppData\Local\Temp\ccx0JFmY.s:1803   .text.timer_channel_output_shadow_config:000000000000002c .L0 
C:\Users\test\AppData\Local\Temp\ccx0JFmY.s:1804   .text.timer_channel_output_shadow_config:000000000000002c .L0 
C:\Users\test\AppData\Local\Temp\ccx0JFmY.s:1810   .text.timer_channel_output_shadow_config:0000000000000038 .L0 
C:\Users\test\AppData\Local\Temp\ccx0JFmY.s:1811   .text.timer_channel_output_shadow_config:0000000000000038 .L0 
C:\Users\test\AppData\Local\Temp\ccx0JFmY.s:1813   .text.timer_channel_output_shadow_config:000000000000003a .L0 
C:\Users\test\AppData\Local\Temp\ccx0JFmY.s:1816   .text.timer_channel_output_shadow_config:000000000000003c .L0 
C:\Users\test\AppData\Local\Temp\ccx0JFmY.s:1819   .text.timer_channel_output_shadow_config:0000000000000040 .L0 
C:\Users\test\AppData\Local\Temp\ccx0JFmY.s:1823   .text.timer_channel_output_shadow_config:0000000000000042 .L0 
C:\Users\test\AppData\Local\Temp\ccx0JFmY.s:1824   .text.timer_channel_output_shadow_config:0000000000000042 .L0 
C:\Users\test\AppData\Local\Temp\ccx0JFmY.s:1828   .text.timer_channel_output_shadow_config:0000000000000048 .L0 
C:\Users\test\AppData\Local\Temp\ccx0JFmY.s:1829   .text.timer_channel_output_shadow_config:0000000000000048 .L0 
C:\Users\test\AppData\Local\Temp\ccx0JFmY.s:1834   .text.timer_channel_output_shadow_config:000000000000004e .L0 
C:\Users\test\AppData\Local\Temp\ccx0JFmY.s:1838   .text.timer_channel_output_shadow_config:0000000000000050 .L0 
C:\Users\test\AppData\Local\Temp\ccx0JFmY.s:1839   .text.timer_channel_output_shadow_config:0000000000000050 .L0 
C:\Users\test\AppData\Local\Temp\ccx0JFmY.s:1843   .text.timer_channel_output_shadow_config:0000000000000056 .L0 
GAS LISTING C:\Users\test\AppData\Local\Temp\ccx0JFmY.s 			page 133


C:\Users\test\AppData\Local\Temp\ccx0JFmY.s:1844   .text.timer_channel_output_shadow_config:0000000000000056 .L0 
C:\Users\test\AppData\Local\Temp\ccx0JFmY.s:1849   .text.timer_channel_output_shadow_config:000000000000005c .L0 
C:\Users\test\AppData\Local\Temp\ccx0JFmY.s:1850   .text.timer_channel_output_shadow_config:000000000000005e .L0 
C:\Users\test\AppData\Local\Temp\ccx0JFmY.s:1857   .text.timer_channel_output_fast_config:0000000000000000 timer_channel_output_fast_config
C:\Users\test\AppData\Local\Temp\ccx0JFmY.s:1860   .text.timer_channel_output_fast_config:0000000000000000 .L0 
C:\Users\test\AppData\Local\Temp\ccx0JFmY.s:1862   .text.timer_channel_output_fast_config:0000000000000000 .L0 
C:\Users\test\AppData\Local\Temp\ccx0JFmY.s:1863   .text.timer_channel_output_fast_config:0000000000000000 .L0 
C:\Users\test\AppData\Local\Temp\ccx0JFmY.s:1871   .text.timer_channel_output_fast_config:0000000000000014 .L0 
C:\Users\test\AppData\Local\Temp\ccx0JFmY.s:1872   .text.timer_channel_output_fast_config:0000000000000014 .L0 
C:\Users\test\AppData\Local\Temp\ccx0JFmY.s:1874   .text.timer_channel_output_fast_config:0000000000000016 .L0 
C:\Users\test\AppData\Local\Temp\ccx0JFmY.s:1877   .text.timer_channel_output_fast_config:0000000000000018 .L0 
C:\Users\test\AppData\Local\Temp\ccx0JFmY.s:1880   .text.timer_channel_output_fast_config:000000000000001e .L0 
C:\Users\test\AppData\Local\Temp\ccx0JFmY.s:1881   .text.timer_channel_output_fast_config:000000000000001e .L0 
C:\Users\test\AppData\Local\Temp\ccx0JFmY.s:1885   .text.timer_channel_output_fast_config:0000000000000024 .L0 
C:\Users\test\AppData\Local\Temp\ccx0JFmY.s:1886   .text.timer_channel_output_fast_config:0000000000000024 .L0 
C:\Users\test\AppData\Local\Temp\ccx0JFmY.s:1892   .text.timer_channel_output_fast_config:0000000000000028 .L0 
C:\Users\test\AppData\Local\Temp\ccx0JFmY.s:1893   .text.timer_channel_output_fast_config:0000000000000028 .L0 
C:\Users\test\AppData\Local\Temp\ccx0JFmY.s:1895   .text.timer_channel_output_fast_config:000000000000002a .L0 
C:\Users\test\AppData\Local\Temp\ccx0JFmY.s:1898   .text.timer_channel_output_fast_config:000000000000002c .L0 
C:\Users\test\AppData\Local\Temp\ccx0JFmY.s:1901   .text.timer_channel_output_fast_config:0000000000000032 .L0 
C:\Users\test\AppData\Local\Temp\ccx0JFmY.s:1902   .text.timer_channel_output_fast_config:0000000000000032 .L0 
C:\Users\test\AppData\Local\Temp\ccx0JFmY.s:1906   .text.timer_channel_output_fast_config:0000000000000038 .L0 
C:\Users\test\AppData\Local\Temp\ccx0JFmY.s:1910   .text.timer_channel_output_fast_config:000000000000003a .L0 
C:\Users\test\AppData\Local\Temp\ccx0JFmY.s:1911   .text.timer_channel_output_fast_config:000000000000003a .L0 
C:\Users\test\AppData\Local\Temp\ccx0JFmY.s:1915   .text.timer_channel_output_fast_config:0000000000000040 .L0 
C:\Users\test\AppData\Local\Temp\ccx0JFmY.s:1916   .text.timer_channel_output_fast_config:0000000000000040 .L0 
C:\Users\test\AppData\Local\Temp\ccx0JFmY.s:1921   .text.timer_channel_output_fast_config:0000000000000046 .L0 
C:\Users\test\AppData\Local\Temp\ccx0JFmY.s:1925   .text.timer_channel_output_fast_config:0000000000000048 .L0 
C:\Users\test\AppData\Local\Temp\ccx0JFmY.s:1926   .text.timer_channel_output_fast_config:0000000000000048 .L0 
C:\Users\test\AppData\Local\Temp\ccx0JFmY.s:1930   .text.timer_channel_output_fast_config:000000000000004e .L0 
C:\Users\test\AppData\Local\Temp\ccx0JFmY.s:1931   .text.timer_channel_output_fast_config:000000000000004e .L0 
C:\Users\test\AppData\Local\Temp\ccx0JFmY.s:1936   .text.timer_channel_output_fast_config:0000000000000054 .L0 
C:\Users\test\AppData\Local\Temp\ccx0JFmY.s:1937   .text.timer_channel_output_fast_config:0000000000000056 .L0 
C:\Users\test\AppData\Local\Temp\ccx0JFmY.s:1944   .text.timer_channel_output_clear_config:0000000000000000 timer_channel_output_clear_config
C:\Users\test\AppData\Local\Temp\ccx0JFmY.s:1947   .text.timer_channel_output_clear_config:0000000000000000 .L0 
C:\Users\test\AppData\Local\Temp\ccx0JFmY.s:1949   .text.timer_channel_output_clear_config:0000000000000000 .L0 
C:\Users\test\AppData\Local\Temp\ccx0JFmY.s:1950   .text.timer_channel_output_clear_config:0000000000000000 .L0 
C:\Users\test\AppData\Local\Temp\ccx0JFmY.s:1958   .text.timer_channel_output_clear_config:0000000000000014 .L0 
C:\Users\test\AppData\Local\Temp\ccx0JFmY.s:1959   .text.timer_channel_output_clear_config:0000000000000014 .L0 
C:\Users\test\AppData\Local\Temp\ccx0JFmY.s:1965   .text.timer_channel_output_clear_config:000000000000001e .L0 
C:\Users\test\AppData\Local\Temp\ccx0JFmY.s:1966   .text.timer_channel_output_clear_config:000000000000001e .L0 
C:\Users\test\AppData\Local\Temp\ccx0JFmY.s:1968   .text.timer_channel_output_clear_config:0000000000000020 .L0 
C:\Users\test\AppData\Local\Temp\ccx0JFmY.s:1971   .text.timer_channel_output_clear_config:0000000000000022 .L0 
C:\Users\test\AppData\Local\Temp\ccx0JFmY.s:1974   .text.timer_channel_output_clear_config:0000000000000026 .L0 
C:\Users\test\AppData\Local\Temp\ccx0JFmY.s:1975   .text.timer_channel_output_clear_config:0000000000000026 .L0 
C:\Users\test\AppData\Local\Temp\ccx0JFmY.s:1981   .text.timer_channel_output_clear_config:000000000000002a .L0 
C:\Users\test\AppData\Local\Temp\ccx0JFmY.s:1982   .text.timer_channel_output_clear_config:000000000000002a .L0 
C:\Users\test\AppData\Local\Temp\ccx0JFmY.s:1988   .text.timer_channel_output_clear_config:0000000000000034 .L0 
C:\Users\test\AppData\Local\Temp\ccx0JFmY.s:1989   .text.timer_channel_output_clear_config:0000000000000034 .L0 
C:\Users\test\AppData\Local\Temp\ccx0JFmY.s:1991   .text.timer_channel_output_clear_config:0000000000000036 .L0 
C:\Users\test\AppData\Local\Temp\ccx0JFmY.s:1994   .text.timer_channel_output_clear_config:0000000000000038 .L0 
C:\Users\test\AppData\Local\Temp\ccx0JFmY.s:1997   .text.timer_channel_output_clear_config:000000000000003c .L0 
C:\Users\test\AppData\Local\Temp\ccx0JFmY.s:2001   .text.timer_channel_output_clear_config:000000000000003e .L0 
C:\Users\test\AppData\Local\Temp\ccx0JFmY.s:2002   .text.timer_channel_output_clear_config:000000000000003e .L0 
C:\Users\test\AppData\Local\Temp\ccx0JFmY.s:2006   .text.timer_channel_output_clear_config:0000000000000046 .L0 
C:\Users\test\AppData\Local\Temp\ccx0JFmY.s:2007   .text.timer_channel_output_clear_config:0000000000000046 .L0 
C:\Users\test\AppData\Local\Temp\ccx0JFmY.s:2012   .text.timer_channel_output_clear_config:000000000000004c .L0 
GAS LISTING C:\Users\test\AppData\Local\Temp\ccx0JFmY.s 			page 134


C:\Users\test\AppData\Local\Temp\ccx0JFmY.s:2016   .text.timer_channel_output_clear_config:000000000000004e .L0 
C:\Users\test\AppData\Local\Temp\ccx0JFmY.s:2017   .text.timer_channel_output_clear_config:000000000000004e .L0 
C:\Users\test\AppData\Local\Temp\ccx0JFmY.s:2021   .text.timer_channel_output_clear_config:0000000000000056 .L0 
C:\Users\test\AppData\Local\Temp\ccx0JFmY.s:2022   .text.timer_channel_output_clear_config:0000000000000056 .L0 
C:\Users\test\AppData\Local\Temp\ccx0JFmY.s:2027   .text.timer_channel_output_clear_config:000000000000005c .L0 
C:\Users\test\AppData\Local\Temp\ccx0JFmY.s:2028   .text.timer_channel_output_clear_config:000000000000005e .L0 
C:\Users\test\AppData\Local\Temp\ccx0JFmY.s:2035   .text.timer_channel_output_polarity_config:0000000000000000 timer_channel_output_polarity_config
C:\Users\test\AppData\Local\Temp\ccx0JFmY.s:2038   .text.timer_channel_output_polarity_config:0000000000000000 .L0 
C:\Users\test\AppData\Local\Temp\ccx0JFmY.s:2040   .text.timer_channel_output_polarity_config:0000000000000000 .L0 
C:\Users\test\AppData\Local\Temp\ccx0JFmY.s:2041   .text.timer_channel_output_polarity_config:0000000000000000 .L0 
C:\Users\test\AppData\Local\Temp\ccx0JFmY.s:2049   .text.timer_channel_output_polarity_config:0000000000000014 .L0 
C:\Users\test\AppData\Local\Temp\ccx0JFmY.s:2050   .text.timer_channel_output_polarity_config:0000000000000014 .L0 
C:\Users\test\AppData\Local\Temp\ccx0JFmY.s:2056   .text.timer_channel_output_polarity_config:000000000000001e .L0 
C:\Users\test\AppData\Local\Temp\ccx0JFmY.s:2057   .text.timer_channel_output_polarity_config:000000000000001e .L0 
C:\Users\test\AppData\Local\Temp\ccx0JFmY.s:2059   .text.timer_channel_output_polarity_config:0000000000000020 .L0 
C:\Users\test\AppData\Local\Temp\ccx0JFmY.s:2062   .text.timer_channel_output_polarity_config:0000000000000022 .L0 
C:\Users\test\AppData\Local\Temp\ccx0JFmY.s:2065   .text.timer_channel_output_polarity_config:0000000000000026 .L0 
C:\Users\test\AppData\Local\Temp\ccx0JFmY.s:2066   .text.timer_channel_output_polarity_config:0000000000000026 .L0 
C:\Users\test\AppData\Local\Temp\ccx0JFmY.s:2072   .text.timer_channel_output_polarity_config:000000000000002a .L0 
C:\Users\test\AppData\Local\Temp\ccx0JFmY.s:2073   .text.timer_channel_output_polarity_config:000000000000002a .L0 
C:\Users\test\AppData\Local\Temp\ccx0JFmY.s:2075   .text.timer_channel_output_polarity_config:000000000000002c .L0 
C:\Users\test\AppData\Local\Temp\ccx0JFmY.s:2078   .text.timer_channel_output_polarity_config:000000000000002e .L0 
C:\Users\test\AppData\Local\Temp\ccx0JFmY.s:2081   .text.timer_channel_output_polarity_config:0000000000000034 .L0 
C:\Users\test\AppData\Local\Temp\ccx0JFmY.s:2082   .text.timer_channel_output_polarity_config:0000000000000034 .L0 
C:\Users\test\AppData\Local\Temp\ccx0JFmY.s:2086   .text.timer_channel_output_polarity_config:000000000000003a .L0 
C:\Users\test\AppData\Local\Temp\ccx0JFmY.s:2090   .text.timer_channel_output_polarity_config:000000000000003c .L0 
C:\Users\test\AppData\Local\Temp\ccx0JFmY.s:2091   .text.timer_channel_output_polarity_config:000000000000003c .L0 
C:\Users\test\AppData\Local\Temp\ccx0JFmY.s:2093   .text.timer_channel_output_polarity_config:000000000000003e .L0 
C:\Users\test\AppData\Local\Temp\ccx0JFmY.s:2096   .text.timer_channel_output_polarity_config:0000000000000040 .L0 
C:\Users\test\AppData\Local\Temp\ccx0JFmY.s:2099   .text.timer_channel_output_polarity_config:0000000000000046 .L0 
C:\Users\test\AppData\Local\Temp\ccx0JFmY.s:2100   .text.timer_channel_output_polarity_config:0000000000000046 .L0 
C:\Users\test\AppData\Local\Temp\ccx0JFmY.s:2104   .text.timer_channel_output_polarity_config:000000000000004c .L0 
C:\Users\test\AppData\Local\Temp\ccx0JFmY.s:2108   .text.timer_channel_output_polarity_config:000000000000004e .L0 
C:\Users\test\AppData\Local\Temp\ccx0JFmY.s:2109   .text.timer_channel_output_polarity_config:000000000000004e .L0 
C:\Users\test\AppData\Local\Temp\ccx0JFmY.s:2113   .text.timer_channel_output_polarity_config:0000000000000054 .L0 
C:\Users\test\AppData\Local\Temp\ccx0JFmY.s:2114   .text.timer_channel_output_polarity_config:0000000000000054 .L0 
C:\Users\test\AppData\Local\Temp\ccx0JFmY.s:2119   .text.timer_channel_output_polarity_config:000000000000005a .L0 
C:\Users\test\AppData\Local\Temp\ccx0JFmY.s:2120   .text.timer_channel_output_polarity_config:000000000000005c .L0 
C:\Users\test\AppData\Local\Temp\ccx0JFmY.s:2127   .text.timer_channel_complementary_output_polarity_config:0000000000000000 timer_channel_complementary_output_polarity_config
C:\Users\test\AppData\Local\Temp\ccx0JFmY.s:2130   .text.timer_channel_complementary_output_polarity_config:0000000000000000 .L0 
C:\Users\test\AppData\Local\Temp\ccx0JFmY.s:2132   .text.timer_channel_complementary_output_polarity_config:0000000000000000 .L0 
C:\Users\test\AppData\Local\Temp\ccx0JFmY.s:2133   .text.timer_channel_complementary_output_polarity_config:0000000000000000 .L0 
C:\Users\test\AppData\Local\Temp\ccx0JFmY.s:2139   .text.timer_channel_complementary_output_polarity_config:000000000000000e .L0 
C:\Users\test\AppData\Local\Temp\ccx0JFmY.s:2140   .text.timer_channel_complementary_output_polarity_config:000000000000000e .L0 
C:\Users\test\AppData\Local\Temp\ccx0JFmY.s:2146   .text.timer_channel_complementary_output_polarity_config:000000000000001a .L0 
C:\Users\test\AppData\Local\Temp\ccx0JFmY.s:2147   .text.timer_channel_complementary_output_polarity_config:000000000000001a .L0 
C:\Users\test\AppData\Local\Temp\ccx0JFmY.s:2149   .text.timer_channel_complementary_output_polarity_config:000000000000001c .L0 
C:\Users\test\AppData\Local\Temp\ccx0JFmY.s:2152   .text.timer_channel_complementary_output_polarity_config:000000000000001e .L0 
C:\Users\test\AppData\Local\Temp\ccx0JFmY.s:2155   .text.timer_channel_complementary_output_polarity_config:0000000000000022 .L0 
C:\Users\test\AppData\Local\Temp\ccx0JFmY.s:2156   .text.timer_channel_complementary_output_polarity_config:0000000000000022 .L0 
C:\Users\test\AppData\Local\Temp\ccx0JFmY.s:2162   .text.timer_channel_complementary_output_polarity_config:0000000000000026 .L0 
C:\Users\test\AppData\Local\Temp\ccx0JFmY.s:2163   .text.timer_channel_complementary_output_polarity_config:0000000000000026 .L0 
C:\Users\test\AppData\Local\Temp\ccx0JFmY.s:2165   .text.timer_channel_complementary_output_polarity_config:0000000000000028 .L0 
C:\Users\test\AppData\Local\Temp\ccx0JFmY.s:2168   .text.timer_channel_complementary_output_polarity_config:000000000000002a .L0 
C:\Users\test\AppData\Local\Temp\ccx0JFmY.s:2171   .text.timer_channel_complementary_output_polarity_config:0000000000000030 .L0 
C:\Users\test\AppData\Local\Temp\ccx0JFmY.s:2172   .text.timer_channel_complementary_output_polarity_config:0000000000000030 .L0 
C:\Users\test\AppData\Local\Temp\ccx0JFmY.s:2176   .text.timer_channel_complementary_output_polarity_config:0000000000000036 .L0 
GAS LISTING C:\Users\test\AppData\Local\Temp\ccx0JFmY.s 			page 135


C:\Users\test\AppData\Local\Temp\ccx0JFmY.s:2180   .text.timer_channel_complementary_output_polarity_config:0000000000000038 .L0 
C:\Users\test\AppData\Local\Temp\ccx0JFmY.s:2181   .text.timer_channel_complementary_output_polarity_config:0000000000000038 .L0 
C:\Users\test\AppData\Local\Temp\ccx0JFmY.s:2185   .text.timer_channel_complementary_output_polarity_config:000000000000003e .L0 
C:\Users\test\AppData\Local\Temp\ccx0JFmY.s:2186   .text.timer_channel_complementary_output_polarity_config:000000000000003e .L0 
C:\Users\test\AppData\Local\Temp\ccx0JFmY.s:2191   .text.timer_channel_complementary_output_polarity_config:0000000000000044 .L0 
C:\Users\test\AppData\Local\Temp\ccx0JFmY.s:2192   .text.timer_channel_complementary_output_polarity_config:0000000000000046 .L0 
C:\Users\test\AppData\Local\Temp\ccx0JFmY.s:2199   .text.timer_channel_output_state_config:0000000000000000 timer_channel_output_state_config
C:\Users\test\AppData\Local\Temp\ccx0JFmY.s:2202   .text.timer_channel_output_state_config:0000000000000000 .L0 
C:\Users\test\AppData\Local\Temp\ccx0JFmY.s:2204   .text.timer_channel_output_state_config:0000000000000000 .L0 
C:\Users\test\AppData\Local\Temp\ccx0JFmY.s:2205   .text.timer_channel_output_state_config:0000000000000000 .L0 
C:\Users\test\AppData\Local\Temp\ccx0JFmY.s:2213   .text.timer_channel_output_state_config:0000000000000014 .L0 
C:\Users\test\AppData\Local\Temp\ccx0JFmY.s:2214   .text.timer_channel_output_state_config:0000000000000014 .L0 
C:\Users\test\AppData\Local\Temp\ccx0JFmY.s:2220   .text.timer_channel_output_state_config:000000000000001e .L0 
C:\Users\test\AppData\Local\Temp\ccx0JFmY.s:2221   .text.timer_channel_output_state_config:000000000000001e .L0 
C:\Users\test\AppData\Local\Temp\ccx0JFmY.s:2223   .text.timer_channel_output_state_config:0000000000000020 .L0 
C:\Users\test\AppData\Local\Temp\ccx0JFmY.s:2226   .text.timer_channel_output_state_config:0000000000000022 .L0 
C:\Users\test\AppData\Local\Temp\ccx0JFmY.s:2229   .text.timer_channel_output_state_config:0000000000000026 .L0 
C:\Users\test\AppData\Local\Temp\ccx0JFmY.s:2230   .text.timer_channel_output_state_config:0000000000000026 .L0 
C:\Users\test\AppData\Local\Temp\ccx0JFmY.s:2236   .text.timer_channel_output_state_config:000000000000002a .L0 
C:\Users\test\AppData\Local\Temp\ccx0JFmY.s:2237   .text.timer_channel_output_state_config:000000000000002a .L0 
C:\Users\test\AppData\Local\Temp\ccx0JFmY.s:2239   .text.timer_channel_output_state_config:000000000000002c .L0 
C:\Users\test\AppData\Local\Temp\ccx0JFmY.s:2242   .text.timer_channel_output_state_config:000000000000002e .L0 
C:\Users\test\AppData\Local\Temp\ccx0JFmY.s:2245   .text.timer_channel_output_state_config:0000000000000032 .L0 
C:\Users\test\AppData\Local\Temp\ccx0JFmY.s:2246   .text.timer_channel_output_state_config:0000000000000032 .L0 
C:\Users\test\AppData\Local\Temp\ccx0JFmY.s:2250   .text.timer_channel_output_state_config:0000000000000038 .L0 
C:\Users\test\AppData\Local\Temp\ccx0JFmY.s:2254   .text.timer_channel_output_state_config:000000000000003a .L0 
C:\Users\test\AppData\Local\Temp\ccx0JFmY.s:2255   .text.timer_channel_output_state_config:000000000000003a .L0 
C:\Users\test\AppData\Local\Temp\ccx0JFmY.s:2257   .text.timer_channel_output_state_config:000000000000003c .L0 
C:\Users\test\AppData\Local\Temp\ccx0JFmY.s:2260   .text.timer_channel_output_state_config:000000000000003e .L0 
C:\Users\test\AppData\Local\Temp\ccx0JFmY.s:2263   .text.timer_channel_output_state_config:0000000000000044 .L0 
C:\Users\test\AppData\Local\Temp\ccx0JFmY.s:2264   .text.timer_channel_output_state_config:0000000000000044 .L0 
C:\Users\test\AppData\Local\Temp\ccx0JFmY.s:2268   .text.timer_channel_output_state_config:000000000000004a .L0 
C:\Users\test\AppData\Local\Temp\ccx0JFmY.s:2272   .text.timer_channel_output_state_config:000000000000004c .L0 
C:\Users\test\AppData\Local\Temp\ccx0JFmY.s:2273   .text.timer_channel_output_state_config:000000000000004c .L0 
C:\Users\test\AppData\Local\Temp\ccx0JFmY.s:2277   .text.timer_channel_output_state_config:0000000000000052 .L0 
C:\Users\test\AppData\Local\Temp\ccx0JFmY.s:2278   .text.timer_channel_output_state_config:0000000000000052 .L0 
C:\Users\test\AppData\Local\Temp\ccx0JFmY.s:2283   .text.timer_channel_output_state_config:0000000000000058 .L0 
C:\Users\test\AppData\Local\Temp\ccx0JFmY.s:2284   .text.timer_channel_output_state_config:000000000000005a .L0 
C:\Users\test\AppData\Local\Temp\ccx0JFmY.s:2291   .text.timer_channel_complementary_output_state_config:0000000000000000 timer_channel_complementary_output_state_config
C:\Users\test\AppData\Local\Temp\ccx0JFmY.s:2294   .text.timer_channel_complementary_output_state_config:0000000000000000 .L0 
C:\Users\test\AppData\Local\Temp\ccx0JFmY.s:2296   .text.timer_channel_complementary_output_state_config:0000000000000000 .L0 
C:\Users\test\AppData\Local\Temp\ccx0JFmY.s:2297   .text.timer_channel_complementary_output_state_config:0000000000000000 .L0 
C:\Users\test\AppData\Local\Temp\ccx0JFmY.s:2303   .text.timer_channel_complementary_output_state_config:000000000000000e .L0 
C:\Users\test\AppData\Local\Temp\ccx0JFmY.s:2304   .text.timer_channel_complementary_output_state_config:000000000000000e .L0 
C:\Users\test\AppData\Local\Temp\ccx0JFmY.s:2306   .text.timer_channel_complementary_output_state_config:0000000000000010 .L0 
C:\Users\test\AppData\Local\Temp\ccx0JFmY.s:2309   .text.timer_channel_complementary_output_state_config:0000000000000012 .L0 
C:\Users\test\AppData\Local\Temp\ccx0JFmY.s:2312   .text.timer_channel_complementary_output_state_config:0000000000000018 .L0 
C:\Users\test\AppData\Local\Temp\ccx0JFmY.s:2313   .text.timer_channel_complementary_output_state_config:0000000000000018 .L0 
C:\Users\test\AppData\Local\Temp\ccx0JFmY.s:2317   .text.timer_channel_complementary_output_state_config:000000000000001e .L0 
C:\Users\test\AppData\Local\Temp\ccx0JFmY.s:2318   .text.timer_channel_complementary_output_state_config:000000000000001e .L0 
C:\Users\test\AppData\Local\Temp\ccx0JFmY.s:2324   .text.timer_channel_complementary_output_state_config:0000000000000022 .L0 
C:\Users\test\AppData\Local\Temp\ccx0JFmY.s:2325   .text.timer_channel_complementary_output_state_config:0000000000000022 .L0 
C:\Users\test\AppData\Local\Temp\ccx0JFmY.s:2327   .text.timer_channel_complementary_output_state_config:0000000000000024 .L0 
C:\Users\test\AppData\Local\Temp\ccx0JFmY.s:2330   .text.timer_channel_complementary_output_state_config:0000000000000026 .L0 
C:\Users\test\AppData\Local\Temp\ccx0JFmY.s:2333   .text.timer_channel_complementary_output_state_config:000000000000002c .L0 
C:\Users\test\AppData\Local\Temp\ccx0JFmY.s:2334   .text.timer_channel_complementary_output_state_config:000000000000002c .L0 
C:\Users\test\AppData\Local\Temp\ccx0JFmY.s:2338   .text.timer_channel_complementary_output_state_config:0000000000000032 .L0 
GAS LISTING C:\Users\test\AppData\Local\Temp\ccx0JFmY.s 			page 136


C:\Users\test\AppData\Local\Temp\ccx0JFmY.s:2342   .text.timer_channel_complementary_output_state_config:0000000000000034 .L0 
C:\Users\test\AppData\Local\Temp\ccx0JFmY.s:2343   .text.timer_channel_complementary_output_state_config:0000000000000034 .L0 
C:\Users\test\AppData\Local\Temp\ccx0JFmY.s:2347   .text.timer_channel_complementary_output_state_config:000000000000003a .L0 
C:\Users\test\AppData\Local\Temp\ccx0JFmY.s:2348   .text.timer_channel_complementary_output_state_config:000000000000003a .L0 
C:\Users\test\AppData\Local\Temp\ccx0JFmY.s:2353   .text.timer_channel_complementary_output_state_config:0000000000000040 .L0 
C:\Users\test\AppData\Local\Temp\ccx0JFmY.s:2354   .text.timer_channel_complementary_output_state_config:0000000000000042 .L0 
C:\Users\test\AppData\Local\Temp\ccx0JFmY.s:2361   .text.timer_channel_input_struct_para_init:0000000000000000 timer_channel_input_struct_para_init
C:\Users\test\AppData\Local\Temp\ccx0JFmY.s:2364   .text.timer_channel_input_struct_para_init:0000000000000000 .L0 
C:\Users\test\AppData\Local\Temp\ccx0JFmY.s:2366   .text.timer_channel_input_struct_para_init:0000000000000000 .L0 
C:\Users\test\AppData\Local\Temp\ccx0JFmY.s:2367   .text.timer_channel_input_struct_para_init:0000000000000000 .L0 
C:\Users\test\AppData\Local\Temp\ccx0JFmY.s:2368   .text.timer_channel_input_struct_para_init:0000000000000000 .L0 
C:\Users\test\AppData\Local\Temp\ccx0JFmY.s:2370   .text.timer_channel_input_struct_para_init:0000000000000002 .L0 
C:\Users\test\AppData\Local\Temp\ccx0JFmY.s:2372   .text.timer_channel_input_struct_para_init:0000000000000006 .L0 
C:\Users\test\AppData\Local\Temp\ccx0JFmY.s:2373   .text.timer_channel_input_struct_para_init:0000000000000006 .L0 
C:\Users\test\AppData\Local\Temp\ccx0JFmY.s:2375   .text.timer_channel_input_struct_para_init:000000000000000a .L0 
C:\Users\test\AppData\Local\Temp\ccx0JFmY.s:2376   .text.timer_channel_input_struct_para_init:000000000000000a .L0 
C:\Users\test\AppData\Local\Temp\ccx0JFmY.s:2378   .text.timer_channel_input_struct_para_init:000000000000000e .L0 
C:\Users\test\AppData\Local\Temp\ccx0JFmY.s:2379   .text.timer_channel_input_struct_para_init:000000000000000e .L0 
C:\Users\test\AppData\Local\Temp\ccx0JFmY.s:2381   .text.timer_channel_input_struct_para_init:0000000000000012 .L0 
C:\Users\test\AppData\Local\Temp\ccx0JFmY.s:2382   .text.timer_channel_input_struct_para_init:0000000000000014 .L0 
C:\Users\test\AppData\Local\Temp\ccx0JFmY.s:2389   .text.timer_channel_input_capture_prescaler_config:0000000000000000 timer_channel_input_capture_prescaler_config
C:\Users\test\AppData\Local\Temp\ccx0JFmY.s:2392   .text.timer_channel_input_capture_prescaler_config:0000000000000000 .L0 
C:\Users\test\AppData\Local\Temp\ccx0JFmY.s:2394   .text.timer_channel_input_capture_prescaler_config:0000000000000000 .L0 
C:\Users\test\AppData\Local\Temp\ccx0JFmY.s:2395   .text.timer_channel_input_capture_prescaler_config:0000000000000000 .L0 
C:\Users\test\AppData\Local\Temp\ccx0JFmY.s:2403   .text.timer_channel_input_capture_prescaler_config:0000000000000014 .L0 
C:\Users\test\AppData\Local\Temp\ccx0JFmY.s:2404   .text.timer_channel_input_capture_prescaler_config:0000000000000014 .L0 
C:\Users\test\AppData\Local\Temp\ccx0JFmY.s:2410   .text.timer_channel_input_capture_prescaler_config:0000000000000020 .L0 
C:\Users\test\AppData\Local\Temp\ccx0JFmY.s:2411   .text.timer_channel_input_capture_prescaler_config:0000000000000020 .L0 
C:\Users\test\AppData\Local\Temp\ccx0JFmY.s:2413   .text.timer_channel_input_capture_prescaler_config:0000000000000022 .L0 
C:\Users\test\AppData\Local\Temp\ccx0JFmY.s:2416   .text.timer_channel_input_capture_prescaler_config:0000000000000024 .L0 
C:\Users\test\AppData\Local\Temp\ccx0JFmY.s:2419   .text.timer_channel_input_capture_prescaler_config:0000000000000028 .L0 
C:\Users\test\AppData\Local\Temp\ccx0JFmY.s:2420   .text.timer_channel_input_capture_prescaler_config:0000000000000028 .L0 
C:\Users\test\AppData\Local\Temp\ccx0JFmY.s:2431   .text.timer_channel_input_capture_prescaler_config:0000000000000036 .L0 
C:\Users\test\AppData\Local\Temp\ccx0JFmY.s:2432   .text.timer_channel_input_capture_prescaler_config:0000000000000036 .L0 
C:\Users\test\AppData\Local\Temp\ccx0JFmY.s:2436   .text.timer_channel_input_capture_prescaler_config:000000000000003c .L0 
C:\Users\test\AppData\Local\Temp\ccx0JFmY.s:2437   .text.timer_channel_input_capture_prescaler_config:000000000000003c .L0 
C:\Users\test\AppData\Local\Temp\ccx0JFmY.s:2443   .text.timer_channel_input_capture_prescaler_config:0000000000000042 .L0 
C:\Users\test\AppData\Local\Temp\ccx0JFmY.s:2447   .text.timer_channel_input_capture_prescaler_config:0000000000000044 .L0 
C:\Users\test\AppData\Local\Temp\ccx0JFmY.s:2448   .text.timer_channel_input_capture_prescaler_config:0000000000000044 .L0 
C:\Users\test\AppData\Local\Temp\ccx0JFmY.s:2452   .text.timer_channel_input_capture_prescaler_config:000000000000004a .L0 
C:\Users\test\AppData\Local\Temp\ccx0JFmY.s:2453   .text.timer_channel_input_capture_prescaler_config:000000000000004a .L0 
C:\Users\test\AppData\Local\Temp\ccx0JFmY.s:2459   .text.timer_channel_input_capture_prescaler_config:0000000000000050 .L0 
C:\Users\test\AppData\Local\Temp\ccx0JFmY.s:2460   .text.timer_channel_input_capture_prescaler_config:0000000000000052 .L0 
C:\Users\test\AppData\Local\Temp\ccx0JFmY.s:2467   .text.timer_input_capture_config:0000000000000000 timer_input_capture_config
C:\Users\test\AppData\Local\Temp\ccx0JFmY.s:2470   .text.timer_input_capture_config:0000000000000000 .L0 
C:\Users\test\AppData\Local\Temp\ccx0JFmY.s:2472   .text.timer_input_capture_config:0000000000000000 .L0 
C:\Users\test\AppData\Local\Temp\ccx0JFmY.s:2473   .text.timer_input_capture_config:0000000000000000 .L0 
C:\Users\test\AppData\Local\Temp\ccx0JFmY.s:2481   .text.timer_input_capture_config:0000000000000016 .L0 
C:\Users\test\AppData\Local\Temp\ccx0JFmY.s:2482   .text.timer_input_capture_config:0000000000000016 .L0 
C:\Users\test\AppData\Local\Temp\ccx0JFmY.s:2488   .text.timer_input_capture_config:0000000000000020 .L0 
C:\Users\test\AppData\Local\Temp\ccx0JFmY.s:2489   .text.timer_input_capture_config:0000000000000020 .L0 
C:\Users\test\AppData\Local\Temp\ccx0JFmY.s:2495   .text.timer_input_capture_config:000000000000002a .L0 
C:\Users\test\AppData\Local\Temp\ccx0JFmY.s:2496   .text.timer_input_capture_config:000000000000002a .L0 
C:\Users\test\AppData\Local\Temp\ccx0JFmY.s:2498   .text.timer_input_capture_config:000000000000002e .L0 
C:\Users\test\AppData\Local\Temp\ccx0JFmY.s:2500   .text.timer_input_capture_config:0000000000000030 .L0 
C:\Users\test\AppData\Local\Temp\ccx0JFmY.s:2502   .text.timer_input_capture_config:0000000000000034 .L0 
C:\Users\test\AppData\Local\Temp\ccx0JFmY.s:2504   .text.timer_input_capture_config:0000000000000036 .L0 
GAS LISTING C:\Users\test\AppData\Local\Temp\ccx0JFmY.s 			page 137


C:\Users\test\AppData\Local\Temp\ccx0JFmY.s:2507   .text.timer_input_capture_config:000000000000003a .L0 
C:\Users\test\AppData\Local\Temp\ccx0JFmY.s:2508   .text.timer_input_capture_config:000000000000003a .L0 
C:\Users\test\AppData\Local\Temp\ccx0JFmY.s:2510   .text.timer_input_capture_config:000000000000003c .L0 
C:\Users\test\AppData\Local\Temp\ccx0JFmY.s:2512   .text.timer_input_capture_config:000000000000003e .L0 
C:\Users\test\AppData\Local\Temp\ccx0JFmY.s:2515   .text.timer_input_capture_config:0000000000000044 .L0 
C:\Users\test\AppData\Local\Temp\ccx0JFmY.s:2516   .text.timer_input_capture_config:0000000000000044 .L0 
C:\Users\test\AppData\Local\Temp\ccx0JFmY.s:2518   .text.timer_input_capture_config:0000000000000046 .L0 
C:\Users\test\AppData\Local\Temp\ccx0JFmY.s:2520   .text.timer_input_capture_config:000000000000004a .L0 
C:\Users\test\AppData\Local\Temp\ccx0JFmY.s:2523   .text.timer_input_capture_config:000000000000004e .L0 
C:\Users\test\AppData\Local\Temp\ccx0JFmY.s:2524   .text.timer_input_capture_config:000000000000004e .L0 
C:\Users\test\AppData\Local\Temp\ccx0JFmY.s:2530   .text.timer_input_capture_config:0000000000000058 .L0 
C:\Users\test\AppData\Local\Temp\ccx0JFmY.s:2531   .text.timer_input_capture_config:0000000000000058 .L0 
C:\Users\test\AppData\Local\Temp\ccx0JFmY.s:2533   .text.timer_input_capture_config:000000000000005a .L0 
C:\Users\test\AppData\Local\Temp\ccx0JFmY.s:2535   .text.timer_input_capture_config:000000000000005c .L0 
C:\Users\test\AppData\Local\Temp\ccx0JFmY.s:2538   .text.timer_input_capture_config:0000000000000060 .L0 
C:\Users\test\AppData\Local\Temp\ccx0JFmY.s:2539   .text.timer_input_capture_config:0000000000000060 .L0 
C:\Users\test\AppData\Local\Temp\ccx0JFmY.s:2545   .text.timer_input_capture_config:0000000000000068 .L0 
C:\Users\test\AppData\Local\Temp\ccx0JFmY.s:2546   .text.timer_input_capture_config:0000000000000068 .L0 
C:\Users\test\AppData\Local\Temp\ccx0JFmY.s:2552   .text.timer_input_capture_config:0000000000000074 .L0 
C:\Users\test\AppData\Local\Temp\ccx0JFmY.s:2553   .text.timer_input_capture_config:0000000000000074 .L0 
C:\Users\test\AppData\Local\Temp\ccx0JFmY.s:2555   .text.timer_input_capture_config:0000000000000076 .L0 
C:\Users\test\AppData\Local\Temp\ccx0JFmY.s:2557   .text.timer_input_capture_config:000000000000007a .L0 
C:\Users\test\AppData\Local\Temp\ccx0JFmY.s:2559   .text.timer_input_capture_config:000000000000007e .L0 
C:\Users\test\AppData\Local\Temp\ccx0JFmY.s:2562   .text.timer_input_capture_config:0000000000000082 .L0 
C:\Users\test\AppData\Local\Temp\ccx0JFmY.s:2563   .text.timer_input_capture_config:0000000000000082 .L0 
C:\Users\test\AppData\Local\Temp\ccx0JFmY.s:2565   .text.timer_input_capture_config:0000000000000084 .L0 
C:\Users\test\AppData\Local\Temp\ccx0JFmY.s:2567   .text.timer_input_capture_config:0000000000000086 .L0 
C:\Users\test\AppData\Local\Temp\ccx0JFmY.s:2569   .text.timer_input_capture_config:0000000000000088 .L0 
C:\Users\test\AppData\Local\Temp\ccx0JFmY.s:2572   .text.timer_input_capture_config:000000000000008e .L0 
C:\Users\test\AppData\Local\Temp\ccx0JFmY.s:2573   .text.timer_input_capture_config:000000000000008e .L0 
C:\Users\test\AppData\Local\Temp\ccx0JFmY.s:2577   .text.timer_input_capture_config:0000000000000094 .L0 
C:\Users\test\AppData\Local\Temp\ccx0JFmY.s:2578   .text.timer_input_capture_config:0000000000000094 .L0 
C:\Users\test\AppData\Local\Temp\ccx0JFmY.s:2580   .text.timer_input_capture_config:0000000000000096 .L0 
C:\Users\test\AppData\Local\Temp\ccx0JFmY.s:2582   .text.timer_input_capture_config:000000000000009a .L0 
C:\Users\test\AppData\Local\Temp\ccx0JFmY.s:2585   .text.timer_input_capture_config:000000000000009e .L0 
C:\Users\test\AppData\Local\Temp\ccx0JFmY.s:2588   .text.timer_input_capture_config:00000000000000a4 .L0 
C:\Users\test\AppData\Local\Temp\ccx0JFmY.s:2589   .text.timer_input_capture_config:00000000000000a4 .L0 
C:\Users\test\AppData\Local\Temp\ccx0JFmY.s:2591   .text.timer_input_capture_config:00000000000000a6 .L0 
C:\Users\test\AppData\Local\Temp\ccx0JFmY.s:2593   .text.timer_input_capture_config:00000000000000a8 .L0 
C:\Users\test\AppData\Local\Temp\ccx0JFmY.s:2596   .text.timer_input_capture_config:00000000000000ac .L0 
C:\Users\test\AppData\Local\Temp\ccx0JFmY.s:2597   .text.timer_input_capture_config:00000000000000ac .L0 
C:\Users\test\AppData\Local\Temp\ccx0JFmY.s:2603   .text.timer_input_capture_config:00000000000000b6 .L0 
C:\Users\test\AppData\Local\Temp\ccx0JFmY.s:2604   .text.timer_input_capture_config:00000000000000b6 .L0 
C:\Users\test\AppData\Local\Temp\ccx0JFmY.s:2608   .text.timer_input_capture_config:00000000000000bc .L0 
C:\Users\test\AppData\Local\Temp\ccx0JFmY.s:2609   .text.timer_input_capture_config:00000000000000bc .L0 
C:\Users\test\AppData\Local\Temp\ccx0JFmY.s:2613   .text.timer_input_capture_config:00000000000000c4 .L0 
C:\Users\test\AppData\Local\Temp\ccx0JFmY.s:2614   .text.timer_input_capture_config:00000000000000c4 .L0 
C:\Users\test\AppData\Local\Temp\ccx0JFmY.s:2618   .text.timer_input_capture_config:00000000000000cc .L0 
C:\Users\test\AppData\Local\Temp\ccx0JFmY.s:2619   .text.timer_input_capture_config:00000000000000cc .L0 
C:\Users\test\AppData\Local\Temp\ccx0JFmY.s:2621   .text.timer_input_capture_config:00000000000000ce .L0 
C:\Users\test\AppData\Local\Temp\ccx0JFmY.s:2624   .text.timer_input_capture_config:00000000000000d4 .L0 
C:\Users\test\AppData\Local\Temp\ccx0JFmY.s:2627   .text.timer_input_capture_config:00000000000000da .L0 
C:\Users\test\AppData\Local\Temp\ccx0JFmY.s:2628   .text.timer_input_capture_config:00000000000000da .L0 
C:\Users\test\AppData\Local\Temp\ccx0JFmY.s:2630   .text.timer_input_capture_config:00000000000000dc .L0 
C:\Users\test\AppData\Local\Temp\ccx0JFmY.s:2632   .text.timer_input_capture_config:00000000000000e0 .L0 
C:\Users\test\AppData\Local\Temp\ccx0JFmY.s:2634   .text.timer_input_capture_config:00000000000000e4 .L0 
C:\Users\test\AppData\Local\Temp\ccx0JFmY.s:2637   .text.timer_input_capture_config:00000000000000ea .L0 
GAS LISTING C:\Users\test\AppData\Local\Temp\ccx0JFmY.s 			page 138


C:\Users\test\AppData\Local\Temp\ccx0JFmY.s:2638   .text.timer_input_capture_config:00000000000000ea .L0 
C:\Users\test\AppData\Local\Temp\ccx0JFmY.s:2640   .text.timer_input_capture_config:00000000000000ee .L0 
C:\Users\test\AppData\Local\Temp\ccx0JFmY.s:2642   .text.timer_input_capture_config:00000000000000f0 .L0 
C:\Users\test\AppData\Local\Temp\ccx0JFmY.s:2644   .text.timer_input_capture_config:00000000000000f4 .L0 
C:\Users\test\AppData\Local\Temp\ccx0JFmY.s:2647   .text.timer_input_capture_config:00000000000000fa .L0 
C:\Users\test\AppData\Local\Temp\ccx0JFmY.s:2648   .text.timer_input_capture_config:00000000000000fa .L0 
C:\Users\test\AppData\Local\Temp\ccx0JFmY.s:2650   .text.timer_input_capture_config:00000000000000fc .L0 
C:\Users\test\AppData\Local\Temp\ccx0JFmY.s:2652   .text.timer_input_capture_config:00000000000000fe .L0 
C:\Users\test\AppData\Local\Temp\ccx0JFmY.s:2655   .text.timer_input_capture_config:0000000000000102 .L0 
C:\Users\test\AppData\Local\Temp\ccx0JFmY.s:2658   .text.timer_input_capture_config:0000000000000106 .L0 
C:\Users\test\AppData\Local\Temp\ccx0JFmY.s:2659   .text.timer_input_capture_config:0000000000000106 .L0 
C:\Users\test\AppData\Local\Temp\ccx0JFmY.s:2663   .text.timer_input_capture_config:000000000000010c .L0 
C:\Users\test\AppData\Local\Temp\ccx0JFmY.s:2664   .text.timer_input_capture_config:000000000000010c .L0 
C:\Users\test\AppData\Local\Temp\ccx0JFmY.s:2668   .text.timer_input_capture_config:0000000000000114 .L0 
C:\Users\test\AppData\Local\Temp\ccx0JFmY.s:2669   .text.timer_input_capture_config:0000000000000114 .L0 
C:\Users\test\AppData\Local\Temp\ccx0JFmY.s:2673   .text.timer_input_capture_config:000000000000011a .L0 
C:\Users\test\AppData\Local\Temp\ccx0JFmY.s:2674   .text.timer_input_capture_config:000000000000011a .L0 
C:\Users\test\AppData\Local\Temp\ccx0JFmY.s:2678   .text.timer_input_capture_config:0000000000000122 .L0 
C:\Users\test\AppData\Local\Temp\ccx0JFmY.s:2679   .text.timer_input_capture_config:0000000000000122 .L0 
C:\Users\test\AppData\Local\Temp\ccx0JFmY.s:2683   .text.timer_input_capture_config:000000000000012a .L0 
C:\Users\test\AppData\Local\Temp\ccx0JFmY.s:2684   .text.timer_input_capture_config:000000000000012a .L0 
C:\Users\test\AppData\Local\Temp\ccx0JFmY.s:2686   .text.timer_input_capture_config:000000000000012c .L0 
C:\Users\test\AppData\Local\Temp\ccx0JFmY.s:2688   .text.timer_input_capture_config:0000000000000130 .L0 
C:\Users\test\AppData\Local\Temp\ccx0JFmY.s:2690   .text.timer_input_capture_config:0000000000000134 .L0 
C:\Users\test\AppData\Local\Temp\ccx0JFmY.s:2693   .text.timer_input_capture_config:0000000000000138 .L0 
C:\Users\test\AppData\Local\Temp\ccx0JFmY.s:2694   .text.timer_input_capture_config:0000000000000138 .L0 
C:\Users\test\AppData\Local\Temp\ccx0JFmY.s:2696   .text.timer_input_capture_config:000000000000013c .L0 
C:\Users\test\AppData\Local\Temp\ccx0JFmY.s:2698   .text.timer_input_capture_config:0000000000000140 .L0 
C:\Users\test\AppData\Local\Temp\ccx0JFmY.s:2701   .text.timer_input_capture_config:0000000000000144 .L0 
C:\Users\test\AppData\Local\Temp\ccx0JFmY.s:2704   .text.timer_input_capture_config:000000000000014c .L0 
C:\Users\test\AppData\Local\Temp\ccx0JFmY.s:2705   .text.timer_input_capture_config:000000000000014c .L0 
C:\Users\test\AppData\Local\Temp\ccx0JFmY.s:2707   .text.timer_input_capture_config:0000000000000150 .L0 
C:\Users\test\AppData\Local\Temp\ccx0JFmY.s:2709   .text.timer_input_capture_config:0000000000000152 .L0 
C:\Users\test\AppData\Local\Temp\ccx0JFmY.s:2712   .text.timer_input_capture_config:0000000000000158 .L0 
C:\Users\test\AppData\Local\Temp\ccx0JFmY.s:2713   .text.timer_input_capture_config:0000000000000158 .L0 
C:\Users\test\AppData\Local\Temp\ccx0JFmY.s:2717   .text.timer_input_capture_config:000000000000015e .L0 
C:\Users\test\AppData\Local\Temp\ccx0JFmY.s:2718   .text.timer_input_capture_config:000000000000015e .L0 
C:\Users\test\AppData\Local\Temp\ccx0JFmY.s:2722   .text.timer_input_capture_config:0000000000000164 .L0 
C:\Users\test\AppData\Local\Temp\ccx0JFmY.s:2723   .text.timer_input_capture_config:0000000000000164 .L0 
C:\Users\test\AppData\Local\Temp\ccx0JFmY.s:2727   .text.timer_input_capture_config:000000000000016c .L0 
C:\Users\test\AppData\Local\Temp\ccx0JFmY.s:2728   .text.timer_input_capture_config:000000000000016c .L0 
C:\Users\test\AppData\Local\Temp\ccx0JFmY.s:2732   .text.timer_input_capture_config:0000000000000172 .L0 
C:\Users\test\AppData\Local\Temp\ccx0JFmY.s:2733   .text.timer_input_capture_config:0000000000000172 .L0 
C:\Users\test\AppData\Local\Temp\ccx0JFmY.s:2737   .text.timer_input_capture_config:000000000000017a .L0 
C:\Users\test\AppData\Local\Temp\ccx0JFmY.s:2738   .text.timer_input_capture_config:000000000000017a .L0 
C:\Users\test\AppData\Local\Temp\ccx0JFmY.s:2740   .text.timer_input_capture_config:0000000000000182 .L0 
C:\Users\test\AppData\Local\Temp\ccx0JFmY.s:2747   .text.timer_channel_capture_value_register_read:0000000000000000 timer_channel_capture_value_register_read
C:\Users\test\AppData\Local\Temp\ccx0JFmY.s:2750   .text.timer_channel_capture_value_register_read:0000000000000000 .L0 
C:\Users\test\AppData\Local\Temp\ccx0JFmY.s:2752   .text.timer_channel_capture_value_register_read:0000000000000000 .L0 
C:\Users\test\AppData\Local\Temp\ccx0JFmY.s:2753   .text.timer_channel_capture_value_register_read:0000000000000000 .L0 
C:\Users\test\AppData\Local\Temp\ccx0JFmY.s:2754   .text.timer_channel_capture_value_register_read:0000000000000000 .L0 
C:\Users\test\AppData\Local\Temp\ccx0JFmY.s:2762   .text.timer_channel_capture_value_register_read:0000000000000014 .L0 
C:\Users\test\AppData\Local\Temp\ccx0JFmY.s:2763   .text.timer_channel_capture_value_register_read:0000000000000014 .L0 
C:\Users\test\AppData\Local\Temp\ccx0JFmY.s:2766   .text.timer_channel_capture_value_register_read:0000000000000016 .L0 
C:\Users\test\AppData\Local\Temp\ccx0JFmY.s:2767   .text.timer_channel_capture_value_register_read:0000000000000016 .L0 
C:\Users\test\AppData\Local\Temp\ccx0JFmY.s:2768   .text.timer_channel_capture_value_register_read:0000000000000016 .L0 
C:\Users\test\AppData\Local\Temp\ccx0JFmY.s:2772   .text.timer_channel_capture_value_register_read:0000000000000018 .L0 
GAS LISTING C:\Users\test\AppData\Local\Temp\ccx0JFmY.s 			page 139


C:\Users\test\AppData\Local\Temp\ccx0JFmY.s:2778   .text.timer_channel_capture_value_register_read:000000000000001c .L0 
C:\Users\test\AppData\Local\Temp\ccx0JFmY.s:2779   .text.timer_channel_capture_value_register_read:000000000000001c .L0 
C:\Users\test\AppData\Local\Temp\ccx0JFmY.s:2782   .text.timer_channel_capture_value_register_read:000000000000001e .L0 
C:\Users\test\AppData\Local\Temp\ccx0JFmY.s:2786   .text.timer_channel_capture_value_register_read:0000000000000020 .L0 
C:\Users\test\AppData\Local\Temp\ccx0JFmY.s:2787   .text.timer_channel_capture_value_register_read:0000000000000020 .L0 
C:\Users\test\AppData\Local\Temp\ccx0JFmY.s:2790   .text.timer_channel_capture_value_register_read:0000000000000022 .L0 
C:\Users\test\AppData\Local\Temp\ccx0JFmY.s:2794   .text.timer_channel_capture_value_register_read:0000000000000024 .L0 
C:\Users\test\AppData\Local\Temp\ccx0JFmY.s:2795   .text.timer_channel_capture_value_register_read:0000000000000024 .L0 
C:\Users\test\AppData\Local\Temp\ccx0JFmY.s:2798   .text.timer_channel_capture_value_register_read:0000000000000026 .L0 
C:\Users\test\AppData\Local\Temp\ccx0JFmY.s:2799   .text.timer_channel_capture_value_register_read:0000000000000028 .L0 
C:\Users\test\AppData\Local\Temp\ccx0JFmY.s:2806   .text.timer_input_pwm_capture_config:0000000000000000 timer_input_pwm_capture_config
C:\Users\test\AppData\Local\Temp\ccx0JFmY.s:2809   .text.timer_input_pwm_capture_config:0000000000000000 .L0 
C:\Users\test\AppData\Local\Temp\ccx0JFmY.s:2811   .text.timer_input_pwm_capture_config:0000000000000000 .L0 
C:\Users\test\AppData\Local\Temp\ccx0JFmY.s:2812   .text.timer_input_pwm_capture_config:0000000000000000 .L0 
C:\Users\test\AppData\Local\Temp\ccx0JFmY.s:2813   .text.timer_input_pwm_capture_config:0000000000000000 .L0 
C:\Users\test\AppData\Local\Temp\ccx0JFmY.s:2814   .text.timer_input_pwm_capture_config:0000000000000000 .L0 
C:\Users\test\AppData\Local\Temp\ccx0JFmY.s:2815   .text.timer_input_pwm_capture_config:0000000000000000 .L0 
C:\Users\test\AppData\Local\Temp\ccx0JFmY.s:2817   .text.timer_input_pwm_capture_config:0000000000000004 .L0 
C:\Users\test\AppData\Local\Temp\ccx0JFmY.s:2819   .text.timer_input_pwm_capture_config:0000000000000008 .L0 
C:\Users\test\AppData\Local\Temp\ccx0JFmY.s:2821   .text.timer_input_pwm_capture_config:000000000000000a .L0 
C:\Users\test\AppData\Local\Temp\ccx0JFmY.s:2824   .text.timer_input_pwm_capture_config:0000000000000010 .L0 
C:\Users\test\AppData\Local\Temp\ccx0JFmY.s:2826   .text.timer_input_pwm_capture_config:0000000000000010 .L0 
C:\Users\test\AppData\Local\Temp\ccx0JFmY.s:2828   .text.timer_input_pwm_capture_config:0000000000000014 .L0 
C:\Users\test\AppData\Local\Temp\ccx0JFmY.s:2831   .text.timer_input_pwm_capture_config:0000000000000018 .L0 
C:\Users\test\AppData\Local\Temp\ccx0JFmY.s:2832   .text.timer_input_pwm_capture_config:000000000000001c .L0 
C:\Users\test\AppData\Local\Temp\ccx0JFmY.s:2833   .text.timer_input_pwm_capture_config:000000000000001c .L0 
C:\Users\test\AppData\Local\Temp\ccx0JFmY.s:2835   .text.timer_input_pwm_capture_config:000000000000001c .L0 
C:\Users\test\AppData\Local\Temp\ccx0JFmY.s:2837   .text.timer_input_pwm_capture_config:0000000000000020 .L0 
C:\Users\test\AppData\Local\Temp\ccx0JFmY.s:2839   .text.timer_input_pwm_capture_config:0000000000000024 .L0 
C:\Users\test\AppData\Local\Temp\ccx0JFmY.s:2840   .text.timer_input_pwm_capture_config:0000000000000024 .L0 
C:\Users\test\AppData\Local\Temp\ccx0JFmY.s:2842   .text.timer_input_pwm_capture_config:0000000000000024 .L0 
C:\Users\test\AppData\Local\Temp\ccx0JFmY.s:2844   .text.timer_input_pwm_capture_config:0000000000000026 .L0 
C:\Users\test\AppData\Local\Temp\ccx0JFmY.s:2847   .text.timer_input_pwm_capture_config:0000000000000028 .L0 
C:\Users\test\AppData\Local\Temp\ccx0JFmY.s:2848   .text.timer_input_pwm_capture_config:0000000000000028 .L0 
C:\Users\test\AppData\Local\Temp\ccx0JFmY.s:2851   .text.timer_input_pwm_capture_config:000000000000002a .L0 
C:\Users\test\AppData\Local\Temp\ccx0JFmY.s:2854   .text.timer_input_pwm_capture_config:0000000000000032 .L0 
C:\Users\test\AppData\Local\Temp\ccx0JFmY.s:2856   .text.timer_input_pwm_capture_config:0000000000000034 .L0 
C:\Users\test\AppData\Local\Temp\ccx0JFmY.s:2857   .text.timer_input_pwm_capture_config:0000000000000034 .L0 
C:\Users\test\AppData\Local\Temp\ccx0JFmY.s:2860   .text.timer_input_pwm_capture_config:0000000000000036 .L0 
C:\Users\test\AppData\Local\Temp\ccx0JFmY.s:2868   .text.timer_input_pwm_capture_config:000000000000003a .L0 
C:\Users\test\AppData\Local\Temp\ccx0JFmY.s:2871   .text.timer_input_pwm_capture_config:000000000000003e .L0 
C:\Users\test\AppData\Local\Temp\ccx0JFmY.s:2872   .text.timer_input_pwm_capture_config:000000000000003e .L0 
C:\Users\test\AppData\Local\Temp\ccx0JFmY.s:2874   .text.timer_input_pwm_capture_config:0000000000000040 .L0 
C:\Users\test\AppData\Local\Temp\ccx0JFmY.s:2876   .text.timer_input_pwm_capture_config:0000000000000042 .L0 
C:\Users\test\AppData\Local\Temp\ccx0JFmY.s:2878   .text.timer_input_pwm_capture_config:0000000000000044 .L0 
C:\Users\test\AppData\Local\Temp\ccx0JFmY.s:2881   .text.timer_input_pwm_capture_config:0000000000000048 .L0 
C:\Users\test\AppData\Local\Temp\ccx0JFmY.s:2882   .text.timer_input_pwm_capture_config:0000000000000048 .L0 
C:\Users\test\AppData\Local\Temp\ccx0JFmY.s:2886   .text.timer_input_pwm_capture_config:000000000000004e .L0 
C:\Users\test\AppData\Local\Temp\ccx0JFmY.s:2887   .text.timer_input_pwm_capture_config:000000000000004e .L0 
C:\Users\test\AppData\Local\Temp\ccx0JFmY.s:2891   .text.timer_input_pwm_capture_config:0000000000000054 .L0 
C:\Users\test\AppData\Local\Temp\ccx0JFmY.s:2892   .text.timer_input_pwm_capture_config:0000000000000054 .L0 
C:\Users\test\AppData\Local\Temp\ccx0JFmY.s:2896   .text.timer_input_pwm_capture_config:000000000000005a .L0 
C:\Users\test\AppData\Local\Temp\ccx0JFmY.s:2897   .text.timer_input_pwm_capture_config:000000000000005a .L0 
C:\Users\test\AppData\Local\Temp\ccx0JFmY.s:2899   .text.timer_input_pwm_capture_config:000000000000005c .L0 
C:\Users\test\AppData\Local\Temp\ccx0JFmY.s:2902   .text.timer_input_pwm_capture_config:0000000000000060 .L0 
C:\Users\test\AppData\Local\Temp\ccx0JFmY.s:2905   .text.timer_input_pwm_capture_config:0000000000000066 .L0 
C:\Users\test\AppData\Local\Temp\ccx0JFmY.s:2906   .text.timer_input_pwm_capture_config:0000000000000066 .L0 
GAS LISTING C:\Users\test\AppData\Local\Temp\ccx0JFmY.s 			page 140


C:\Users\test\AppData\Local\Temp\ccx0JFmY.s:2910   .text.timer_input_pwm_capture_config:0000000000000070 .L0 
C:\Users\test\AppData\Local\Temp\ccx0JFmY.s:2911   .text.timer_input_pwm_capture_config:0000000000000070 .L0 
C:\Users\test\AppData\Local\Temp\ccx0JFmY.s:2918   .text.timer_input_pwm_capture_config:0000000000000078 .L0 
C:\Users\test\AppData\Local\Temp\ccx0JFmY.s:2919   .text.timer_input_pwm_capture_config:0000000000000078 .L0 
C:\Users\test\AppData\Local\Temp\ccx0JFmY.s:2920   .text.timer_input_pwm_capture_config:0000000000000078 .L0 
C:\Users\test\AppData\Local\Temp\ccx0JFmY.s:2921   .text.timer_input_pwm_capture_config:0000000000000078 .L0 
C:\Users\test\AppData\Local\Temp\ccx0JFmY.s:2925   .text.timer_input_pwm_capture_config:000000000000007e .L0 
C:\Users\test\AppData\Local\Temp\ccx0JFmY.s:2926   .text.timer_input_pwm_capture_config:000000000000007e .L0 
C:\Users\test\AppData\Local\Temp\ccx0JFmY.s:2933   .text.timer_input_pwm_capture_config:0000000000000088 .L0 
C:\Users\test\AppData\Local\Temp\ccx0JFmY.s:2934   .text.timer_input_pwm_capture_config:0000000000000088 .L0 
C:\Users\test\AppData\Local\Temp\ccx0JFmY.s:2935   .text.timer_input_pwm_capture_config:0000000000000088 .L0 
C:\Users\test\AppData\Local\Temp\ccx0JFmY.s:2939   .text.timer_input_pwm_capture_config:000000000000008e .L0 
C:\Users\test\AppData\Local\Temp\ccx0JFmY.s:2940   .text.timer_input_pwm_capture_config:000000000000008e .L0 
C:\Users\test\AppData\Local\Temp\ccx0JFmY.s:2944   .text.timer_input_pwm_capture_config:0000000000000096 .L0 
C:\Users\test\AppData\Local\Temp\ccx0JFmY.s:2945   .text.timer_input_pwm_capture_config:0000000000000096 .L0 
C:\Users\test\AppData\Local\Temp\ccx0JFmY.s:2949   .text.timer_input_pwm_capture_config:00000000000000a0 .L0 
C:\Users\test\AppData\Local\Temp\ccx0JFmY.s:2950   .text.timer_input_pwm_capture_config:00000000000000a0 .L0 
C:\Users\test\AppData\Local\Temp\ccx0JFmY.s:2954   .text.timer_input_pwm_capture_config:00000000000000a8 .L0 
C:\Users\test\AppData\Local\Temp\ccx0JFmY.s:2955   .text.timer_input_pwm_capture_config:00000000000000a8 .L0 
C:\Users\test\AppData\Local\Temp\ccx0JFmY.s:2959   .text.timer_input_pwm_capture_config:00000000000000ae .L0 
C:\Users\test\AppData\Local\Temp\ccx0JFmY.s:2960   .text.timer_input_pwm_capture_config:00000000000000ae .L0 
C:\Users\test\AppData\Local\Temp\ccx0JFmY.s:2964   .text.timer_input_pwm_capture_config:00000000000000b4 .L0 
C:\Users\test\AppData\Local\Temp\ccx0JFmY.s:2965   .text.timer_input_pwm_capture_config:00000000000000b4 .L0 
C:\Users\test\AppData\Local\Temp\ccx0JFmY.s:2967   .text.timer_input_pwm_capture_config:00000000000000b6 .L0 
C:\Users\test\AppData\Local\Temp\ccx0JFmY.s:2968   .text.timer_input_pwm_capture_config:00000000000000b8 .L0 
C:\Users\test\AppData\Local\Temp\ccx0JFmY.s:2969   .text.timer_input_pwm_capture_config:00000000000000b8 .L0 
C:\Users\test\AppData\Local\Temp\ccx0JFmY.s:2971   .text.timer_input_pwm_capture_config:00000000000000ba .L0 
C:\Users\test\AppData\Local\Temp\ccx0JFmY.s:2973   .text.timer_input_pwm_capture_config:00000000000000ba .L0 
C:\Users\test\AppData\Local\Temp\ccx0JFmY.s:2976   .text.timer_input_pwm_capture_config:00000000000000c2 .L0 
C:\Users\test\AppData\Local\Temp\ccx0JFmY.s:2977   .text.timer_input_pwm_capture_config:00000000000000c2 .L0 
C:\Users\test\AppData\Local\Temp\ccx0JFmY.s:2979   .text.timer_input_pwm_capture_config:00000000000000c4 .L0 
C:\Users\test\AppData\Local\Temp\ccx0JFmY.s:2980   .text.timer_input_pwm_capture_config:00000000000000c6 .L0 
C:\Users\test\AppData\Local\Temp\ccx0JFmY.s:2982   .text.timer_input_pwm_capture_config:00000000000000c8 .L0 
C:\Users\test\AppData\Local\Temp\ccx0JFmY.s:2984   .text.timer_input_pwm_capture_config:00000000000000ca .L0 
C:\Users\test\AppData\Local\Temp\ccx0JFmY.s:2986   .text.timer_input_pwm_capture_config:00000000000000ca .L0 
C:\Users\test\AppData\Local\Temp\ccx0JFmY.s:2992   .text.timer_input_pwm_capture_config:00000000000000d0 .L0 
C:\Users\test\AppData\Local\Temp\ccx0JFmY.s:2995   .text.timer_input_pwm_capture_config:00000000000000d0 .L0 
C:\Users\test\AppData\Local\Temp\ccx0JFmY.s:2996   .text.timer_input_pwm_capture_config:00000000000000d0 .L0 
C:\Users\test\AppData\Local\Temp\ccx0JFmY.s:2998   .text.timer_input_pwm_capture_config:00000000000000d2 .L0 
C:\Users\test\AppData\Local\Temp\ccx0JFmY.s:3005   .text.timer_input_pwm_capture_config:00000000000000da .L0 
C:\Users\test\AppData\Local\Temp\ccx0JFmY.s:3009   .text.timer_input_pwm_capture_config:00000000000000da .L0 
C:\Users\test\AppData\Local\Temp\ccx0JFmY.s:3011   .text.timer_input_pwm_capture_config:00000000000000dc .L0 
C:\Users\test\AppData\Local\Temp\ccx0JFmY.s:3013   .text.timer_input_pwm_capture_config:00000000000000de .L0 
C:\Users\test\AppData\Local\Temp\ccx0JFmY.s:3015   .text.timer_input_pwm_capture_config:00000000000000e0 .L0 
C:\Users\test\AppData\Local\Temp\ccx0JFmY.s:3018   .text.timer_input_pwm_capture_config:00000000000000e4 .L0 
C:\Users\test\AppData\Local\Temp\ccx0JFmY.s:3027   .text.timer_input_pwm_capture_config:00000000000000ea .L0 
C:\Users\test\AppData\Local\Temp\ccx0JFmY.s:3028   .text.timer_input_pwm_capture_config:00000000000000ea .L0 
C:\Users\test\AppData\Local\Temp\ccx0JFmY.s:3029   .text.timer_input_pwm_capture_config:00000000000000ea .L0 
C:\Users\test\AppData\Local\Temp\ccx0JFmY.s:3032   .text.timer_input_pwm_capture_config:00000000000000f0 .L0 
C:\Users\test\AppData\Local\Temp\ccx0JFmY.s:3033   .text.timer_input_pwm_capture_config:00000000000000f0 .L0 
C:\Users\test\AppData\Local\Temp\ccx0JFmY.s:3037   .text.timer_input_pwm_capture_config:00000000000000f6 .L0 
C:\Users\test\AppData\Local\Temp\ccx0JFmY.s:3038   .text.timer_input_pwm_capture_config:00000000000000f6 .L0 
C:\Users\test\AppData\Local\Temp\ccx0JFmY.s:3042   .text.timer_input_pwm_capture_config:00000000000000fe .L0 
C:\Users\test\AppData\Local\Temp\ccx0JFmY.s:3043   .text.timer_input_pwm_capture_config:00000000000000fe .L0 
C:\Users\test\AppData\Local\Temp\ccx0JFmY.s:3047   .text.timer_input_pwm_capture_config:0000000000000104 .L0 
C:\Users\test\AppData\Local\Temp\ccx0JFmY.s:3048   .text.timer_input_pwm_capture_config:0000000000000104 .L0 
C:\Users\test\AppData\Local\Temp\ccx0JFmY.s:3054   .text.timer_input_pwm_capture_config:000000000000010e .L0 
GAS LISTING C:\Users\test\AppData\Local\Temp\ccx0JFmY.s 			page 141


C:\Users\test\AppData\Local\Temp\ccx0JFmY.s:3055   .text.timer_input_pwm_capture_config:000000000000010e .L0 
C:\Users\test\AppData\Local\Temp\ccx0JFmY.s:3059   .text.timer_input_pwm_capture_config:0000000000000116 .L0 
C:\Users\test\AppData\Local\Temp\ccx0JFmY.s:3060   .text.timer_input_pwm_capture_config:0000000000000116 .L0 
C:\Users\test\AppData\Local\Temp\ccx0JFmY.s:3067   .text.timer_input_pwm_capture_config:000000000000011e .L0 
C:\Users\test\AppData\Local\Temp\ccx0JFmY.s:3068   .text.timer_input_pwm_capture_config:000000000000011e .L0 
C:\Users\test\AppData\Local\Temp\ccx0JFmY.s:3073   .text.timer_input_pwm_capture_config:0000000000000126 .L0 
C:\Users\test\AppData\Local\Temp\ccx0JFmY.s:3074   .text.timer_input_pwm_capture_config:0000000000000126 .L0 
C:\Users\test\AppData\Local\Temp\ccx0JFmY.s:3076   .text.timer_input_pwm_capture_config:0000000000000128 .L0 
C:\Users\test\AppData\Local\Temp\ccx0JFmY.s:3078   .text.timer_input_pwm_capture_config:000000000000012c .L0 
C:\Users\test\AppData\Local\Temp\ccx0JFmY.s:3080   .text.timer_input_pwm_capture_config:0000000000000130 .L0 
C:\Users\test\AppData\Local\Temp\ccx0JFmY.s:3083   .text.timer_input_pwm_capture_config:0000000000000134 .L0 
C:\Users\test\AppData\Local\Temp\ccx0JFmY.s:3084   .text.timer_input_pwm_capture_config:0000000000000134 .L0 
C:\Users\test\AppData\Local\Temp\ccx0JFmY.s:3086   .text.timer_input_pwm_capture_config:0000000000000136 .L0 
C:\Users\test\AppData\Local\Temp\ccx0JFmY.s:3088   .text.timer_input_pwm_capture_config:0000000000000138 .L0 
C:\Users\test\AppData\Local\Temp\ccx0JFmY.s:3089   .text.timer_input_pwm_capture_config:000000000000013a .L0 
C:\Users\test\AppData\Local\Temp\ccx0JFmY.s:3091   .text.timer_input_pwm_capture_config:000000000000013a .L0 
C:\Users\test\AppData\Local\Temp\ccx0JFmY.s:3094   .text.timer_input_pwm_capture_config:000000000000013e .L0 
C:\Users\test\AppData\Local\Temp\ccx0JFmY.s:3095   .text.timer_input_pwm_capture_config:000000000000013e .L0 
C:\Users\test\AppData\Local\Temp\ccx0JFmY.s:3097   .text.timer_input_pwm_capture_config:0000000000000140 .L0 
C:\Users\test\AppData\Local\Temp\ccx0JFmY.s:3098   .text.timer_input_pwm_capture_config:0000000000000142 .L0 
C:\Users\test\AppData\Local\Temp\ccx0JFmY.s:3101   .text.timer_input_pwm_capture_config:0000000000000142 .L0 
C:\Users\test\AppData\Local\Temp\ccx0JFmY.s:3104   .text.timer_input_pwm_capture_config:000000000000014a .L0 
C:\Users\test\AppData\Local\Temp\ccx0JFmY.s:3105   .text.timer_input_pwm_capture_config:000000000000014a .L0 
C:\Users\test\AppData\Local\Temp\ccx0JFmY.s:3107   .text.timer_input_pwm_capture_config:000000000000014c .L0 
C:\Users\test\AppData\Local\Temp\ccx0JFmY.s:3108   .text.timer_input_pwm_capture_config:000000000000014e .L0 
C:\Users\test\AppData\Local\Temp\ccx0JFmY.s:3110   .text.timer_input_pwm_capture_config:000000000000014e .L0 
C:\Users\test\AppData\Local\Temp\ccx0JFmY.s:3113   .text.timer_input_pwm_capture_config:0000000000000152 .L0 
C:\Users\test\AppData\Local\Temp\ccx0JFmY.s:3114   .text.timer_input_pwm_capture_config:0000000000000152 .L0 
C:\Users\test\AppData\Local\Temp\ccx0JFmY.s:3118   .text.timer_input_pwm_capture_config:0000000000000158 .L0 
C:\Users\test\AppData\Local\Temp\ccx0JFmY.s:3119   .text.timer_input_pwm_capture_config:0000000000000158 .L0 
C:\Users\test\AppData\Local\Temp\ccx0JFmY.s:3121   .text.timer_input_pwm_capture_config:000000000000015a .L0 
C:\Users\test\AppData\Local\Temp\ccx0JFmY.s:3122   .text.timer_input_pwm_capture_config:000000000000015c .L0 
C:\Users\test\AppData\Local\Temp\ccx0JFmY.s:3124   .text.timer_input_pwm_capture_config:000000000000015c .L0 
C:\Users\test\AppData\Local\Temp\ccx0JFmY.s:3127   .text.timer_input_pwm_capture_config:0000000000000162 .L0 
C:\Users\test\AppData\Local\Temp\ccx0JFmY.s:3128   .text.timer_input_pwm_capture_config:0000000000000162 .L0 
C:\Users\test\AppData\Local\Temp\ccx0JFmY.s:3132   .text.timer_input_pwm_capture_config:0000000000000168 .L0 
C:\Users\test\AppData\Local\Temp\ccx0JFmY.s:3133   .text.timer_input_pwm_capture_config:0000000000000168 .L0 
C:\Users\test\AppData\Local\Temp\ccx0JFmY.s:3140   .text.timer_input_pwm_capture_config:0000000000000170 .L0 
C:\Users\test\AppData\Local\Temp\ccx0JFmY.s:3141   .text.timer_input_pwm_capture_config:0000000000000170 .L0 
C:\Users\test\AppData\Local\Temp\ccx0JFmY.s:3142   .text.timer_input_pwm_capture_config:0000000000000170 .L0 
C:\Users\test\AppData\Local\Temp\ccx0JFmY.s:3143   .text.timer_input_pwm_capture_config:0000000000000170 .L0 
C:\Users\test\AppData\Local\Temp\ccx0JFmY.s:3147   .text.timer_input_pwm_capture_config:0000000000000176 .L0 
C:\Users\test\AppData\Local\Temp\ccx0JFmY.s:3148   .text.timer_input_pwm_capture_config:0000000000000176 .L0 
C:\Users\test\AppData\Local\Temp\ccx0JFmY.s:3154   .text.timer_input_pwm_capture_config:000000000000017c .L0 
C:\Users\test\AppData\Local\Temp\ccx0JFmY.s:3155   .text.timer_input_pwm_capture_config:000000000000017c .L0 
C:\Users\test\AppData\Local\Temp\ccx0JFmY.s:3156   .text.timer_input_pwm_capture_config:000000000000017e .L0 
C:\Users\test\AppData\Local\Temp\ccx0JFmY.s:3160   .text.timer_input_pwm_capture_config:0000000000000180 .L0 
C:\Users\test\AppData\Local\Temp\ccx0JFmY.s:3162   .text.timer_input_pwm_capture_config:0000000000000182 .L0 
C:\Users\test\AppData\Local\Temp\ccx0JFmY.s:3169   .text.timer_hall_mode_config:0000000000000000 timer_hall_mode_config
C:\Users\test\AppData\Local\Temp\ccx0JFmY.s:3172   .text.timer_hall_mode_config:0000000000000000 .L0 
C:\Users\test\AppData\Local\Temp\ccx0JFmY.s:3174   .text.timer_hall_mode_config:0000000000000000 .L0 
C:\Users\test\AppData\Local\Temp\ccx0JFmY.s:3175   .text.timer_hall_mode_config:0000000000000000 .L0 
C:\Users\test\AppData\Local\Temp\ccx0JFmY.s:3176   .text.timer_hall_mode_config:0000000000000000 .L0 
C:\Users\test\AppData\Local\Temp\ccx0JFmY.s:3179   .text.timer_hall_mode_config:0000000000000008 .L0 
C:\Users\test\AppData\Local\Temp\ccx0JFmY.s:3180   .text.timer_hall_mode_config:0000000000000008 .L0 
C:\Users\test\AppData\Local\Temp\ccx0JFmY.s:3182   .text.timer_hall_mode_config:000000000000000a .L0 
C:\Users\test\AppData\Local\Temp\ccx0JFmY.s:3183   .text.timer_hall_mode_config:000000000000000a .L0 
GAS LISTING C:\Users\test\AppData\Local\Temp\ccx0JFmY.s 			page 142


C:\Users\test\AppData\Local\Temp\ccx0JFmY.s:3188   .text.timer_hall_mode_config:0000000000000012 .L0 
C:\Users\test\AppData\Local\Temp\ccx0JFmY.s:3189   .text.timer_hall_mode_config:0000000000000012 .L0 
C:\Users\test\AppData\Local\Temp\ccx0JFmY.s:3192   .text.timer_hall_mode_config:0000000000000014 .L0 
C:\Users\test\AppData\Local\Temp\ccx0JFmY.s:3193   .text.timer_hall_mode_config:0000000000000014 .L0 
C:\Users\test\AppData\Local\Temp\ccx0JFmY.s:3197   .text.timer_hall_mode_config:000000000000001e .L0 
C:\Users\test\AppData\Local\Temp\ccx0JFmY.s:3204   .text.timer_input_trigger_source_select:0000000000000000 timer_input_trigger_source_select
C:\Users\test\AppData\Local\Temp\ccx0JFmY.s:3207   .text.timer_input_trigger_source_select:0000000000000000 .L0 
C:\Users\test\AppData\Local\Temp\ccx0JFmY.s:3209   .text.timer_input_trigger_source_select:0000000000000000 .L0 
C:\Users\test\AppData\Local\Temp\ccx0JFmY.s:3210   .text.timer_input_trigger_source_select:0000000000000000 .L0 
C:\Users\test\AppData\Local\Temp\ccx0JFmY.s:3211   .text.timer_input_trigger_source_select:0000000000000000 .L0 
C:\Users\test\AppData\Local\Temp\ccx0JFmY.s:3215   .text.timer_input_trigger_source_select:0000000000000008 .L0 
C:\Users\test\AppData\Local\Temp\ccx0JFmY.s:3216   .text.timer_input_trigger_source_select:0000000000000008 .L0 
C:\Users\test\AppData\Local\Temp\ccx0JFmY.s:3221   .text.timer_input_trigger_source_select:000000000000000e .L0 
C:\Users\test\AppData\Local\Temp\ccx0JFmY.s:3222   .text.timer_input_trigger_source_select:0000000000000010 .L0 
C:\Users\test\AppData\Local\Temp\ccx0JFmY.s:3229   .text.timer_master_output_trigger_source_select:0000000000000000 timer_master_output_trigger_source_select
C:\Users\test\AppData\Local\Temp\ccx0JFmY.s:3232   .text.timer_master_output_trigger_source_select:0000000000000000 .L0 
C:\Users\test\AppData\Local\Temp\ccx0JFmY.s:3234   .text.timer_master_output_trigger_source_select:0000000000000000 .L0 
C:\Users\test\AppData\Local\Temp\ccx0JFmY.s:3235   .text.timer_master_output_trigger_source_select:0000000000000000 .L0 
C:\Users\test\AppData\Local\Temp\ccx0JFmY.s:3236   .text.timer_master_output_trigger_source_select:0000000000000000 .L0 
C:\Users\test\AppData\Local\Temp\ccx0JFmY.s:3240   .text.timer_master_output_trigger_source_select:0000000000000008 .L0 
C:\Users\test\AppData\Local\Temp\ccx0JFmY.s:3241   .text.timer_master_output_trigger_source_select:0000000000000008 .L0 
C:\Users\test\AppData\Local\Temp\ccx0JFmY.s:3246   .text.timer_master_output_trigger_source_select:000000000000000e .L0 
C:\Users\test\AppData\Local\Temp\ccx0JFmY.s:3247   .text.timer_master_output_trigger_source_select:0000000000000010 .L0 
C:\Users\test\AppData\Local\Temp\ccx0JFmY.s:3254   .text.timer_slave_mode_select:0000000000000000 timer_slave_mode_select
C:\Users\test\AppData\Local\Temp\ccx0JFmY.s:3257   .text.timer_slave_mode_select:0000000000000000 .L0 
C:\Users\test\AppData\Local\Temp\ccx0JFmY.s:3259   .text.timer_slave_mode_select:0000000000000000 .L0 
C:\Users\test\AppData\Local\Temp\ccx0JFmY.s:3260   .text.timer_slave_mode_select:0000000000000000 .L0 
C:\Users\test\AppData\Local\Temp\ccx0JFmY.s:3261   .text.timer_slave_mode_select:0000000000000000 .L0 
C:\Users\test\AppData\Local\Temp\ccx0JFmY.s:3265   .text.timer_slave_mode_select:0000000000000006 .L0 
C:\Users\test\AppData\Local\Temp\ccx0JFmY.s:3266   .text.timer_slave_mode_select:0000000000000006 .L0 
C:\Users\test\AppData\Local\Temp\ccx0JFmY.s:3271   .text.timer_slave_mode_select:000000000000000c .L0 
C:\Users\test\AppData\Local\Temp\ccx0JFmY.s:3272   .text.timer_slave_mode_select:000000000000000e .L0 
C:\Users\test\AppData\Local\Temp\ccx0JFmY.s:3279   .text.timer_master_slave_mode_config:0000000000000000 timer_master_slave_mode_config
C:\Users\test\AppData\Local\Temp\ccx0JFmY.s:3282   .text.timer_master_slave_mode_config:0000000000000000 .L0 
C:\Users\test\AppData\Local\Temp\ccx0JFmY.s:3284   .text.timer_master_slave_mode_config:0000000000000000 .L0 
C:\Users\test\AppData\Local\Temp\ccx0JFmY.s:3285   .text.timer_master_slave_mode_config:0000000000000000 .L0 
C:\Users\test\AppData\Local\Temp\ccx0JFmY.s:3286   .text.timer_master_slave_mode_config:0000000000000000 .L0 
C:\Users\test\AppData\Local\Temp\ccx0JFmY.s:3289   .text.timer_master_slave_mode_config:0000000000000008 .L0 
C:\Users\test\AppData\Local\Temp\ccx0JFmY.s:3290   .text.timer_master_slave_mode_config:0000000000000008 .L0 
C:\Users\test\AppData\Local\Temp\ccx0JFmY.s:3292   .text.timer_master_slave_mode_config:000000000000000a .L0 
C:\Users\test\AppData\Local\Temp\ccx0JFmY.s:3293   .text.timer_master_slave_mode_config:000000000000000a .L0 
C:\Users\test\AppData\Local\Temp\ccx0JFmY.s:3298   .text.timer_master_slave_mode_config:0000000000000012 .L0 
C:\Users\test\AppData\Local\Temp\ccx0JFmY.s:3299   .text.timer_master_slave_mode_config:0000000000000012 .L0 
C:\Users\test\AppData\Local\Temp\ccx0JFmY.s:3302   .text.timer_master_slave_mode_config:0000000000000014 .L0 
C:\Users\test\AppData\Local\Temp\ccx0JFmY.s:3303   .text.timer_master_slave_mode_config:0000000000000014 .L0 
C:\Users\test\AppData\Local\Temp\ccx0JFmY.s:3307   .text.timer_master_slave_mode_config:000000000000001e .L0 
C:\Users\test\AppData\Local\Temp\ccx0JFmY.s:3314   .text.timer_external_trigger_config:0000000000000000 timer_external_trigger_config
C:\Users\test\AppData\Local\Temp\ccx0JFmY.s:3317   .text.timer_external_trigger_config:0000000000000000 .L0 
C:\Users\test\AppData\Local\Temp\ccx0JFmY.s:3319   .text.timer_external_trigger_config:0000000000000000 .L0 
C:\Users\test\AppData\Local\Temp\ccx0JFmY.s:3320   .text.timer_external_trigger_config:0000000000000000 .L0 
C:\Users\test\AppData\Local\Temp\ccx0JFmY.s:3321   .text.timer_external_trigger_config:0000000000000000 .L0 
C:\Users\test\AppData\Local\Temp\ccx0JFmY.s:3327   .text.timer_external_trigger_config:000000000000000c .L0 
C:\Users\test\AppData\Local\Temp\ccx0JFmY.s:3328   .text.timer_external_trigger_config:000000000000000c .L0 
C:\Users\test\AppData\Local\Temp\ccx0JFmY.s:3330   .text.timer_external_trigger_config:000000000000000e .L0 
C:\Users\test\AppData\Local\Temp\ccx0JFmY.s:3333   .text.timer_external_trigger_config:0000000000000010 .L0 
C:\Users\test\AppData\Local\Temp\ccx0JFmY.s:3336   .text.timer_external_trigger_config:0000000000000012 .L0 
C:\Users\test\AppData\Local\Temp\ccx0JFmY.s:3339   .text.timer_external_trigger_config:0000000000000016 .L0 
GAS LISTING C:\Users\test\AppData\Local\Temp\ccx0JFmY.s 			page 143


C:\Users\test\AppData\Local\Temp\ccx0JFmY.s:3340   .text.timer_external_trigger_config:0000000000000016 .L0 
C:\Users\test\AppData\Local\Temp\ccx0JFmY.s:3344   .text.timer_external_trigger_config:000000000000001c .L0 
C:\Users\test\AppData\Local\Temp\ccx0JFmY.s:3345   .text.timer_external_trigger_config:000000000000001e .L0 
C:\Users\test\AppData\Local\Temp\ccx0JFmY.s:3352   .text.timer_quadrature_decoder_mode_config:0000000000000000 timer_quadrature_decoder_mode_config
C:\Users\test\AppData\Local\Temp\ccx0JFmY.s:3355   .text.timer_quadrature_decoder_mode_config:0000000000000000 .L0 
C:\Users\test\AppData\Local\Temp\ccx0JFmY.s:3357   .text.timer_quadrature_decoder_mode_config:0000000000000000 .L0 
C:\Users\test\AppData\Local\Temp\ccx0JFmY.s:3358   .text.timer_quadrature_decoder_mode_config:0000000000000000 .L0 
C:\Users\test\AppData\Local\Temp\ccx0JFmY.s:3359   .text.timer_quadrature_decoder_mode_config:0000000000000000 .L0 
C:\Users\test\AppData\Local\Temp\ccx0JFmY.s:3361   .text.timer_quadrature_decoder_mode_config:0000000000000002 .L0 
C:\Users\test\AppData\Local\Temp\ccx0JFmY.s:3364   .text.timer_quadrature_decoder_mode_config:0000000000000004 .L0 
C:\Users\test\AppData\Local\Temp\ccx0JFmY.s:3366   .text.timer_quadrature_decoder_mode_config:0000000000000006 .L0 
C:\Users\test\AppData\Local\Temp\ccx0JFmY.s:3369   .text.timer_quadrature_decoder_mode_config:000000000000000a .L0 
C:\Users\test\AppData\Local\Temp\ccx0JFmY.s:3370   .text.timer_quadrature_decoder_mode_config:000000000000000a .L0 
C:\Users\test\AppData\Local\Temp\ccx0JFmY.s:3375   .text.timer_quadrature_decoder_mode_config:0000000000000010 .L0 
C:\Users\test\AppData\Local\Temp\ccx0JFmY.s:3376   .text.timer_quadrature_decoder_mode_config:0000000000000010 .L0 
C:\Users\test\AppData\Local\Temp\ccx0JFmY.s:3380   .text.timer_quadrature_decoder_mode_config:0000000000000018 .L0 
C:\Users\test\AppData\Local\Temp\ccx0JFmY.s:3381   .text.timer_quadrature_decoder_mode_config:0000000000000018 .L0 
C:\Users\test\AppData\Local\Temp\ccx0JFmY.s:3385   .text.timer_quadrature_decoder_mode_config:0000000000000020 .L0 
C:\Users\test\AppData\Local\Temp\ccx0JFmY.s:3386   .text.timer_quadrature_decoder_mode_config:0000000000000020 .L0 
C:\Users\test\AppData\Local\Temp\ccx0JFmY.s:3390   .text.timer_quadrature_decoder_mode_config:0000000000000026 .L0 
C:\Users\test\AppData\Local\Temp\ccx0JFmY.s:3391   .text.timer_quadrature_decoder_mode_config:0000000000000026 .L0 
C:\Users\test\AppData\Local\Temp\ccx0JFmY.s:3395   .text.timer_quadrature_decoder_mode_config:000000000000002e .L0 
C:\Users\test\AppData\Local\Temp\ccx0JFmY.s:3396   .text.timer_quadrature_decoder_mode_config:000000000000002e .L0 
C:\Users\test\AppData\Local\Temp\ccx0JFmY.s:3401   .text.timer_quadrature_decoder_mode_config:0000000000000034 .L0 
C:\Users\test\AppData\Local\Temp\ccx0JFmY.s:3402   .text.timer_quadrature_decoder_mode_config:0000000000000036 .L0 
C:\Users\test\AppData\Local\Temp\ccx0JFmY.s:3409   .text.timer_internal_clock_config:0000000000000000 timer_internal_clock_config
C:\Users\test\AppData\Local\Temp\ccx0JFmY.s:3412   .text.timer_internal_clock_config:0000000000000000 .L0 
C:\Users\test\AppData\Local\Temp\ccx0JFmY.s:3414   .text.timer_internal_clock_config:0000000000000000 .L0 
C:\Users\test\AppData\Local\Temp\ccx0JFmY.s:3415   .text.timer_internal_clock_config:0000000000000000 .L0 
C:\Users\test\AppData\Local\Temp\ccx0JFmY.s:3416   .text.timer_internal_clock_config:0000000000000000 .L0 
C:\Users\test\AppData\Local\Temp\ccx0JFmY.s:3420   .text.timer_internal_clock_config:0000000000000006 .L0 
C:\Users\test\AppData\Local\Temp\ccx0JFmY.s:3421   .text.timer_internal_clock_config:0000000000000008 .L0 
C:\Users\test\AppData\Local\Temp\ccx0JFmY.s:3428   .text.timer_internal_trigger_as_external_clock_config:0000000000000000 timer_internal_trigger_as_external_clock_config
C:\Users\test\AppData\Local\Temp\ccx0JFmY.s:3431   .text.timer_internal_trigger_as_external_clock_config:0000000000000000 .L0 
C:\Users\test\AppData\Local\Temp\ccx0JFmY.s:3433   .text.timer_internal_trigger_as_external_clock_config:0000000000000000 .L0 
C:\Users\test\AppData\Local\Temp\ccx0JFmY.s:3436   .text.timer_internal_trigger_as_external_clock_config:0000000000000000 .L0 
C:\Users\test\AppData\Local\Temp\ccx0JFmY.s:3437   .text.timer_internal_trigger_as_external_clock_config:0000000000000000 .L0 
C:\Users\test\AppData\Local\Temp\ccx0JFmY.s:3438   .text.timer_internal_trigger_as_external_clock_config:0000000000000000 .L0 
C:\Users\test\AppData\Local\Temp\ccx0JFmY.s:3442   .text.timer_internal_trigger_as_external_clock_config:0000000000000008 .L0 
C:\Users\test\AppData\Local\Temp\ccx0JFmY.s:3443   .text.timer_internal_trigger_as_external_clock_config:0000000000000008 .L0 
C:\Users\test\AppData\Local\Temp\ccx0JFmY.s:3451   .text.timer_internal_trigger_as_external_clock_config:000000000000000e .L0 
C:\Users\test\AppData\Local\Temp\ccx0JFmY.s:3452   .text.timer_internal_trigger_as_external_clock_config:000000000000000e .L0 
C:\Users\test\AppData\Local\Temp\ccx0JFmY.s:3456   .text.timer_internal_trigger_as_external_clock_config:0000000000000014 .L0 
C:\Users\test\AppData\Local\Temp\ccx0JFmY.s:3457   .text.timer_internal_trigger_as_external_clock_config:0000000000000014 .L0 
C:\Users\test\AppData\Local\Temp\ccx0JFmY.s:3461   .text.timer_internal_trigger_as_external_clock_config:000000000000001c .L0 
C:\Users\test\AppData\Local\Temp\ccx0JFmY.s:3462   .text.timer_internal_trigger_as_external_clock_config:000000000000001e .L0 
C:\Users\test\AppData\Local\Temp\ccx0JFmY.s:3469   .text.timer_external_trigger_as_external_clock_config:0000000000000000 timer_external_trigger_as_external_clock_config
C:\Users\test\AppData\Local\Temp\ccx0JFmY.s:3472   .text.timer_external_trigger_as_external_clock_config:0000000000000000 .L0 
C:\Users\test\AppData\Local\Temp\ccx0JFmY.s:3474   .text.timer_external_trigger_as_external_clock_config:0000000000000000 .L0 
C:\Users\test\AppData\Local\Temp\ccx0JFmY.s:3475   .text.timer_external_trigger_as_external_clock_config:0000000000000000 .L0 
C:\Users\test\AppData\Local\Temp\ccx0JFmY.s:3476   .text.timer_external_trigger_as_external_clock_config:0000000000000000 .L0 
C:\Users\test\AppData\Local\Temp\ccx0JFmY.s:3479   .text.timer_external_trigger_as_external_clock_config:0000000000000008 .L0 
C:\Users\test\AppData\Local\Temp\ccx0JFmY.s:3480   .text.timer_external_trigger_as_external_clock_config:0000000000000008 .L0 
C:\Users\test\AppData\Local\Temp\ccx0JFmY.s:3482   .text.timer_external_trigger_as_external_clock_config:000000000000000a .L0 
C:\Users\test\AppData\Local\Temp\ccx0JFmY.s:3485   .text.timer_external_trigger_as_external_clock_config:000000000000000c .L0 
C:\Users\test\AppData\Local\Temp\ccx0JFmY.s:3488   .text.timer_external_trigger_as_external_clock_config:0000000000000010 .L0 
C:\Users\test\AppData\Local\Temp\ccx0JFmY.s:3489   .text.timer_external_trigger_as_external_clock_config:0000000000000010 .L0 
GAS LISTING C:\Users\test\AppData\Local\Temp\ccx0JFmY.s 			page 144


C:\Users\test\AppData\Local\Temp\ccx0JFmY.s:3493   .text.timer_external_trigger_as_external_clock_config:0000000000000016 .L0 
C:\Users\test\AppData\Local\Temp\ccx0JFmY.s:3494   .text.timer_external_trigger_as_external_clock_config:0000000000000016 .L0 
C:\Users\test\AppData\Local\Temp\ccx0JFmY.s:3499   .text.timer_external_trigger_as_external_clock_config:000000000000001c .L0 
C:\Users\test\AppData\Local\Temp\ccx0JFmY.s:3500   .text.timer_external_trigger_as_external_clock_config:000000000000001c .L0 
C:\Users\test\AppData\Local\Temp\ccx0JFmY.s:3504   .text.timer_external_trigger_as_external_clock_config:0000000000000022 .L0 
C:\Users\test\AppData\Local\Temp\ccx0JFmY.s:3505   .text.timer_external_trigger_as_external_clock_config:0000000000000022 .L0 
C:\Users\test\AppData\Local\Temp\ccx0JFmY.s:3509   .text.timer_external_trigger_as_external_clock_config:000000000000002a .L0 
C:\Users\test\AppData\Local\Temp\ccx0JFmY.s:3510   .text.timer_external_trigger_as_external_clock_config:000000000000002a .L0 
C:\Users\test\AppData\Local\Temp\ccx0JFmY.s:3514   .text.timer_external_trigger_as_external_clock_config:0000000000000032 .L0 
C:\Users\test\AppData\Local\Temp\ccx0JFmY.s:3515   .text.timer_external_trigger_as_external_clock_config:0000000000000032 .L0 
C:\Users\test\AppData\Local\Temp\ccx0JFmY.s:3519   .text.timer_external_trigger_as_external_clock_config:0000000000000038 .L0 
C:\Users\test\AppData\Local\Temp\ccx0JFmY.s:3520   .text.timer_external_trigger_as_external_clock_config:0000000000000038 .L0 
C:\Users\test\AppData\Local\Temp\ccx0JFmY.s:3528   .text.timer_external_trigger_as_external_clock_config:0000000000000040 .L0 
C:\Users\test\AppData\Local\Temp\ccx0JFmY.s:3529   .text.timer_external_trigger_as_external_clock_config:0000000000000040 .L0 
C:\Users\test\AppData\Local\Temp\ccx0JFmY.s:3530   .text.timer_external_trigger_as_external_clock_config:0000000000000040 .L0 
C:\Users\test\AppData\Local\Temp\ccx0JFmY.s:3534   .text.timer_external_trigger_as_external_clock_config:0000000000000048 .L0 
C:\Users\test\AppData\Local\Temp\ccx0JFmY.s:3535   .text.timer_external_trigger_as_external_clock_config:0000000000000048 .L0 
C:\Users\test\AppData\Local\Temp\ccx0JFmY.s:3543   .text.timer_external_trigger_as_external_clock_config:000000000000004e .L0 
C:\Users\test\AppData\Local\Temp\ccx0JFmY.s:3544   .text.timer_external_trigger_as_external_clock_config:000000000000004e .L0 
C:\Users\test\AppData\Local\Temp\ccx0JFmY.s:3548   .text.timer_external_trigger_as_external_clock_config:0000000000000054 .L0 
C:\Users\test\AppData\Local\Temp\ccx0JFmY.s:3549   .text.timer_external_trigger_as_external_clock_config:0000000000000054 .L0 
C:\Users\test\AppData\Local\Temp\ccx0JFmY.s:3553   .text.timer_external_trigger_as_external_clock_config:000000000000005c .L0 
C:\Users\test\AppData\Local\Temp\ccx0JFmY.s:3557   .text.timer_external_trigger_as_external_clock_config:000000000000005e .L0 
C:\Users\test\AppData\Local\Temp\ccx0JFmY.s:3558   .text.timer_external_trigger_as_external_clock_config:000000000000005e .L0 
C:\Users\test\AppData\Local\Temp\ccx0JFmY.s:3560   .text.timer_external_trigger_as_external_clock_config:0000000000000060 .L0 
C:\Users\test\AppData\Local\Temp\ccx0JFmY.s:3563   .text.timer_external_trigger_as_external_clock_config:0000000000000062 .L0 
C:\Users\test\AppData\Local\Temp\ccx0JFmY.s:3565   .text.timer_external_trigger_as_external_clock_config:0000000000000064 .L0 
C:\Users\test\AppData\Local\Temp\ccx0JFmY.s:3568   .text.timer_external_trigger_as_external_clock_config:0000000000000068 .L0 
C:\Users\test\AppData\Local\Temp\ccx0JFmY.s:3569   .text.timer_external_trigger_as_external_clock_config:0000000000000068 .L0 
C:\Users\test\AppData\Local\Temp\ccx0JFmY.s:3571   .text.timer_external_trigger_as_external_clock_config:000000000000006a .L0 
C:\Users\test\AppData\Local\Temp\ccx0JFmY.s:3573   .text.timer_external_trigger_as_external_clock_config:000000000000006c .L0 
C:\Users\test\AppData\Local\Temp\ccx0JFmY.s:3576   .text.timer_external_trigger_as_external_clock_config:000000000000006e .L0 
C:\Users\test\AppData\Local\Temp\ccx0JFmY.s:3579   .text.timer_external_trigger_as_external_clock_config:0000000000000074 .L0 
C:\Users\test\AppData\Local\Temp\ccx0JFmY.s:3580   .text.timer_external_trigger_as_external_clock_config:0000000000000074 .L0 
C:\Users\test\AppData\Local\Temp\ccx0JFmY.s:3584   .text.timer_external_trigger_as_external_clock_config:000000000000007a .L0 
C:\Users\test\AppData\Local\Temp\ccx0JFmY.s:3585   .text.timer_external_trigger_as_external_clock_config:000000000000007a .L0 
C:\Users\test\AppData\Local\Temp\ccx0JFmY.s:3589   .text.timer_external_trigger_as_external_clock_config:0000000000000082 .L0 
C:\Users\test\AppData\Local\Temp\ccx0JFmY.s:3590   .text.timer_external_trigger_as_external_clock_config:0000000000000082 .L0 
C:\Users\test\AppData\Local\Temp\ccx0JFmY.s:3594   .text.timer_external_trigger_as_external_clock_config:000000000000008a .L0 
C:\Users\test\AppData\Local\Temp\ccx0JFmY.s:3595   .text.timer_external_trigger_as_external_clock_config:000000000000008a .L0 
C:\Users\test\AppData\Local\Temp\ccx0JFmY.s:3599   .text.timer_external_trigger_as_external_clock_config:0000000000000090 .L0 
C:\Users\test\AppData\Local\Temp\ccx0JFmY.s:3600   .text.timer_external_trigger_as_external_clock_config:0000000000000090 .L0 
C:\Users\test\AppData\Local\Temp\ccx0JFmY.s:3604   .text.timer_external_trigger_as_external_clock_config:0000000000000096 .L0 
C:\Users\test\AppData\Local\Temp\ccx0JFmY.s:3605   .text.timer_external_trigger_as_external_clock_config:0000000000000096 .L0 
C:\Users\test\AppData\Local\Temp\ccx0JFmY.s:3609   .text.timer_external_trigger_as_external_clock_config:00000000000000a0 .L0 
C:\Users\test\AppData\Local\Temp\ccx0JFmY.s:3616   .text.timer_external_clock_mode0_config:0000000000000000 timer_external_clock_mode0_config
C:\Users\test\AppData\Local\Temp\ccx0JFmY.s:3619   .text.timer_external_clock_mode0_config:0000000000000000 .L0 
C:\Users\test\AppData\Local\Temp\ccx0JFmY.s:3621   .text.timer_external_clock_mode0_config:0000000000000000 .L0 
C:\Users\test\AppData\Local\Temp\ccx0JFmY.s:3624   .text.timer_external_clock_mode0_config:0000000000000000 .L0 
C:\Users\test\AppData\Local\Temp\ccx0JFmY.s:3625   .text.timer_external_clock_mode0_config:0000000000000000 .L0 
C:\Users\test\AppData\Local\Temp\ccx0JFmY.s:3626   .text.timer_external_clock_mode0_config:0000000000000000 .L0 
C:\Users\test\AppData\Local\Temp\ccx0JFmY.s:3632   .text.timer_external_clock_mode0_config:000000000000000c .L0 
C:\Users\test\AppData\Local\Temp\ccx0JFmY.s:3633   .text.timer_external_clock_mode0_config:000000000000000c .L0 
C:\Users\test\AppData\Local\Temp\ccx0JFmY.s:3635   .text.timer_external_clock_mode0_config:000000000000000e .L0 
C:\Users\test\AppData\Local\Temp\ccx0JFmY.s:3638   .text.timer_external_clock_mode0_config:0000000000000010 .L0 
C:\Users\test\AppData\Local\Temp\ccx0JFmY.s:3641   .text.timer_external_clock_mode0_config:0000000000000012 .L0 
C:\Users\test\AppData\Local\Temp\ccx0JFmY.s:3644   .text.timer_external_clock_mode0_config:0000000000000016 .L0 
GAS LISTING C:\Users\test\AppData\Local\Temp\ccx0JFmY.s 			page 145


C:\Users\test\AppData\Local\Temp\ccx0JFmY.s:3645   .text.timer_external_clock_mode0_config:0000000000000016 .L0 
C:\Users\test\AppData\Local\Temp\ccx0JFmY.s:3652   .text.timer_external_clock_mode0_config:000000000000001c .L0 
C:\Users\test\AppData\Local\Temp\ccx0JFmY.s:3653   .text.timer_external_clock_mode0_config:000000000000001c .L0 
C:\Users\test\AppData\Local\Temp\ccx0JFmY.s:3657   .text.timer_external_clock_mode0_config:0000000000000024 .L0 
C:\Users\test\AppData\Local\Temp\ccx0JFmY.s:3658   .text.timer_external_clock_mode0_config:0000000000000024 .L0 
C:\Users\test\AppData\Local\Temp\ccx0JFmY.s:3662   .text.timer_external_clock_mode0_config:000000000000002c .L0 
C:\Users\test\AppData\Local\Temp\ccx0JFmY.s:3663   .text.timer_external_clock_mode0_config:000000000000002e .L0 
C:\Users\test\AppData\Local\Temp\ccx0JFmY.s:3670   .text.timer_external_clock_mode1_config:0000000000000000 timer_external_clock_mode1_config
C:\Users\test\AppData\Local\Temp\ccx0JFmY.s:3673   .text.timer_external_clock_mode1_config:0000000000000000 .L0 
C:\Users\test\AppData\Local\Temp\ccx0JFmY.s:3675   .text.timer_external_clock_mode1_config:0000000000000000 .L0 
C:\Users\test\AppData\Local\Temp\ccx0JFmY.s:3678   .text.timer_external_clock_mode1_config:0000000000000000 .L0 
C:\Users\test\AppData\Local\Temp\ccx0JFmY.s:3679   .text.timer_external_clock_mode1_config:0000000000000000 .L0 
C:\Users\test\AppData\Local\Temp\ccx0JFmY.s:3680   .text.timer_external_clock_mode1_config:0000000000000000 .L0 
C:\Users\test\AppData\Local\Temp\ccx0JFmY.s:3686   .text.timer_external_clock_mode1_config:000000000000000c .L0 
C:\Users\test\AppData\Local\Temp\ccx0JFmY.s:3687   .text.timer_external_clock_mode1_config:000000000000000c .L0 
C:\Users\test\AppData\Local\Temp\ccx0JFmY.s:3689   .text.timer_external_clock_mode1_config:000000000000000e .L0 
C:\Users\test\AppData\Local\Temp\ccx0JFmY.s:3692   .text.timer_external_clock_mode1_config:0000000000000010 .L0 
C:\Users\test\AppData\Local\Temp\ccx0JFmY.s:3695   .text.timer_external_clock_mode1_config:0000000000000012 .L0 
C:\Users\test\AppData\Local\Temp\ccx0JFmY.s:3698   .text.timer_external_clock_mode1_config:0000000000000016 .L0 
C:\Users\test\AppData\Local\Temp\ccx0JFmY.s:3699   .text.timer_external_clock_mode1_config:0000000000000016 .L0 
C:\Users\test\AppData\Local\Temp\ccx0JFmY.s:3703   .text.timer_external_clock_mode1_config:0000000000000018 .L0 
C:\Users\test\AppData\Local\Temp\ccx0JFmY.s:3707   .text.timer_external_clock_mode1_config:000000000000001a .L0 
C:\Users\test\AppData\Local\Temp\ccx0JFmY.s:3713   .text.timer_external_clock_mode1_config:000000000000001e .L0 
C:\Users\test\AppData\Local\Temp\ccx0JFmY.s:3714   .text.timer_external_clock_mode1_config:000000000000001e .L0 
C:\Users\test\AppData\Local\Temp\ccx0JFmY.s:3718   .text.timer_external_clock_mode1_config:0000000000000024 .L0 
C:\Users\test\AppData\Local\Temp\ccx0JFmY.s:3719   .text.timer_external_clock_mode1_config:0000000000000026 .L0 
C:\Users\test\AppData\Local\Temp\ccx0JFmY.s:3726   .text.timer_external_clock_mode1_disable:0000000000000000 timer_external_clock_mode1_disable
C:\Users\test\AppData\Local\Temp\ccx0JFmY.s:3729   .text.timer_external_clock_mode1_disable:0000000000000000 .L0 
C:\Users\test\AppData\Local\Temp\ccx0JFmY.s:3731   .text.timer_external_clock_mode1_disable:0000000000000000 .L0 
C:\Users\test\AppData\Local\Temp\ccx0JFmY.s:3732   .text.timer_external_clock_mode1_disable:0000000000000000 .L0 
C:\Users\test\AppData\Local\Temp\ccx0JFmY.s:3733   .text.timer_external_clock_mode1_disable:0000000000000000 .L0 
C:\Users\test\AppData\Local\Temp\ccx0JFmY.s:3739   .text.timer_external_clock_mode1_disable:000000000000000a .L0 
C:\Users\test\AppData\Local\Temp\ccx0JFmY.s:3740   .text.timer_external_clock_mode1_disable:000000000000000c .L0 
C:\Users\test\AppData\Local\Temp\ccx0JFmY.s:3747   .text.timer_interrupt_enable:0000000000000000 timer_interrupt_enable
C:\Users\test\AppData\Local\Temp\ccx0JFmY.s:3750   .text.timer_interrupt_enable:0000000000000000 .L0 
C:\Users\test\AppData\Local\Temp\ccx0JFmY.s:3752   .text.timer_interrupt_enable:0000000000000000 .L0 
C:\Users\test\AppData\Local\Temp\ccx0JFmY.s:3753   .text.timer_interrupt_enable:0000000000000000 .L0 
C:\Users\test\AppData\Local\Temp\ccx0JFmY.s:3754   .text.timer_interrupt_enable:0000000000000000 .L0 
C:\Users\test\AppData\Local\Temp\ccx0JFmY.s:3759   .text.timer_interrupt_enable:0000000000000006 .L0 
C:\Users\test\AppData\Local\Temp\ccx0JFmY.s:3760   .text.timer_interrupt_enable:0000000000000008 .L0 
C:\Users\test\AppData\Local\Temp\ccx0JFmY.s:3767   .text.timer_interrupt_disable:0000000000000000 timer_interrupt_disable
C:\Users\test\AppData\Local\Temp\ccx0JFmY.s:3770   .text.timer_interrupt_disable:0000000000000000 .L0 
C:\Users\test\AppData\Local\Temp\ccx0JFmY.s:3772   .text.timer_interrupt_disable:0000000000000000 .L0 
C:\Users\test\AppData\Local\Temp\ccx0JFmY.s:3773   .text.timer_interrupt_disable:0000000000000000 .L0 
C:\Users\test\AppData\Local\Temp\ccx0JFmY.s:3774   .text.timer_interrupt_disable:0000000000000000 .L0 
C:\Users\test\AppData\Local\Temp\ccx0JFmY.s:3776   .text.timer_interrupt_disable:0000000000000002 .L0 
C:\Users\test\AppData\Local\Temp\ccx0JFmY.s:3779   .text.timer_interrupt_disable:0000000000000006 .L0 
C:\Users\test\AppData\Local\Temp\ccx0JFmY.s:3783   .text.timer_interrupt_disable:000000000000000a .L0 
C:\Users\test\AppData\Local\Temp\ccx0JFmY.s:3784   .text.timer_interrupt_disable:000000000000000c .L0 
C:\Users\test\AppData\Local\Temp\ccx0JFmY.s:3791   .text.timer_interrupt_flag_get:0000000000000000 timer_interrupt_flag_get
C:\Users\test\AppData\Local\Temp\ccx0JFmY.s:3794   .text.timer_interrupt_flag_get:0000000000000000 .L0 
C:\Users\test\AppData\Local\Temp\ccx0JFmY.s:3796   .text.timer_interrupt_flag_get:0000000000000000 .L0 
C:\Users\test\AppData\Local\Temp\ccx0JFmY.s:3797   .text.timer_interrupt_flag_get:0000000000000000 .L0 
C:\Users\test\AppData\Local\Temp\ccx0JFmY.s:3798   .text.timer_interrupt_flag_get:0000000000000000 .L0 
C:\Users\test\AppData\Local\Temp\ccx0JFmY.s:3799   .text.timer_interrupt_flag_get:0000000000000000 .L0 
C:\Users\test\AppData\Local\Temp\ccx0JFmY.s:3801   .text.timer_interrupt_flag_get:0000000000000002 .L0 
C:\Users\test\AppData\Local\Temp\ccx0JFmY.s:3804   .text.timer_interrupt_flag_get:0000000000000004 .L0 
GAS LISTING C:\Users\test\AppData\Local\Temp\ccx0JFmY.s 			page 146


C:\Users\test\AppData\Local\Temp\ccx0JFmY.s:3805   .text.timer_interrupt_flag_get:0000000000000004 .L0 
C:\Users\test\AppData\Local\Temp\ccx0JFmY.s:3807   .text.timer_interrupt_flag_get:0000000000000006 .L0 
C:\Users\test\AppData\Local\Temp\ccx0JFmY.s:3809   .text.timer_interrupt_flag_get:0000000000000008 .L0 
C:\Users\test\AppData\Local\Temp\ccx0JFmY.s:3812   .text.timer_interrupt_flag_get:000000000000000c .L0 
C:\Users\test\AppData\Local\Temp\ccx0JFmY.s:3816   .text.timer_interrupt_flag_get:0000000000000010 .L0 
C:\Users\test\AppData\Local\Temp\ccx0JFmY.s:3817   .text.timer_interrupt_flag_get:0000000000000012 .L0 
C:\Users\test\AppData\Local\Temp\ccx0JFmY.s:3824   .text.timer_interrupt_flag_clear:0000000000000000 timer_interrupt_flag_clear
C:\Users\test\AppData\Local\Temp\ccx0JFmY.s:3827   .text.timer_interrupt_flag_clear:0000000000000000 .L0 
C:\Users\test\AppData\Local\Temp\ccx0JFmY.s:3829   .text.timer_interrupt_flag_clear:0000000000000000 .L0 
C:\Users\test\AppData\Local\Temp\ccx0JFmY.s:3830   .text.timer_interrupt_flag_clear:0000000000000000 .L0 
C:\Users\test\AppData\Local\Temp\ccx0JFmY.s:3831   .text.timer_interrupt_flag_clear:0000000000000000 .L0 
C:\Users\test\AppData\Local\Temp\ccx0JFmY.s:3834   .text.timer_interrupt_flag_clear:0000000000000004 .L0 
C:\Users\test\AppData\Local\Temp\ccx0JFmY.s:3836   .text.timer_interrupt_flag_clear:0000000000000006 .L0 
C:\Users\test\AppData\Local\Temp\ccx0JFmY.s:3837   .text.timer_interrupt_flag_clear:0000000000000008 .L0 
C:\Users\test\AppData\Local\Temp\ccx0JFmY.s:3844   .text.timer_flag_get:0000000000000000 timer_flag_get
C:\Users\test\AppData\Local\Temp\ccx0JFmY.s:3847   .text.timer_flag_get:0000000000000000 .L0 
C:\Users\test\AppData\Local\Temp\ccx0JFmY.s:3849   .text.timer_flag_get:0000000000000000 .L0 
C:\Users\test\AppData\Local\Temp\ccx0JFmY.s:3850   .text.timer_flag_get:0000000000000000 .L0 
C:\Users\test\AppData\Local\Temp\ccx0JFmY.s:3851   .text.timer_flag_get:0000000000000000 .L0 
C:\Users\test\AppData\Local\Temp\ccx0JFmY.s:3854   .text.timer_flag_get:0000000000000002 .L0 
C:\Users\test\AppData\Local\Temp\ccx0JFmY.s:3856   .text.timer_flag_get:0000000000000004 .L0 
C:\Users\test\AppData\Local\Temp\ccx0JFmY.s:3858   .text.timer_flag_get:000000000000000a .L0 
C:\Users\test\AppData\Local\Temp\ccx0JFmY.s:3865   .text.timer_flag_clear:0000000000000000 timer_flag_clear
C:\Users\test\AppData\Local\Temp\ccx0JFmY.s:3867   .text.timer_flag_clear:0000000000000000 .L0 
C:\Users\test\AppData\Local\Temp\ccx0JFmY.s:3871   .text.timer_flag_clear:0000000000000008 .L0 
C:\Users\test\AppData\Local\Temp\ccx0JFmY.s:37     .text.timer_channel_input_capture_prescaler_config.part.0:0000000000000016 .L0 
C:\Users\test\AppData\Local\Temp\ccx0JFmY.s:238    .text.timer_deinit:000000000000010e .L0 
C:\Users\test\AppData\Local\Temp\ccx0JFmY.s:271    .text.timer_struct_para_init:0000000000000018 .L0 
C:\Users\test\AppData\Local\Temp\ccx0JFmY.s:415    .text.timer_init:00000000000000c0 .L0 
C:\Users\test\AppData\Local\Temp\ccx0JFmY.s:434    .text.timer_enable:000000000000000a .L0 
C:\Users\test\AppData\Local\Temp\ccx0JFmY.s:453    .text.timer_disable:0000000000000008 .L0 
C:\Users\test\AppData\Local\Temp\ccx0JFmY.s:472    .text.timer_auto_reload_shadow_enable:000000000000000a .L0 
C:\Users\test\AppData\Local\Temp\ccx0JFmY.s:491    .text.timer_auto_reload_shadow_disable:000000000000000a .L0 
C:\Users\test\AppData\Local\Temp\ccx0JFmY.s:510    .text.timer_update_event_enable:0000000000000008 .L0 
C:\Users\test\AppData\Local\Temp\ccx0JFmY.s:529    .text.timer_update_event_disable:000000000000000a .L0 
C:\Users\test\AppData\Local\Temp\ccx0JFmY.s:554    .text.timer_counter_alignment:0000000000000010 .L0 
C:\Users\test\AppData\Local\Temp\ccx0JFmY.s:573    .text.timer_counter_up_direction:0000000000000008 .L0 
C:\Users\test\AppData\Local\Temp\ccx0JFmY.s:592    .text.timer_counter_down_direction:000000000000000a .L0 
C:\Users\test\AppData\Local\Temp\ccx0JFmY.s:621    .text.timer_prescaler_config:0000000000000014 .L0 
C:\Users\test\AppData\Local\Temp\ccx0JFmY.s:638    .text.timer_repetition_value_config:0000000000000004 .L0 
C:\Users\test\AppData\Local\Temp\ccx0JFmY.s:655    .text.timer_autoreload_value_config:0000000000000004 .L0 
C:\Users\test\AppData\Local\Temp\ccx0JFmY.s:672    .text.timer_counter_value_config:0000000000000004 .L0 
C:\Users\test\AppData\Local\Temp\ccx0JFmY.s:692    .text.timer_counter_read:0000000000000004 .L0 
C:\Users\test\AppData\Local\Temp\ccx0JFmY.s:715    .text.timer_prescaler_read:0000000000000008 .L0 
C:\Users\test\AppData\Local\Temp\ccx0JFmY.s:750    .text.timer_single_pulse_mode_config:000000000000001a .L0 
C:\Users\test\AppData\Local\Temp\ccx0JFmY.s:785    .text.timer_update_source_config:000000000000001a .L0 
C:\Users\test\AppData\Local\Temp\ccx0JFmY.s:805    .text.timer_dma_enable:0000000000000008 .L0 
C:\Users\test\AppData\Local\Temp\ccx0JFmY.s:828    .text.timer_dma_disable:000000000000000c .L0 
C:\Users\test\AppData\Local\Temp\ccx0JFmY.s:863    .text.timer_channel_dma_request_source_select:000000000000001a .L0 
C:\Users\test\AppData\Local\Temp\ccx0JFmY.s:893    .text.timer_dma_transfer_config:0000000000000016 .L0 
C:\Users\test\AppData\Local\Temp\ccx0JFmY.s:913    .text.timer_event_software_generate:0000000000000008 .L0 
C:\Users\test\AppData\Local\Temp\ccx0JFmY.s:948    .text.timer_break_struct_para_init:000000000000001e .L0 
C:\Users\test\AppData\Local\Temp\ccx0JFmY.s:979    .text.timer_break_config:000000000000002e .L0 
C:\Users\test\AppData\Local\Temp\ccx0JFmY.s:999    .text.timer_break_enable:000000000000000a .L0 
C:\Users\test\AppData\Local\Temp\ccx0JFmY.s:1020   .text.timer_break_disable:000000000000000c .L0 
C:\Users\test\AppData\Local\Temp\ccx0JFmY.s:1040   .text.timer_automatic_output_enable:000000000000000a .L0 
C:\Users\test\AppData\Local\Temp\ccx0JFmY.s:1061   .text.timer_automatic_output_disable:000000000000000c .L0 
GAS LISTING C:\Users\test\AppData\Local\Temp\ccx0JFmY.s 			page 147


C:\Users\test\AppData\Local\Temp\ccx0JFmY.s:1094   .text.timer_primary_output_config:000000000000001c .L0 
C:\Users\test\AppData\Local\Temp\ccx0JFmY.s:1124   .text.timer_channel_control_shadow_config:0000000000000018 .L0 
C:\Users\test\AppData\Local\Temp\ccx0JFmY.s:1161   .text.timer_channel_control_shadow_update_config:000000000000001c .L0 
C:\Users\test\AppData\Local\Temp\ccx0JFmY.s:1193   .text.timer_channel_output_struct_para_init:000000000000001a .L0 
C:\Users\test\AppData\Local\Temp\ccx0JFmY.s:1625   .text.timer_channel_output_config:000000000000025c .L0 
C:\Users\test\AppData\Local\Temp\ccx0JFmY.s:1716   .text.timer_channel_output_mode_config:000000000000005e .L0 
C:\Users\test\AppData\Local\Temp\ccx0JFmY.s:1762   .text.timer_channel_output_pulse_value_config:0000000000000026 .L0 
C:\Users\test\AppData\Local\Temp\ccx0JFmY.s:1853   .text.timer_channel_output_shadow_config:000000000000005e .L0 
C:\Users\test\AppData\Local\Temp\ccx0JFmY.s:1940   .text.timer_channel_output_fast_config:0000000000000056 .L0 
C:\Users\test\AppData\Local\Temp\ccx0JFmY.s:2031   .text.timer_channel_output_clear_config:000000000000005e .L0 
C:\Users\test\AppData\Local\Temp\ccx0JFmY.s:2123   .text.timer_channel_output_polarity_config:000000000000005c .L0 
C:\Users\test\AppData\Local\Temp\ccx0JFmY.s:2195   .text.timer_channel_complementary_output_polarity_config:0000000000000046 .L0 
C:\Users\test\AppData\Local\Temp\ccx0JFmY.s:2287   .text.timer_channel_output_state_config:000000000000005a .L0 
C:\Users\test\AppData\Local\Temp\ccx0JFmY.s:2357   .text.timer_channel_complementary_output_state_config:0000000000000042 .L0 
C:\Users\test\AppData\Local\Temp\ccx0JFmY.s:2385   .text.timer_channel_input_struct_para_init:0000000000000014 .L0 
C:\Users\test\AppData\Local\Temp\ccx0JFmY.s:2463   .text.timer_channel_input_capture_prescaler_config:0000000000000052 .L0 
C:\Users\test\AppData\Local\Temp\ccx0JFmY.s:2743   .text.timer_input_capture_config:0000000000000182 .L0 
C:\Users\test\AppData\Local\Temp\ccx0JFmY.s:2802   .text.timer_channel_capture_value_register_read:0000000000000028 .L0 
C:\Users\test\AppData\Local\Temp\ccx0JFmY.s:3165   .text.timer_input_pwm_capture_config:0000000000000182 .L0 
C:\Users\test\AppData\Local\Temp\ccx0JFmY.s:3200   .text.timer_hall_mode_config:000000000000001e .L0 
C:\Users\test\AppData\Local\Temp\ccx0JFmY.s:3225   .text.timer_input_trigger_source_select:0000000000000010 .L0 
C:\Users\test\AppData\Local\Temp\ccx0JFmY.s:3250   .text.timer_master_output_trigger_source_select:0000000000000010 .L0 
C:\Users\test\AppData\Local\Temp\ccx0JFmY.s:3275   .text.timer_slave_mode_select:000000000000000e .L0 
C:\Users\test\AppData\Local\Temp\ccx0JFmY.s:3310   .text.timer_master_slave_mode_config:000000000000001e .L0 
C:\Users\test\AppData\Local\Temp\ccx0JFmY.s:3348   .text.timer_external_trigger_config:000000000000001e .L0 
C:\Users\test\AppData\Local\Temp\ccx0JFmY.s:3405   .text.timer_quadrature_decoder_mode_config:0000000000000036 .L0 
C:\Users\test\AppData\Local\Temp\ccx0JFmY.s:3424   .text.timer_internal_clock_config:0000000000000008 .L0 
C:\Users\test\AppData\Local\Temp\ccx0JFmY.s:3465   .text.timer_internal_trigger_as_external_clock_config:000000000000001e .L0 
C:\Users\test\AppData\Local\Temp\ccx0JFmY.s:3612   .text.timer_external_trigger_as_external_clock_config:00000000000000a0 .L0 
C:\Users\test\AppData\Local\Temp\ccx0JFmY.s:3666   .text.timer_external_clock_mode0_config:000000000000002e .L0 
C:\Users\test\AppData\Local\Temp\ccx0JFmY.s:3722   .text.timer_external_clock_mode1_config:0000000000000026 .L0 
C:\Users\test\AppData\Local\Temp\ccx0JFmY.s:3743   .text.timer_external_clock_mode1_disable:000000000000000c .L0 
C:\Users\test\AppData\Local\Temp\ccx0JFmY.s:3763   .text.timer_interrupt_enable:0000000000000008 .L0 
C:\Users\test\AppData\Local\Temp\ccx0JFmY.s:3787   .text.timer_interrupt_disable:000000000000000c .L0 
C:\Users\test\AppData\Local\Temp\ccx0JFmY.s:3820   .text.timer_interrupt_flag_get:0000000000000012 .L0 
C:\Users\test\AppData\Local\Temp\ccx0JFmY.s:3840   .text.timer_interrupt_flag_clear:0000000000000008 .L0 
C:\Users\test\AppData\Local\Temp\ccx0JFmY.s:3861   .text.timer_flag_get:000000000000000a .L0 
                     .debug_frame:0000000000000000 .L0 
C:\Users\test\AppData\Local\Temp\ccx0JFmY.s:104    .text.timer_deinit:0000000000000066 .L4
C:\Users\test\AppData\Local\Temp\ccx0JFmY.s:75     .text.timer_deinit:0000000000000032 .L14
C:\Users\test\AppData\Local\Temp\ccx0JFmY.s:126    .text.timer_deinit:0000000000000082 .L10
C:\Users\test\AppData\Local\Temp\ccx0JFmY.s:148    .text.timer_deinit:000000000000009e .L11
C:\Users\test\AppData\Local\Temp\ccx0JFmY.s:170    .text.timer_deinit:00000000000000ba .L15
C:\Users\test\AppData\Local\Temp\ccx0JFmY.s:192    .text.timer_deinit:00000000000000d6 .L6
C:\Users\test\AppData\Local\Temp\ccx0JFmY.s:214    .text.timer_deinit:00000000000000f2 .L7
C:\Users\test\AppData\Local\Temp\ccx0JFmY.s:66     .text.timer_deinit:000000000000002c .L3
C:\Users\test\AppData\Local\Temp\ccx0JFmY.s:345    .text.timer_init:0000000000000064 .L18
C:\Users\test\AppData\Local\Temp\ccx0JFmY.s:337    .text.timer_init:000000000000005a .L23
C:\Users\test\AppData\Local\Temp\ccx0JFmY.s:610    .text.timer_prescaler_config:000000000000000a .L36
C:\Users\test\AppData\Local\Temp\ccx0JFmY.s:740    .text.timer_single_pulse_mode_config:0000000000000010 .L45
C:\Users\test\AppData\Local\Temp\ccx0JFmY.s:737    .text.timer_single_pulse_mode_config:000000000000000e .L42
C:\Users\test\AppData\Local\Temp\ccx0JFmY.s:775    .text.timer_update_source_config:0000000000000010 .L49
C:\Users\test\AppData\Local\Temp\ccx0JFmY.s:772    .text.timer_update_source_config:000000000000000e .L46
C:\Users\test\AppData\Local\Temp\ccx0JFmY.s:853    .text.timer_channel_dma_request_source_select:0000000000000010 .L55
C:\Users\test\AppData\Local\Temp\ccx0JFmY.s:850    .text.timer_channel_dma_request_source_select:000000000000000e .L52
C:\Users\test\AppData\Local\Temp\ccx0JFmY.s:1083   .text.timer_primary_output_config:0000000000000012 .L67
C:\Users\test\AppData\Local\Temp\ccx0JFmY.s:1114   .text.timer_channel_control_shadow_config:000000000000000e .L71
GAS LISTING C:\Users\test\AppData\Local\Temp\ccx0JFmY.s 			page 148


C:\Users\test\AppData\Local\Temp\ccx0JFmY.s:1142   .text.timer_channel_control_shadow_update_config:000000000000000a .L73
C:\Users\test\AppData\Local\Temp\ccx0JFmY.s:1149   .text.timer_channel_control_shadow_update_config:0000000000000012 .L75
C:\Users\test\AppData\Local\Temp\ccx0JFmY.s:1356   .text.timer_channel_output_config:00000000000000cc .L78
C:\Users\test\AppData\Local\Temp\ccx0JFmY.s:1312   .text.timer_channel_output_config:0000000000000094 .L79
C:\Users\test\AppData\Local\Temp\ccx0JFmY.s:1263   .text.timer_channel_output_config:0000000000000058 .L80
C:\Users\test\AppData\Local\Temp\ccx0JFmY.s:1261   .text.timer_channel_output_config:0000000000000056 .L87
C:\Users\test\AppData\Local\Temp\ccx0JFmY.s:1603   .text.timer_channel_output_config:000000000000023c .L88
C:\Users\test\AppData\Local\Temp\ccx0JFmY.s:1527   .text.timer_channel_output_config:00000000000001ca .L89
C:\Users\test\AppData\Local\Temp\ccx0JFmY.s:1473   .text.timer_channel_output_config:000000000000016e .L90
C:\Users\test\AppData\Local\Temp\ccx0JFmY.s:1405   .text.timer_channel_output_config:0000000000000108 .L91
C:\Users\test\AppData\Local\Temp\ccx0JFmY.s:1396   .text.timer_channel_output_config:00000000000000fe .L84
C:\Users\test\AppData\Local\Temp\ccx0JFmY.s:1347   .text.timer_channel_output_config:00000000000000c4 .L83
C:\Users\test\AppData\Local\Temp\ccx0JFmY.s:1303   .text.timer_channel_output_config:000000000000008c .L85
C:\Users\test\AppData\Local\Temp\ccx0JFmY.s:1252   .text.timer_channel_output_config:000000000000004c .L86
C:\Users\test\AppData\Local\Temp\ccx0JFmY.s:1664   .text.timer_channel_output_mode_config:000000000000002a .L93
C:\Users\test\AppData\Local\Temp\ccx0JFmY.s:1699   .text.timer_channel_output_mode_config:000000000000004e .L94
C:\Users\test\AppData\Local\Temp\ccx0JFmY.s:1684   .text.timer_channel_output_mode_config:000000000000003e .L95
C:\Users\test\AppData\Local\Temp\ccx0JFmY.s:1662   .text.timer_channel_output_mode_config:0000000000000028 .L98
C:\Users\test\AppData\Local\Temp\ccx0JFmY.s:1741   .text.timer_channel_output_pulse_value_config:000000000000001a .L100
C:\Users\test\AppData\Local\Temp\ccx0JFmY.s:1753   .text.timer_channel_output_pulse_value_config:0000000000000022 .L101
C:\Users\test\AppData\Local\Temp\ccx0JFmY.s:1747   .text.timer_channel_output_pulse_value_config:000000000000001e .L102
C:\Users\test\AppData\Local\Temp\ccx0JFmY.s:1739   .text.timer_channel_output_pulse_value_config:0000000000000018 .L105
C:\Users\test\AppData\Local\Temp\ccx0JFmY.s:1801   .text.timer_channel_output_shadow_config:000000000000002c .L107
C:\Users\test\AppData\Local\Temp\ccx0JFmY.s:1836   .text.timer_channel_output_shadow_config:0000000000000050 .L108
C:\Users\test\AppData\Local\Temp\ccx0JFmY.s:1821   .text.timer_channel_output_shadow_config:0000000000000042 .L109
C:\Users\test\AppData\Local\Temp\ccx0JFmY.s:1799   .text.timer_channel_output_shadow_config:000000000000002a .L112
C:\Users\test\AppData\Local\Temp\ccx0JFmY.s:1890   .text.timer_channel_output_fast_config:0000000000000028 .L114
C:\Users\test\AppData\Local\Temp\ccx0JFmY.s:1923   .text.timer_channel_output_fast_config:0000000000000048 .L115
C:\Users\test\AppData\Local\Temp\ccx0JFmY.s:1908   .text.timer_channel_output_fast_config:000000000000003a .L116
C:\Users\test\AppData\Local\Temp\ccx0JFmY.s:1888   .text.timer_channel_output_fast_config:0000000000000026 .L119
C:\Users\test\AppData\Local\Temp\ccx0JFmY.s:1979   .text.timer_channel_output_clear_config:000000000000002a .L121
C:\Users\test\AppData\Local\Temp\ccx0JFmY.s:2014   .text.timer_channel_output_clear_config:000000000000004e .L122
C:\Users\test\AppData\Local\Temp\ccx0JFmY.s:1999   .text.timer_channel_output_clear_config:000000000000003e .L123
C:\Users\test\AppData\Local\Temp\ccx0JFmY.s:1977   .text.timer_channel_output_clear_config:0000000000000028 .L126
C:\Users\test\AppData\Local\Temp\ccx0JFmY.s:2070   .text.timer_channel_output_polarity_config:000000000000002a .L128
C:\Users\test\AppData\Local\Temp\ccx0JFmY.s:2106   .text.timer_channel_output_polarity_config:000000000000004e .L129
C:\Users\test\AppData\Local\Temp\ccx0JFmY.s:2088   .text.timer_channel_output_polarity_config:000000000000003c .L130
C:\Users\test\AppData\Local\Temp\ccx0JFmY.s:2068   .text.timer_channel_output_polarity_config:0000000000000028 .L133
C:\Users\test\AppData\Local\Temp\ccx0JFmY.s:2160   .text.timer_channel_complementary_output_polarity_config:0000000000000026 .L135
C:\Users\test\AppData\Local\Temp\ccx0JFmY.s:2178   .text.timer_channel_complementary_output_polarity_config:0000000000000038 .L136
C:\Users\test\AppData\Local\Temp\ccx0JFmY.s:2158   .text.timer_channel_complementary_output_polarity_config:0000000000000024 .L139
C:\Users\test\AppData\Local\Temp\ccx0JFmY.s:2234   .text.timer_channel_output_state_config:000000000000002a .L141
C:\Users\test\AppData\Local\Temp\ccx0JFmY.s:2270   .text.timer_channel_output_state_config:000000000000004c .L142
C:\Users\test\AppData\Local\Temp\ccx0JFmY.s:2252   .text.timer_channel_output_state_config:000000000000003a .L143
C:\Users\test\AppData\Local\Temp\ccx0JFmY.s:2232   .text.timer_channel_output_state_config:0000000000000028 .L146
C:\Users\test\AppData\Local\Temp\ccx0JFmY.s:2322   .text.timer_channel_complementary_output_state_config:0000000000000022 .L148
C:\Users\test\AppData\Local\Temp\ccx0JFmY.s:2340   .text.timer_channel_complementary_output_state_config:0000000000000034 .L149
C:\Users\test\AppData\Local\Temp\ccx0JFmY.s:2320   .text.timer_channel_complementary_output_state_config:0000000000000020 .L152
C:\Users\test\AppData\Local\Temp\ccx0JFmY.s:2424   .text.timer_channel_input_capture_prescaler_config:000000000000002c .L155
C:\Users\test\AppData\Local\Temp\ccx0JFmY.s:2445   .text.timer_channel_input_capture_prescaler_config:0000000000000044 .L156
C:\Users\test\AppData\Local\Temp\ccx0JFmY.s:2429   .text.timer_channel_input_capture_prescaler_config:0000000000000036 .L157
C:\Users\test\AppData\Local\Temp\ccx0JFmY.s:2422   .text.timer_channel_input_capture_prescaler_config:000000000000002a .L160
C:\Users\test\AppData\Local\Temp\ccx0JFmY.s:2550   .text.timer_input_capture_config:0000000000000074 .L162
C:\Users\test\AppData\Local\Temp\ccx0JFmY.s:2681   .text.timer_input_capture_config:000000000000012a .L163
C:\Users\test\AppData\Local\Temp\ccx0JFmY.s:2616   .text.timer_input_capture_config:00000000000000cc .L164
C:\Users\test\AppData\Local\Temp\ccx0JFmY.s:2544   .text.timer_input_capture_config:0000000000000068 .L166
C:\Users\test\AppData\Local\Temp\ccx0JFmY.s:2776   .text.timer_channel_capture_value_register_read:000000000000001c .L168
GAS LISTING C:\Users\test\AppData\Local\Temp\ccx0JFmY.s 			page 149


C:\Users\test\AppData\Local\Temp\ccx0JFmY.s:2792   .text.timer_channel_capture_value_register_read:0000000000000024 .L169
C:\Users\test\AppData\Local\Temp\ccx0JFmY.s:2784   .text.timer_channel_capture_value_register_read:0000000000000020 .L170
C:\Users\test\AppData\Local\Temp\ccx0JFmY.s:2770   .text.timer_channel_capture_value_register_read:0000000000000018 .L173
C:\Users\test\AppData\Local\Temp\ccx0JFmY.s:3003   .text.timer_input_pwm_capture_config:00000000000000da .L177
C:\Users\test\AppData\Local\Temp\ccx0JFmY.s:3190   .text.timer_hall_mode_config:0000000000000014 .L184
C:\Users\test\AppData\Local\Temp\ccx0JFmY.s:3187   .text.timer_hall_mode_config:0000000000000012 .L181
C:\Users\test\AppData\Local\Temp\ccx0JFmY.s:3300   .text.timer_master_slave_mode_config:0000000000000014 .L191
C:\Users\test\AppData\Local\Temp\ccx0JFmY.s:3297   .text.timer_master_slave_mode_config:0000000000000012 .L188
C:\Users\test\AppData\Local\Temp\ccx0JFmY.s:3555   .text.timer_external_trigger_as_external_clock_config:000000000000005e .L199
C:\Users\test\AppData\Local\Temp\ccx0JFmY.s:3523   .text.timer_external_trigger_as_external_clock_config:0000000000000040 .L198
C:\Users\test\AppData\Local\Temp\ccx0JFmY.s:3814   .text.timer_interrupt_flag_get:0000000000000010 .L205
C:\Users\test\AppData\Local\Temp\ccx0JFmY.s:7021   .debug_abbrev:0000000000000000 .Ldebug_abbrev0
C:\Users\test\AppData\Local\Temp\ccx0JFmY.s:10099  .debug_str:00000000000007a8 .LASF192
C:\Users\test\AppData\Local\Temp\ccx0JFmY.s:10037  .debug_str:000000000000051e .LASF193
C:\Users\test\AppData\Local\Temp\ccx0JFmY.s:10199  .debug_str:0000000000000ba3 .LASF194
C:\Users\test\AppData\Local\Temp\ccx0JFmY.s:9739   .debug_ranges:0000000000000000 .Ldebug_ranges0
C:\Users\test\AppData\Local\Temp\ccx0JFmY.s:9901   .debug_line:0000000000000000 .Ldebug_line0
C:\Users\test\AppData\Local\Temp\ccx0JFmY.s:9925   .debug_str:00000000000000c2 .LASF0
C:\Users\test\AppData\Local\Temp\ccx0JFmY.s:10269  .debug_str:0000000000000dbd .LASF1
C:\Users\test\AppData\Local\Temp\ccx0JFmY.s:10181  .debug_str:0000000000000b0f .LASF4
C:\Users\test\AppData\Local\Temp\ccx0JFmY.s:10233  .debug_str:0000000000000cc5 .LASF2
C:\Users\test\AppData\Local\Temp\ccx0JFmY.s:10151  .debug_str:0000000000000a2f .LASF3
C:\Users\test\AppData\Local\Temp\ccx0JFmY.s:9995   .debug_str:0000000000000344 .LASF5
C:\Users\test\AppData\Local\Temp\ccx0JFmY.s:10277  .debug_str:0000000000000de5 .LASF6
C:\Users\test\AppData\Local\Temp\ccx0JFmY.s:10155  .debug_str:0000000000000a43 .LASF7
C:\Users\test\AppData\Local\Temp\ccx0JFmY.s:10237  .debug_str:0000000000000cdf .LASF8
C:\Users\test\AppData\Local\Temp\ccx0JFmY.s:10209  .debug_str:0000000000000c05 .LASF9
C:\Users\test\AppData\Local\Temp\ccx0JFmY.s:10083  .debug_str:0000000000000706 .LASF10
C:\Users\test\AppData\Local\Temp\ccx0JFmY.s:9985   .debug_str:00000000000002cc .LASF11
C:\Users\test\AppData\Local\Temp\ccx0JFmY.s:10065  .debug_str:0000000000000663 .LASF12
C:\Users\test\AppData\Local\Temp\ccx0JFmY.s:10135  .debug_str:000000000000099e .LASF13
C:\Users\test\AppData\Local\Temp\ccx0JFmY.s:9961   .debug_str:0000000000000220 .LASF14
C:\Users\test\AppData\Local\Temp\ccx0JFmY.s:9907   .debug_str:000000000000001f .LASF195
C:\Users\test\AppData\Local\Temp\ccx0JFmY.s:10049  .debug_str:00000000000005a8 .LASF15
C:\Users\test\AppData\Local\Temp\ccx0JFmY.s:10203  .debug_str:0000000000000bdd .LASF16
C:\Users\test\AppData\Local\Temp\ccx0JFmY.s:10197  .debug_str:0000000000000b95 .LASF17
C:\Users\test\AppData\Local\Temp\ccx0JFmY.s:10169  .debug_str:0000000000000ac4 .LASF18
C:\Users\test\AppData\Local\Temp\ccx0JFmY.s:9935   .debug_str:0000000000000124 .LASF19
C:\Users\test\AppData\Local\Temp\ccx0JFmY.s:10067  .debug_str:000000000000066b .LASF20
C:\Users\test\AppData\Local\Temp\ccx0JFmY.s:10015  .debug_str:0000000000000435 .LASF21
C:\Users\test\AppData\Local\Temp\ccx0JFmY.s:10265  .debug_str:0000000000000da2 .LASF22
C:\Users\test\AppData\Local\Temp\ccx0JFmY.s:10075  .debug_str:00000000000006ad .LASF23
C:\Users\test\AppData\Local\Temp\ccx0JFmY.s:9919   .debug_str:000000000000008e .LASF24
C:\Users\test\AppData\Local\Temp\ccx0JFmY.s:10137  .debug_str:00000000000009a7 .LASF25
C:\Users\test\AppData\Local\Temp\ccx0JFmY.s:9969   .debug_str:0000000000000257 .LASF26
C:\Users\test\AppData\Local\Temp\ccx0JFmY.s:10245  .debug_str:0000000000000d18 .LASF27
C:\Users\test\AppData\Local\Temp\ccx0JFmY.s:9927   .debug_str:00000000000000cf .LASF28
C:\Users\test\AppData\Local\Temp\ccx0JFmY.s:10149  .debug_str:0000000000000a23 .LASF29
C:\Users\test\AppData\Local\Temp\ccx0JFmY.s:10201  .debug_str:0000000000000bcf .LASF30
C:\Users\test\AppData\Local\Temp\ccx0JFmY.s:10021  .debug_str:000000000000045c .LASF31
C:\Users\test\AppData\Local\Temp\ccx0JFmY.s:10189  .debug_str:0000000000000b40 .LASF32
C:\Users\test\AppData\Local\Temp\ccx0JFmY.s:10017  .debug_str:0000000000000443 .LASF33
C:\Users\test\AppData\Local\Temp\ccx0JFmY.s:10243  .debug_str:0000000000000d0c .LASF34
C:\Users\test\AppData\Local\Temp\ccx0JFmY.s:10057  .debug_str:00000000000005fa .LASF35
C:\Users\test\AppData\Local\Temp\ccx0JFmY.s:10157  .debug_str:0000000000000a4c .LASF36
C:\Users\test\AppData\Local\Temp\ccx0JFmY.s:9997   .debug_str:000000000000034f .LASF37
C:\Users\test\AppData\Local\Temp\ccx0JFmY.s:10279  .debug_str:0000000000000df8 .LASF38
GAS LISTING C:\Users\test\AppData\Local\Temp\ccx0JFmY.s 			page 150


C:\Users\test\AppData\Local\Temp\ccx0JFmY.s:10089  .debug_str:0000000000000741 .LASF39
C:\Users\test\AppData\Local\Temp\ccx0JFmY.s:9923   .debug_str:00000000000000b7 .LASF40
C:\Users\test\AppData\Local\Temp\ccx0JFmY.s:10153  .debug_str:0000000000000a39 .LASF41
C:\Users\test\AppData\Local\Temp\ccx0JFmY.s:10069  .debug_str:0000000000000678 .LASF42
C:\Users\test\AppData\Local\Temp\ccx0JFmY.s:9911   .debug_str:0000000000000049 .LASF43
C:\Users\test\AppData\Local\Temp\ccx0JFmY.s:10131  .debug_str:0000000000000988 .LASF44
C:\Users\test\AppData\Local\Temp\ccx0JFmY.s:9959   .debug_str:0000000000000213 .LASF45
C:\Users\test\AppData\Local\Temp\ccx0JFmY.s:10225  .debug_str:0000000000000c84 .LASF46
C:\Users\test\AppData\Local\Temp\ccx0JFmY.s:10009  .debug_str:000000000000040c .LASF47
C:\Users\test\AppData\Local\Temp\ccx0JFmY.s:10261  .debug_str:0000000000000d90 .LASF48
C:\Users\test\AppData\Local\Temp\ccx0JFmY.s:10183  .debug_str:0000000000000b19 .LASF49
C:\Users\test\AppData\Local\Temp\ccx0JFmY.s:10095  .debug_str:000000000000077e .LASF50
C:\Users\test\AppData\Local\Temp\ccx0JFmY.s:9963   .debug_str:0000000000000229 .LASF51
C:\Users\test\AppData\Local\Temp\ccx0JFmY.s:10119  .debug_str:00000000000008da .LASF52
C:\Users\test\AppData\Local\Temp\ccx0JFmY.s:10019  .debug_str:0000000000000450 .LASF53
C:\Users\test\AppData\Local\Temp\ccx0JFmY.s:10121  .debug_str:00000000000008e4 .LASF54
C:\Users\test\AppData\Local\Temp\ccx0JFmY.s:10271  .debug_str:0000000000000dc9 .LASF55
C:\Users\test\AppData\Local\Temp\ccx0JFmY.s:9953   .debug_str:00000000000001e2 .LASF56
C:\Users\test\AppData\Local\Temp\ccx0JFmY.s:10093  .debug_str:000000000000076c .LASF57
C:\Users\test\AppData\Local\Temp\ccx0JFmY.s:10027  .debug_str:0000000000000498 .LASF58
C:\Users\test\AppData\Local\Temp\ccx0JFmY.s:10013  .debug_str:0000000000000429 .LASF59
C:\Users\test\AppData\Local\Temp\ccx0JFmY.s:10115  .debug_str:00000000000008c1 .LASF60
C:\Users\test\AppData\Local\Temp\ccx0JFmY.s:10219  .debug_str:0000000000000c68 .LASF61
C:\Users\test\AppData\Local\Temp\ccx0JFmY.s:9993   .debug_str:0000000000000336 .LASF62
C:\Users\test\AppData\Local\Temp\ccx0JFmY.s:10063  .debug_str:0000000000000653 .LASF63
C:\Users\test\AppData\Local\Temp\ccx0JFmY.s:10235  .debug_str:0000000000000cd3 .LASF64
C:\Users\test\AppData\Local\Temp\ccx0JFmY.s:10227  .debug_str:0000000000000c91 .LASF65
C:\Users\test\AppData\Local\Temp\ccx0JFmY.s:10173  .debug_str:0000000000000acf .LASF66
C:\Users\test\AppData\Local\Temp\ccx0JFmY.s:10175  .debug_str:0000000000000aec .LASF67
C:\Users\test\AppData\Local\Temp\ccx0JFmY.s:9971   .debug_str:0000000000000265 .LASF68
C:\Users\test\AppData\Local\Temp\ccx0JFmY.s:9979   .debug_str:000000000000028b .LASF69
C:\Users\test\AppData\Local\Temp\ccx0JFmY.s:10287  .debug_str:0000000000000e36 .LASF70
C:\Users\test\AppData\Local\Temp\ccx0JFmY.s:10289  .debug_str:0000000000000e42 .LASF71
C:\Users\test\AppData\Local\Temp\ccx0JFmY.s:10267  .debug_str:0000000000000db0 .LASF72
C:\Users\test\AppData\Local\Temp\ccx0JFmY.s:9987   .debug_str:00000000000002e3 .LASF73
C:\Users\test\AppData\Local\Temp\ccx0JFmY.s:10247  .debug_str:0000000000000d25 .LASF74
C:\Users\test\AppData\Local\Temp\ccx0JFmY.s:10117  .debug_str:00000000000008ce .LASF75
C:\Users\test\AppData\Local\Temp\ccx0JFmY.s:10211  .debug_str:0000000000000c17 .LASF76
C:\Users\test\AppData\Local\Temp\ccx0JFmY.s:10281  .debug_str:0000000000000e04 .LASF77
C:\Users\test\AppData\Local\Temp\ccx0JFmY.s:9949   .debug_str:00000000000001b0 .LASF78
C:\Users\test\AppData\Local\Temp\ccx0JFmY.s:10191  .debug_str:0000000000000b4d .LASF196
C:\Users\test\AppData\Local\Temp\ccx0JFmY.s:10041  .debug_str:000000000000055b .LASF79
C:\Users\test\AppData\Local\Temp\ccx0JFmY.s:10171  .debug_str:0000000000000aca .LASF80
C:\Users\test\AppData\Local\Temp\ccx0JFmY.s:10187  .debug_str:0000000000000b31 .LASF82
C:\Users\test\AppData\Local\Temp\ccx0JFmY.s:3845   .text.timer_flag_get:0000000000000000 .LFB69
C:\Users\test\AppData\Local\Temp\ccx0JFmY.s:3859   .text.timer_flag_get:000000000000000a .LFE69
C:\Users\test\AppData\Local\Temp\ccx0JFmY.s:7783   .debug_loc:0000000000000000 .LLST79
C:\Users\test\AppData\Local\Temp\ccx0JFmY.s:9921   .debug_str:000000000000009c .LASF101
C:\Users\test\AppData\Local\Temp\ccx0JFmY.s:10205  .debug_str:0000000000000be4 .LASF81
C:\Users\test\AppData\Local\Temp\ccx0JFmY.s:9983   .debug_str:00000000000002b3 .LASF83
C:\Users\test\AppData\Local\Temp\ccx0JFmY.s:3792   .text.timer_interrupt_flag_get:0000000000000000 .LFB67
C:\Users\test\AppData\Local\Temp\ccx0JFmY.s:3818   .text.timer_interrupt_flag_get:0000000000000012 .LFE67
C:\Users\test\AppData\Local\Temp\ccx0JFmY.s:7797   .debug_loc:0000000000000021 .LLST76
C:\Users\test\AppData\Local\Temp\ccx0JFmY.s:7811   .debug_loc:0000000000000042 .LLST77
C:\Users\test\AppData\Local\Temp\ccx0JFmY.s:10101  .debug_str:0000000000000822 .LASF84
C:\Users\test\AppData\Local\Temp\ccx0JFmY.s:3768   .text.timer_interrupt_disable:0000000000000000 .LFB66
C:\Users\test\AppData\Local\Temp\ccx0JFmY.s:3785   .text.timer_interrupt_disable:000000000000000c .LFE66
GAS LISTING C:\Users\test\AppData\Local\Temp\ccx0JFmY.s 			page 151


C:\Users\test\AppData\Local\Temp\ccx0JFmY.s:7836   .debug_loc:0000000000000075 .LLST75
C:\Users\test\AppData\Local\Temp\ccx0JFmY.s:10207  .debug_str:0000000000000bee .LASF85
C:\Users\test\AppData\Local\Temp\ccx0JFmY.s:3748   .text.timer_interrupt_enable:0000000000000000 .LFB65
C:\Users\test\AppData\Local\Temp\ccx0JFmY.s:3761   .text.timer_interrupt_enable:0000000000000008 .LFE65
C:\Users\test\AppData\Local\Temp\ccx0JFmY.s:7857   .debug_loc:00000000000000a4 .LLST74
C:\Users\test\AppData\Local\Temp\ccx0JFmY.s:9941   .debug_str:000000000000013e .LASF86
C:\Users\test\AppData\Local\Temp\ccx0JFmY.s:3727   .text.timer_external_clock_mode1_disable:0000000000000000 .LFB64
C:\Users\test\AppData\Local\Temp\ccx0JFmY.s:3741   .text.timer_external_clock_mode1_disable:000000000000000c .LFE64
C:\Users\test\AppData\Local\Temp\ccx0JFmY.s:9989   .debug_str:00000000000002fd .LASF87
C:\Users\test\AppData\Local\Temp\ccx0JFmY.s:3671   .text.timer_external_clock_mode1_config:0000000000000000 .LFB63
C:\Users\test\AppData\Local\Temp\ccx0JFmY.s:3720   .text.timer_external_clock_mode1_config:0000000000000026 .LFE63
C:\Users\test\AppData\Local\Temp\ccx0JFmY.s:10221  .debug_str:0000000000000c71 .LASF88
C:\Users\test\AppData\Local\Temp\ccx0JFmY.s:10029  .debug_str:00000000000004af .LASF89
C:\Users\test\AppData\Local\Temp\ccx0JFmY.s:7871   .debug_loc:00000000000000c5 .LLST68
C:\Users\test\AppData\Local\Temp\ccx0JFmY.s:10073  .debug_str:00000000000006a3 .LASF90
C:\Users\test\AppData\Local\Temp\ccx0JFmY.s:7885   .debug_loc:00000000000000e6 .LLST69
C:\Users\test\AppData\Local\Temp\ccx0JFmY.s:3676   .text.timer_external_clock_mode1_config:0000000000000000 .LBB38
C:\Users\test\AppData\Local\Temp\ccx0JFmY.s:7899   .debug_loc:0000000000000107 .LLST70
C:\Users\test\AppData\Local\Temp\ccx0JFmY.s:7913   .debug_loc:0000000000000128 .LLST71
C:\Users\test\AppData\Local\Temp\ccx0JFmY.s:7927   .debug_loc:0000000000000149 .LLST72
C:\Users\test\AppData\Local\Temp\ccx0JFmY.s:7934   .debug_loc:000000000000015c .LLST73
C:\Users\test\AppData\Local\Temp\ccx0JFmY.s:10255  .debug_str:0000000000000d59 .LASF91
C:\Users\test\AppData\Local\Temp\ccx0JFmY.s:3617   .text.timer_external_clock_mode0_config:0000000000000000 .LFB62
C:\Users\test\AppData\Local\Temp\ccx0JFmY.s:3664   .text.timer_external_clock_mode0_config:000000000000002e .LFE62
C:\Users\test\AppData\Local\Temp\ccx0JFmY.s:7941   .debug_loc:000000000000016f .LLST62
C:\Users\test\AppData\Local\Temp\ccx0JFmY.s:7955   .debug_loc:0000000000000190 .LLST63
C:\Users\test\AppData\Local\Temp\ccx0JFmY.s:3622   .text.timer_external_clock_mode0_config:0000000000000000 .LBB36
C:\Users\test\AppData\Local\Temp\ccx0JFmY.s:3650   .text.timer_external_clock_mode0_config:000000000000001c .LBE36
C:\Users\test\AppData\Local\Temp\ccx0JFmY.s:7969   .debug_loc:00000000000001b1 .LLST64
C:\Users\test\AppData\Local\Temp\ccx0JFmY.s:7983   .debug_loc:00000000000001d2 .LLST65
C:\Users\test\AppData\Local\Temp\ccx0JFmY.s:7997   .debug_loc:00000000000001f3 .LLST66
C:\Users\test\AppData\Local\Temp\ccx0JFmY.s:8004   .debug_loc:0000000000000206 .LLST67
C:\Users\test\AppData\Local\Temp\ccx0JFmY.s:10147  .debug_str:00000000000009f3 .LASF92
C:\Users\test\AppData\Local\Temp\ccx0JFmY.s:3470   .text.timer_external_trigger_as_external_clock_config:0000000000000000 .LFB61
C:\Users\test\AppData\Local\Temp\ccx0JFmY.s:3610   .text.timer_external_trigger_as_external_clock_config:00000000000000a0 .LFE61
C:\Users\test\AppData\Local\Temp\ccx0JFmY.s:10231  .debug_str:0000000000000cbb .LASF93
C:\Users\test\AppData\Local\Temp\ccx0JFmY.s:8011   .debug_loc:0000000000000219 .LLST57
C:\Users\test\AppData\Local\Temp\ccx0JFmY.s:8029   .debug_loc:0000000000000245 .LLST58
C:\Users\test\AppData\Local\Temp\ccx0JFmY.s:8054   .debug_loc:000000000000027f .LLST59
C:\Users\test\AppData\Local\Temp\ccx0JFmY.s:3526   .text.timer_external_trigger_as_external_clock_config:0000000000000040 .LBB34
C:\Users\test\AppData\Local\Temp\ccx0JFmY.s:3541   .text.timer_external_trigger_as_external_clock_config:000000000000004e .LBE34
C:\Users\test\AppData\Local\Temp\ccx0JFmY.s:8079   .debug_loc:00000000000002b9 .LLST60
C:\Users\test\AppData\Local\Temp\ccx0JFmY.s:8093   .debug_loc:00000000000002da .LLST61
C:\Users\test\AppData\Local\Temp\ccx0JFmY.s:10123  .debug_str:00000000000008f5 .LASF94
C:\Users\test\AppData\Local\Temp\ccx0JFmY.s:3429   .text.timer_internal_trigger_as_external_clock_config:0000000000000000 .LFB60
C:\Users\test\AppData\Local\Temp\ccx0JFmY.s:3463   .text.timer_internal_trigger_as_external_clock_config:000000000000001e .LFE60
C:\Users\test\AppData\Local\Temp\ccx0JFmY.s:10111  .debug_str:0000000000000896 .LASF95
C:\Users\test\AppData\Local\Temp\ccx0JFmY.s:8100   .debug_loc:00000000000002ed .LLST54
C:\Users\test\AppData\Local\Temp\ccx0JFmY.s:3434   .text.timer_internal_trigger_as_external_clock_config:0000000000000000 .LBB32
C:\Users\test\AppData\Local\Temp\ccx0JFmY.s:3449   .text.timer_internal_trigger_as_external_clock_config:000000000000000e .LBE32
C:\Users\test\AppData\Local\Temp\ccx0JFmY.s:8114   .debug_loc:000000000000030e .LLST55
C:\Users\test\AppData\Local\Temp\ccx0JFmY.s:8128   .debug_loc:000000000000032f .LLST56
C:\Users\test\AppData\Local\Temp\ccx0JFmY.s:10167  .debug_str:0000000000000aa8 .LASF96
C:\Users\test\AppData\Local\Temp\ccx0JFmY.s:3410   .text.timer_internal_clock_config:0000000000000000 .LFB59
C:\Users\test\AppData\Local\Temp\ccx0JFmY.s:3422   .text.timer_internal_clock_config:0000000000000008 .LFE59
C:\Users\test\AppData\Local\Temp\ccx0JFmY.s:10007  .debug_str:00000000000003e7 .LASF97
C:\Users\test\AppData\Local\Temp\ccx0JFmY.s:3353   .text.timer_quadrature_decoder_mode_config:0000000000000000 .LFB58
GAS LISTING C:\Users\test\AppData\Local\Temp\ccx0JFmY.s 			page 152


C:\Users\test\AppData\Local\Temp\ccx0JFmY.s:3403   .text.timer_quadrature_decoder_mode_config:0000000000000036 .LFE58
C:\Users\test\AppData\Local\Temp\ccx0JFmY.s:10259  .debug_str:0000000000000d87 .LASF98
C:\Users\test\AppData\Local\Temp\ccx0JFmY.s:8135   .debug_loc:0000000000000342 .LLST51
C:\Users\test\AppData\Local\Temp\ccx0JFmY.s:9967   .debug_str:000000000000024b .LASF99
C:\Users\test\AppData\Local\Temp\ccx0JFmY.s:8149   .debug_loc:0000000000000363 .LLST52
C:\Users\test\AppData\Local\Temp\ccx0JFmY.s:10085  .debug_str:0000000000000714 .LASF100
C:\Users\test\AppData\Local\Temp\ccx0JFmY.s:8163   .debug_loc:0000000000000384 .LLST53
C:\Users\test\AppData\Local\Temp\ccx0JFmY.s:10035  .debug_str:0000000000000500 .LASF102
C:\Users\test\AppData\Local\Temp\ccx0JFmY.s:10229  .debug_str:0000000000000c9c .LASF103
C:\Users\test\AppData\Local\Temp\ccx0JFmY.s:3280   .text.timer_master_slave_mode_config:0000000000000000 .LFB56
C:\Users\test\AppData\Local\Temp\ccx0JFmY.s:3308   .text.timer_master_slave_mode_config:000000000000001e .LFE56
C:\Users\test\AppData\Local\Temp\ccx0JFmY.s:10257  .debug_str:0000000000000d7b .LASF104
C:\Users\test\AppData\Local\Temp\ccx0JFmY.s:9951   .debug_str:00000000000001ca .LASF105
C:\Users\test\AppData\Local\Temp\ccx0JFmY.s:3255   .text.timer_slave_mode_select:0000000000000000 .LFB55
C:\Users\test\AppData\Local\Temp\ccx0JFmY.s:3273   .text.timer_slave_mode_select:000000000000000e .LFE55
C:\Users\test\AppData\Local\Temp\ccx0JFmY.s:9957   .debug_str:0000000000000209 .LASF106
C:\Users\test\AppData\Local\Temp\ccx0JFmY.s:8177   .debug_loc:00000000000003a5 .LLST48
C:\Users\test\AppData\Local\Temp\ccx0JFmY.s:10129  .debug_str:000000000000095e .LASF107
C:\Users\test\AppData\Local\Temp\ccx0JFmY.s:3230   .text.timer_master_output_trigger_source_select:0000000000000000 .LFB54
C:\Users\test\AppData\Local\Temp\ccx0JFmY.s:3248   .text.timer_master_output_trigger_source_select:0000000000000010 .LFE54
C:\Users\test\AppData\Local\Temp\ccx0JFmY.s:10105  .debug_str:000000000000085b .LASF108
C:\Users\test\AppData\Local\Temp\ccx0JFmY.s:8191   .debug_loc:00000000000003c6 .LLST47
C:\Users\test\AppData\Local\Temp\ccx0JFmY.s:9931   .debug_str:00000000000000e7 .LASF109
C:\Users\test\AppData\Local\Temp\ccx0JFmY.s:10165  .debug_str:0000000000000a91 .LASF110
C:\Users\test\AppData\Local\Temp\ccx0JFmY.s:3170   .text.timer_hall_mode_config:0000000000000000 .LFB52
C:\Users\test\AppData\Local\Temp\ccx0JFmY.s:3198   .text.timer_hall_mode_config:000000000000001e .LFE52
C:\Users\test\AppData\Local\Temp\ccx0JFmY.s:10107  .debug_str:0000000000000865 .LASF111
C:\Users\test\AppData\Local\Temp\ccx0JFmY.s:10003  .debug_str:00000000000003a0 .LASF112
C:\Users\test\AppData\Local\Temp\ccx0JFmY.s:2807   .text.timer_input_pwm_capture_config:0000000000000000 .LFB51
C:\Users\test\AppData\Local\Temp\ccx0JFmY.s:3163   .text.timer_input_pwm_capture_config:0000000000000182 .LFE51
C:\Users\test\AppData\Local\Temp\ccx0JFmY.s:8205   .debug_loc:00000000000003e7 .LLST30
C:\Users\test\AppData\Local\Temp\ccx0JFmY.s:8233   .debug_loc:000000000000042b .LLST31
C:\Users\test\AppData\Local\Temp\ccx0JFmY.s:10143  .debug_str:00000000000009e3 .LASF113
C:\Users\test\AppData\Local\Temp\ccx0JFmY.s:8258   .debug_loc:0000000000000465 .LLST32
C:\Users\test\AppData\Local\Temp\ccx0JFmY.s:10223  .debug_str:0000000000000c7e .LASF114
C:\Users\test\AppData\Local\Temp\ccx0JFmY.s:8283   .debug_loc:000000000000049f .LLST33
C:\Users\test\AppData\Local\Temp\ccx0JFmY.s:8312   .debug_loc:00000000000004e4 .LLST34
C:\Users\test\AppData\Local\Temp\ccx0JFmY.s:8320   .debug_loc:00000000000004f8 .LLST35
C:\Users\test\AppData\Local\Temp\ccx0JFmY.s:2861   .text.timer_input_pwm_capture_config:0000000000000038 .LBB18
C:\Users\test\AppData\Local\Temp\ccx0JFmY.s:8328   .debug_loc:000000000000050c .LLST36
C:\Users\test\AppData\Local\Temp\ccx0JFmY.s:8339   .debug_loc:0000000000000523 .LLST37
C:\Users\test\AppData\Local\Temp\ccx0JFmY.s:8347   .debug_loc:0000000000000537 .LLST38
C:\Users\test\AppData\Local\Temp\ccx0JFmY.s:3002   .text.timer_input_pwm_capture_config:00000000000000da .LVL181
C:\Users\test\AppData\Local\Temp\ccx0JFmY.s:2916   .text.timer_input_pwm_capture_config:0000000000000078 .LBB22
C:\Users\test\AppData\Local\Temp\ccx0JFmY.s:2932   .text.timer_input_pwm_capture_config:0000000000000088 .LBE22
C:\Users\test\AppData\Local\Temp\ccx0JFmY.s:8361   .debug_loc:0000000000000558 .LLST39
C:\Users\test\AppData\Local\Temp\ccx0JFmY.s:8372   .debug_loc:000000000000056f .LLST40
C:\Users\test\AppData\Local\Temp\ccx0JFmY.s:8380   .debug_loc:0000000000000583 .LLST41
C:\Users\test\AppData\Local\Temp\ccx0JFmY.s:3019   .text.timer_input_pwm_capture_config:00000000000000e6 .LBB26
C:\Users\test\AppData\Local\Temp\ccx0JFmY.s:8387   .debug_loc:0000000000000596 .LLST42
C:\Users\test\AppData\Local\Temp\ccx0JFmY.s:8395   .debug_loc:00000000000005aa .LLST43
C:\Users\test\AppData\Local\Temp\ccx0JFmY.s:8403   .debug_loc:00000000000005be .LLST44
C:\Users\test\AppData\Local\Temp\ccx0JFmY.s:3069   .text.timer_input_pwm_capture_config:0000000000000126 .LVL184
C:\Users\test\AppData\Local\Temp\ccx0JFmY.s:3138   .text.timer_input_pwm_capture_config:0000000000000170 .LBB30
C:\Users\test\AppData\Local\Temp\ccx0JFmY.s:3153   .text.timer_input_pwm_capture_config:000000000000017c .LBE30
C:\Users\test\AppData\Local\Temp\ccx0JFmY.s:8410   .debug_loc:00000000000005d1 .LLST45
C:\Users\test\AppData\Local\Temp\ccx0JFmY.s:9947   .debug_str:0000000000000186 .LASF115
GAS LISTING C:\Users\test\AppData\Local\Temp\ccx0JFmY.s 			page 153


C:\Users\test\AppData\Local\Temp\ccx0JFmY.s:2748   .text.timer_channel_capture_value_register_read:0000000000000000 .LFB50
C:\Users\test\AppData\Local\Temp\ccx0JFmY.s:2800   .text.timer_channel_capture_value_register_read:0000000000000028 .LFE50
C:\Users\test\AppData\Local\Temp\ccx0JFmY.s:8424   .debug_loc:00000000000005f2 .LLST28
C:\Users\test\AppData\Local\Temp\ccx0JFmY.s:9929   .debug_str:00000000000000db .LASF116
C:\Users\test\AppData\Local\Temp\ccx0JFmY.s:8482   .debug_loc:0000000000000677 .LLST29
C:\Users\test\AppData\Local\Temp\ccx0JFmY.s:9999   .debug_str:000000000000035b .LASF117
C:\Users\test\AppData\Local\Temp\ccx0JFmY.s:10195  .debug_str:0000000000000b7a .LASF118
C:\Users\test\AppData\Local\Temp\ccx0JFmY.s:2468   .text.timer_input_capture_config:0000000000000000 .LFB48
C:\Users\test\AppData\Local\Temp\ccx0JFmY.s:2741   .text.timer_input_capture_config:0000000000000182 .LFE48
C:\Users\test\AppData\Local\Temp\ccx0JFmY.s:8521   .debug_loc:00000000000006db .LLST25
C:\Users\test\AppData\Local\Temp\ccx0JFmY.s:8568   .debug_loc:0000000000000747 .LLST26
C:\Users\test\AppData\Local\Temp\ccx0JFmY.s:9973   .debug_str:0000000000000272 .LASF119
C:\Users\test\AppData\Local\Temp\ccx0JFmY.s:8615   .debug_loc:00000000000007b3 .LLST27
C:\Users\test\AppData\Local\Temp\ccx0JFmY.s:2549   .text.timer_input_capture_config:0000000000000074 .LVL156
C:\Users\test\AppData\Local\Temp\ccx0JFmY.s:2615   .text.timer_input_capture_config:00000000000000cc .LVL158
C:\Users\test\AppData\Local\Temp\ccx0JFmY.s:2680   .text.timer_input_capture_config:000000000000012a .LVL160
C:\Users\test\AppData\Local\Temp\ccx0JFmY.s:2739   .text.timer_input_capture_config:0000000000000182 .LVL162
C:\Users\test\AppData\Local\Temp\ccx0JFmY.s:10023  .debug_str:000000000000046a .LASF120
C:\Users\test\AppData\Local\Temp\ccx0JFmY.s:2362   .text.timer_channel_input_struct_para_init:0000000000000000 .LFB47
C:\Users\test\AppData\Local\Temp\ccx0JFmY.s:2383   .text.timer_channel_input_struct_para_init:0000000000000014 .LFE47
C:\Users\test\AppData\Local\Temp\ccx0JFmY.s:10291  .debug_str:0000000000000e4e .LASF121
C:\Users\test\AppData\Local\Temp\ccx0JFmY.s:2292   .text.timer_channel_complementary_output_state_config:0000000000000000 .LFB46
C:\Users\test\AppData\Local\Temp\ccx0JFmY.s:2355   .text.timer_channel_complementary_output_state_config:0000000000000042 .LFE46
C:\Users\test\AppData\Local\Temp\ccx0JFmY.s:10133  .debug_str:0000000000000995 .LASF122
C:\Users\test\AppData\Local\Temp\ccx0JFmY.s:8662   .debug_loc:000000000000081f .LLST21
C:\Users\test\AppData\Local\Temp\ccx0JFmY.s:10051  .debug_str:00000000000005b0 .LASF123
C:\Users\test\AppData\Local\Temp\ccx0JFmY.s:2200   .text.timer_channel_output_state_config:0000000000000000 .LFB45
C:\Users\test\AppData\Local\Temp\ccx0JFmY.s:2285   .text.timer_channel_output_state_config:000000000000005a .LFE45
C:\Users\test\AppData\Local\Temp\ccx0JFmY.s:10249  .debug_str:0000000000000d30 .LASF124
C:\Users\test\AppData\Local\Temp\ccx0JFmY.s:8698   .debug_loc:0000000000000872 .LLST20
C:\Users\test\AppData\Local\Temp\ccx0JFmY.s:10031  .debug_str:00000000000004bb .LASF125
C:\Users\test\AppData\Local\Temp\ccx0JFmY.s:2128   .text.timer_channel_complementary_output_polarity_config:0000000000000000 .LFB44
C:\Users\test\AppData\Local\Temp\ccx0JFmY.s:2193   .text.timer_channel_complementary_output_polarity_config:0000000000000046 .LFE44
C:\Users\test\AppData\Local\Temp\ccx0JFmY.s:8745   .debug_loc:00000000000008de .LLST19
C:\Users\test\AppData\Local\Temp\ccx0JFmY.s:10139  .debug_str:00000000000009b5 .LASF126
C:\Users\test\AppData\Local\Temp\ccx0JFmY.s:2036   .text.timer_channel_output_polarity_config:0000000000000000 .LFB43
C:\Users\test\AppData\Local\Temp\ccx0JFmY.s:2121   .text.timer_channel_output_polarity_config:000000000000005c .LFE43
C:\Users\test\AppData\Local\Temp\ccx0JFmY.s:8781   .debug_loc:0000000000000931 .LLST18
C:\Users\test\AppData\Local\Temp\ccx0JFmY.s:10061  .debug_str:0000000000000631 .LASF127
C:\Users\test\AppData\Local\Temp\ccx0JFmY.s:1945   .text.timer_channel_output_clear_config:0000000000000000 .LFB42
C:\Users\test\AppData\Local\Temp\ccx0JFmY.s:2029   .text.timer_channel_output_clear_config:000000000000005e .LFE42
C:\Users\test\AppData\Local\Temp\ccx0JFmY.s:10145  .debug_str:00000000000009eb .LASF128
C:\Users\test\AppData\Local\Temp\ccx0JFmY.s:8828   .debug_loc:000000000000099d .LLST17
C:\Users\test\AppData\Local\Temp\ccx0JFmY.s:10087  .debug_str:0000000000000720 .LASF129
C:\Users\test\AppData\Local\Temp\ccx0JFmY.s:1858   .text.timer_channel_output_fast_config:0000000000000000 .LFB41
C:\Users\test\AppData\Local\Temp\ccx0JFmY.s:1938   .text.timer_channel_output_fast_config:0000000000000056 .LFE41
C:\Users\test\AppData\Local\Temp\ccx0JFmY.s:9945   .debug_str:000000000000017f .LASF130
C:\Users\test\AppData\Local\Temp\ccx0JFmY.s:8875   .debug_loc:0000000000000a09 .LLST16
C:\Users\test\AppData\Local\Temp\ccx0JFmY.s:10161  .debug_str:0000000000000a65 .LASF131
C:\Users\test\AppData\Local\Temp\ccx0JFmY.s:1767   .text.timer_channel_output_shadow_config:0000000000000000 .LFB40
C:\Users\test\AppData\Local\Temp\ccx0JFmY.s:1851   .text.timer_channel_output_shadow_config:000000000000005e .LFE40
C:\Users\test\AppData\Local\Temp\ccx0JFmY.s:10025  .debug_str:000000000000048f .LASF132
C:\Users\test\AppData\Local\Temp\ccx0JFmY.s:8922   .debug_loc:0000000000000a75 .LLST15
C:\Users\test\AppData\Local\Temp\ccx0JFmY.s:10005  .debug_str:00000000000003bf .LASF133
C:\Users\test\AppData\Local\Temp\ccx0JFmY.s:1721   .text.timer_channel_output_pulse_value_config:0000000000000000 .LFB39
C:\Users\test\AppData\Local\Temp\ccx0JFmY.s:1760   .text.timer_channel_output_pulse_value_config:0000000000000026 .LFE39
C:\Users\test\AppData\Local\Temp\ccx0JFmY.s:10263  .debug_str:0000000000000d9c .LASF134
GAS LISTING C:\Users\test\AppData\Local\Temp\ccx0JFmY.s 			page 154


C:\Users\test\AppData\Local\Temp\ccx0JFmY.s:10103  .debug_str:000000000000083a .LASF135
C:\Users\test\AppData\Local\Temp\ccx0JFmY.s:1630   .text.timer_channel_output_mode_config:0000000000000000 .LFB38
C:\Users\test\AppData\Local\Temp\ccx0JFmY.s:1714   .text.timer_channel_output_mode_config:000000000000005e .LFE38
C:\Users\test\AppData\Local\Temp\ccx0JFmY.s:10179  .debug_str:0000000000000b08 .LASF136
C:\Users\test\AppData\Local\Temp\ccx0JFmY.s:8969   .debug_loc:0000000000000ae1 .LLST14
C:\Users\test\AppData\Local\Temp\ccx0JFmY.s:10125  .debug_str:0000000000000925 .LASF137
C:\Users\test\AppData\Local\Temp\ccx0JFmY.s:1198   .text.timer_channel_output_config:0000000000000000 .LFB37
C:\Users\test\AppData\Local\Temp\ccx0JFmY.s:1623   .text.timer_channel_output_config:000000000000025c .LFE37
C:\Users\test\AppData\Local\Temp\ccx0JFmY.s:9016   .debug_loc:0000000000000b4d .LLST12
C:\Users\test\AppData\Local\Temp\ccx0JFmY.s:10239  .debug_str:0000000000000cea .LASF138
C:\Users\test\AppData\Local\Temp\ccx0JFmY.s:9056   .debug_loc:0000000000000bab .LLST13
C:\Users\test\AppData\Local\Temp\ccx0JFmY.s:10077  .debug_str:00000000000006bb .LASF139
C:\Users\test\AppData\Local\Temp\ccx0JFmY.s:1166   .text.timer_channel_output_struct_para_init:0000000000000000 .LFB36
C:\Users\test\AppData\Local\Temp\ccx0JFmY.s:1191   .text.timer_channel_output_struct_para_init:000000000000001a .LFE36
C:\Users\test\AppData\Local\Temp\ccx0JFmY.s:10059  .debug_str:0000000000000606 .LASF140
C:\Users\test\AppData\Local\Temp\ccx0JFmY.s:1129   .text.timer_channel_control_shadow_update_config:0000000000000000 .LFB35
C:\Users\test\AppData\Local\Temp\ccx0JFmY.s:1159   .text.timer_channel_control_shadow_update_config:000000000000001c .LFE35
C:\Users\test\AppData\Local\Temp\ccx0JFmY.s:10047  .debug_str:00000000000005a1 .LASF141
C:\Users\test\AppData\Local\Temp\ccx0JFmY.s:9913   .debug_str:0000000000000056 .LASF142
C:\Users\test\AppData\Local\Temp\ccx0JFmY.s:1099   .text.timer_channel_control_shadow_config:0000000000000000 .LFB34
C:\Users\test\AppData\Local\Temp\ccx0JFmY.s:1122   .text.timer_channel_control_shadow_config:0000000000000018 .LFE34
C:\Users\test\AppData\Local\Temp\ccx0JFmY.s:10141  .debug_str:00000000000009da .LASF143
C:\Users\test\AppData\Local\Temp\ccx0JFmY.s:10193  .debug_str:0000000000000b5e .LASF144
C:\Users\test\AppData\Local\Temp\ccx0JFmY.s:1066   .text.timer_primary_output_config:0000000000000000 .LFB33
C:\Users\test\AppData\Local\Temp\ccx0JFmY.s:1092   .text.timer_primary_output_config:000000000000001c .LFE33
C:\Users\test\AppData\Local\Temp\ccx0JFmY.s:10213  .debug_str:0000000000000c23 .LASF145
C:\Users\test\AppData\Local\Temp\ccx0JFmY.s:1045   .text.timer_automatic_output_disable:0000000000000000 .LFB32
C:\Users\test\AppData\Local\Temp\ccx0JFmY.s:1059   .text.timer_automatic_output_disable:000000000000000c .LFE32
C:\Users\test\AppData\Local\Temp\ccx0JFmY.s:10071  .debug_str:0000000000000685 .LASF146
C:\Users\test\AppData\Local\Temp\ccx0JFmY.s:1025   .text.timer_automatic_output_enable:0000000000000000 .LFB31
C:\Users\test\AppData\Local\Temp\ccx0JFmY.s:1038   .text.timer_automatic_output_enable:000000000000000a .LFE31
C:\Users\test\AppData\Local\Temp\ccx0JFmY.s:9965   .debug_str:0000000000000237 .LASF147
C:\Users\test\AppData\Local\Temp\ccx0JFmY.s:1004   .text.timer_break_disable:0000000000000000 .LFB30
C:\Users\test\AppData\Local\Temp\ccx0JFmY.s:1018   .text.timer_break_disable:000000000000000c .LFE30
C:\Users\test\AppData\Local\Temp\ccx0JFmY.s:10053  .debug_str:00000000000005d2 .LASF148
C:\Users\test\AppData\Local\Temp\ccx0JFmY.s:984    .text.timer_break_enable:0000000000000000 .LFB29
C:\Users\test\AppData\Local\Temp\ccx0JFmY.s:997    .text.timer_break_enable:000000000000000a .LFE29
C:\Users\test\AppData\Local\Temp\ccx0JFmY.s:10217  .debug_str:0000000000000c55 .LASF149
C:\Users\test\AppData\Local\Temp\ccx0JFmY.s:953    .text.timer_break_config:0000000000000000 .LFB28
C:\Users\test\AppData\Local\Temp\ccx0JFmY.s:977    .text.timer_break_config:000000000000002e .LFE28
C:\Users\test\AppData\Local\Temp\ccx0JFmY.s:10285  .debug_str:0000000000000e2c .LASF150
C:\Users\test\AppData\Local\Temp\ccx0JFmY.s:10127  .debug_str:0000000000000941 .LASF151
C:\Users\test\AppData\Local\Temp\ccx0JFmY.s:918    .text.timer_break_struct_para_init:0000000000000000 .LFB27
C:\Users\test\AppData\Local\Temp\ccx0JFmY.s:946    .text.timer_break_struct_para_init:000000000000001e .LFE27
C:\Users\test\AppData\Local\Temp\ccx0JFmY.s:10045  .debug_str:0000000000000583 .LASF152
C:\Users\test\AppData\Local\Temp\ccx0JFmY.s:898    .text.timer_event_software_generate:0000000000000000 .LFB26
C:\Users\test\AppData\Local\Temp\ccx0JFmY.s:911    .text.timer_event_software_generate:0000000000000008 .LFE26
C:\Users\test\AppData\Local\Temp\ccx0JFmY.s:9975   .debug_str:0000000000000279 .LASF153
C:\Users\test\AppData\Local\Temp\ccx0JFmY.s:9129   .debug_loc:0000000000000c54 .LLST11
C:\Users\test\AppData\Local\Temp\ccx0JFmY.s:9909   .debug_str:000000000000002f .LASF154
C:\Users\test\AppData\Local\Temp\ccx0JFmY.s:868    .text.timer_dma_transfer_config:0000000000000000 .LFB25
C:\Users\test\AppData\Local\Temp\ccx0JFmY.s:891    .text.timer_dma_transfer_config:0000000000000016 .LFE25
C:\Users\test\AppData\Local\Temp\ccx0JFmY.s:9917   .debug_str:0000000000000081 .LASF155
C:\Users\test\AppData\Local\Temp\ccx0JFmY.s:10273  .debug_str:0000000000000dd0 .LASF156
C:\Users\test\AppData\Local\Temp\ccx0JFmY.s:9143   .debug_loc:0000000000000c75 .LLST10
C:\Users\test\AppData\Local\Temp\ccx0JFmY.s:10109  .debug_str:000000000000086e .LASF157
C:\Users\test\AppData\Local\Temp\ccx0JFmY.s:833    .text.timer_channel_dma_request_source_select:0000000000000000 .LFB24
GAS LISTING C:\Users\test\AppData\Local\Temp\ccx0JFmY.s 			page 155


C:\Users\test\AppData\Local\Temp\ccx0JFmY.s:861    .text.timer_channel_dma_request_source_select:000000000000001a .LFE24
C:\Users\test\AppData\Local\Temp\ccx0JFmY.s:9977   .debug_str:000000000000027f .LASF158
C:\Users\test\AppData\Local\Temp\ccx0JFmY.s:10033  .debug_str:00000000000004ee .LASF159
C:\Users\test\AppData\Local\Temp\ccx0JFmY.s:810    .text.timer_dma_disable:0000000000000000 .LFB23
C:\Users\test\AppData\Local\Temp\ccx0JFmY.s:826    .text.timer_dma_disable:000000000000000c .LFE23
C:\Users\test\AppData\Local\Temp\ccx0JFmY.s:9157   .debug_loc:0000000000000c96 .LLST9
C:\Users\test\AppData\Local\Temp\ccx0JFmY.s:10011  .debug_str:0000000000000418 .LASF160
C:\Users\test\AppData\Local\Temp\ccx0JFmY.s:790    .text.timer_dma_enable:0000000000000000 .LFB22
C:\Users\test\AppData\Local\Temp\ccx0JFmY.s:803    .text.timer_dma_enable:0000000000000008 .LFE22
C:\Users\test\AppData\Local\Temp\ccx0JFmY.s:9171   .debug_loc:0000000000000cb7 .LLST8
C:\Users\test\AppData\Local\Temp\ccx0JFmY.s:9933   .debug_str:0000000000000109 .LASF161
C:\Users\test\AppData\Local\Temp\ccx0JFmY.s:755    .text.timer_update_source_config:0000000000000000 .LFB21
C:\Users\test\AppData\Local\Temp\ccx0JFmY.s:783    .text.timer_update_source_config:000000000000001a .LFE21
C:\Users\test\AppData\Local\Temp\ccx0JFmY.s:9939   .debug_str:0000000000000137 .LASF162
C:\Users\test\AppData\Local\Temp\ccx0JFmY.s:10283  .debug_str:0000000000000e0d .LASF163
C:\Users\test\AppData\Local\Temp\ccx0JFmY.s:720    .text.timer_single_pulse_mode_config:0000000000000000 .LFB20
C:\Users\test\AppData\Local\Temp\ccx0JFmY.s:748    .text.timer_single_pulse_mode_config:000000000000001a .LFE20
C:\Users\test\AppData\Local\Temp\ccx0JFmY.s:9915   .debug_str:000000000000007a .LASF164
C:\Users\test\AppData\Local\Temp\ccx0JFmY.s:10055  .debug_str:00000000000005e5 .LASF165
C:\Users\test\AppData\Local\Temp\ccx0JFmY.s:697    .text.timer_prescaler_read:0000000000000000 .LFB19
C:\Users\test\AppData\Local\Temp\ccx0JFmY.s:713    .text.timer_prescaler_read:0000000000000008 .LFE19
C:\Users\test\AppData\Local\Temp\ccx0JFmY.s:9185   .debug_loc:0000000000000cd8 .LLST6
C:\Users\test\AppData\Local\Temp\ccx0JFmY.s:10177  .debug_str:0000000000000af8 .LASF166
C:\Users\test\AppData\Local\Temp\ccx0JFmY.s:9199   .debug_loc:0000000000000cf9 .LLST7
C:\Users\test\AppData\Local\Temp\ccx0JFmY.s:10215  .debug_str:0000000000000c42 .LASF167
C:\Users\test\AppData\Local\Temp\ccx0JFmY.s:677    .text.timer_counter_read:0000000000000000 .LFB18
C:\Users\test\AppData\Local\Temp\ccx0JFmY.s:690    .text.timer_counter_read:0000000000000004 .LFE18
C:\Users\test\AppData\Local\Temp\ccx0JFmY.s:9211   .debug_loc:0000000000000d18 .LLST4
C:\Users\test\AppData\Local\Temp\ccx0JFmY.s:9225   .debug_loc:0000000000000d39 .LLST5
C:\Users\test\AppData\Local\Temp\ccx0JFmY.s:10241  .debug_str:0000000000000cf1 .LASF168
C:\Users\test\AppData\Local\Temp\ccx0JFmY.s:660    .text.timer_counter_value_config:0000000000000000 .LFB17
C:\Users\test\AppData\Local\Temp\ccx0JFmY.s:670    .text.timer_counter_value_config:0000000000000004 .LFE17
C:\Users\test\AppData\Local\Temp\ccx0JFmY.s:9905   .debug_str:0000000000000017 .LASF169
C:\Users\test\AppData\Local\Temp\ccx0JFmY.s:10097  .debug_str:000000000000078a .LASF170
C:\Users\test\AppData\Local\Temp\ccx0JFmY.s:643    .text.timer_autoreload_value_config:0000000000000000 .LFB16
C:\Users\test\AppData\Local\Temp\ccx0JFmY.s:653    .text.timer_autoreload_value_config:0000000000000004 .LFE16
C:\Users\test\AppData\Local\Temp\ccx0JFmY.s:10079  .debug_str:00000000000006e1 .LASF171
C:\Users\test\AppData\Local\Temp\ccx0JFmY.s:9943   .debug_str:0000000000000161 .LASF172
C:\Users\test\AppData\Local\Temp\ccx0JFmY.s:626    .text.timer_repetition_value_config:0000000000000000 .LFB15
C:\Users\test\AppData\Local\Temp\ccx0JFmY.s:636    .text.timer_repetition_value_config:0000000000000004 .LFE15
C:\Users\test\AppData\Local\Temp\ccx0JFmY.s:10251  .debug_str:0000000000000d36 .LASF173
C:\Users\test\AppData\Local\Temp\ccx0JFmY.s:9903   .debug_str:0000000000000000 .LASF174
C:\Users\test\AppData\Local\Temp\ccx0JFmY.s:597    .text.timer_prescaler_config:0000000000000000 .LFB14
C:\Users\test\AppData\Local\Temp\ccx0JFmY.s:619    .text.timer_prescaler_config:0000000000000014 .LFE14
C:\Users\test\AppData\Local\Temp\ccx0JFmY.s:10185  .debug_str:0000000000000b27 .LASF175
C:\Users\test\AppData\Local\Temp\ccx0JFmY.s:9981   .debug_str:0000000000000296 .LASF176
C:\Users\test\AppData\Local\Temp\ccx0JFmY.s:578    .text.timer_counter_down_direction:0000000000000000 .LFB13
C:\Users\test\AppData\Local\Temp\ccx0JFmY.s:590    .text.timer_counter_down_direction:000000000000000a .LFE13
C:\Users\test\AppData\Local\Temp\ccx0JFmY.s:10295  .debug_str:0000000000000e8c .LASF177
C:\Users\test\AppData\Local\Temp\ccx0JFmY.s:559    .text.timer_counter_up_direction:0000000000000000 .LFB12
C:\Users\test\AppData\Local\Temp\ccx0JFmY.s:571    .text.timer_counter_up_direction:0000000000000008 .LFE12
C:\Users\test\AppData\Local\Temp\ccx0JFmY.s:10253  .debug_str:0000000000000d41 .LASF178
C:\Users\test\AppData\Local\Temp\ccx0JFmY.s:534    .text.timer_counter_alignment:0000000000000000 .LFB11
C:\Users\test\AppData\Local\Temp\ccx0JFmY.s:552    .text.timer_counter_alignment:0000000000000010 .LFE11
C:\Users\test\AppData\Local\Temp\ccx0JFmY.s:9937   .debug_str:000000000000012f .LASF179
C:\Users\test\AppData\Local\Temp\ccx0JFmY.s:9237   .debug_loc:0000000000000d58 .LLST3
C:\Users\test\AppData\Local\Temp\ccx0JFmY.s:10043  .debug_str:0000000000000568 .LASF180
GAS LISTING C:\Users\test\AppData\Local\Temp\ccx0JFmY.s 			page 156


C:\Users\test\AppData\Local\Temp\ccx0JFmY.s:515    .text.timer_update_event_disable:0000000000000000 .LFB10
C:\Users\test\AppData\Local\Temp\ccx0JFmY.s:527    .text.timer_update_event_disable:000000000000000a .LFE10
C:\Users\test\AppData\Local\Temp\ccx0JFmY.s:10081  .debug_str:00000000000006ec .LASF181
C:\Users\test\AppData\Local\Temp\ccx0JFmY.s:496    .text.timer_update_event_enable:0000000000000000 .LFB9
C:\Users\test\AppData\Local\Temp\ccx0JFmY.s:508    .text.timer_update_event_enable:0000000000000008 .LFE9
C:\Users\test\AppData\Local\Temp\ccx0JFmY.s:10113  .debug_str:00000000000008a0 .LASF182
C:\Users\test\AppData\Local\Temp\ccx0JFmY.s:477    .text.timer_auto_reload_shadow_disable:0000000000000000 .LFB8
C:\Users\test\AppData\Local\Temp\ccx0JFmY.s:489    .text.timer_auto_reload_shadow_disable:000000000000000a .LFE8
C:\Users\test\AppData\Local\Temp\ccx0JFmY.s:10091  .debug_str:000000000000074c .LASF183
C:\Users\test\AppData\Local\Temp\ccx0JFmY.s:458    .text.timer_auto_reload_shadow_enable:0000000000000000 .LFB7
C:\Users\test\AppData\Local\Temp\ccx0JFmY.s:470    .text.timer_auto_reload_shadow_enable:000000000000000a .LFE7
C:\Users\test\AppData\Local\Temp\ccx0JFmY.s:10293  .debug_str:0000000000000e7e .LASF184
C:\Users\test\AppData\Local\Temp\ccx0JFmY.s:439    .text.timer_disable:0000000000000000 .LFB6
C:\Users\test\AppData\Local\Temp\ccx0JFmY.s:451    .text.timer_disable:0000000000000008 .LFE6
C:\Users\test\AppData\Local\Temp\ccx0JFmY.s:10159  .debug_str:0000000000000a58 .LASF185
C:\Users\test\AppData\Local\Temp\ccx0JFmY.s:420    .text.timer_enable:0000000000000000 .LFB5
C:\Users\test\AppData\Local\Temp\ccx0JFmY.s:432    .text.timer_enable:000000000000000a .LFE5
C:\Users\test\AppData\Local\Temp\ccx0JFmY.s:10275  .debug_str:0000000000000dda .LASF186
C:\Users\test\AppData\Local\Temp\ccx0JFmY.s:276    .text.timer_init:0000000000000000 .LFB4
C:\Users\test\AppData\Local\Temp\ccx0JFmY.s:413    .text.timer_init:00000000000000c0 .LFE4
C:\Users\test\AppData\Local\Temp\ccx0JFmY.s:10163  .debug_str:0000000000000a88 .LASF187
C:\Users\test\AppData\Local\Temp\ccx0JFmY.s:9991   .debug_str:000000000000031f .LASF188
C:\Users\test\AppData\Local\Temp\ccx0JFmY.s:243    .text.timer_struct_para_init:0000000000000000 .LFB3
C:\Users\test\AppData\Local\Temp\ccx0JFmY.s:269    .text.timer_struct_para_init:0000000000000018 .LFE3
C:\Users\test\AppData\Local\Temp\ccx0JFmY.s:10039  .debug_str:000000000000054e .LASF189
C:\Users\test\AppData\Local\Temp\ccx0JFmY.s:42     .text.timer_deinit:0000000000000000 .LFB2
C:\Users\test\AppData\Local\Temp\ccx0JFmY.s:236    .text.timer_deinit:000000000000010e .LFE2
C:\Users\test\AppData\Local\Temp\ccx0JFmY.s:9251   .debug_loc:0000000000000d79 .LLST1
C:\Users\test\AppData\Local\Temp\ccx0JFmY.s:9339   .debug_loc:0000000000000e4d .LLST2
C:\Users\test\AppData\Local\Temp\ccx0JFmY.s:89     .text.timer_deinit:0000000000000056 .LVL4
C:\Users\test\AppData\Local\Temp\ccx0JFmY.s:103    .text.timer_deinit:0000000000000066 .LVL5
C:\Users\test\AppData\Local\Temp\ccx0JFmY.s:111    .text.timer_deinit:0000000000000072 .LVL7
C:\Users\test\AppData\Local\Temp\ccx0JFmY.s:125    .text.timer_deinit:0000000000000082 .LVL8
C:\Users\test\AppData\Local\Temp\ccx0JFmY.s:133    .text.timer_deinit:000000000000008e .LVL10
C:\Users\test\AppData\Local\Temp\ccx0JFmY.s:147    .text.timer_deinit:000000000000009e .LVL11
C:\Users\test\AppData\Local\Temp\ccx0JFmY.s:155    .text.timer_deinit:00000000000000aa .LVL13
C:\Users\test\AppData\Local\Temp\ccx0JFmY.s:169    .text.timer_deinit:00000000000000ba .LVL14
C:\Users\test\AppData\Local\Temp\ccx0JFmY.s:177    .text.timer_deinit:00000000000000c6 .LVL16
C:\Users\test\AppData\Local\Temp\ccx0JFmY.s:191    .text.timer_deinit:00000000000000d6 .LVL17
C:\Users\test\AppData\Local\Temp\ccx0JFmY.s:199    .text.timer_deinit:00000000000000e2 .LVL19
C:\Users\test\AppData\Local\Temp\ccx0JFmY.s:213    .text.timer_deinit:00000000000000f2 .LVL20
C:\Users\test\AppData\Local\Temp\ccx0JFmY.s:221    .text.timer_deinit:00000000000000fe .LVL22
C:\Users\test\AppData\Local\Temp\ccx0JFmY.s:234    .text.timer_deinit:000000000000010e .LVL23
C:\Users\test\AppData\Local\Temp\ccx0JFmY.s:10     .text.timer_channel_input_capture_prescaler_config.part.0:0000000000000000 .LFB71
C:\Users\test\AppData\Local\Temp\ccx0JFmY.s:35     .text.timer_channel_input_capture_prescaler_config.part.0:0000000000000016 .LFE71
C:\Users\test\AppData\Local\Temp\ccx0JFmY.s:9419   .debug_loc:0000000000000f04 .LLST0
C:\Users\test\AppData\Local\Temp\ccx0JFmY.s:2390   .text.timer_channel_input_capture_prescaler_config:0000000000000000 .LFB49
C:\Users\test\AppData\Local\Temp\ccx0JFmY.s:2461   .text.timer_channel_input_capture_prescaler_config:0000000000000052 .LFE49
C:\Users\test\AppData\Local\Temp\ccx0JFmY.s:9433   .debug_loc:0000000000000f25 .LLST22
C:\Users\test\AppData\Local\Temp\ccx0JFmY.s:9451   .debug_loc:0000000000000f51 .LLST23
C:\Users\test\AppData\Local\Temp\ccx0JFmY.s:9487   .debug_loc:0000000000000fa4 .LLST24
C:\Users\test\AppData\Local\Temp\ccx0JFmY.s:2428   .text.timer_channel_input_capture_prescaler_config:0000000000000036 .LVL148
C:\Users\test\AppData\Local\Temp\ccx0JFmY.s:3205   .text.timer_input_trigger_source_select:0000000000000000 .LFB53
C:\Users\test\AppData\Local\Temp\ccx0JFmY.s:3223   .text.timer_input_trigger_source_select:0000000000000010 .LFE53
C:\Users\test\AppData\Local\Temp\ccx0JFmY.s:9534   .debug_loc:0000000000001010 .LLST46
C:\Users\test\AppData\Local\Temp\ccx0JFmY.s:3315   .text.timer_external_trigger_config:0000000000000000 .LFB57
C:\Users\test\AppData\Local\Temp\ccx0JFmY.s:3346   .text.timer_external_trigger_config:000000000000001e .LFE57
GAS LISTING C:\Users\test\AppData\Local\Temp\ccx0JFmY.s 			page 157


C:\Users\test\AppData\Local\Temp\ccx0JFmY.s:9548   .debug_loc:0000000000001031 .LLST49
C:\Users\test\AppData\Local\Temp\ccx0JFmY.s:9562   .debug_loc:0000000000001052 .LLST50
C:\Users\test\AppData\Local\Temp\ccx0JFmY.s:3825   .text.timer_interrupt_flag_clear:0000000000000000 .LFB68
C:\Users\test\AppData\Local\Temp\ccx0JFmY.s:3838   .text.timer_interrupt_flag_clear:0000000000000008 .LFE68
C:\Users\test\AppData\Local\Temp\ccx0JFmY.s:9576   .debug_loc:0000000000001073 .LLST78
C:\Users\test\AppData\Local\Temp\ccx0JFmY.s:10001  .debug_str:0000000000000388 .LASF190
C:\Users\test\AppData\Local\Temp\ccx0JFmY.s:9955   .debug_str:00000000000001f0 .LASF191
C:\Users\test\AppData\Local\Temp\ccx0JFmY.s:3848   .text.timer_flag_get:0000000000000000 .LVL236
C:\Users\test\AppData\Local\Temp\ccx0JFmY.s:3852   .text.timer_flag_get:0000000000000002 .LVL237
C:\Users\test\AppData\Local\Temp\ccx0JFmY.s:3795   .text.timer_interrupt_flag_get:0000000000000000 .LVL230
C:\Users\test\AppData\Local\Temp\ccx0JFmY.s:3802   .text.timer_interrupt_flag_get:0000000000000004 .LVL231
C:\Users\test\AppData\Local\Temp\ccx0JFmY.s:3810   .text.timer_interrupt_flag_get:000000000000000c .LVL232
C:\Users\test\AppData\Local\Temp\ccx0JFmY.s:3813   .text.timer_interrupt_flag_get:0000000000000010 .LVL233
C:\Users\test\AppData\Local\Temp\ccx0JFmY.s:3771   .text.timer_interrupt_disable:0000000000000000 .LVL227
C:\Users\test\AppData\Local\Temp\ccx0JFmY.s:3777   .text.timer_interrupt_disable:0000000000000006 .LVL228
C:\Users\test\AppData\Local\Temp\ccx0JFmY.s:3780   .text.timer_interrupt_disable:0000000000000008 .LVL229
C:\Users\test\AppData\Local\Temp\ccx0JFmY.s:3751   .text.timer_interrupt_enable:0000000000000000 .LVL225
C:\Users\test\AppData\Local\Temp\ccx0JFmY.s:3756   .text.timer_interrupt_enable:0000000000000004 .LVL226
C:\Users\test\AppData\Local\Temp\ccx0JFmY.s:3674   .text.timer_external_clock_mode1_config:0000000000000000 .LVL220
C:\Users\test\AppData\Local\Temp\ccx0JFmY.s:3690   .text.timer_external_clock_mode1_config:0000000000000010 .LVL221
C:\Users\test\AppData\Local\Temp\ccx0JFmY.s:3693   .text.timer_external_clock_mode1_config:0000000000000012 .LVL222
C:\Users\test\AppData\Local\Temp\ccx0JFmY.s:3709   .text.timer_external_clock_mode1_config:000000000000001e .LVL223
C:\Users\test\AppData\Local\Temp\ccx0JFmY.s:3620   .text.timer_external_clock_mode0_config:0000000000000000 .LVL216
C:\Users\test\AppData\Local\Temp\ccx0JFmY.s:3636   .text.timer_external_clock_mode0_config:0000000000000010 .LVL217
C:\Users\test\AppData\Local\Temp\ccx0JFmY.s:3639   .text.timer_external_clock_mode0_config:0000000000000012 .LVL218
C:\Users\test\AppData\Local\Temp\ccx0JFmY.s:3648   .text.timer_external_clock_mode0_config:000000000000001c .LVL219
C:\Users\test\AppData\Local\Temp\ccx0JFmY.s:3473   .text.timer_external_trigger_as_external_clock_config:0000000000000000 .LVL207
C:\Users\test\AppData\Local\Temp\ccx0JFmY.s:3537   .text.timer_external_trigger_as_external_clock_config:000000000000004c .LVL211
C:\Users\test\AppData\Local\Temp\ccx0JFmY.s:3554   .text.timer_external_trigger_as_external_clock_config:000000000000005e .LVL213
C:\Users\test\AppData\Local\Temp\ccx0JFmY.s:3496   .text.timer_external_trigger_as_external_clock_config:000000000000001a .LVL209
C:\Users\test\AppData\Local\Temp\ccx0JFmY.s:3561   .text.timer_external_trigger_as_external_clock_config:0000000000000062 .LVL214
C:\Users\test\AppData\Local\Temp\ccx0JFmY.s:3483   .text.timer_external_trigger_as_external_clock_config:000000000000000c .LVL208
C:\Users\test\AppData\Local\Temp\ccx0JFmY.s:3574   .text.timer_external_trigger_as_external_clock_config:000000000000006e .LVL215
C:\Users\test\AppData\Local\Temp\ccx0JFmY.s:3525   .text.timer_external_trigger_as_external_clock_config:0000000000000040 .LVL210
C:\Users\test\AppData\Local\Temp\ccx0JFmY.s:3539   .text.timer_external_trigger_as_external_clock_config:000000000000004e .LVL212
C:\Users\test\AppData\Local\Temp\ccx0JFmY.s:3432   .text.timer_internal_trigger_as_external_clock_config:0000000000000000 .LVL204
C:\Users\test\AppData\Local\Temp\ccx0JFmY.s:3445   .text.timer_internal_trigger_as_external_clock_config:000000000000000c .LVL205
C:\Users\test\AppData\Local\Temp\ccx0JFmY.s:3447   .text.timer_internal_trigger_as_external_clock_config:000000000000000e .LVL206
C:\Users\test\AppData\Local\Temp\ccx0JFmY.s:3356   .text.timer_quadrature_decoder_mode_config:0000000000000000 .LVL199
C:\Users\test\AppData\Local\Temp\ccx0JFmY.s:3372   .text.timer_quadrature_decoder_mode_config:000000000000000e .LVL201
C:\Users\test\AppData\Local\Temp\ccx0JFmY.s:3397   .text.timer_quadrature_decoder_mode_config:0000000000000030 .LVL202
C:\Users\test\AppData\Local\Temp\ccx0JFmY.s:3362   .text.timer_quadrature_decoder_mode_config:0000000000000004 .LVL200
C:\Users\test\AppData\Local\Temp\ccx0JFmY.s:3258   .text.timer_slave_mode_select:0000000000000000 .LVL193
C:\Users\test\AppData\Local\Temp\ccx0JFmY.s:3268   .text.timer_slave_mode_select:000000000000000a .LVL194
C:\Users\test\AppData\Local\Temp\ccx0JFmY.s:3233   .text.timer_master_output_trigger_source_select:0000000000000000 .LVL191
C:\Users\test\AppData\Local\Temp\ccx0JFmY.s:3243   .text.timer_master_output_trigger_source_select:000000000000000c .LVL192
C:\Users\test\AppData\Local\Temp\ccx0JFmY.s:2820   .text.timer_input_pwm_capture_config:000000000000000a .LCFI16
C:\Users\test\AppData\Local\Temp\ccx0JFmY.s:2997   .text.timer_input_pwm_capture_config:00000000000000d2 .LCFI17
C:\Users\test\AppData\Local\Temp\ccx0JFmY.s:3004   .text.timer_input_pwm_capture_config:00000000000000da .LCFI18
C:\Users\test\AppData\Local\Temp\ccx0JFmY.s:3159   .text.timer_input_pwm_capture_config:0000000000000180 .LCFI19
C:\Users\test\AppData\Local\Temp\ccx0JFmY.s:2810   .text.timer_input_pwm_capture_config:0000000000000000 .LVL173
C:\Users\test\AppData\Local\Temp\ccx0JFmY.s:3157   .text.timer_input_pwm_capture_config:000000000000017e .LVL187
C:\Users\test\AppData\Local\Temp\ccx0JFmY.s:2864   .text.timer_input_pwm_capture_config:000000000000003a .LVL177
C:\Users\test\AppData\Local\Temp\ccx0JFmY.s:3022   .text.timer_input_pwm_capture_config:00000000000000e8 .LVL182
C:\Users\test\AppData\Local\Temp\ccx0JFmY.s:2858   .text.timer_input_pwm_capture_config:0000000000000036 .LVL176
C:\Users\test\AppData\Local\Temp\ccx0JFmY.s:3099   .text.timer_input_pwm_capture_config:0000000000000142 .LVL185
C:\Users\test\AppData\Local\Temp\ccx0JFmY.s:2845   .text.timer_input_pwm_capture_config:0000000000000028 .LVL174
GAS LISTING C:\Users\test\AppData\Local\Temp\ccx0JFmY.s 			page 158


C:\Users\test\AppData\Local\Temp\ccx0JFmY.s:2849   .text.timer_input_pwm_capture_config:000000000000002a .LVL175
C:\Users\test\AppData\Local\Temp\ccx0JFmY.s:2989   .text.timer_input_pwm_capture_config:00000000000000d0 .LVL180
C:\Users\test\AppData\Local\Temp\ccx0JFmY.s:2915   .text.timer_input_pwm_capture_config:0000000000000078 .LVL178
C:\Users\test\AppData\Local\Temp\ccx0JFmY.s:2930   .text.timer_input_pwm_capture_config:0000000000000088 .LVL179
C:\Users\test\AppData\Local\Temp\ccx0JFmY.s:3064   .text.timer_input_pwm_capture_config:000000000000011e .LVL183
C:\Users\test\AppData\Local\Temp\ccx0JFmY.s:3137   .text.timer_input_pwm_capture_config:0000000000000170 .LVL186
C:\Users\test\AppData\Local\Temp\ccx0JFmY.s:2751   .text.timer_channel_capture_value_register_read:0000000000000000 .LVL163
C:\Users\test\AppData\Local\Temp\ccx0JFmY.s:2764   .text.timer_channel_capture_value_register_read:0000000000000016 .LVL164
C:\Users\test\AppData\Local\Temp\ccx0JFmY.s:2769   .text.timer_channel_capture_value_register_read:0000000000000018 .LVL165
C:\Users\test\AppData\Local\Temp\ccx0JFmY.s:2773   .text.timer_channel_capture_value_register_read:000000000000001a .LVL166
C:\Users\test\AppData\Local\Temp\ccx0JFmY.s:2775   .text.timer_channel_capture_value_register_read:000000000000001c .LVL167
C:\Users\test\AppData\Local\Temp\ccx0JFmY.s:2780   .text.timer_channel_capture_value_register_read:000000000000001e .LVL168
C:\Users\test\AppData\Local\Temp\ccx0JFmY.s:2783   .text.timer_channel_capture_value_register_read:0000000000000020 .LVL169
C:\Users\test\AppData\Local\Temp\ccx0JFmY.s:2788   .text.timer_channel_capture_value_register_read:0000000000000022 .LVL170
C:\Users\test\AppData\Local\Temp\ccx0JFmY.s:2791   .text.timer_channel_capture_value_register_read:0000000000000024 .LVL171
C:\Users\test\AppData\Local\Temp\ccx0JFmY.s:2796   .text.timer_channel_capture_value_register_read:0000000000000026 .LVL172
C:\Users\test\AppData\Local\Temp\ccx0JFmY.s:2471   .text.timer_input_capture_config:0000000000000000 .LVL154
C:\Users\test\AppData\Local\Temp\ccx0JFmY.s:2547   .text.timer_input_capture_config:000000000000006c .LVL155
C:\Users\test\AppData\Local\Temp\ccx0JFmY.s:2583   .text.timer_input_capture_config:000000000000009e .LVL157
C:\Users\test\AppData\Local\Temp\ccx0JFmY.s:2653   .text.timer_input_capture_config:0000000000000102 .LVL159
C:\Users\test\AppData\Local\Temp\ccx0JFmY.s:2699   .text.timer_input_capture_config:0000000000000144 .LVL161
C:\Users\test\AppData\Local\Temp\ccx0JFmY.s:2295   .text.timer_channel_complementary_output_state_config:0000000000000000 .LVL137
C:\Users\test\AppData\Local\Temp\ccx0JFmY.s:2307   .text.timer_channel_complementary_output_state_config:0000000000000012 .LVL138
C:\Users\test\AppData\Local\Temp\ccx0JFmY.s:2319   .text.timer_channel_complementary_output_state_config:0000000000000020 .LVL139
C:\Users\test\AppData\Local\Temp\ccx0JFmY.s:2328   .text.timer_channel_complementary_output_state_config:0000000000000026 .LVL140
C:\Users\test\AppData\Local\Temp\ccx0JFmY.s:2339   .text.timer_channel_complementary_output_state_config:0000000000000034 .LVL141
C:\Users\test\AppData\Local\Temp\ccx0JFmY.s:2350   .text.timer_channel_complementary_output_state_config:000000000000003e .LVL142
C:\Users\test\AppData\Local\Temp\ccx0JFmY.s:2203   .text.timer_channel_output_state_config:0000000000000000 .LVL129
C:\Users\test\AppData\Local\Temp\ccx0JFmY.s:2224   .text.timer_channel_output_state_config:0000000000000022 .LVL130
C:\Users\test\AppData\Local\Temp\ccx0JFmY.s:2231   .text.timer_channel_output_state_config:0000000000000028 .LVL131
C:\Users\test\AppData\Local\Temp\ccx0JFmY.s:2240   .text.timer_channel_output_state_config:000000000000002e .LVL132
C:\Users\test\AppData\Local\Temp\ccx0JFmY.s:2251   .text.timer_channel_output_state_config:000000000000003a .LVL133
C:\Users\test\AppData\Local\Temp\ccx0JFmY.s:2258   .text.timer_channel_output_state_config:000000000000003e .LVL134
C:\Users\test\AppData\Local\Temp\ccx0JFmY.s:2269   .text.timer_channel_output_state_config:000000000000004c .LVL135
C:\Users\test\AppData\Local\Temp\ccx0JFmY.s:2280   .text.timer_channel_output_state_config:0000000000000056 .LVL136
C:\Users\test\AppData\Local\Temp\ccx0JFmY.s:2131   .text.timer_channel_complementary_output_polarity_config:0000000000000000 .LVL123
C:\Users\test\AppData\Local\Temp\ccx0JFmY.s:2150   .text.timer_channel_complementary_output_polarity_config:000000000000001e .LVL124
C:\Users\test\AppData\Local\Temp\ccx0JFmY.s:2157   .text.timer_channel_complementary_output_polarity_config:0000000000000024 .LVL125
C:\Users\test\AppData\Local\Temp\ccx0JFmY.s:2166   .text.timer_channel_complementary_output_polarity_config:000000000000002a .LVL126
C:\Users\test\AppData\Local\Temp\ccx0JFmY.s:2177   .text.timer_channel_complementary_output_polarity_config:0000000000000038 .LVL127
C:\Users\test\AppData\Local\Temp\ccx0JFmY.s:2188   .text.timer_channel_complementary_output_polarity_config:0000000000000042 .LVL128
C:\Users\test\AppData\Local\Temp\ccx0JFmY.s:2039   .text.timer_channel_output_polarity_config:0000000000000000 .LVL115
C:\Users\test\AppData\Local\Temp\ccx0JFmY.s:2060   .text.timer_channel_output_polarity_config:0000000000000022 .LVL116
C:\Users\test\AppData\Local\Temp\ccx0JFmY.s:2067   .text.timer_channel_output_polarity_config:0000000000000028 .LVL117
C:\Users\test\AppData\Local\Temp\ccx0JFmY.s:2076   .text.timer_channel_output_polarity_config:000000000000002e .LVL118
C:\Users\test\AppData\Local\Temp\ccx0JFmY.s:2087   .text.timer_channel_output_polarity_config:000000000000003c .LVL119
C:\Users\test\AppData\Local\Temp\ccx0JFmY.s:2094   .text.timer_channel_output_polarity_config:0000000000000040 .LVL120
C:\Users\test\AppData\Local\Temp\ccx0JFmY.s:2105   .text.timer_channel_output_polarity_config:000000000000004e .LVL121
C:\Users\test\AppData\Local\Temp\ccx0JFmY.s:2116   .text.timer_channel_output_polarity_config:0000000000000058 .LVL122
C:\Users\test\AppData\Local\Temp\ccx0JFmY.s:1948   .text.timer_channel_output_clear_config:0000000000000000 .LVL107
C:\Users\test\AppData\Local\Temp\ccx0JFmY.s:1969   .text.timer_channel_output_clear_config:0000000000000022 .LVL108
C:\Users\test\AppData\Local\Temp\ccx0JFmY.s:1976   .text.timer_channel_output_clear_config:0000000000000028 .LVL109
C:\Users\test\AppData\Local\Temp\ccx0JFmY.s:1992   .text.timer_channel_output_clear_config:0000000000000038 .LVL110
C:\Users\test\AppData\Local\Temp\ccx0JFmY.s:1998   .text.timer_channel_output_clear_config:000000000000003e .LVL111
C:\Users\test\AppData\Local\Temp\ccx0JFmY.s:2009   .text.timer_channel_output_clear_config:000000000000004a .LVL112
C:\Users\test\AppData\Local\Temp\ccx0JFmY.s:2013   .text.timer_channel_output_clear_config:000000000000004e .LVL113
C:\Users\test\AppData\Local\Temp\ccx0JFmY.s:2024   .text.timer_channel_output_clear_config:000000000000005a .LVL114
GAS LISTING C:\Users\test\AppData\Local\Temp\ccx0JFmY.s 			page 159


C:\Users\test\AppData\Local\Temp\ccx0JFmY.s:1861   .text.timer_channel_output_fast_config:0000000000000000 .LVL99
C:\Users\test\AppData\Local\Temp\ccx0JFmY.s:1875   .text.timer_channel_output_fast_config:0000000000000018 .LVL100
C:\Users\test\AppData\Local\Temp\ccx0JFmY.s:1887   .text.timer_channel_output_fast_config:0000000000000026 .LVL101
C:\Users\test\AppData\Local\Temp\ccx0JFmY.s:1896   .text.timer_channel_output_fast_config:000000000000002c .LVL102
C:\Users\test\AppData\Local\Temp\ccx0JFmY.s:1907   .text.timer_channel_output_fast_config:000000000000003a .LVL103
C:\Users\test\AppData\Local\Temp\ccx0JFmY.s:1918   .text.timer_channel_output_fast_config:0000000000000044 .LVL104
C:\Users\test\AppData\Local\Temp\ccx0JFmY.s:1922   .text.timer_channel_output_fast_config:0000000000000048 .LVL105
C:\Users\test\AppData\Local\Temp\ccx0JFmY.s:1933   .text.timer_channel_output_fast_config:0000000000000052 .LVL106
C:\Users\test\AppData\Local\Temp\ccx0JFmY.s:1770   .text.timer_channel_output_shadow_config:0000000000000000 .LVL91
C:\Users\test\AppData\Local\Temp\ccx0JFmY.s:1791   .text.timer_channel_output_shadow_config:0000000000000024 .LVL92
C:\Users\test\AppData\Local\Temp\ccx0JFmY.s:1798   .text.timer_channel_output_shadow_config:000000000000002a .LVL93
C:\Users\test\AppData\Local\Temp\ccx0JFmY.s:1814   .text.timer_channel_output_shadow_config:000000000000003c .LVL94
C:\Users\test\AppData\Local\Temp\ccx0JFmY.s:1820   .text.timer_channel_output_shadow_config:0000000000000042 .LVL95
C:\Users\test\AppData\Local\Temp\ccx0JFmY.s:1831   .text.timer_channel_output_shadow_config:000000000000004c .LVL96
C:\Users\test\AppData\Local\Temp\ccx0JFmY.s:1835   .text.timer_channel_output_shadow_config:0000000000000050 .LVL97
C:\Users\test\AppData\Local\Temp\ccx0JFmY.s:1846   .text.timer_channel_output_shadow_config:000000000000005a .LVL98
C:\Users\test\AppData\Local\Temp\ccx0JFmY.s:1633   .text.timer_channel_output_mode_config:0000000000000000 .LVL82
C:\Users\test\AppData\Local\Temp\ccx0JFmY.s:1654   .text.timer_channel_output_mode_config:0000000000000022 .LVL83
C:\Users\test\AppData\Local\Temp\ccx0JFmY.s:1661   .text.timer_channel_output_mode_config:0000000000000028 .LVL84
C:\Users\test\AppData\Local\Temp\ccx0JFmY.s:1677   .text.timer_channel_output_mode_config:0000000000000038 .LVL85
C:\Users\test\AppData\Local\Temp\ccx0JFmY.s:1683   .text.timer_channel_output_mode_config:000000000000003e .LVL86
C:\Users\test\AppData\Local\Temp\ccx0JFmY.s:1694   .text.timer_channel_output_mode_config:000000000000004a .LVL87
C:\Users\test\AppData\Local\Temp\ccx0JFmY.s:1698   .text.timer_channel_output_mode_config:000000000000004e .LVL88
C:\Users\test\AppData\Local\Temp\ccx0JFmY.s:1709   .text.timer_channel_output_mode_config:000000000000005a .LVL89
C:\Users\test\AppData\Local\Temp\ccx0JFmY.s:1201   .text.timer_channel_output_config:0000000000000000 .LVL66
C:\Users\test\AppData\Local\Temp\ccx0JFmY.s:1290   .text.timer_channel_output_config:000000000000007c .LVL67
C:\Users\test\AppData\Local\Temp\ccx0JFmY.s:1311   .text.timer_channel_output_config:0000000000000094 .LVL69
C:\Users\test\AppData\Local\Temp\ccx0JFmY.s:1329   .text.timer_channel_output_config:00000000000000ae .LVL70
C:\Users\test\AppData\Local\Temp\ccx0JFmY.s:1355   .text.timer_channel_output_config:00000000000000cc .LVL72
C:\Users\test\AppData\Local\Temp\ccx0JFmY.s:1383   .text.timer_channel_output_config:00000000000000ee .LVL73
C:\Users\test\AppData\Local\Temp\ccx0JFmY.s:1602   .text.timer_channel_output_config:000000000000023c .LVL81
C:\Users\test\AppData\Local\Temp\ccx0JFmY.s:1302   .text.timer_channel_output_config:000000000000008c .LVL68
C:\Users\test\AppData\Local\Temp\ccx0JFmY.s:1346   .text.timer_channel_output_config:00000000000000c4 .LVL71
C:\Users\test\AppData\Local\Temp\ccx0JFmY.s:1395   .text.timer_channel_output_config:00000000000000fe .LVL74
C:\Users\test\AppData\Local\Temp\ccx0JFmY.s:1404   .text.timer_channel_output_config:0000000000000108 .LVL75
C:\Users\test\AppData\Local\Temp\ccx0JFmY.s:1453   .text.timer_channel_output_config:000000000000014a .LVL76
C:\Users\test\AppData\Local\Temp\ccx0JFmY.s:1472   .text.timer_channel_output_config:000000000000016e .LVL77
C:\Users\test\AppData\Local\Temp\ccx0JFmY.s:1497   .text.timer_channel_output_config:0000000000000192 .LVL78
C:\Users\test\AppData\Local\Temp\ccx0JFmY.s:1526   .text.timer_channel_output_config:00000000000001ca .LVL79
C:\Users\test\AppData\Local\Temp\ccx0JFmY.s:1583   .text.timer_channel_output_config:000000000000021c .LVL80
C:\Users\test\AppData\Local\Temp\ccx0JFmY.s:901    .text.timer_event_software_generate:0000000000000000 .LVL54
C:\Users\test\AppData\Local\Temp\ccx0JFmY.s:906    .text.timer_event_software_generate:0000000000000004 .LVL55
C:\Users\test\AppData\Local\Temp\ccx0JFmY.s:871    .text.timer_dma_transfer_config:0000000000000000 .LVL52
C:\Users\test\AppData\Local\Temp\ccx0JFmY.s:884    .text.timer_dma_transfer_config:0000000000000010 .LVL53
C:\Users\test\AppData\Local\Temp\ccx0JFmY.s:813    .text.timer_dma_disable:0000000000000000 .LVL49
C:\Users\test\AppData\Local\Temp\ccx0JFmY.s:819    .text.timer_dma_disable:0000000000000006 .LVL50
C:\Users\test\AppData\Local\Temp\ccx0JFmY.s:793    .text.timer_dma_enable:0000000000000000 .LVL47
C:\Users\test\AppData\Local\Temp\ccx0JFmY.s:798    .text.timer_dma_enable:0000000000000004 .LVL48
C:\Users\test\AppData\Local\Temp\ccx0JFmY.s:700    .text.timer_prescaler_read:0000000000000000 .LVL42
C:\Users\test\AppData\Local\Temp\ccx0JFmY.s:705    .text.timer_prescaler_read:0000000000000002 .LVL43
C:\Users\test\AppData\Local\Temp\ccx0JFmY.s:709    .text.timer_prescaler_read:0000000000000004 .LVL44
C:\Users\test\AppData\Local\Temp\ccx0JFmY.s:680    .text.timer_counter_read:0000000000000000 .LVL40
C:\Users\test\AppData\Local\Temp\ccx0JFmY.s:685    .text.timer_counter_read:0000000000000002 .LVL41
C:\Users\test\AppData\Local\Temp\ccx0JFmY.s:537    .text.timer_counter_alignment:0000000000000000 .LVL32
C:\Users\test\AppData\Local\Temp\ccx0JFmY.s:547    .text.timer_counter_alignment:000000000000000c .LVL33
C:\Users\test\AppData\Local\Temp\ccx0JFmY.s:49     .text.timer_deinit:0000000000000002 .LCFI0
C:\Users\test\AppData\Local\Temp\ccx0JFmY.s:72     .text.timer_deinit:0000000000000030 .LCFI1
GAS LISTING C:\Users\test\AppData\Local\Temp\ccx0JFmY.s 			page 160


C:\Users\test\AppData\Local\Temp\ccx0JFmY.s:76     .text.timer_deinit:0000000000000032 .LCFI2
C:\Users\test\AppData\Local\Temp\ccx0JFmY.s:99     .text.timer_deinit:000000000000005e .LCFI3
C:\Users\test\AppData\Local\Temp\ccx0JFmY.s:105    .text.timer_deinit:0000000000000066 .LCFI4
C:\Users\test\AppData\Local\Temp\ccx0JFmY.s:121    .text.timer_deinit:000000000000007a .LCFI5
C:\Users\test\AppData\Local\Temp\ccx0JFmY.s:127    .text.timer_deinit:0000000000000082 .LCFI6
C:\Users\test\AppData\Local\Temp\ccx0JFmY.s:143    .text.timer_deinit:0000000000000096 .LCFI7
C:\Users\test\AppData\Local\Temp\ccx0JFmY.s:149    .text.timer_deinit:000000000000009e .LCFI8
C:\Users\test\AppData\Local\Temp\ccx0JFmY.s:165    .text.timer_deinit:00000000000000b2 .LCFI9
C:\Users\test\AppData\Local\Temp\ccx0JFmY.s:171    .text.timer_deinit:00000000000000ba .LCFI10
C:\Users\test\AppData\Local\Temp\ccx0JFmY.s:187    .text.timer_deinit:00000000000000ce .LCFI11
C:\Users\test\AppData\Local\Temp\ccx0JFmY.s:193    .text.timer_deinit:00000000000000d6 .LCFI12
C:\Users\test\AppData\Local\Temp\ccx0JFmY.s:209    .text.timer_deinit:00000000000000ea .LCFI13
C:\Users\test\AppData\Local\Temp\ccx0JFmY.s:215    .text.timer_deinit:00000000000000f2 .LCFI14
C:\Users\test\AppData\Local\Temp\ccx0JFmY.s:230    .text.timer_deinit:0000000000000106 .LCFI15
C:\Users\test\AppData\Local\Temp\ccx0JFmY.s:45     .text.timer_deinit:0000000000000000 .LVL2
C:\Users\test\AppData\Local\Temp\ccx0JFmY.s:87     .text.timer_deinit:000000000000004e .LVL3
C:\Users\test\AppData\Local\Temp\ccx0JFmY.s:109    .text.timer_deinit:000000000000006a .LVL6
C:\Users\test\AppData\Local\Temp\ccx0JFmY.s:131    .text.timer_deinit:0000000000000086 .LVL9
C:\Users\test\AppData\Local\Temp\ccx0JFmY.s:153    .text.timer_deinit:00000000000000a2 .LVL12
C:\Users\test\AppData\Local\Temp\ccx0JFmY.s:175    .text.timer_deinit:00000000000000be .LVL15
C:\Users\test\AppData\Local\Temp\ccx0JFmY.s:197    .text.timer_deinit:00000000000000da .LVL18
C:\Users\test\AppData\Local\Temp\ccx0JFmY.s:219    .text.timer_deinit:00000000000000f6 .LVL21
C:\Users\test\AppData\Local\Temp\ccx0JFmY.s:14     .text.timer_channel_input_capture_prescaler_config.part.0:0000000000000000 .LVL0
C:\Users\test\AppData\Local\Temp\ccx0JFmY.s:27     .text.timer_channel_input_capture_prescaler_config.part.0:0000000000000010 .LVL1
C:\Users\test\AppData\Local\Temp\ccx0JFmY.s:2393   .text.timer_channel_input_capture_prescaler_config:0000000000000000 .LVL144
C:\Users\test\AppData\Local\Temp\ccx0JFmY.s:2426   .text.timer_channel_input_capture_prescaler_config:000000000000002e .LVL147
C:\Users\test\AppData\Local\Temp\ccx0JFmY.s:2438   .text.timer_channel_input_capture_prescaler_config:000000000000003e .LVL149
C:\Users\test\AppData\Local\Temp\ccx0JFmY.s:2444   .text.timer_channel_input_capture_prescaler_config:0000000000000044 .LVL151
C:\Users\test\AppData\Local\Temp\ccx0JFmY.s:2454   .text.timer_channel_input_capture_prescaler_config:000000000000004c .LVL152
C:\Users\test\AppData\Local\Temp\ccx0JFmY.s:2414   .text.timer_channel_input_capture_prescaler_config:0000000000000024 .LVL145
C:\Users\test\AppData\Local\Temp\ccx0JFmY.s:2421   .text.timer_channel_input_capture_prescaler_config:000000000000002a .LVL146
C:\Users\test\AppData\Local\Temp\ccx0JFmY.s:2440   .text.timer_channel_input_capture_prescaler_config:0000000000000040 .LVL150
C:\Users\test\AppData\Local\Temp\ccx0JFmY.s:2456   .text.timer_channel_input_capture_prescaler_config:000000000000004e .LVL153
C:\Users\test\AppData\Local\Temp\ccx0JFmY.s:3208   .text.timer_input_trigger_source_select:0000000000000000 .LVL189
C:\Users\test\AppData\Local\Temp\ccx0JFmY.s:3218   .text.timer_input_trigger_source_select:000000000000000c .LVL190
C:\Users\test\AppData\Local\Temp\ccx0JFmY.s:3318   .text.timer_external_trigger_config:0000000000000000 .LVL196
C:\Users\test\AppData\Local\Temp\ccx0JFmY.s:3331   .text.timer_external_trigger_config:0000000000000010 .LVL197
C:\Users\test\AppData\Local\Temp\ccx0JFmY.s:3334   .text.timer_external_trigger_config:0000000000000012 .LVL198
C:\Users\test\AppData\Local\Temp\ccx0JFmY.s:3828   .text.timer_interrupt_flag_clear:0000000000000000 .LVL234
C:\Users\test\AppData\Local\Temp\ccx0JFmY.s:3832   .text.timer_interrupt_flag_clear:0000000000000004 .LVL235
C:\Users\test\AppData\Local\Temp\ccx0JFmY.s:3883   .debug_info:0000000000000000 .Ldebug_info0
C:\Users\test\AppData\Local\Temp\ccx0JFmY.s:2866   .text.timer_input_pwm_capture_config:000000000000003a .LBE18
C:\Users\test\AppData\Local\Temp\ccx0JFmY.s:2990   .text.timer_input_pwm_capture_config:00000000000000d0 .LBB24
C:\Users\test\AppData\Local\Temp\ccx0JFmY.s:2994   .text.timer_input_pwm_capture_config:00000000000000d0 .LBE24
C:\Users\test\AppData\Local\Temp\ccx0JFmY.s:2999   .text.timer_input_pwm_capture_config:00000000000000d2 .LBB25
C:\Users\test\AppData\Local\Temp\ccx0JFmY.s:3007   .text.timer_input_pwm_capture_config:00000000000000da .LBE25
C:\Users\test\AppData\Local\Temp\ccx0JFmY.s:3025   .text.timer_input_pwm_capture_config:00000000000000ea .LBE26
C:\Users\test\AppData\Local\Temp\ccx0JFmY.s:3065   .text.timer_input_pwm_capture_config:000000000000011e .LBB29
C:\Users\test\AppData\Local\Temp\ccx0JFmY.s:3071   .text.timer_input_pwm_capture_config:0000000000000126 .LBE29
C:\Users\test\AppData\Local\Temp\ccx0JFmY.s:3701   .text.timer_external_clock_mode1_config:0000000000000018 .LBE38
C:\Users\test\AppData\Local\Temp\ccx0JFmY.s:3704   .text.timer_external_clock_mode1_config:000000000000001a .LBB41
C:\Users\test\AppData\Local\Temp\ccx0JFmY.s:3711   .text.timer_external_clock_mode1_config:000000000000001e .LBE41

UNDEFINED SYMBOLS
rcu_periph_reset_enable
rcu_periph_reset_disable
