GAS LISTING C:\Users\test\AppData\Local\Temp\ccrkp0bK.s 			page 1


   1              		.file	"gd32vf103_dac.c"
   2              		.option nopic
   3              		.text
   4              	.Ltext0:
   5              		.cfi_sections	.debug_frame
   6              		.section	.text.dac_deinit,"ax",@progbits
   7              		.align	1
   8              		.globl	dac_deinit
  10              	dac_deinit:
  11              	.LFB2:
  12              		.file 1 "arch/riscv/mach-gd32vf10x/bsp/gd32vf103_dac.c"
   1:arch/riscv/mach-gd32vf10x/bsp/gd32vf103_dac.c **** /*!
   2:arch/riscv/mach-gd32vf10x/bsp/gd32vf103_dac.c ****     \file    gd32vf103_dac.c
   3:arch/riscv/mach-gd32vf10x/bsp/gd32vf103_dac.c ****     \brief   DAC driver
   4:arch/riscv/mach-gd32vf10x/bsp/gd32vf103_dac.c **** 
   5:arch/riscv/mach-gd32vf10x/bsp/gd32vf103_dac.c ****     \version 2019-6-5, V1.0.0, firmware for GD32VF103
   6:arch/riscv/mach-gd32vf10x/bsp/gd32vf103_dac.c **** */
   7:arch/riscv/mach-gd32vf10x/bsp/gd32vf103_dac.c **** 
   8:arch/riscv/mach-gd32vf10x/bsp/gd32vf103_dac.c **** /*
   9:arch/riscv/mach-gd32vf10x/bsp/gd32vf103_dac.c ****     Copyright (c) 2019, GigaDevice Semiconductor Inc.
  10:arch/riscv/mach-gd32vf10x/bsp/gd32vf103_dac.c **** 
  11:arch/riscv/mach-gd32vf10x/bsp/gd32vf103_dac.c ****     Redistribution and use in source and binary forms, with or without modification, 
  12:arch/riscv/mach-gd32vf10x/bsp/gd32vf103_dac.c **** are permitted provided that the following conditions are met:
  13:arch/riscv/mach-gd32vf10x/bsp/gd32vf103_dac.c **** 
  14:arch/riscv/mach-gd32vf10x/bsp/gd32vf103_dac.c ****     1. Redistributions of source code must retain the above copyright notice, this 
  15:arch/riscv/mach-gd32vf10x/bsp/gd32vf103_dac.c ****        list of conditions and the following disclaimer.
  16:arch/riscv/mach-gd32vf10x/bsp/gd32vf103_dac.c ****     2. Redistributions in binary form must reproduce the above copyright notice, 
  17:arch/riscv/mach-gd32vf10x/bsp/gd32vf103_dac.c ****        this list of conditions and the following disclaimer in the documentation 
  18:arch/riscv/mach-gd32vf10x/bsp/gd32vf103_dac.c ****        and/or other materials provided with the distribution.
  19:arch/riscv/mach-gd32vf10x/bsp/gd32vf103_dac.c ****     3. Neither the name of the copyright holder nor the names of its contributors 
  20:arch/riscv/mach-gd32vf10x/bsp/gd32vf103_dac.c ****        may be used to endorse or promote products derived from this software without 
  21:arch/riscv/mach-gd32vf10x/bsp/gd32vf103_dac.c ****        specific prior written permission.
  22:arch/riscv/mach-gd32vf10x/bsp/gd32vf103_dac.c **** 
  23:arch/riscv/mach-gd32vf10x/bsp/gd32vf103_dac.c ****     THIS SOFTWARE IS PROVIDED BY THE COPYRIGHT HOLDERS AND CONTRIBUTORS "AS IS" 
  24:arch/riscv/mach-gd32vf10x/bsp/gd32vf103_dac.c **** AND ANY EXPRESS OR IMPLIED WARRANTIES, INCLUDING, BUT NOT LIMITED TO, THE IMPLIED 
  25:arch/riscv/mach-gd32vf10x/bsp/gd32vf103_dac.c **** WARRANTIES OF MERCHANTABILITY AND FITNESS FOR A PARTICULAR PURPOSE ARE DISCLAIMED. 
  26:arch/riscv/mach-gd32vf10x/bsp/gd32vf103_dac.c **** IN NO EVENT SHALL THE COPYRIGHT HOLDER OR CONTRIBUTORS BE LIABLE FOR ANY DIRECT, 
  27:arch/riscv/mach-gd32vf10x/bsp/gd32vf103_dac.c **** INDIRECT, INCIDENTAL, SPECIAL, EXEMPLARY, OR CONSEQUENTIAL DAMAGES (INCLUDING, BUT 
  28:arch/riscv/mach-gd32vf10x/bsp/gd32vf103_dac.c **** NOT LIMITED TO, PROCUREMENT OF SUBSTITUTE GOODS OR SERVICES; LOSS OF USE, DATA, OR 
  29:arch/riscv/mach-gd32vf10x/bsp/gd32vf103_dac.c **** PROFITS; OR BUSINESS INTERRUPTION) HOWEVER CAUSED AND ON ANY THEORY OF LIABILITY, 
  30:arch/riscv/mach-gd32vf10x/bsp/gd32vf103_dac.c **** WHETHER IN CONTRACT, STRICT LIABILITY, OR TORT (INCLUDING NEGLIGENCE OR OTHERWISE) 
  31:arch/riscv/mach-gd32vf10x/bsp/gd32vf103_dac.c **** ARISING IN ANY WAY OUT OF THE USE OF THIS SOFTWARE, EVEN IF ADVISED OF THE POSSIBILITY 
  32:arch/riscv/mach-gd32vf10x/bsp/gd32vf103_dac.c **** OF SUCH DAMAGE.
  33:arch/riscv/mach-gd32vf10x/bsp/gd32vf103_dac.c **** */
  34:arch/riscv/mach-gd32vf10x/bsp/gd32vf103_dac.c **** 
  35:arch/riscv/mach-gd32vf10x/bsp/gd32vf103_dac.c **** #include "gd32vf103_dac.h"
  36:arch/riscv/mach-gd32vf10x/bsp/gd32vf103_dac.c **** 
  37:arch/riscv/mach-gd32vf10x/bsp/gd32vf103_dac.c **** /* DAC register bit offset */
  38:arch/riscv/mach-gd32vf10x/bsp/gd32vf103_dac.c **** #define DAC1_REG_OFFSET           ((uint32_t)16U)
  39:arch/riscv/mach-gd32vf10x/bsp/gd32vf103_dac.c **** #define DH_12BIT_OFFSET           ((uint32_t)16U)
  40:arch/riscv/mach-gd32vf10x/bsp/gd32vf103_dac.c **** #define DH_8BIT_OFFSET            ((uint32_t)8U)
  41:arch/riscv/mach-gd32vf10x/bsp/gd32vf103_dac.c **** 
  42:arch/riscv/mach-gd32vf10x/bsp/gd32vf103_dac.c **** /*!
  43:arch/riscv/mach-gd32vf10x/bsp/gd32vf103_dac.c ****     \brief      deinitialize DAC
  44:arch/riscv/mach-gd32vf10x/bsp/gd32vf103_dac.c ****     \param[in]  none
  45:arch/riscv/mach-gd32vf10x/bsp/gd32vf103_dac.c ****     \param[out] none
  46:arch/riscv/mach-gd32vf10x/bsp/gd32vf103_dac.c ****     \retval     none
GAS LISTING C:\Users\test\AppData\Local\Temp\ccrkp0bK.s 			page 2


  47:arch/riscv/mach-gd32vf10x/bsp/gd32vf103_dac.c **** */
  48:arch/riscv/mach-gd32vf10x/bsp/gd32vf103_dac.c **** void dac_deinit(void)
  49:arch/riscv/mach-gd32vf10x/bsp/gd32vf103_dac.c **** {
  13              		.loc 1 49 1
  14              		.cfi_startproc
  50:arch/riscv/mach-gd32vf10x/bsp/gd32vf103_dac.c ****     rcu_periph_reset_enable(RCU_DACRST);
  15              		.loc 1 50 5
  49:arch/riscv/mach-gd32vf10x/bsp/gd32vf103_dac.c ****     rcu_periph_reset_enable(RCU_DACRST);
  16              		.loc 1 49 1 is_stmt 0
  17 0000 4111     		addi	sp,sp,-16
  18              	.LCFI0:
  19              		.cfi_def_cfa_offset 16
  20              		.loc 1 50 5
  21 0002 1305D041 		li	a0,1053
  49:arch/riscv/mach-gd32vf10x/bsp/gd32vf103_dac.c ****     rcu_periph_reset_enable(RCU_DACRST);
  22              		.loc 1 49 1
  23 0006 06C6     		sw	ra,12(sp)
  24              		.cfi_offset 1, -4
  25              		.loc 1 50 5
  26 0008 97000000 		call	rcu_periph_reset_enable
  26      E7800000 
  27              	.LVL0:
  51:arch/riscv/mach-gd32vf10x/bsp/gd32vf103_dac.c ****     rcu_periph_reset_disable(RCU_DACRST);
  28              		.loc 1 51 5 is_stmt 1
  52:arch/riscv/mach-gd32vf10x/bsp/gd32vf103_dac.c **** }
  29              		.loc 1 52 1 is_stmt 0
  30 0010 B240     		lw	ra,12(sp)
  31              		.cfi_restore 1
  51:arch/riscv/mach-gd32vf10x/bsp/gd32vf103_dac.c ****     rcu_periph_reset_disable(RCU_DACRST);
  32              		.loc 1 51 5
  33 0012 1305D041 		li	a0,1053
  34              		.loc 1 52 1
  35 0016 4101     		addi	sp,sp,16
  36              	.LCFI1:
  37              		.cfi_def_cfa_offset 0
  51:arch/riscv/mach-gd32vf10x/bsp/gd32vf103_dac.c ****     rcu_periph_reset_disable(RCU_DACRST);
  38              		.loc 1 51 5
  39 0018 17030000 		tail	rcu_periph_reset_disable
  39      67000300 
  40              	.LVL1:
  41              		.cfi_endproc
  42              	.LFE2:
  44              		.section	.text.dac_enable,"ax",@progbits
  45              		.align	1
  46              		.globl	dac_enable
  48              	dac_enable:
  49              	.LFB3:
  53:arch/riscv/mach-gd32vf10x/bsp/gd32vf103_dac.c **** 
  54:arch/riscv/mach-gd32vf10x/bsp/gd32vf103_dac.c **** /*!
  55:arch/riscv/mach-gd32vf10x/bsp/gd32vf103_dac.c ****     \brief      enable DAC
  56:arch/riscv/mach-gd32vf10x/bsp/gd32vf103_dac.c ****     \param[in]  dac_periph: DACx(x = 0,1)
  57:arch/riscv/mach-gd32vf10x/bsp/gd32vf103_dac.c ****     \param[out] none
  58:arch/riscv/mach-gd32vf10x/bsp/gd32vf103_dac.c ****     \retval     none
  59:arch/riscv/mach-gd32vf10x/bsp/gd32vf103_dac.c **** */
  60:arch/riscv/mach-gd32vf10x/bsp/gd32vf103_dac.c **** void dac_enable(uint32_t dac_periph)
  61:arch/riscv/mach-gd32vf10x/bsp/gd32vf103_dac.c **** {
  50              		.loc 1 61 1 is_stmt 1
GAS LISTING C:\Users\test\AppData\Local\Temp\ccrkp0bK.s 			page 3


  51              		.cfi_startproc
  52              	.LVL2:
  62:arch/riscv/mach-gd32vf10x/bsp/gd32vf103_dac.c ****     if(DAC0 == dac_periph){
  53              		.loc 1 62 5
  63:arch/riscv/mach-gd32vf10x/bsp/gd32vf103_dac.c ****         DAC_CTL |= DAC_CTL_DEN0;
  54              		.loc 1 63 17 is_stmt 0
  55 0000 37770040 		li	a4,1073770496
  56 0004 83270740 		lw	a5,1024(a4)
  62:arch/riscv/mach-gd32vf10x/bsp/gd32vf103_dac.c ****     if(DAC0 == dac_periph){
  57              		.loc 1 62 7
  58 0008 11E5     		bne	a0,zero,.L5
  59              		.loc 1 63 9 is_stmt 1
  60              		.loc 1 63 17 is_stmt 0
  61 000a 93E71700 		ori	a5,a5,1
  62 000e 2320F740 		sw	a5,1024(a4)
  63 0012 8280     		ret
  64              	.L5:
  64:arch/riscv/mach-gd32vf10x/bsp/gd32vf103_dac.c ****     }else{
  65:arch/riscv/mach-gd32vf10x/bsp/gd32vf103_dac.c ****         DAC_CTL |= DAC_CTL_DEN1;
  65              		.loc 1 65 9 is_stmt 1
  66              		.loc 1 65 17 is_stmt 0
  67 0014 C166     		li	a3,65536
  68 0016 D58F     		or	a5,a5,a3
  69 0018 2320F740 		sw	a5,1024(a4)
  66:arch/riscv/mach-gd32vf10x/bsp/gd32vf103_dac.c ****     }
  67:arch/riscv/mach-gd32vf10x/bsp/gd32vf103_dac.c **** } 
  70              		.loc 1 67 1
  71 001c 8280     		ret
  72              		.cfi_endproc
  73              	.LFE3:
  75              		.section	.text.dac_disable,"ax",@progbits
  76              		.align	1
  77              		.globl	dac_disable
  79              	dac_disable:
  80              	.LFB4:
  68:arch/riscv/mach-gd32vf10x/bsp/gd32vf103_dac.c **** 
  69:arch/riscv/mach-gd32vf10x/bsp/gd32vf103_dac.c **** /*!
  70:arch/riscv/mach-gd32vf10x/bsp/gd32vf103_dac.c ****     \brief      disable DAC
  71:arch/riscv/mach-gd32vf10x/bsp/gd32vf103_dac.c ****     \param[in]  dac_periph: DACx(x = 0,1)
  72:arch/riscv/mach-gd32vf10x/bsp/gd32vf103_dac.c ****     \param[out] none
  73:arch/riscv/mach-gd32vf10x/bsp/gd32vf103_dac.c ****     \retval     none
  74:arch/riscv/mach-gd32vf10x/bsp/gd32vf103_dac.c **** */
  75:arch/riscv/mach-gd32vf10x/bsp/gd32vf103_dac.c **** void dac_disable(uint32_t dac_periph)
  76:arch/riscv/mach-gd32vf10x/bsp/gd32vf103_dac.c **** {
  81              		.loc 1 76 1 is_stmt 1
  82              		.cfi_startproc
  83              	.LVL3:
  77:arch/riscv/mach-gd32vf10x/bsp/gd32vf103_dac.c ****     if(DAC0 == dac_periph){
  84              		.loc 1 77 5
  85              		.loc 1 77 7 is_stmt 0
  86 0000 09E9     		bne	a0,zero,.L8
  78:arch/riscv/mach-gd32vf10x/bsp/gd32vf103_dac.c ****         DAC_CTL &= ~DAC_CTL_DEN0;
  87              		.loc 1 78 9 is_stmt 1
  88              		.loc 1 78 17 is_stmt 0
  89 0002 37770040 		li	a4,1073770496
  90 0006 83270740 		lw	a5,1024(a4)
  91 000a F99B     		andi	a5,a5,-2
GAS LISTING C:\Users\test\AppData\Local\Temp\ccrkp0bK.s 			page 4


  92 000c 2320F740 		sw	a5,1024(a4)
  93 0010 8280     		ret
  94              	.L8:
  79:arch/riscv/mach-gd32vf10x/bsp/gd32vf103_dac.c ****     }else{
  80:arch/riscv/mach-gd32vf10x/bsp/gd32vf103_dac.c ****         DAC_CTL &= ~DAC_CTL_DEN1;
  95              		.loc 1 80 9 is_stmt 1
  96              		.loc 1 80 17 is_stmt 0
  97 0012 B7760040 		li	a3,1073770496
  98 0016 83A70640 		lw	a5,1024(a3)
  99 001a 4177     		li	a4,-65536
 100 001c 7D17     		addi	a4,a4,-1
 101 001e F98F     		and	a5,a5,a4
 102 0020 23A0F640 		sw	a5,1024(a3)
  81:arch/riscv/mach-gd32vf10x/bsp/gd32vf103_dac.c ****     }
  82:arch/riscv/mach-gd32vf10x/bsp/gd32vf103_dac.c **** }
 103              		.loc 1 82 1
 104 0024 8280     		ret
 105              		.cfi_endproc
 106              	.LFE4:
 108              		.section	.text.dac_dma_enable,"ax",@progbits
 109              		.align	1
 110              		.globl	dac_dma_enable
 112              	dac_dma_enable:
 113              	.LFB5:
  83:arch/riscv/mach-gd32vf10x/bsp/gd32vf103_dac.c **** 
  84:arch/riscv/mach-gd32vf10x/bsp/gd32vf103_dac.c **** /*!
  85:arch/riscv/mach-gd32vf10x/bsp/gd32vf103_dac.c ****     \brief      enable DAC DMA function
  86:arch/riscv/mach-gd32vf10x/bsp/gd32vf103_dac.c ****     \param[in]  dac_periph: DACx(x = 0,1)
  87:arch/riscv/mach-gd32vf10x/bsp/gd32vf103_dac.c ****     \param[out] none
  88:arch/riscv/mach-gd32vf10x/bsp/gd32vf103_dac.c ****     \retval     none
  89:arch/riscv/mach-gd32vf10x/bsp/gd32vf103_dac.c **** */
  90:arch/riscv/mach-gd32vf10x/bsp/gd32vf103_dac.c **** void dac_dma_enable(uint32_t dac_periph)
  91:arch/riscv/mach-gd32vf10x/bsp/gd32vf103_dac.c **** {
 114              		.loc 1 91 1 is_stmt 1
 115              		.cfi_startproc
 116              	.LVL4:
  92:arch/riscv/mach-gd32vf10x/bsp/gd32vf103_dac.c ****     if(DAC0 == dac_periph){
 117              		.loc 1 92 5
  93:arch/riscv/mach-gd32vf10x/bsp/gd32vf103_dac.c ****         DAC_CTL |= DAC_CTL_DDMAEN0;
 118              		.loc 1 93 17 is_stmt 0
 119 0000 37770040 		li	a4,1073770496
 120 0004 83270740 		lw	a5,1024(a4)
  92:arch/riscv/mach-gd32vf10x/bsp/gd32vf103_dac.c ****     if(DAC0 == dac_periph){
 121              		.loc 1 92 7
 122 0008 11E5     		bne	a0,zero,.L11
 123              		.loc 1 93 9 is_stmt 1
 124              		.loc 1 93 17 is_stmt 0
 125 000a 8566     		li	a3,4096
 126 000c D58F     		or	a5,a5,a3
 127 000e 2320F740 		sw	a5,1024(a4)
 128 0012 8280     		ret
 129              	.L11:
  94:arch/riscv/mach-gd32vf10x/bsp/gd32vf103_dac.c ****     }else{
  95:arch/riscv/mach-gd32vf10x/bsp/gd32vf103_dac.c ****         DAC_CTL |= DAC_CTL_DDMAEN1;
 130              		.loc 1 95 9 is_stmt 1
 131              		.loc 1 95 17 is_stmt 0
 132 0014 B7060010 		li	a3,268435456
GAS LISTING C:\Users\test\AppData\Local\Temp\ccrkp0bK.s 			page 5


 133 0018 D58F     		or	a5,a5,a3
 134 001a 2320F740 		sw	a5,1024(a4)
  96:arch/riscv/mach-gd32vf10x/bsp/gd32vf103_dac.c ****     }
  97:arch/riscv/mach-gd32vf10x/bsp/gd32vf103_dac.c **** }
 135              		.loc 1 97 1
 136 001e 8280     		ret
 137              		.cfi_endproc
 138              	.LFE5:
 140              		.section	.text.dac_dma_disable,"ax",@progbits
 141              		.align	1
 142              		.globl	dac_dma_disable
 144              	dac_dma_disable:
 145              	.LFB6:
  98:arch/riscv/mach-gd32vf10x/bsp/gd32vf103_dac.c **** 
  99:arch/riscv/mach-gd32vf10x/bsp/gd32vf103_dac.c **** /*!
 100:arch/riscv/mach-gd32vf10x/bsp/gd32vf103_dac.c ****     \brief      disable DAC DMA function
 101:arch/riscv/mach-gd32vf10x/bsp/gd32vf103_dac.c ****     \param[in]  dac_periph: DACx(x = 0,1)
 102:arch/riscv/mach-gd32vf10x/bsp/gd32vf103_dac.c ****     \param[out] none
 103:arch/riscv/mach-gd32vf10x/bsp/gd32vf103_dac.c ****     \retval     none
 104:arch/riscv/mach-gd32vf10x/bsp/gd32vf103_dac.c **** */
 105:arch/riscv/mach-gd32vf10x/bsp/gd32vf103_dac.c **** void dac_dma_disable(uint32_t dac_periph)
 106:arch/riscv/mach-gd32vf10x/bsp/gd32vf103_dac.c **** {
 146              		.loc 1 106 1 is_stmt 1
 147              		.cfi_startproc
 148              	.LVL5:
 107:arch/riscv/mach-gd32vf10x/bsp/gd32vf103_dac.c ****     if(DAC0 == dac_periph){
 149              		.loc 1 107 5
 108:arch/riscv/mach-gd32vf10x/bsp/gd32vf103_dac.c ****         DAC_CTL &= ~DAC_CTL_DDMAEN0;
 150              		.loc 1 108 17 is_stmt 0
 151 0000 B7760040 		li	a3,1073770496
 152 0004 83A70640 		lw	a5,1024(a3)
 107:arch/riscv/mach-gd32vf10x/bsp/gd32vf103_dac.c ****     if(DAC0 == dac_periph){
 153              		.loc 1 107 7
 154 0008 19E5     		bne	a0,zero,.L14
 155              		.loc 1 108 9 is_stmt 1
 156              		.loc 1 108 17 is_stmt 0
 157 000a 7D77     		li	a4,-4096
 158 000c 7D17     		addi	a4,a4,-1
 159 000e F98F     		and	a5,a5,a4
 160 0010 23A0F640 		sw	a5,1024(a3)
 161 0014 8280     		ret
 162              	.L14:
 109:arch/riscv/mach-gd32vf10x/bsp/gd32vf103_dac.c ****     }else{
 110:arch/riscv/mach-gd32vf10x/bsp/gd32vf103_dac.c ****         DAC_CTL &= ~DAC_CTL_DDMAEN1;
 163              		.loc 1 110 9 is_stmt 1
 164              		.loc 1 110 17 is_stmt 0
 165 0016 370700F0 		li	a4,-268435456
 166 001a 7D17     		addi	a4,a4,-1
 167 001c F98F     		and	a5,a5,a4
 168 001e 23A0F640 		sw	a5,1024(a3)
 111:arch/riscv/mach-gd32vf10x/bsp/gd32vf103_dac.c ****     }
 112:arch/riscv/mach-gd32vf10x/bsp/gd32vf103_dac.c **** }
 169              		.loc 1 112 1
 170 0022 8280     		ret
 171              		.cfi_endproc
 172              	.LFE6:
 174              		.section	.text.dac_output_buffer_enable,"ax",@progbits
GAS LISTING C:\Users\test\AppData\Local\Temp\ccrkp0bK.s 			page 6


 175              		.align	1
 176              		.globl	dac_output_buffer_enable
 178              	dac_output_buffer_enable:
 179              	.LFB7:
 113:arch/riscv/mach-gd32vf10x/bsp/gd32vf103_dac.c **** 
 114:arch/riscv/mach-gd32vf10x/bsp/gd32vf103_dac.c **** /*!
 115:arch/riscv/mach-gd32vf10x/bsp/gd32vf103_dac.c ****     \brief      enable DAC output buffer
 116:arch/riscv/mach-gd32vf10x/bsp/gd32vf103_dac.c ****     \param[in]  dac_periph: DACx(x = 0,1)
 117:arch/riscv/mach-gd32vf10x/bsp/gd32vf103_dac.c ****     \param[out] none
 118:arch/riscv/mach-gd32vf10x/bsp/gd32vf103_dac.c ****     \retval     none
 119:arch/riscv/mach-gd32vf10x/bsp/gd32vf103_dac.c **** */
 120:arch/riscv/mach-gd32vf10x/bsp/gd32vf103_dac.c **** void dac_output_buffer_enable(uint32_t dac_periph)
 121:arch/riscv/mach-gd32vf10x/bsp/gd32vf103_dac.c **** {
 180              		.loc 1 121 1 is_stmt 1
 181              		.cfi_startproc
 182              	.LVL6:
 122:arch/riscv/mach-gd32vf10x/bsp/gd32vf103_dac.c ****     if(DAC0 == dac_periph){
 183              		.loc 1 122 5
 184              		.loc 1 122 7 is_stmt 0
 185 0000 09E9     		bne	a0,zero,.L17
 123:arch/riscv/mach-gd32vf10x/bsp/gd32vf103_dac.c ****         DAC_CTL &= ~DAC_CTL_DBOFF0;
 186              		.loc 1 123 9 is_stmt 1
 187              		.loc 1 123 17 is_stmt 0
 188 0002 37770040 		li	a4,1073770496
 189 0006 83270740 		lw	a5,1024(a4)
 190 000a F59B     		andi	a5,a5,-3
 191 000c 2320F740 		sw	a5,1024(a4)
 192 0010 8280     		ret
 193              	.L17:
 124:arch/riscv/mach-gd32vf10x/bsp/gd32vf103_dac.c ****     }else{
 125:arch/riscv/mach-gd32vf10x/bsp/gd32vf103_dac.c ****         DAC_CTL &= ~DAC_CTL_DBOFF1;
 194              		.loc 1 125 9 is_stmt 1
 195              		.loc 1 125 17 is_stmt 0
 196 0012 B7760040 		li	a3,1073770496
 197 0016 83A70640 		lw	a5,1024(a3)
 198 001a 0177     		li	a4,-131072
 199 001c 7D17     		addi	a4,a4,-1
 200 001e F98F     		and	a5,a5,a4
 201 0020 23A0F640 		sw	a5,1024(a3)
 126:arch/riscv/mach-gd32vf10x/bsp/gd32vf103_dac.c ****     }
 127:arch/riscv/mach-gd32vf10x/bsp/gd32vf103_dac.c **** }
 202              		.loc 1 127 1
 203 0024 8280     		ret
 204              		.cfi_endproc
 205              	.LFE7:
 207              		.section	.text.dac_output_buffer_disable,"ax",@progbits
 208              		.align	1
 209              		.globl	dac_output_buffer_disable
 211              	dac_output_buffer_disable:
 212              	.LFB8:
 128:arch/riscv/mach-gd32vf10x/bsp/gd32vf103_dac.c **** 
 129:arch/riscv/mach-gd32vf10x/bsp/gd32vf103_dac.c **** /*!
 130:arch/riscv/mach-gd32vf10x/bsp/gd32vf103_dac.c ****     \brief      disable DAC output buffer
 131:arch/riscv/mach-gd32vf10x/bsp/gd32vf103_dac.c ****     \param[in]  dac_periph: DACx(x = 0,1)
 132:arch/riscv/mach-gd32vf10x/bsp/gd32vf103_dac.c ****     \param[out] none
 133:arch/riscv/mach-gd32vf10x/bsp/gd32vf103_dac.c ****     \retval     none
 134:arch/riscv/mach-gd32vf10x/bsp/gd32vf103_dac.c **** */
GAS LISTING C:\Users\test\AppData\Local\Temp\ccrkp0bK.s 			page 7


 135:arch/riscv/mach-gd32vf10x/bsp/gd32vf103_dac.c **** void dac_output_buffer_disable(uint32_t dac_periph)
 136:arch/riscv/mach-gd32vf10x/bsp/gd32vf103_dac.c **** {
 213              		.loc 1 136 1 is_stmt 1
 214              		.cfi_startproc
 215              	.LVL7:
 137:arch/riscv/mach-gd32vf10x/bsp/gd32vf103_dac.c ****     if(DAC0 == dac_periph){
 216              		.loc 1 137 5
 138:arch/riscv/mach-gd32vf10x/bsp/gd32vf103_dac.c ****         DAC_CTL |= DAC_CTL_DBOFF0;
 217              		.loc 1 138 17 is_stmt 0
 218 0000 37770040 		li	a4,1073770496
 219 0004 83270740 		lw	a5,1024(a4)
 137:arch/riscv/mach-gd32vf10x/bsp/gd32vf103_dac.c ****     if(DAC0 == dac_periph){
 220              		.loc 1 137 7
 221 0008 11E5     		bne	a0,zero,.L20
 222              		.loc 1 138 9 is_stmt 1
 223              		.loc 1 138 17 is_stmt 0
 224 000a 93E72700 		ori	a5,a5,2
 225 000e 2320F740 		sw	a5,1024(a4)
 226 0012 8280     		ret
 227              	.L20:
 139:arch/riscv/mach-gd32vf10x/bsp/gd32vf103_dac.c ****     }else{
 140:arch/riscv/mach-gd32vf10x/bsp/gd32vf103_dac.c ****         DAC_CTL |= DAC_CTL_DBOFF1;
 228              		.loc 1 140 9 is_stmt 1
 229              		.loc 1 140 17 is_stmt 0
 230 0014 B7060200 		li	a3,131072
 231 0018 D58F     		or	a5,a5,a3
 232 001a 2320F740 		sw	a5,1024(a4)
 141:arch/riscv/mach-gd32vf10x/bsp/gd32vf103_dac.c ****     }
 142:arch/riscv/mach-gd32vf10x/bsp/gd32vf103_dac.c **** }
 233              		.loc 1 142 1
 234 001e 8280     		ret
 235              		.cfi_endproc
 236              	.LFE8:
 238              		.section	.text.dac_output_value_get,"ax",@progbits
 239              		.align	1
 240              		.globl	dac_output_value_get
 242              	dac_output_value_get:
 243              	.LFB9:
 143:arch/riscv/mach-gd32vf10x/bsp/gd32vf103_dac.c **** 
 144:arch/riscv/mach-gd32vf10x/bsp/gd32vf103_dac.c **** /*!
 145:arch/riscv/mach-gd32vf10x/bsp/gd32vf103_dac.c ****     \brief      get DAC output value
 146:arch/riscv/mach-gd32vf10x/bsp/gd32vf103_dac.c ****     \param[in]  dac_periph: DACx(x = 0,1)
 147:arch/riscv/mach-gd32vf10x/bsp/gd32vf103_dac.c ****     \param[out] none
 148:arch/riscv/mach-gd32vf10x/bsp/gd32vf103_dac.c ****     \retval     DAC output data
 149:arch/riscv/mach-gd32vf10x/bsp/gd32vf103_dac.c **** */
 150:arch/riscv/mach-gd32vf10x/bsp/gd32vf103_dac.c **** uint16_t dac_output_value_get(uint32_t dac_periph)
 151:arch/riscv/mach-gd32vf10x/bsp/gd32vf103_dac.c **** {
 244              		.loc 1 151 1 is_stmt 1
 245              		.cfi_startproc
 246              	.LVL8:
 152:arch/riscv/mach-gd32vf10x/bsp/gd32vf103_dac.c ****     uint16_t data = 0U;
 247              		.loc 1 152 5
 153:arch/riscv/mach-gd32vf10x/bsp/gd32vf103_dac.c ****     if(DAC0 == dac_periph){
 248              		.loc 1 153 5
 154:arch/riscv/mach-gd32vf10x/bsp/gd32vf103_dac.c ****         /* store the DAC0 output value */
 155:arch/riscv/mach-gd32vf10x/bsp/gd32vf103_dac.c ****         data = (uint16_t)DAC0_DO;
 249              		.loc 1 155 26 is_stmt 0
GAS LISTING C:\Users\test\AppData\Local\Temp\ccrkp0bK.s 			page 8


 250 0000 B7770040 		li	a5,1073770496
 153:arch/riscv/mach-gd32vf10x/bsp/gd32vf103_dac.c ****     if(DAC0 == dac_periph){
 251              		.loc 1 153 7
 252 0004 11E5     		bne	a0,zero,.L23
 253              		.loc 1 155 9 is_stmt 1
 254              		.loc 1 155 26 is_stmt 0
 255 0006 03A5C742 		lw	a0,1068(a5)
 256              	.LVL9:
 257              		.loc 1 155 14
 258 000a 4205     		slli	a0,a0,16
 259 000c 4181     		srli	a0,a0,16
 260              	.LVL10:
 261 000e 8280     		ret
 262              	.LVL11:
 263              	.L23:
 156:arch/riscv/mach-gd32vf10x/bsp/gd32vf103_dac.c ****     }else{
 157:arch/riscv/mach-gd32vf10x/bsp/gd32vf103_dac.c ****         /* store the DAC1 output value */
 158:arch/riscv/mach-gd32vf10x/bsp/gd32vf103_dac.c ****         data = (uint16_t)DAC1_DO;
 264              		.loc 1 158 9 is_stmt 1
 265              		.loc 1 158 26 is_stmt 0
 266 0010 03A50743 		lw	a0,1072(a5)
 267              	.LVL12:
 268              		.loc 1 158 14
 269 0014 4205     		slli	a0,a0,16
 270 0016 4181     		srli	a0,a0,16
 271              	.LVL13:
 159:arch/riscv/mach-gd32vf10x/bsp/gd32vf103_dac.c ****     }
 160:arch/riscv/mach-gd32vf10x/bsp/gd32vf103_dac.c ****     return data;
 272              		.loc 1 160 5 is_stmt 1
 161:arch/riscv/mach-gd32vf10x/bsp/gd32vf103_dac.c **** }
 273              		.loc 1 161 1 is_stmt 0
 274 0018 8280     		ret
 275              		.cfi_endproc
 276              	.LFE9:
 278              		.section	.text.dac_data_set,"ax",@progbits
 279              		.align	1
 280              		.globl	dac_data_set
 282              	dac_data_set:
 283              	.LFB10:
 162:arch/riscv/mach-gd32vf10x/bsp/gd32vf103_dac.c **** 
 163:arch/riscv/mach-gd32vf10x/bsp/gd32vf103_dac.c **** /*!
 164:arch/riscv/mach-gd32vf10x/bsp/gd32vf103_dac.c ****     \brief      set the DAC specified data holding register value
 165:arch/riscv/mach-gd32vf10x/bsp/gd32vf103_dac.c ****     \param[in]  dac_periph: DACx(x = 0,1)
 166:arch/riscv/mach-gd32vf10x/bsp/gd32vf103_dac.c ****     \param[in]  dac_align: data alignment
 167:arch/riscv/mach-gd32vf10x/bsp/gd32vf103_dac.c ****                 only one parameter can be selected which is shown as below:
 168:arch/riscv/mach-gd32vf10x/bsp/gd32vf103_dac.c ****       \arg        DAC_ALIGN_8B_R: data right 8 bit alignment
 169:arch/riscv/mach-gd32vf10x/bsp/gd32vf103_dac.c ****       \arg        DAC_ALIGN_12B_R: data right 12 bit alignment
 170:arch/riscv/mach-gd32vf10x/bsp/gd32vf103_dac.c ****       \arg        DAC_ALIGN_12B_L: data left 12 bit alignment
 171:arch/riscv/mach-gd32vf10x/bsp/gd32vf103_dac.c ****     \param[in]  data: data to be loaded
 172:arch/riscv/mach-gd32vf10x/bsp/gd32vf103_dac.c ****     \param[out] none
 173:arch/riscv/mach-gd32vf10x/bsp/gd32vf103_dac.c ****     \retval     none
 174:arch/riscv/mach-gd32vf10x/bsp/gd32vf103_dac.c **** */
 175:arch/riscv/mach-gd32vf10x/bsp/gd32vf103_dac.c **** void dac_data_set(uint32_t dac_periph, uint32_t dac_align, uint16_t data)
 176:arch/riscv/mach-gd32vf10x/bsp/gd32vf103_dac.c **** {
 284              		.loc 1 176 1 is_stmt 1
 285              		.cfi_startproc
 286              	.LVL14:
GAS LISTING C:\Users\test\AppData\Local\Temp\ccrkp0bK.s 			page 9


 177:arch/riscv/mach-gd32vf10x/bsp/gd32vf103_dac.c ****     if(DAC0 == dac_periph){
 287              		.loc 1 177 5
 178:arch/riscv/mach-gd32vf10x/bsp/gd32vf103_dac.c ****         switch(dac_align){
 288              		.loc 1 178 9 is_stmt 0
 289 0000 8547     		li	a5,1
 177:arch/riscv/mach-gd32vf10x/bsp/gd32vf103_dac.c ****     if(DAC0 == dac_periph){
 290              		.loc 1 177 7
 291 0002 01ED     		bne	a0,zero,.L26
 292              		.loc 1 178 9 is_stmt 1
 293 0004 6388F502 		beq	a1,a5,.L27
 294 0008 9DC9     		beq	a1,zero,.L28
 295 000a 8947     		li	a5,2
 296 000c 6392F502 		bne	a1,a5,.L34
 179:arch/riscv/mach-gd32vf10x/bsp/gd32vf103_dac.c ****         /* data right 12 bit alignment */
 180:arch/riscv/mach-gd32vf10x/bsp/gd32vf103_dac.c ****         case DAC_ALIGN_12B_R:
 181:arch/riscv/mach-gd32vf10x/bsp/gd32vf103_dac.c ****             DAC0_R12DH = data;
 182:arch/riscv/mach-gd32vf10x/bsp/gd32vf103_dac.c ****             break;
 183:arch/riscv/mach-gd32vf10x/bsp/gd32vf103_dac.c ****         /* data left 12 bit alignment */
 184:arch/riscv/mach-gd32vf10x/bsp/gd32vf103_dac.c ****         case DAC_ALIGN_12B_L:
 185:arch/riscv/mach-gd32vf10x/bsp/gd32vf103_dac.c ****             DAC0_L12DH = data;
 186:arch/riscv/mach-gd32vf10x/bsp/gd32vf103_dac.c ****             break;
 187:arch/riscv/mach-gd32vf10x/bsp/gd32vf103_dac.c ****         /* data right 8 bit alignment */
 188:arch/riscv/mach-gd32vf10x/bsp/gd32vf103_dac.c ****         case DAC_ALIGN_8B_R:
 189:arch/riscv/mach-gd32vf10x/bsp/gd32vf103_dac.c ****             DAC0_R8DH = data;
 297              		.loc 1 189 13
 298              		.loc 1 189 23 is_stmt 0
 299 0010 B7770040 		li	a5,1073770496
 300 0014 23A8C740 		sw	a2,1040(a5)
 190:arch/riscv/mach-gd32vf10x/bsp/gd32vf103_dac.c ****             break;
 301              		.loc 1 190 13 is_stmt 1
 302 0018 8280     		ret
 303              	.L26:
 191:arch/riscv/mach-gd32vf10x/bsp/gd32vf103_dac.c ****         default:
 192:arch/riscv/mach-gd32vf10x/bsp/gd32vf103_dac.c ****             break;
 193:arch/riscv/mach-gd32vf10x/bsp/gd32vf103_dac.c ****         }
 194:arch/riscv/mach-gd32vf10x/bsp/gd32vf103_dac.c ****     }else{
 195:arch/riscv/mach-gd32vf10x/bsp/gd32vf103_dac.c ****         switch(dac_align){
 304              		.loc 1 195 9
 305 001a 638CF502 		beq	a1,a5,.L31
 306 001e 8DC5     		beq	a1,zero,.L32
 307 0020 8947     		li	a5,2
 308 0022 6398F500 		bne	a1,a5,.L35
 196:arch/riscv/mach-gd32vf10x/bsp/gd32vf103_dac.c ****         /* data right 12 bit alignment */
 197:arch/riscv/mach-gd32vf10x/bsp/gd32vf103_dac.c ****         case DAC_ALIGN_12B_R:
 198:arch/riscv/mach-gd32vf10x/bsp/gd32vf103_dac.c ****             DAC1_R12DH = data;
 199:arch/riscv/mach-gd32vf10x/bsp/gd32vf103_dac.c ****             break;
 200:arch/riscv/mach-gd32vf10x/bsp/gd32vf103_dac.c ****         /* data left 12 bit alignment */
 201:arch/riscv/mach-gd32vf10x/bsp/gd32vf103_dac.c ****         case DAC_ALIGN_12B_L:
 202:arch/riscv/mach-gd32vf10x/bsp/gd32vf103_dac.c ****             DAC1_L12DH = data;
 203:arch/riscv/mach-gd32vf10x/bsp/gd32vf103_dac.c ****             break;
 204:arch/riscv/mach-gd32vf10x/bsp/gd32vf103_dac.c ****         /* data right 8 bit alignment */
 205:arch/riscv/mach-gd32vf10x/bsp/gd32vf103_dac.c ****         case DAC_ALIGN_8B_R:
 206:arch/riscv/mach-gd32vf10x/bsp/gd32vf103_dac.c ****             DAC1_R8DH = data;
 309              		.loc 1 206 13
 310              		.loc 1 206 23 is_stmt 0
 311 0026 B7770040 		li	a5,1073770496
 312 002a 23AEC740 		sw	a2,1052(a5)
GAS LISTING C:\Users\test\AppData\Local\Temp\ccrkp0bK.s 			page 10


 207:arch/riscv/mach-gd32vf10x/bsp/gd32vf103_dac.c ****             break;
 313              		.loc 1 207 13 is_stmt 1
 208:arch/riscv/mach-gd32vf10x/bsp/gd32vf103_dac.c ****         default:
 209:arch/riscv/mach-gd32vf10x/bsp/gd32vf103_dac.c ****             break;
 210:arch/riscv/mach-gd32vf10x/bsp/gd32vf103_dac.c ****         }
 211:arch/riscv/mach-gd32vf10x/bsp/gd32vf103_dac.c ****     }
 212:arch/riscv/mach-gd32vf10x/bsp/gd32vf103_dac.c **** }
 314              		.loc 1 212 1 is_stmt 0
 315 002e 8280     		ret
 316              	.L34:
 317 0030 8280     		ret
 318              	.L35:
 319 0032 8280     		ret
 320              	.L27:
 185:arch/riscv/mach-gd32vf10x/bsp/gd32vf103_dac.c ****             break;
 321              		.loc 1 185 13 is_stmt 1
 185:arch/riscv/mach-gd32vf10x/bsp/gd32vf103_dac.c ****             break;
 322              		.loc 1 185 24 is_stmt 0
 323 0034 B7770040 		li	a5,1073770496
 324 0038 23A6C740 		sw	a2,1036(a5)
 186:arch/riscv/mach-gd32vf10x/bsp/gd32vf103_dac.c ****         /* data right 8 bit alignment */
 325              		.loc 1 186 13 is_stmt 1
 326 003c 8280     		ret
 327              	.L28:
 181:arch/riscv/mach-gd32vf10x/bsp/gd32vf103_dac.c ****             break;
 328              		.loc 1 181 13
 181:arch/riscv/mach-gd32vf10x/bsp/gd32vf103_dac.c ****             break;
 329              		.loc 1 181 24 is_stmt 0
 330 003e B7770040 		li	a5,1073770496
 331 0042 23A4C740 		sw	a2,1032(a5)
 182:arch/riscv/mach-gd32vf10x/bsp/gd32vf103_dac.c ****         /* data left 12 bit alignment */
 332              		.loc 1 182 13 is_stmt 1
 333 0046 8280     		ret
 334              	.L32:
 198:arch/riscv/mach-gd32vf10x/bsp/gd32vf103_dac.c ****             break;
 335              		.loc 1 198 13
 198:arch/riscv/mach-gd32vf10x/bsp/gd32vf103_dac.c ****             break;
 336              		.loc 1 198 24 is_stmt 0
 337 0048 B7770040 		li	a5,1073770496
 338 004c 23AAC740 		sw	a2,1044(a5)
 199:arch/riscv/mach-gd32vf10x/bsp/gd32vf103_dac.c ****         /* data left 12 bit alignment */
 339              		.loc 1 199 13 is_stmt 1
 340 0050 8280     		ret
 341              	.L31:
 202:arch/riscv/mach-gd32vf10x/bsp/gd32vf103_dac.c ****             break;
 342              		.loc 1 202 13
 202:arch/riscv/mach-gd32vf10x/bsp/gd32vf103_dac.c ****             break;
 343              		.loc 1 202 24 is_stmt 0
 344 0052 B7770040 		li	a5,1073770496
 345 0056 23ACC740 		sw	a2,1048(a5)
 203:arch/riscv/mach-gd32vf10x/bsp/gd32vf103_dac.c ****         /* data right 8 bit alignment */
 346              		.loc 1 203 13 is_stmt 1
 347 005a 8280     		ret
 348              		.cfi_endproc
 349              	.LFE10:
 351              		.section	.text.dac_trigger_enable,"ax",@progbits
 352              		.align	1
GAS LISTING C:\Users\test\AppData\Local\Temp\ccrkp0bK.s 			page 11


 353              		.globl	dac_trigger_enable
 355              	dac_trigger_enable:
 356              	.LFB11:
 213:arch/riscv/mach-gd32vf10x/bsp/gd32vf103_dac.c **** 
 214:arch/riscv/mach-gd32vf10x/bsp/gd32vf103_dac.c **** /*!
 215:arch/riscv/mach-gd32vf10x/bsp/gd32vf103_dac.c ****     \brief      enable DAC trigger
 216:arch/riscv/mach-gd32vf10x/bsp/gd32vf103_dac.c ****     \param[in]  dac_periph: DACx(x = 0,1)
 217:arch/riscv/mach-gd32vf10x/bsp/gd32vf103_dac.c ****     \param[out] none
 218:arch/riscv/mach-gd32vf10x/bsp/gd32vf103_dac.c ****     \retval     none
 219:arch/riscv/mach-gd32vf10x/bsp/gd32vf103_dac.c **** */
 220:arch/riscv/mach-gd32vf10x/bsp/gd32vf103_dac.c **** void dac_trigger_enable(uint32_t dac_periph)
 221:arch/riscv/mach-gd32vf10x/bsp/gd32vf103_dac.c **** {
 357              		.loc 1 221 1
 358              		.cfi_startproc
 359              	.LVL15:
 222:arch/riscv/mach-gd32vf10x/bsp/gd32vf103_dac.c ****     if(DAC0 == dac_periph){
 360              		.loc 1 222 5
 223:arch/riscv/mach-gd32vf10x/bsp/gd32vf103_dac.c ****         DAC_CTL |= DAC_CTL_DTEN0;
 361              		.loc 1 223 17 is_stmt 0
 362 0000 37770040 		li	a4,1073770496
 363 0004 83270740 		lw	a5,1024(a4)
 222:arch/riscv/mach-gd32vf10x/bsp/gd32vf103_dac.c ****     if(DAC0 == dac_periph){
 364              		.loc 1 222 7
 365 0008 11E5     		bne	a0,zero,.L37
 366              		.loc 1 223 9 is_stmt 1
 367              		.loc 1 223 17 is_stmt 0
 368 000a 93E74700 		ori	a5,a5,4
 369 000e 2320F740 		sw	a5,1024(a4)
 370 0012 8280     		ret
 371              	.L37:
 224:arch/riscv/mach-gd32vf10x/bsp/gd32vf103_dac.c ****     }else{
 225:arch/riscv/mach-gd32vf10x/bsp/gd32vf103_dac.c ****         DAC_CTL |= DAC_CTL_DTEN1;
 372              		.loc 1 225 9 is_stmt 1
 373              		.loc 1 225 17 is_stmt 0
 374 0014 B7060400 		li	a3,262144
 375 0018 D58F     		or	a5,a5,a3
 376 001a 2320F740 		sw	a5,1024(a4)
 226:arch/riscv/mach-gd32vf10x/bsp/gd32vf103_dac.c ****     }
 227:arch/riscv/mach-gd32vf10x/bsp/gd32vf103_dac.c **** }
 377              		.loc 1 227 1
 378 001e 8280     		ret
 379              		.cfi_endproc
 380              	.LFE11:
 382              		.section	.text.dac_trigger_disable,"ax",@progbits
 383              		.align	1
 384              		.globl	dac_trigger_disable
 386              	dac_trigger_disable:
 387              	.LFB12:
 228:arch/riscv/mach-gd32vf10x/bsp/gd32vf103_dac.c **** 
 229:arch/riscv/mach-gd32vf10x/bsp/gd32vf103_dac.c **** /*!
 230:arch/riscv/mach-gd32vf10x/bsp/gd32vf103_dac.c ****     \brief      disable DAC trigger
 231:arch/riscv/mach-gd32vf10x/bsp/gd32vf103_dac.c ****     \param[in]  dac_periph: DACx(x = 0,1)
 232:arch/riscv/mach-gd32vf10x/bsp/gd32vf103_dac.c ****     \param[out] none
 233:arch/riscv/mach-gd32vf10x/bsp/gd32vf103_dac.c ****     \retval     none
 234:arch/riscv/mach-gd32vf10x/bsp/gd32vf103_dac.c **** */
 235:arch/riscv/mach-gd32vf10x/bsp/gd32vf103_dac.c **** void dac_trigger_disable(uint32_t dac_periph)
 236:arch/riscv/mach-gd32vf10x/bsp/gd32vf103_dac.c **** {
GAS LISTING C:\Users\test\AppData\Local\Temp\ccrkp0bK.s 			page 12


 388              		.loc 1 236 1 is_stmt 1
 389              		.cfi_startproc
 390              	.LVL16:
 237:arch/riscv/mach-gd32vf10x/bsp/gd32vf103_dac.c ****     if(DAC0 == dac_periph){
 391              		.loc 1 237 5
 392              		.loc 1 237 7 is_stmt 0
 393 0000 09E9     		bne	a0,zero,.L40
 238:arch/riscv/mach-gd32vf10x/bsp/gd32vf103_dac.c ****         DAC_CTL &= ~DAC_CTL_DTEN0;
 394              		.loc 1 238 9 is_stmt 1
 395              		.loc 1 238 17 is_stmt 0
 396 0002 37770040 		li	a4,1073770496
 397 0006 83270740 		lw	a5,1024(a4)
 398 000a ED9B     		andi	a5,a5,-5
 399 000c 2320F740 		sw	a5,1024(a4)
 400 0010 8280     		ret
 401              	.L40:
 239:arch/riscv/mach-gd32vf10x/bsp/gd32vf103_dac.c ****     }else{
 240:arch/riscv/mach-gd32vf10x/bsp/gd32vf103_dac.c ****         DAC_CTL &= ~DAC_CTL_DTEN1;
 402              		.loc 1 240 9 is_stmt 1
 403              		.loc 1 240 17 is_stmt 0
 404 0012 B7760040 		li	a3,1073770496
 405 0016 83A70640 		lw	a5,1024(a3)
 406 001a 3707FCFF 		li	a4,-262144
 407 001e 7D17     		addi	a4,a4,-1
 408 0020 F98F     		and	a5,a5,a4
 409 0022 23A0F640 		sw	a5,1024(a3)
 241:arch/riscv/mach-gd32vf10x/bsp/gd32vf103_dac.c ****     }
 242:arch/riscv/mach-gd32vf10x/bsp/gd32vf103_dac.c **** }
 410              		.loc 1 242 1
 411 0026 8280     		ret
 412              		.cfi_endproc
 413              	.LFE12:
 415              		.section	.text.dac_trigger_source_config,"ax",@progbits
 416              		.align	1
 417              		.globl	dac_trigger_source_config
 419              	dac_trigger_source_config:
 420              	.LFB13:
 243:arch/riscv/mach-gd32vf10x/bsp/gd32vf103_dac.c **** 
 244:arch/riscv/mach-gd32vf10x/bsp/gd32vf103_dac.c **** /*!
 245:arch/riscv/mach-gd32vf10x/bsp/gd32vf103_dac.c ****     \brief      set DAC trigger source
 246:arch/riscv/mach-gd32vf10x/bsp/gd32vf103_dac.c ****     \param[in]  dac_periph: DACx(x = 0,1)
 247:arch/riscv/mach-gd32vf10x/bsp/gd32vf103_dac.c ****     \param[in]  triggersource: external triggers of DAC
 248:arch/riscv/mach-gd32vf10x/bsp/gd32vf103_dac.c ****                 only one parameter can be selected which is shown as below:
 249:arch/riscv/mach-gd32vf10x/bsp/gd32vf103_dac.c ****       \arg        DAC_TRIGGER_T1_TRGO: TIMER1 TRGO
 250:arch/riscv/mach-gd32vf10x/bsp/gd32vf103_dac.c ****       \arg        DAC_TRIGGER_T2_TRGO: TIMER2 TRGO
 251:arch/riscv/mach-gd32vf10x/bsp/gd32vf103_dac.c ****       \arg        DAC_TRIGGER_T3_TRGO: TIMER3 TRGO
 252:arch/riscv/mach-gd32vf10x/bsp/gd32vf103_dac.c ****       \arg        DAC_TRIGGER_T4_TRGO: TIMER4 TRGO
 253:arch/riscv/mach-gd32vf10x/bsp/gd32vf103_dac.c ****       \arg        DAC_TRIGGER_T5_TRGO: TIMER5 TRGO
 254:arch/riscv/mach-gd32vf10x/bsp/gd32vf103_dac.c ****       \arg        DAC_TRIGGER_T6_TRGO: TIMER6 TRGO
 255:arch/riscv/mach-gd32vf10x/bsp/gd32vf103_dac.c ****       \arg        DAC_TRIGGER_EXTI_9: EXTI interrupt line9 event
 256:arch/riscv/mach-gd32vf10x/bsp/gd32vf103_dac.c ****       \arg        DAC_TRIGGER_SOFTWARE: software trigger
 257:arch/riscv/mach-gd32vf10x/bsp/gd32vf103_dac.c ****     \param[out] none
 258:arch/riscv/mach-gd32vf10x/bsp/gd32vf103_dac.c ****     \retval     none
 259:arch/riscv/mach-gd32vf10x/bsp/gd32vf103_dac.c **** */
 260:arch/riscv/mach-gd32vf10x/bsp/gd32vf103_dac.c **** void dac_trigger_source_config(uint32_t dac_periph,uint32_t triggersource)
 261:arch/riscv/mach-gd32vf10x/bsp/gd32vf103_dac.c **** {
 421              		.loc 1 261 1 is_stmt 1
GAS LISTING C:\Users\test\AppData\Local\Temp\ccrkp0bK.s 			page 13


 422              		.cfi_startproc
 423              	.LVL17:
 262:arch/riscv/mach-gd32vf10x/bsp/gd32vf103_dac.c ****     if(DAC0 == dac_periph){
 424              		.loc 1 262 5
 263:arch/riscv/mach-gd32vf10x/bsp/gd32vf103_dac.c ****         /* configure DAC0 trigger source */
 264:arch/riscv/mach-gd32vf10x/bsp/gd32vf103_dac.c ****         DAC_CTL &= ~DAC_CTL_DTSEL0;
 425              		.loc 1 264 17 is_stmt 0
 426 0000 B7770040 		li	a5,1073770496
 427 0004 03A70740 		lw	a4,1024(a5)
 262:arch/riscv/mach-gd32vf10x/bsp/gd32vf103_dac.c ****     if(DAC0 == dac_periph){
 428              		.loc 1 262 7
 429 0008 19E9     		bne	a0,zero,.L43
 430              		.loc 1 264 9 is_stmt 1
 431              		.loc 1 264 17 is_stmt 0
 432 000a 137777FC 		andi	a4,a4,-57
 433 000e 23A0E740 		sw	a4,1024(a5)
 265:arch/riscv/mach-gd32vf10x/bsp/gd32vf103_dac.c ****         DAC_CTL |= triggersource;
 434              		.loc 1 265 9 is_stmt 1
 435              		.loc 1 265 17 is_stmt 0
 436 0012 03A70740 		lw	a4,1024(a5)
 437 0016 D98D     		or	a1,a4,a1
 438              	.LVL18:
 439 0018 23A0B740 		sw	a1,1024(a5)
 440 001c 8280     		ret
 441              	.LVL19:
 442              	.L43:
 266:arch/riscv/mach-gd32vf10x/bsp/gd32vf103_dac.c ****     }else{
 267:arch/riscv/mach-gd32vf10x/bsp/gd32vf103_dac.c ****         /* configure DAC1 trigger source */
 268:arch/riscv/mach-gd32vf10x/bsp/gd32vf103_dac.c ****         DAC_CTL &= ~DAC_CTL_DTSEL1;
 443              		.loc 1 268 9 is_stmt 1
 444              		.loc 1 268 17 is_stmt 0
 445 001e B706C8FF 		li	a3,-3670016
 446 0022 FD16     		addi	a3,a3,-1
 447 0024 758F     		and	a4,a4,a3
 448 0026 23A0E740 		sw	a4,1024(a5)
 269:arch/riscv/mach-gd32vf10x/bsp/gd32vf103_dac.c ****         DAC_CTL |= (triggersource << DAC1_REG_OFFSET);
 449              		.loc 1 269 9 is_stmt 1
 450              		.loc 1 269 17 is_stmt 0
 451 002a 03A70740 		lw	a4,1024(a5)
 452              		.loc 1 269 35
 453 002e C205     		slli	a1,a1,16
 454              	.LVL20:
 455              		.loc 1 269 17
 456 0030 D98D     		or	a1,a1,a4
 457 0032 23A0B740 		sw	a1,1024(a5)
 270:arch/riscv/mach-gd32vf10x/bsp/gd32vf103_dac.c ****     }
 271:arch/riscv/mach-gd32vf10x/bsp/gd32vf103_dac.c **** }
 458              		.loc 1 271 1
 459 0036 8280     		ret
 460              		.cfi_endproc
 461              	.LFE13:
 463              		.section	.text.dac_software_trigger_enable,"ax",@progbits
 464              		.align	1
 465              		.globl	dac_software_trigger_enable
 467              	dac_software_trigger_enable:
 468              	.LFB14:
 272:arch/riscv/mach-gd32vf10x/bsp/gd32vf103_dac.c **** 
GAS LISTING C:\Users\test\AppData\Local\Temp\ccrkp0bK.s 			page 14


 273:arch/riscv/mach-gd32vf10x/bsp/gd32vf103_dac.c **** /*!
 274:arch/riscv/mach-gd32vf10x/bsp/gd32vf103_dac.c ****     \brief      enable DAC software trigger
 275:arch/riscv/mach-gd32vf10x/bsp/gd32vf103_dac.c ****     \param[in]  dac_periph: DACx(x = 0,1)
 276:arch/riscv/mach-gd32vf10x/bsp/gd32vf103_dac.c ****     \retval     none
 277:arch/riscv/mach-gd32vf10x/bsp/gd32vf103_dac.c **** */
 278:arch/riscv/mach-gd32vf10x/bsp/gd32vf103_dac.c **** void dac_software_trigger_enable(uint32_t dac_periph)
 279:arch/riscv/mach-gd32vf10x/bsp/gd32vf103_dac.c **** {
 469              		.loc 1 279 1 is_stmt 1
 470              		.cfi_startproc
 471              	.LVL21:
 280:arch/riscv/mach-gd32vf10x/bsp/gd32vf103_dac.c ****     if(DAC0 == dac_periph){
 472              		.loc 1 280 5
 281:arch/riscv/mach-gd32vf10x/bsp/gd32vf103_dac.c ****         DAC_SWT |= DAC_SWT_SWTR0;
 473              		.loc 1 281 17 is_stmt 0
 474 0000 37770040 		li	a4,1073770496
 475 0004 83274740 		lw	a5,1028(a4)
 280:arch/riscv/mach-gd32vf10x/bsp/gd32vf103_dac.c ****     if(DAC0 == dac_periph){
 476              		.loc 1 280 7
 477 0008 11E5     		bne	a0,zero,.L46
 478              		.loc 1 281 9 is_stmt 1
 479              		.loc 1 281 17 is_stmt 0
 480 000a 93E71700 		ori	a5,a5,1
 481 000e 2322F740 		sw	a5,1028(a4)
 482 0012 8280     		ret
 483              	.L46:
 282:arch/riscv/mach-gd32vf10x/bsp/gd32vf103_dac.c ****     }else{
 283:arch/riscv/mach-gd32vf10x/bsp/gd32vf103_dac.c ****         DAC_SWT |= DAC_SWT_SWTR1;
 484              		.loc 1 283 9 is_stmt 1
 485              		.loc 1 283 17 is_stmt 0
 486 0014 93E72700 		ori	a5,a5,2
 487 0018 2322F740 		sw	a5,1028(a4)
 284:arch/riscv/mach-gd32vf10x/bsp/gd32vf103_dac.c ****     }
 285:arch/riscv/mach-gd32vf10x/bsp/gd32vf103_dac.c **** }
 488              		.loc 1 285 1
 489 001c 8280     		ret
 490              		.cfi_endproc
 491              	.LFE14:
 493              		.section	.text.dac_software_trigger_disable,"ax",@progbits
 494              		.align	1
 495              		.globl	dac_software_trigger_disable
 497              	dac_software_trigger_disable:
 498              	.LFB15:
 286:arch/riscv/mach-gd32vf10x/bsp/gd32vf103_dac.c **** 
 287:arch/riscv/mach-gd32vf10x/bsp/gd32vf103_dac.c **** /*!
 288:arch/riscv/mach-gd32vf10x/bsp/gd32vf103_dac.c ****     \brief      disable DAC software trigger
 289:arch/riscv/mach-gd32vf10x/bsp/gd32vf103_dac.c ****     \param[in]  dac_periph: DACx(x = 0,1)
 290:arch/riscv/mach-gd32vf10x/bsp/gd32vf103_dac.c ****     \param[out] none
 291:arch/riscv/mach-gd32vf10x/bsp/gd32vf103_dac.c ****     \retval     none
 292:arch/riscv/mach-gd32vf10x/bsp/gd32vf103_dac.c **** */
 293:arch/riscv/mach-gd32vf10x/bsp/gd32vf103_dac.c **** void dac_software_trigger_disable(uint32_t dac_periph)
 294:arch/riscv/mach-gd32vf10x/bsp/gd32vf103_dac.c **** {
 499              		.loc 1 294 1 is_stmt 1
 500              		.cfi_startproc
 501              	.LVL22:
 295:arch/riscv/mach-gd32vf10x/bsp/gd32vf103_dac.c ****     if(DAC0 == dac_periph){
 502              		.loc 1 295 5
 296:arch/riscv/mach-gd32vf10x/bsp/gd32vf103_dac.c ****         DAC_SWT &= ~DAC_SWT_SWTR0;
GAS LISTING C:\Users\test\AppData\Local\Temp\ccrkp0bK.s 			page 15


 503              		.loc 1 296 17 is_stmt 0
 504 0000 37770040 		li	a4,1073770496
 505 0004 83274740 		lw	a5,1028(a4)
 295:arch/riscv/mach-gd32vf10x/bsp/gd32vf103_dac.c ****     if(DAC0 == dac_periph){
 506              		.loc 1 295 7
 507 0008 09E5     		bne	a0,zero,.L49
 508              		.loc 1 296 9 is_stmt 1
 509              		.loc 1 296 17 is_stmt 0
 510 000a F99B     		andi	a5,a5,-2
 511 000c 2322F740 		sw	a5,1028(a4)
 512 0010 8280     		ret
 513              	.L49:
 297:arch/riscv/mach-gd32vf10x/bsp/gd32vf103_dac.c ****     }else{
 298:arch/riscv/mach-gd32vf10x/bsp/gd32vf103_dac.c ****         DAC_SWT &= ~DAC_SWT_SWTR1;
 514              		.loc 1 298 9 is_stmt 1
 515              		.loc 1 298 17 is_stmt 0
 516 0012 F59B     		andi	a5,a5,-3
 517 0014 2322F740 		sw	a5,1028(a4)
 299:arch/riscv/mach-gd32vf10x/bsp/gd32vf103_dac.c ****     }
 300:arch/riscv/mach-gd32vf10x/bsp/gd32vf103_dac.c **** }
 518              		.loc 1 300 1
 519 0018 8280     		ret
 520              		.cfi_endproc
 521              	.LFE15:
 523              		.section	.text.dac_wave_mode_config,"ax",@progbits
 524              		.align	1
 525              		.globl	dac_wave_mode_config
 527              	dac_wave_mode_config:
 528              	.LFB16:
 301:arch/riscv/mach-gd32vf10x/bsp/gd32vf103_dac.c **** 
 302:arch/riscv/mach-gd32vf10x/bsp/gd32vf103_dac.c **** /*!
 303:arch/riscv/mach-gd32vf10x/bsp/gd32vf103_dac.c ****     \brief      configure DAC wave mode
 304:arch/riscv/mach-gd32vf10x/bsp/gd32vf103_dac.c ****     \param[in]  dac_periph: DACx(x = 0,1)
 305:arch/riscv/mach-gd32vf10x/bsp/gd32vf103_dac.c ****     \param[in]  wave_mode: noise wave mode
 306:arch/riscv/mach-gd32vf10x/bsp/gd32vf103_dac.c ****                 only one parameter can be selected which is shown as below:
 307:arch/riscv/mach-gd32vf10x/bsp/gd32vf103_dac.c ****       \arg        DAC_WAVE_DISABLE: wave disable
 308:arch/riscv/mach-gd32vf10x/bsp/gd32vf103_dac.c ****       \arg        DAC_WAVE_MODE_LFSR: LFSR noise mode
 309:arch/riscv/mach-gd32vf10x/bsp/gd32vf103_dac.c ****       \arg        DAC_WAVE_MODE_TRIANGLE: triangle noise mode
 310:arch/riscv/mach-gd32vf10x/bsp/gd32vf103_dac.c ****     \param[out] none
 311:arch/riscv/mach-gd32vf10x/bsp/gd32vf103_dac.c ****     \retval     none
 312:arch/riscv/mach-gd32vf10x/bsp/gd32vf103_dac.c **** */
 313:arch/riscv/mach-gd32vf10x/bsp/gd32vf103_dac.c **** void dac_wave_mode_config(uint32_t dac_periph, uint32_t wave_mode)
 314:arch/riscv/mach-gd32vf10x/bsp/gd32vf103_dac.c **** {
 529              		.loc 1 314 1 is_stmt 1
 530              		.cfi_startproc
 531              	.LVL23:
 315:arch/riscv/mach-gd32vf10x/bsp/gd32vf103_dac.c ****     if(DAC0 == dac_periph){
 532              		.loc 1 315 5
 316:arch/riscv/mach-gd32vf10x/bsp/gd32vf103_dac.c ****         /* configure DAC0 wave mode */
 317:arch/riscv/mach-gd32vf10x/bsp/gd32vf103_dac.c ****         DAC_CTL &= ~DAC_CTL_DWM0;
 533              		.loc 1 317 17 is_stmt 0
 534 0000 B7770040 		li	a5,1073770496
 535 0004 03A70740 		lw	a4,1024(a5)
 315:arch/riscv/mach-gd32vf10x/bsp/gd32vf103_dac.c ****     if(DAC0 == dac_periph){
 536              		.loc 1 315 7
 537 0008 19E9     		bne	a0,zero,.L52
 538              		.loc 1 317 9 is_stmt 1
GAS LISTING C:\Users\test\AppData\Local\Temp\ccrkp0bK.s 			page 16


 539              		.loc 1 317 17 is_stmt 0
 540 000a 1377F7F3 		andi	a4,a4,-193
 541 000e 23A0E740 		sw	a4,1024(a5)
 318:arch/riscv/mach-gd32vf10x/bsp/gd32vf103_dac.c ****         DAC_CTL |= wave_mode;
 542              		.loc 1 318 9 is_stmt 1
 543              		.loc 1 318 17 is_stmt 0
 544 0012 03A70740 		lw	a4,1024(a5)
 545 0016 D98D     		or	a1,a4,a1
 546              	.LVL24:
 547 0018 23A0B740 		sw	a1,1024(a5)
 548 001c 8280     		ret
 549              	.LVL25:
 550              	.L52:
 319:arch/riscv/mach-gd32vf10x/bsp/gd32vf103_dac.c ****     }else{
 320:arch/riscv/mach-gd32vf10x/bsp/gd32vf103_dac.c ****         /* configure DAC1 wave mode */
 321:arch/riscv/mach-gd32vf10x/bsp/gd32vf103_dac.c ****         DAC_CTL &= ~DAC_CTL_DWM1;
 551              		.loc 1 321 9 is_stmt 1
 552              		.loc 1 321 17 is_stmt 0
 553 001e B70640FF 		li	a3,-12582912
 554 0022 FD16     		addi	a3,a3,-1
 555 0024 758F     		and	a4,a4,a3
 556 0026 23A0E740 		sw	a4,1024(a5)
 322:arch/riscv/mach-gd32vf10x/bsp/gd32vf103_dac.c ****         DAC_CTL |= (wave_mode << DAC1_REG_OFFSET);
 557              		.loc 1 322 9 is_stmt 1
 558              		.loc 1 322 17 is_stmt 0
 559 002a 03A70740 		lw	a4,1024(a5)
 560              		.loc 1 322 31
 561 002e C205     		slli	a1,a1,16
 562              	.LVL26:
 563              		.loc 1 322 17
 564 0030 D98D     		or	a1,a1,a4
 565 0032 23A0B740 		sw	a1,1024(a5)
 323:arch/riscv/mach-gd32vf10x/bsp/gd32vf103_dac.c ****     }
 324:arch/riscv/mach-gd32vf10x/bsp/gd32vf103_dac.c **** }
 566              		.loc 1 324 1
 567 0036 8280     		ret
 568              		.cfi_endproc
 569              	.LFE16:
 571              		.section	.text.dac_wave_bit_width_config,"ax",@progbits
 572              		.align	1
 573              		.globl	dac_wave_bit_width_config
 575              	dac_wave_bit_width_config:
 576              	.LFB17:
 325:arch/riscv/mach-gd32vf10x/bsp/gd32vf103_dac.c **** 
 326:arch/riscv/mach-gd32vf10x/bsp/gd32vf103_dac.c **** /*!
 327:arch/riscv/mach-gd32vf10x/bsp/gd32vf103_dac.c ****     \brief      configure DAC wave bit width
 328:arch/riscv/mach-gd32vf10x/bsp/gd32vf103_dac.c ****     \param[in]  dac_periph: DACx(x = 0,1)
 329:arch/riscv/mach-gd32vf10x/bsp/gd32vf103_dac.c ****     \param[in]  bit_width: noise wave bit width
 330:arch/riscv/mach-gd32vf10x/bsp/gd32vf103_dac.c ****                 only one parameter can be selected which is shown as below:
 331:arch/riscv/mach-gd32vf10x/bsp/gd32vf103_dac.c ****       \arg        DAC_WAVE_BIT_WIDTH_1: bit width of the wave signal is 1
 332:arch/riscv/mach-gd32vf10x/bsp/gd32vf103_dac.c ****       \arg        DAC_WAVE_BIT_WIDTH_2: bit width of the wave signal is 2
 333:arch/riscv/mach-gd32vf10x/bsp/gd32vf103_dac.c ****       \arg        DAC_WAVE_BIT_WIDTH_3: bit width of the wave signal is 3
 334:arch/riscv/mach-gd32vf10x/bsp/gd32vf103_dac.c ****       \arg        DAC_WAVE_BIT_WIDTH_4: bit width of the wave signal is 4
 335:arch/riscv/mach-gd32vf10x/bsp/gd32vf103_dac.c ****       \arg        DAC_WAVE_BIT_WIDTH_5: bit width of the wave signal is 5
 336:arch/riscv/mach-gd32vf10x/bsp/gd32vf103_dac.c ****       \arg        DAC_WAVE_BIT_WIDTH_6: bit width of the wave signal is 6
 337:arch/riscv/mach-gd32vf10x/bsp/gd32vf103_dac.c ****       \arg        DAC_WAVE_BIT_WIDTH_7: bit width of the wave signal is 7
 338:arch/riscv/mach-gd32vf10x/bsp/gd32vf103_dac.c ****       \arg        DAC_WAVE_BIT_WIDTH_8: bit width of the wave signal is 8
GAS LISTING C:\Users\test\AppData\Local\Temp\ccrkp0bK.s 			page 17


 339:arch/riscv/mach-gd32vf10x/bsp/gd32vf103_dac.c ****       \arg        DAC_WAVE_BIT_WIDTH_9: bit width of the wave signal is 9
 340:arch/riscv/mach-gd32vf10x/bsp/gd32vf103_dac.c ****       \arg        DAC_WAVE_BIT_WIDTH_10: bit width of the wave signal is 10
 341:arch/riscv/mach-gd32vf10x/bsp/gd32vf103_dac.c ****       \arg        DAC_WAVE_BIT_WIDTH_11: bit width of the wave signal is 11
 342:arch/riscv/mach-gd32vf10x/bsp/gd32vf103_dac.c ****       \arg        DAC_WAVE_BIT_WIDTH_12: bit width of the wave signal is 12
 343:arch/riscv/mach-gd32vf10x/bsp/gd32vf103_dac.c ****     \param[out] none
 344:arch/riscv/mach-gd32vf10x/bsp/gd32vf103_dac.c ****     \retval     none
 345:arch/riscv/mach-gd32vf10x/bsp/gd32vf103_dac.c **** */
 346:arch/riscv/mach-gd32vf10x/bsp/gd32vf103_dac.c **** void dac_wave_bit_width_config(uint32_t dac_periph, uint32_t bit_width)
 347:arch/riscv/mach-gd32vf10x/bsp/gd32vf103_dac.c **** {
 577              		.loc 1 347 1 is_stmt 1
 578              		.cfi_startproc
 579              	.LVL27:
 348:arch/riscv/mach-gd32vf10x/bsp/gd32vf103_dac.c ****     if(DAC0 == dac_periph){
 580              		.loc 1 348 5
 349:arch/riscv/mach-gd32vf10x/bsp/gd32vf103_dac.c ****         /* configure DAC0 wave bit width */
 350:arch/riscv/mach-gd32vf10x/bsp/gd32vf103_dac.c ****         DAC_CTL &= ~DAC_CTL_DWBW0;
 581              		.loc 1 350 17 is_stmt 0
 582 0000 B7770040 		li	a5,1073770496
 583 0004 03A70740 		lw	a4,1024(a5)
 348:arch/riscv/mach-gd32vf10x/bsp/gd32vf103_dac.c ****     if(DAC0 == dac_periph){
 584              		.loc 1 348 7
 585 0008 09ED     		bne	a0,zero,.L55
 586              		.loc 1 350 9 is_stmt 1
 587              		.loc 1 350 17 is_stmt 0
 588 000a FD76     		li	a3,-4096
 589 000c 9386F60F 		addi	a3,a3,255
 590 0010 758F     		and	a4,a4,a3
 591 0012 23A0E740 		sw	a4,1024(a5)
 351:arch/riscv/mach-gd32vf10x/bsp/gd32vf103_dac.c ****         DAC_CTL |= bit_width;
 592              		.loc 1 351 9 is_stmt 1
 593              		.loc 1 351 17 is_stmt 0
 594 0016 03A70740 		lw	a4,1024(a5)
 595 001a D98D     		or	a1,a4,a1
 596              	.LVL28:
 597 001c 23A0B740 		sw	a1,1024(a5)
 598 0020 8280     		ret
 599              	.LVL29:
 600              	.L55:
 352:arch/riscv/mach-gd32vf10x/bsp/gd32vf103_dac.c ****     }else{
 353:arch/riscv/mach-gd32vf10x/bsp/gd32vf103_dac.c ****         /* configure DAC1 wave bit width */
 354:arch/riscv/mach-gd32vf10x/bsp/gd32vf103_dac.c ****         DAC_CTL &= ~DAC_CTL_DWBW1;
 601              		.loc 1 354 9 is_stmt 1
 602              		.loc 1 354 17 is_stmt 0
 603 0022 B70600F1 		li	a3,-251658240
 604 0026 FD16     		addi	a3,a3,-1
 605 0028 758F     		and	a4,a4,a3
 606 002a 23A0E740 		sw	a4,1024(a5)
 355:arch/riscv/mach-gd32vf10x/bsp/gd32vf103_dac.c ****         DAC_CTL |= (bit_width << DAC1_REG_OFFSET);
 607              		.loc 1 355 9 is_stmt 1
 608              		.loc 1 355 17 is_stmt 0
 609 002e 03A70740 		lw	a4,1024(a5)
 610              		.loc 1 355 31
 611 0032 C205     		slli	a1,a1,16
 612              	.LVL30:
 613              		.loc 1 355 17
 614 0034 D98D     		or	a1,a1,a4
 615 0036 23A0B740 		sw	a1,1024(a5)
GAS LISTING C:\Users\test\AppData\Local\Temp\ccrkp0bK.s 			page 18


 356:arch/riscv/mach-gd32vf10x/bsp/gd32vf103_dac.c ****     }
 357:arch/riscv/mach-gd32vf10x/bsp/gd32vf103_dac.c **** }
 616              		.loc 1 357 1
 617 003a 8280     		ret
 618              		.cfi_endproc
 619              	.LFE17:
 621              		.section	.text.dac_lfsr_noise_config,"ax",@progbits
 622              		.align	1
 623              		.globl	dac_lfsr_noise_config
 625              	dac_lfsr_noise_config:
 626              	.LFB28:
 627              		.cfi_startproc
 628 0000 17030000 		tail	dac_wave_bit_width_config
 628      67000300 
 629              		.cfi_endproc
 630              	.LFE28:
 632              		.section	.text.dac_triangle_noise_config,"ax",@progbits
 633              		.align	1
 634              		.globl	dac_triangle_noise_config
 636              	dac_triangle_noise_config:
 637              	.LFB30:
 638              		.cfi_startproc
 639 0000 17030000 		tail	dac_wave_bit_width_config
 639      67000300 
 640              		.cfi_endproc
 641              	.LFE30:
 643              		.section	.text.dac_concurrent_enable,"ax",@progbits
 644              		.align	1
 645              		.globl	dac_concurrent_enable
 647              	dac_concurrent_enable:
 648              	.LFB20:
 358:arch/riscv/mach-gd32vf10x/bsp/gd32vf103_dac.c **** 
 359:arch/riscv/mach-gd32vf10x/bsp/gd32vf103_dac.c **** /*!
 360:arch/riscv/mach-gd32vf10x/bsp/gd32vf103_dac.c ****     \brief      configure DAC LFSR noise mode
 361:arch/riscv/mach-gd32vf10x/bsp/gd32vf103_dac.c ****     \param[in]  dac_periph: DACx(x = 0,1)
 362:arch/riscv/mach-gd32vf10x/bsp/gd32vf103_dac.c ****     \param[in]  unmask_bits: unmask LFSR bits in DAC LFSR noise mode
 363:arch/riscv/mach-gd32vf10x/bsp/gd32vf103_dac.c ****                 only one parameter can be selected which is shown as below:
 364:arch/riscv/mach-gd32vf10x/bsp/gd32vf103_dac.c ****       \arg        DAC_LFSR_BIT0: unmask the LFSR bit0
 365:arch/riscv/mach-gd32vf10x/bsp/gd32vf103_dac.c ****       \arg        DAC_LFSR_BITS1_0: unmask the LFSR bits[1:0]
 366:arch/riscv/mach-gd32vf10x/bsp/gd32vf103_dac.c ****       \arg        DAC_LFSR_BITS2_0: unmask the LFSR bits[2:0]
 367:arch/riscv/mach-gd32vf10x/bsp/gd32vf103_dac.c ****       \arg        DAC_LFSR_BITS3_0: unmask the LFSR bits[3:0]
 368:arch/riscv/mach-gd32vf10x/bsp/gd32vf103_dac.c ****       \arg        DAC_LFSR_BITS4_0: unmask the LFSR bits[4:0]
 369:arch/riscv/mach-gd32vf10x/bsp/gd32vf103_dac.c ****       \arg        DAC_LFSR_BITS5_0: unmask the LFSR bits[5:0]
 370:arch/riscv/mach-gd32vf10x/bsp/gd32vf103_dac.c ****       \arg        DAC_LFSR_BITS6_0: unmask the LFSR bits[6:0]
 371:arch/riscv/mach-gd32vf10x/bsp/gd32vf103_dac.c ****       \arg        DAC_LFSR_BITS7_0: unmask the LFSR bits[7:0]
 372:arch/riscv/mach-gd32vf10x/bsp/gd32vf103_dac.c ****       \arg        DAC_LFSR_BITS8_0: unmask the LFSR bits[8:0]
 373:arch/riscv/mach-gd32vf10x/bsp/gd32vf103_dac.c ****       \arg        DAC_LFSR_BITS9_0: unmask the LFSR bits[9:0]
 374:arch/riscv/mach-gd32vf10x/bsp/gd32vf103_dac.c ****       \arg        DAC_LFSR_BITS10_0: unmask the LFSR bits[10:0]
 375:arch/riscv/mach-gd32vf10x/bsp/gd32vf103_dac.c ****       \arg        DAC_LFSR_BITS11_0: unmask the LFSR bits[11:0]
 376:arch/riscv/mach-gd32vf10x/bsp/gd32vf103_dac.c ****     \param[out] none
 377:arch/riscv/mach-gd32vf10x/bsp/gd32vf103_dac.c ****     \retval     none
 378:arch/riscv/mach-gd32vf10x/bsp/gd32vf103_dac.c **** */
 379:arch/riscv/mach-gd32vf10x/bsp/gd32vf103_dac.c **** void dac_lfsr_noise_config(uint32_t dac_periph, uint32_t unmask_bits)
 380:arch/riscv/mach-gd32vf10x/bsp/gd32vf103_dac.c **** {
 381:arch/riscv/mach-gd32vf10x/bsp/gd32vf103_dac.c ****     if(DAC0 == dac_periph){
 382:arch/riscv/mach-gd32vf10x/bsp/gd32vf103_dac.c ****         /* configure DAC0 LFSR noise mode */
 383:arch/riscv/mach-gd32vf10x/bsp/gd32vf103_dac.c ****         DAC_CTL &= ~DAC_CTL_DWBW0;
GAS LISTING C:\Users\test\AppData\Local\Temp\ccrkp0bK.s 			page 19


 384:arch/riscv/mach-gd32vf10x/bsp/gd32vf103_dac.c ****         DAC_CTL |= unmask_bits;
 385:arch/riscv/mach-gd32vf10x/bsp/gd32vf103_dac.c ****     }else{
 386:arch/riscv/mach-gd32vf10x/bsp/gd32vf103_dac.c ****         /* configure DAC1 LFSR noise mode */
 387:arch/riscv/mach-gd32vf10x/bsp/gd32vf103_dac.c ****         DAC_CTL &= ~DAC_CTL_DWBW1;
 388:arch/riscv/mach-gd32vf10x/bsp/gd32vf103_dac.c ****         DAC_CTL |= (unmask_bits << DAC1_REG_OFFSET);
 389:arch/riscv/mach-gd32vf10x/bsp/gd32vf103_dac.c ****     }
 390:arch/riscv/mach-gd32vf10x/bsp/gd32vf103_dac.c **** }
 391:arch/riscv/mach-gd32vf10x/bsp/gd32vf103_dac.c **** 
 392:arch/riscv/mach-gd32vf10x/bsp/gd32vf103_dac.c **** /*!
 393:arch/riscv/mach-gd32vf10x/bsp/gd32vf103_dac.c ****     \brief      configure DAC triangle noise mode
 394:arch/riscv/mach-gd32vf10x/bsp/gd32vf103_dac.c ****     \param[in]  dac_periph: DACx(x = 0,1)
 395:arch/riscv/mach-gd32vf10x/bsp/gd32vf103_dac.c ****     \param[in]  amplitude: triangle amplitude in DAC triangle noise mode
 396:arch/riscv/mach-gd32vf10x/bsp/gd32vf103_dac.c ****                 only one parameter can be selected which is shown as below:
 397:arch/riscv/mach-gd32vf10x/bsp/gd32vf103_dac.c ****       \arg        DAC_TRIANGLE_AMPLITUDE_1: triangle amplitude is 1
 398:arch/riscv/mach-gd32vf10x/bsp/gd32vf103_dac.c ****       \arg        DAC_TRIANGLE_AMPLITUDE_3: triangle amplitude is 3
 399:arch/riscv/mach-gd32vf10x/bsp/gd32vf103_dac.c ****       \arg        DAC_TRIANGLE_AMPLITUDE_7: triangle amplitude is 7
 400:arch/riscv/mach-gd32vf10x/bsp/gd32vf103_dac.c ****       \arg        DAC_TRIANGLE_AMPLITUDE_15: triangle amplitude is 15
 401:arch/riscv/mach-gd32vf10x/bsp/gd32vf103_dac.c ****       \arg        DAC_TRIANGLE_AMPLITUDE_31: triangle amplitude is 31
 402:arch/riscv/mach-gd32vf10x/bsp/gd32vf103_dac.c ****       \arg        DAC_TRIANGLE_AMPLITUDE_63: triangle amplitude is 63
 403:arch/riscv/mach-gd32vf10x/bsp/gd32vf103_dac.c ****       \arg        DAC_TRIANGLE_AMPLITUDE_127: triangle amplitude is 127
 404:arch/riscv/mach-gd32vf10x/bsp/gd32vf103_dac.c ****       \arg        DAC_TRIANGLE_AMPLITUDE_255: triangle amplitude is 255
 405:arch/riscv/mach-gd32vf10x/bsp/gd32vf103_dac.c ****       \arg        DAC_TRIANGLE_AMPLITUDE_511: triangle amplitude is 511
 406:arch/riscv/mach-gd32vf10x/bsp/gd32vf103_dac.c ****       \arg        DAC_TRIANGLE_AMPLITUDE_1023: triangle amplitude is 1023
 407:arch/riscv/mach-gd32vf10x/bsp/gd32vf103_dac.c ****       \arg        DAC_TRIANGLE_AMPLITUDE_2047: triangle amplitude is 2047
 408:arch/riscv/mach-gd32vf10x/bsp/gd32vf103_dac.c ****       \arg        DAC_TRIANGLE_AMPLITUDE_4095: triangle amplitude is 4095
 409:arch/riscv/mach-gd32vf10x/bsp/gd32vf103_dac.c ****     \param[out] none
 410:arch/riscv/mach-gd32vf10x/bsp/gd32vf103_dac.c ****     \retval     none
 411:arch/riscv/mach-gd32vf10x/bsp/gd32vf103_dac.c **** */
 412:arch/riscv/mach-gd32vf10x/bsp/gd32vf103_dac.c **** void dac_triangle_noise_config(uint32_t dac_periph, uint32_t amplitude)
 413:arch/riscv/mach-gd32vf10x/bsp/gd32vf103_dac.c **** {
 414:arch/riscv/mach-gd32vf10x/bsp/gd32vf103_dac.c ****     if(DAC0 == dac_periph){
 415:arch/riscv/mach-gd32vf10x/bsp/gd32vf103_dac.c ****         /* configure DAC0 triangle noise mode */
 416:arch/riscv/mach-gd32vf10x/bsp/gd32vf103_dac.c ****         DAC_CTL &= ~DAC_CTL_DWBW0;
 417:arch/riscv/mach-gd32vf10x/bsp/gd32vf103_dac.c ****         DAC_CTL |= amplitude;
 418:arch/riscv/mach-gd32vf10x/bsp/gd32vf103_dac.c ****     }else{
 419:arch/riscv/mach-gd32vf10x/bsp/gd32vf103_dac.c ****         /* configure DAC1 triangle noise mode */
 420:arch/riscv/mach-gd32vf10x/bsp/gd32vf103_dac.c ****         DAC_CTL &= ~DAC_CTL_DWBW1;
 421:arch/riscv/mach-gd32vf10x/bsp/gd32vf103_dac.c ****         DAC_CTL |= (amplitude << DAC1_REG_OFFSET);
 422:arch/riscv/mach-gd32vf10x/bsp/gd32vf103_dac.c ****     }
 423:arch/riscv/mach-gd32vf10x/bsp/gd32vf103_dac.c **** }
 424:arch/riscv/mach-gd32vf10x/bsp/gd32vf103_dac.c **** 
 425:arch/riscv/mach-gd32vf10x/bsp/gd32vf103_dac.c **** /*!
 426:arch/riscv/mach-gd32vf10x/bsp/gd32vf103_dac.c ****     \brief      enable DAC concurrent mode
 427:arch/riscv/mach-gd32vf10x/bsp/gd32vf103_dac.c ****     \param[in]  none
 428:arch/riscv/mach-gd32vf10x/bsp/gd32vf103_dac.c ****     \param[out] none
 429:arch/riscv/mach-gd32vf10x/bsp/gd32vf103_dac.c ****     \retval     none
 430:arch/riscv/mach-gd32vf10x/bsp/gd32vf103_dac.c **** */
 431:arch/riscv/mach-gd32vf10x/bsp/gd32vf103_dac.c **** void dac_concurrent_enable(void)
 432:arch/riscv/mach-gd32vf10x/bsp/gd32vf103_dac.c **** {
 649              		.loc 1 432 1 is_stmt 1
 650              		.cfi_startproc
 433:arch/riscv/mach-gd32vf10x/bsp/gd32vf103_dac.c ****     uint32_t ctl = 0U;
 651              		.loc 1 433 5
 652              	.LVL31:
 434:arch/riscv/mach-gd32vf10x/bsp/gd32vf103_dac.c ****     ctl = DAC_CTL_DEN0 | DAC_CTL_DEN1;
 653              		.loc 1 434 5
 435:arch/riscv/mach-gd32vf10x/bsp/gd32vf103_dac.c ****     DAC_CTL |= (ctl);
GAS LISTING C:\Users\test\AppData\Local\Temp\ccrkp0bK.s 			page 20


 654              		.loc 1 435 5
 655              		.loc 1 435 13 is_stmt 0
 656 0000 B7760040 		li	a3,1073770496
 657 0004 83A70640 		lw	a5,1024(a3)
 658 0008 4167     		li	a4,65536
 659 000a 0507     		addi	a4,a4,1
 660 000c D98F     		or	a5,a5,a4
 661 000e 23A0F640 		sw	a5,1024(a3)
 436:arch/riscv/mach-gd32vf10x/bsp/gd32vf103_dac.c **** }
 662              		.loc 1 436 1
 663 0012 8280     		ret
 664              		.cfi_endproc
 665              	.LFE20:
 667              		.section	.text.dac_concurrent_disable,"ax",@progbits
 668              		.align	1
 669              		.globl	dac_concurrent_disable
 671              	dac_concurrent_disable:
 672              	.LFB21:
 437:arch/riscv/mach-gd32vf10x/bsp/gd32vf103_dac.c **** 
 438:arch/riscv/mach-gd32vf10x/bsp/gd32vf103_dac.c **** /*!
 439:arch/riscv/mach-gd32vf10x/bsp/gd32vf103_dac.c ****     \brief      disable DAC concurrent mode
 440:arch/riscv/mach-gd32vf10x/bsp/gd32vf103_dac.c ****     \param[in]  none
 441:arch/riscv/mach-gd32vf10x/bsp/gd32vf103_dac.c ****     \param[out] none
 442:arch/riscv/mach-gd32vf10x/bsp/gd32vf103_dac.c ****     \retval     none
 443:arch/riscv/mach-gd32vf10x/bsp/gd32vf103_dac.c **** */
 444:arch/riscv/mach-gd32vf10x/bsp/gd32vf103_dac.c **** void dac_concurrent_disable(void)
 445:arch/riscv/mach-gd32vf10x/bsp/gd32vf103_dac.c **** {
 673              		.loc 1 445 1 is_stmt 1
 674              		.cfi_startproc
 446:arch/riscv/mach-gd32vf10x/bsp/gd32vf103_dac.c ****     uint32_t ctl = 0U;
 675              		.loc 1 446 5
 676              	.LVL32:
 447:arch/riscv/mach-gd32vf10x/bsp/gd32vf103_dac.c ****     ctl = DAC_CTL_DEN0 | DAC_CTL_DEN1;
 677              		.loc 1 447 5
 448:arch/riscv/mach-gd32vf10x/bsp/gd32vf103_dac.c ****     DAC_CTL &= (~ctl);
 678              		.loc 1 448 5
 679              		.loc 1 448 13 is_stmt 0
 680 0000 B7760040 		li	a3,1073770496
 681 0004 83A70640 		lw	a5,1024(a3)
 682 0008 4177     		li	a4,-65536
 683 000a 7917     		addi	a4,a4,-2
 684 000c F98F     		and	a5,a5,a4
 685 000e 23A0F640 		sw	a5,1024(a3)
 449:arch/riscv/mach-gd32vf10x/bsp/gd32vf103_dac.c **** }
 686              		.loc 1 449 1
 687 0012 8280     		ret
 688              		.cfi_endproc
 689              	.LFE21:
 691              		.section	.text.dac_concurrent_software_trigger_enable,"ax",@progbits
 692              		.align	1
 693              		.globl	dac_concurrent_software_trigger_enable
 695              	dac_concurrent_software_trigger_enable:
 696              	.LFB22:
 450:arch/riscv/mach-gd32vf10x/bsp/gd32vf103_dac.c **** 
 451:arch/riscv/mach-gd32vf10x/bsp/gd32vf103_dac.c **** /*!
 452:arch/riscv/mach-gd32vf10x/bsp/gd32vf103_dac.c ****     \brief      enable DAC concurrent software trigger function
 453:arch/riscv/mach-gd32vf10x/bsp/gd32vf103_dac.c ****     \param[in]  none
GAS LISTING C:\Users\test\AppData\Local\Temp\ccrkp0bK.s 			page 21


 454:arch/riscv/mach-gd32vf10x/bsp/gd32vf103_dac.c ****     \param[out] none
 455:arch/riscv/mach-gd32vf10x/bsp/gd32vf103_dac.c ****     \retval     none
 456:arch/riscv/mach-gd32vf10x/bsp/gd32vf103_dac.c **** */
 457:arch/riscv/mach-gd32vf10x/bsp/gd32vf103_dac.c **** void dac_concurrent_software_trigger_enable(void)
 458:arch/riscv/mach-gd32vf10x/bsp/gd32vf103_dac.c **** {
 697              		.loc 1 458 1 is_stmt 1
 698              		.cfi_startproc
 459:arch/riscv/mach-gd32vf10x/bsp/gd32vf103_dac.c ****     uint32_t swt = 0U;
 699              		.loc 1 459 5
 700              	.LVL33:
 460:arch/riscv/mach-gd32vf10x/bsp/gd32vf103_dac.c ****     swt = DAC_SWT_SWTR0 | DAC_SWT_SWTR1;
 701              		.loc 1 460 5
 461:arch/riscv/mach-gd32vf10x/bsp/gd32vf103_dac.c ****     DAC_SWT |= (swt); 
 702              		.loc 1 461 5
 703              		.loc 1 461 13 is_stmt 0
 704 0000 37770040 		li	a4,1073770496
 705 0004 83274740 		lw	a5,1028(a4)
 706 0008 93E73700 		ori	a5,a5,3
 707 000c 2322F740 		sw	a5,1028(a4)
 462:arch/riscv/mach-gd32vf10x/bsp/gd32vf103_dac.c **** }
 708              		.loc 1 462 1
 709 0010 8280     		ret
 710              		.cfi_endproc
 711              	.LFE22:
 713              		.section	.text.dac_concurrent_software_trigger_disable,"ax",@progbits
 714              		.align	1
 715              		.globl	dac_concurrent_software_trigger_disable
 717              	dac_concurrent_software_trigger_disable:
 718              	.LFB23:
 463:arch/riscv/mach-gd32vf10x/bsp/gd32vf103_dac.c **** 
 464:arch/riscv/mach-gd32vf10x/bsp/gd32vf103_dac.c **** /*!
 465:arch/riscv/mach-gd32vf10x/bsp/gd32vf103_dac.c ****     \brief      disable DAC concurrent software trigger function
 466:arch/riscv/mach-gd32vf10x/bsp/gd32vf103_dac.c ****     \param[in]  none
 467:arch/riscv/mach-gd32vf10x/bsp/gd32vf103_dac.c ****     \param[out] none
 468:arch/riscv/mach-gd32vf10x/bsp/gd32vf103_dac.c ****     \retval     none
 469:arch/riscv/mach-gd32vf10x/bsp/gd32vf103_dac.c **** */
 470:arch/riscv/mach-gd32vf10x/bsp/gd32vf103_dac.c **** void dac_concurrent_software_trigger_disable(void)
 471:arch/riscv/mach-gd32vf10x/bsp/gd32vf103_dac.c **** {
 719              		.loc 1 471 1 is_stmt 1
 720              		.cfi_startproc
 472:arch/riscv/mach-gd32vf10x/bsp/gd32vf103_dac.c ****     uint32_t swt = 0U;
 721              		.loc 1 472 5
 722              	.LVL34:
 473:arch/riscv/mach-gd32vf10x/bsp/gd32vf103_dac.c ****     swt = DAC_SWT_SWTR0 | DAC_SWT_SWTR1;
 723              		.loc 1 473 5
 474:arch/riscv/mach-gd32vf10x/bsp/gd32vf103_dac.c ****     DAC_SWT &= (~swt);
 724              		.loc 1 474 5
 725              		.loc 1 474 13 is_stmt 0
 726 0000 37770040 		li	a4,1073770496
 727 0004 83274740 		lw	a5,1028(a4)
 728 0008 F19B     		andi	a5,a5,-4
 729 000a 2322F740 		sw	a5,1028(a4)
 475:arch/riscv/mach-gd32vf10x/bsp/gd32vf103_dac.c **** }
 730              		.loc 1 475 1
 731 000e 8280     		ret
 732              		.cfi_endproc
 733              	.LFE23:
GAS LISTING C:\Users\test\AppData\Local\Temp\ccrkp0bK.s 			page 22


 735              		.section	.text.dac_concurrent_output_buffer_enable,"ax",@progbits
 736              		.align	1
 737              		.globl	dac_concurrent_output_buffer_enable
 739              	dac_concurrent_output_buffer_enable:
 740              	.LFB24:
 476:arch/riscv/mach-gd32vf10x/bsp/gd32vf103_dac.c **** 
 477:arch/riscv/mach-gd32vf10x/bsp/gd32vf103_dac.c **** /*!
 478:arch/riscv/mach-gd32vf10x/bsp/gd32vf103_dac.c ****     \brief      enable DAC concurrent buffer function
 479:arch/riscv/mach-gd32vf10x/bsp/gd32vf103_dac.c ****     \param[in]  none
 480:arch/riscv/mach-gd32vf10x/bsp/gd32vf103_dac.c ****     \param[out] none
 481:arch/riscv/mach-gd32vf10x/bsp/gd32vf103_dac.c ****     \retval     none
 482:arch/riscv/mach-gd32vf10x/bsp/gd32vf103_dac.c **** */
 483:arch/riscv/mach-gd32vf10x/bsp/gd32vf103_dac.c **** void dac_concurrent_output_buffer_enable(void)
 484:arch/riscv/mach-gd32vf10x/bsp/gd32vf103_dac.c **** {
 741              		.loc 1 484 1 is_stmt 1
 742              		.cfi_startproc
 485:arch/riscv/mach-gd32vf10x/bsp/gd32vf103_dac.c ****     uint32_t ctl = 0U;
 743              		.loc 1 485 5
 744              	.LVL35:
 486:arch/riscv/mach-gd32vf10x/bsp/gd32vf103_dac.c ****     ctl = DAC_CTL_DBOFF0 | DAC_CTL_DBOFF1;
 745              		.loc 1 486 5
 487:arch/riscv/mach-gd32vf10x/bsp/gd32vf103_dac.c ****     DAC_CTL &= (~ctl);
 746              		.loc 1 487 5
 747              		.loc 1 487 13 is_stmt 0
 748 0000 B7760040 		li	a3,1073770496
 749 0004 83A70640 		lw	a5,1024(a3)
 750 0008 0177     		li	a4,-131072
 751 000a 7517     		addi	a4,a4,-3
 752 000c F98F     		and	a5,a5,a4
 753 000e 23A0F640 		sw	a5,1024(a3)
 488:arch/riscv/mach-gd32vf10x/bsp/gd32vf103_dac.c **** }
 754              		.loc 1 488 1
 755 0012 8280     		ret
 756              		.cfi_endproc
 757              	.LFE24:
 759              		.section	.text.dac_concurrent_output_buffer_disable,"ax",@progbits
 760              		.align	1
 761              		.globl	dac_concurrent_output_buffer_disable
 763              	dac_concurrent_output_buffer_disable:
 764              	.LFB25:
 489:arch/riscv/mach-gd32vf10x/bsp/gd32vf103_dac.c **** 
 490:arch/riscv/mach-gd32vf10x/bsp/gd32vf103_dac.c **** /*!
 491:arch/riscv/mach-gd32vf10x/bsp/gd32vf103_dac.c ****     \brief      disable DAC concurrent buffer function
 492:arch/riscv/mach-gd32vf10x/bsp/gd32vf103_dac.c ****     \param[in]  none
 493:arch/riscv/mach-gd32vf10x/bsp/gd32vf103_dac.c ****     \param[out] none
 494:arch/riscv/mach-gd32vf10x/bsp/gd32vf103_dac.c ****     \retval     none
 495:arch/riscv/mach-gd32vf10x/bsp/gd32vf103_dac.c **** */
 496:arch/riscv/mach-gd32vf10x/bsp/gd32vf103_dac.c **** void dac_concurrent_output_buffer_disable(void)
 497:arch/riscv/mach-gd32vf10x/bsp/gd32vf103_dac.c **** {
 765              		.loc 1 497 1 is_stmt 1
 766              		.cfi_startproc
 498:arch/riscv/mach-gd32vf10x/bsp/gd32vf103_dac.c ****     uint32_t ctl = 0U;
 767              		.loc 1 498 5
 768              	.LVL36:
 499:arch/riscv/mach-gd32vf10x/bsp/gd32vf103_dac.c ****     ctl = DAC_CTL_DBOFF0 | DAC_CTL_DBOFF1;
 769              		.loc 1 499 5
 500:arch/riscv/mach-gd32vf10x/bsp/gd32vf103_dac.c ****     DAC_CTL |= (ctl);
GAS LISTING C:\Users\test\AppData\Local\Temp\ccrkp0bK.s 			page 23


 770              		.loc 1 500 5
 771              		.loc 1 500 13 is_stmt 0
 772 0000 B7760040 		li	a3,1073770496
 773 0004 83A70640 		lw	a5,1024(a3)
 774 0008 37070200 		li	a4,131072
 775 000c 0907     		addi	a4,a4,2
 776 000e D98F     		or	a5,a5,a4
 777 0010 23A0F640 		sw	a5,1024(a3)
 501:arch/riscv/mach-gd32vf10x/bsp/gd32vf103_dac.c **** }
 778              		.loc 1 501 1
 779 0014 8280     		ret
 780              		.cfi_endproc
 781              	.LFE25:
 783              		.section	.text.dac_concurrent_data_set,"ax",@progbits
 784              		.align	1
 785              		.globl	dac_concurrent_data_set
 787              	dac_concurrent_data_set:
 788              	.LFB26:
 502:arch/riscv/mach-gd32vf10x/bsp/gd32vf103_dac.c **** 
 503:arch/riscv/mach-gd32vf10x/bsp/gd32vf103_dac.c **** /*!
 504:arch/riscv/mach-gd32vf10x/bsp/gd32vf103_dac.c ****     \brief      set DAC concurrent mode data holding register value
 505:arch/riscv/mach-gd32vf10x/bsp/gd32vf103_dac.c ****     \param[in]  dac_align: data alignment
 506:arch/riscv/mach-gd32vf10x/bsp/gd32vf103_dac.c ****                 only one parameter can be selected which is shown as below:
 507:arch/riscv/mach-gd32vf10x/bsp/gd32vf103_dac.c ****       \arg        DAC_ALIGN_8B_R: data right 8b alignment
 508:arch/riscv/mach-gd32vf10x/bsp/gd32vf103_dac.c ****       \arg        DAC_ALIGN_12B_R: data right 12b alignment
 509:arch/riscv/mach-gd32vf10x/bsp/gd32vf103_dac.c ****       \arg        DAC_ALIGN_12B_L: data left 12b alignment
 510:arch/riscv/mach-gd32vf10x/bsp/gd32vf103_dac.c ****     \param[in]  data0: data to be loaded
 511:arch/riscv/mach-gd32vf10x/bsp/gd32vf103_dac.c ****     \param[in]  data1: data to be loaded
 512:arch/riscv/mach-gd32vf10x/bsp/gd32vf103_dac.c ****     \param[out] none
 513:arch/riscv/mach-gd32vf10x/bsp/gd32vf103_dac.c ****     \retval     none
 514:arch/riscv/mach-gd32vf10x/bsp/gd32vf103_dac.c **** */
 515:arch/riscv/mach-gd32vf10x/bsp/gd32vf103_dac.c **** void dac_concurrent_data_set(uint32_t dac_align, uint16_t data0, uint16_t data1)
 516:arch/riscv/mach-gd32vf10x/bsp/gd32vf103_dac.c **** {
 789              		.loc 1 516 1 is_stmt 1
 790              		.cfi_startproc
 791              	.LVL37:
 517:arch/riscv/mach-gd32vf10x/bsp/gd32vf103_dac.c ****     uint32_t data = 0U;
 792              		.loc 1 517 5
 518:arch/riscv/mach-gd32vf10x/bsp/gd32vf103_dac.c ****     switch(dac_align){
 793              		.loc 1 518 5
 794 0000 8547     		li	a5,1
 795 0002 630EF500 		beq	a0,a5,.L66
 796 0006 1DC1     		beq	a0,zero,.L67
 797 0008 8947     		li	a5,2
 798 000a 6319F500 		bne	a0,a5,.L70
 519:arch/riscv/mach-gd32vf10x/bsp/gd32vf103_dac.c ****     /* data right 12b alignment */
 520:arch/riscv/mach-gd32vf10x/bsp/gd32vf103_dac.c ****     case DAC_ALIGN_12B_R:
 521:arch/riscv/mach-gd32vf10x/bsp/gd32vf103_dac.c ****         data = ((uint32_t)data1 << DH_12BIT_OFFSET) | data0;
 522:arch/riscv/mach-gd32vf10x/bsp/gd32vf103_dac.c ****         DACC_R12DH = data;
 523:arch/riscv/mach-gd32vf10x/bsp/gd32vf103_dac.c ****         break;
 524:arch/riscv/mach-gd32vf10x/bsp/gd32vf103_dac.c ****     /* data left 12b alignment */
 525:arch/riscv/mach-gd32vf10x/bsp/gd32vf103_dac.c ****     case DAC_ALIGN_12B_L:
 526:arch/riscv/mach-gd32vf10x/bsp/gd32vf103_dac.c ****         data = ((uint32_t)data1 << DH_12BIT_OFFSET) | data0;
 527:arch/riscv/mach-gd32vf10x/bsp/gd32vf103_dac.c ****         DACC_L12DH = data;
 528:arch/riscv/mach-gd32vf10x/bsp/gd32vf103_dac.c ****         break;
 529:arch/riscv/mach-gd32vf10x/bsp/gd32vf103_dac.c ****     /* data right 8b alignment */
 530:arch/riscv/mach-gd32vf10x/bsp/gd32vf103_dac.c ****     case DAC_ALIGN_8B_R:
GAS LISTING C:\Users\test\AppData\Local\Temp\ccrkp0bK.s 			page 24


 531:arch/riscv/mach-gd32vf10x/bsp/gd32vf103_dac.c ****         data = ((uint32_t)data1 << DH_8BIT_OFFSET) | data0;
 799              		.loc 1 531 9
 800              		.loc 1 531 33 is_stmt 0
 801 000e 2206     		slli	a2,a2,8
 802              	.LVL38:
 803              		.loc 1 531 14
 804 0010 4D8E     		or	a2,a2,a1
 805              	.LVL39:
 532:arch/riscv/mach-gd32vf10x/bsp/gd32vf103_dac.c ****         DACC_R8DH = data;
 806              		.loc 1 532 9 is_stmt 1
 807              		.loc 1 532 19 is_stmt 0
 808 0012 B7770040 		li	a5,1073770496
 809 0016 23A4C742 		sw	a2,1064(a5)
 533:arch/riscv/mach-gd32vf10x/bsp/gd32vf103_dac.c ****         break;
 810              		.loc 1 533 9 is_stmt 1
 534:arch/riscv/mach-gd32vf10x/bsp/gd32vf103_dac.c ****     default:
 535:arch/riscv/mach-gd32vf10x/bsp/gd32vf103_dac.c ****         break;
 536:arch/riscv/mach-gd32vf10x/bsp/gd32vf103_dac.c ****     }
 537:arch/riscv/mach-gd32vf10x/bsp/gd32vf103_dac.c **** }
 811              		.loc 1 537 1 is_stmt 0
 812 001a 8280     		ret
 813              	.LVL40:
 814              	.L70:
 815 001c 8280     		ret
 816              	.L66:
 526:arch/riscv/mach-gd32vf10x/bsp/gd32vf103_dac.c ****         DACC_L12DH = data;
 817              		.loc 1 526 9 is_stmt 1
 526:arch/riscv/mach-gd32vf10x/bsp/gd32vf103_dac.c ****         DACC_L12DH = data;
 818              		.loc 1 526 33 is_stmt 0
 819 001e 4206     		slli	a2,a2,16
 820              	.LVL41:
 526:arch/riscv/mach-gd32vf10x/bsp/gd32vf103_dac.c ****         DACC_L12DH = data;
 821              		.loc 1 526 14
 822 0020 4D8E     		or	a2,a2,a1
 823              	.LVL42:
 527:arch/riscv/mach-gd32vf10x/bsp/gd32vf103_dac.c ****         break;
 824              		.loc 1 527 9 is_stmt 1
 527:arch/riscv/mach-gd32vf10x/bsp/gd32vf103_dac.c ****         break;
 825              		.loc 1 527 20 is_stmt 0
 826 0022 B7770040 		li	a5,1073770496
 827 0026 23A2C742 		sw	a2,1060(a5)
 528:arch/riscv/mach-gd32vf10x/bsp/gd32vf103_dac.c ****     /* data right 8b alignment */
 828              		.loc 1 528 9 is_stmt 1
 829 002a 8280     		ret
 830              	.LVL43:
 831              	.L67:
 521:arch/riscv/mach-gd32vf10x/bsp/gd32vf103_dac.c ****         DACC_R12DH = data;
 832              		.loc 1 521 9
 521:arch/riscv/mach-gd32vf10x/bsp/gd32vf103_dac.c ****         DACC_R12DH = data;
 833              		.loc 1 521 33 is_stmt 0
 834 002c 4206     		slli	a2,a2,16
 835              	.LVL44:
 521:arch/riscv/mach-gd32vf10x/bsp/gd32vf103_dac.c ****         DACC_R12DH = data;
 836              		.loc 1 521 14
 837 002e 4D8E     		or	a2,a2,a1
 838              	.LVL45:
 522:arch/riscv/mach-gd32vf10x/bsp/gd32vf103_dac.c ****         break;
GAS LISTING C:\Users\test\AppData\Local\Temp\ccrkp0bK.s 			page 25


 839              		.loc 1 522 9 is_stmt 1
 522:arch/riscv/mach-gd32vf10x/bsp/gd32vf103_dac.c ****         break;
 840              		.loc 1 522 20 is_stmt 0
 841 0030 B7770040 		li	a5,1073770496
 842 0034 23A0C742 		sw	a2,1056(a5)
 523:arch/riscv/mach-gd32vf10x/bsp/gd32vf103_dac.c ****     /* data left 12b alignment */
 843              		.loc 1 523 9 is_stmt 1
 844 0038 8280     		ret
 845              		.cfi_endproc
 846              	.LFE26:
 848              		.text
 849              	.Letext0:
 850              		.file 2 "d:\\risc_v_gcc\\riscv-none-embed\\include\\machine\\_default_types.h"
 851              		.file 3 "d:\\risc_v_gcc\\riscv-none-embed\\include\\sys\\_stdint.h"
 852              		.file 4 "arch/riscv/mach-gd32vf10x/bsp/gd32vf103_rcu.h"
 853              		.file 5 "arch/riscv/mach-gd32vf10x/system/system_gd32vf103.h"
GAS LISTING C:\Users\test\AppData\Local\Temp\ccrkp0bK.s 			page 26


DEFINED SYMBOLS
                            *ABS*:0000000000000000 gd32vf103_dac.c
C:\Users\test\AppData\Local\Temp\ccrkp0bK.s:10     .text.dac_deinit:0000000000000000 dac_deinit
C:\Users\test\AppData\Local\Temp\ccrkp0bK.s:14     .text.dac_deinit:0000000000000000 .L0 
C:\Users\test\AppData\Local\Temp\ccrkp0bK.s:15     .text.dac_deinit:0000000000000000 .L0 
C:\Users\test\AppData\Local\Temp\ccrkp0bK.s:16     .text.dac_deinit:0000000000000000 .L0 
C:\Users\test\AppData\Local\Temp\ccrkp0bK.s:17     .text.dac_deinit:0000000000000000 .L0 
C:\Users\test\AppData\Local\Temp\ccrkp0bK.s:19     .text.dac_deinit:0000000000000002 .L0 
C:\Users\test\AppData\Local\Temp\ccrkp0bK.s:21     .text.dac_deinit:0000000000000002 .L0 
C:\Users\test\AppData\Local\Temp\ccrkp0bK.s:23     .text.dac_deinit:0000000000000006 .L0 
C:\Users\test\AppData\Local\Temp\ccrkp0bK.s:24     .text.dac_deinit:0000000000000008 .L0 
C:\Users\test\AppData\Local\Temp\ccrkp0bK.s:26     .text.dac_deinit:0000000000000008 .L0 
C:\Users\test\AppData\Local\Temp\ccrkp0bK.s:29     .text.dac_deinit:0000000000000010 .L0 
C:\Users\test\AppData\Local\Temp\ccrkp0bK.s:30     .text.dac_deinit:0000000000000010 .L0 
C:\Users\test\AppData\Local\Temp\ccrkp0bK.s:31     .text.dac_deinit:0000000000000012 .L0 
C:\Users\test\AppData\Local\Temp\ccrkp0bK.s:33     .text.dac_deinit:0000000000000012 .L0 
C:\Users\test\AppData\Local\Temp\ccrkp0bK.s:35     .text.dac_deinit:0000000000000016 .L0 
C:\Users\test\AppData\Local\Temp\ccrkp0bK.s:37     .text.dac_deinit:0000000000000018 .L0 
C:\Users\test\AppData\Local\Temp\ccrkp0bK.s:39     .text.dac_deinit:0000000000000018 .L0 
C:\Users\test\AppData\Local\Temp\ccrkp0bK.s:41     .text.dac_deinit:0000000000000020 .L0 
C:\Users\test\AppData\Local\Temp\ccrkp0bK.s:48     .text.dac_enable:0000000000000000 dac_enable
C:\Users\test\AppData\Local\Temp\ccrkp0bK.s:51     .text.dac_enable:0000000000000000 .L0 
C:\Users\test\AppData\Local\Temp\ccrkp0bK.s:53     .text.dac_enable:0000000000000000 .L0 
C:\Users\test\AppData\Local\Temp\ccrkp0bK.s:54     .text.dac_enable:0000000000000000 .L0 
C:\Users\test\AppData\Local\Temp\ccrkp0bK.s:55     .text.dac_enable:0000000000000000 .L0 
C:\Users\test\AppData\Local\Temp\ccrkp0bK.s:58     .text.dac_enable:0000000000000008 .L0 
C:\Users\test\AppData\Local\Temp\ccrkp0bK.s:60     .text.dac_enable:000000000000000a .L0 
C:\Users\test\AppData\Local\Temp\ccrkp0bK.s:61     .text.dac_enable:000000000000000a .L0 
C:\Users\test\AppData\Local\Temp\ccrkp0bK.s:66     .text.dac_enable:0000000000000014 .L0 
C:\Users\test\AppData\Local\Temp\ccrkp0bK.s:67     .text.dac_enable:0000000000000014 .L0 
C:\Users\test\AppData\Local\Temp\ccrkp0bK.s:71     .text.dac_enable:000000000000001c .L0 
C:\Users\test\AppData\Local\Temp\ccrkp0bK.s:72     .text.dac_enable:000000000000001e .L0 
C:\Users\test\AppData\Local\Temp\ccrkp0bK.s:79     .text.dac_disable:0000000000000000 dac_disable
C:\Users\test\AppData\Local\Temp\ccrkp0bK.s:82     .text.dac_disable:0000000000000000 .L0 
C:\Users\test\AppData\Local\Temp\ccrkp0bK.s:84     .text.dac_disable:0000000000000000 .L0 
C:\Users\test\AppData\Local\Temp\ccrkp0bK.s:85     .text.dac_disable:0000000000000000 .L0 
C:\Users\test\AppData\Local\Temp\ccrkp0bK.s:86     .text.dac_disable:0000000000000000 .L0 
C:\Users\test\AppData\Local\Temp\ccrkp0bK.s:88     .text.dac_disable:0000000000000002 .L0 
C:\Users\test\AppData\Local\Temp\ccrkp0bK.s:89     .text.dac_disable:0000000000000002 .L0 
C:\Users\test\AppData\Local\Temp\ccrkp0bK.s:96     .text.dac_disable:0000000000000012 .L0 
C:\Users\test\AppData\Local\Temp\ccrkp0bK.s:97     .text.dac_disable:0000000000000012 .L0 
C:\Users\test\AppData\Local\Temp\ccrkp0bK.s:104    .text.dac_disable:0000000000000024 .L0 
C:\Users\test\AppData\Local\Temp\ccrkp0bK.s:105    .text.dac_disable:0000000000000026 .L0 
C:\Users\test\AppData\Local\Temp\ccrkp0bK.s:112    .text.dac_dma_enable:0000000000000000 dac_dma_enable
C:\Users\test\AppData\Local\Temp\ccrkp0bK.s:115    .text.dac_dma_enable:0000000000000000 .L0 
C:\Users\test\AppData\Local\Temp\ccrkp0bK.s:117    .text.dac_dma_enable:0000000000000000 .L0 
C:\Users\test\AppData\Local\Temp\ccrkp0bK.s:118    .text.dac_dma_enable:0000000000000000 .L0 
C:\Users\test\AppData\Local\Temp\ccrkp0bK.s:119    .text.dac_dma_enable:0000000000000000 .L0 
C:\Users\test\AppData\Local\Temp\ccrkp0bK.s:122    .text.dac_dma_enable:0000000000000008 .L0 
C:\Users\test\AppData\Local\Temp\ccrkp0bK.s:124    .text.dac_dma_enable:000000000000000a .L0 
C:\Users\test\AppData\Local\Temp\ccrkp0bK.s:125    .text.dac_dma_enable:000000000000000a .L0 
C:\Users\test\AppData\Local\Temp\ccrkp0bK.s:131    .text.dac_dma_enable:0000000000000014 .L0 
C:\Users\test\AppData\Local\Temp\ccrkp0bK.s:132    .text.dac_dma_enable:0000000000000014 .L0 
C:\Users\test\AppData\Local\Temp\ccrkp0bK.s:136    .text.dac_dma_enable:000000000000001e .L0 
C:\Users\test\AppData\Local\Temp\ccrkp0bK.s:137    .text.dac_dma_enable:0000000000000020 .L0 
C:\Users\test\AppData\Local\Temp\ccrkp0bK.s:144    .text.dac_dma_disable:0000000000000000 dac_dma_disable
C:\Users\test\AppData\Local\Temp\ccrkp0bK.s:147    .text.dac_dma_disable:0000000000000000 .L0 
GAS LISTING C:\Users\test\AppData\Local\Temp\ccrkp0bK.s 			page 27


C:\Users\test\AppData\Local\Temp\ccrkp0bK.s:149    .text.dac_dma_disable:0000000000000000 .L0 
C:\Users\test\AppData\Local\Temp\ccrkp0bK.s:150    .text.dac_dma_disable:0000000000000000 .L0 
C:\Users\test\AppData\Local\Temp\ccrkp0bK.s:151    .text.dac_dma_disable:0000000000000000 .L0 
C:\Users\test\AppData\Local\Temp\ccrkp0bK.s:154    .text.dac_dma_disable:0000000000000008 .L0 
C:\Users\test\AppData\Local\Temp\ccrkp0bK.s:156    .text.dac_dma_disable:000000000000000a .L0 
C:\Users\test\AppData\Local\Temp\ccrkp0bK.s:157    .text.dac_dma_disable:000000000000000a .L0 
C:\Users\test\AppData\Local\Temp\ccrkp0bK.s:164    .text.dac_dma_disable:0000000000000016 .L0 
C:\Users\test\AppData\Local\Temp\ccrkp0bK.s:165    .text.dac_dma_disable:0000000000000016 .L0 
C:\Users\test\AppData\Local\Temp\ccrkp0bK.s:170    .text.dac_dma_disable:0000000000000022 .L0 
C:\Users\test\AppData\Local\Temp\ccrkp0bK.s:171    .text.dac_dma_disable:0000000000000024 .L0 
C:\Users\test\AppData\Local\Temp\ccrkp0bK.s:178    .text.dac_output_buffer_enable:0000000000000000 dac_output_buffer_enable
C:\Users\test\AppData\Local\Temp\ccrkp0bK.s:181    .text.dac_output_buffer_enable:0000000000000000 .L0 
C:\Users\test\AppData\Local\Temp\ccrkp0bK.s:183    .text.dac_output_buffer_enable:0000000000000000 .L0 
C:\Users\test\AppData\Local\Temp\ccrkp0bK.s:184    .text.dac_output_buffer_enable:0000000000000000 .L0 
C:\Users\test\AppData\Local\Temp\ccrkp0bK.s:185    .text.dac_output_buffer_enable:0000000000000000 .L0 
C:\Users\test\AppData\Local\Temp\ccrkp0bK.s:187    .text.dac_output_buffer_enable:0000000000000002 .L0 
C:\Users\test\AppData\Local\Temp\ccrkp0bK.s:188    .text.dac_output_buffer_enable:0000000000000002 .L0 
C:\Users\test\AppData\Local\Temp\ccrkp0bK.s:195    .text.dac_output_buffer_enable:0000000000000012 .L0 
C:\Users\test\AppData\Local\Temp\ccrkp0bK.s:196    .text.dac_output_buffer_enable:0000000000000012 .L0 
C:\Users\test\AppData\Local\Temp\ccrkp0bK.s:203    .text.dac_output_buffer_enable:0000000000000024 .L0 
C:\Users\test\AppData\Local\Temp\ccrkp0bK.s:204    .text.dac_output_buffer_enable:0000000000000026 .L0 
C:\Users\test\AppData\Local\Temp\ccrkp0bK.s:211    .text.dac_output_buffer_disable:0000000000000000 dac_output_buffer_disable
C:\Users\test\AppData\Local\Temp\ccrkp0bK.s:214    .text.dac_output_buffer_disable:0000000000000000 .L0 
C:\Users\test\AppData\Local\Temp\ccrkp0bK.s:216    .text.dac_output_buffer_disable:0000000000000000 .L0 
C:\Users\test\AppData\Local\Temp\ccrkp0bK.s:217    .text.dac_output_buffer_disable:0000000000000000 .L0 
C:\Users\test\AppData\Local\Temp\ccrkp0bK.s:218    .text.dac_output_buffer_disable:0000000000000000 .L0 
C:\Users\test\AppData\Local\Temp\ccrkp0bK.s:221    .text.dac_output_buffer_disable:0000000000000008 .L0 
C:\Users\test\AppData\Local\Temp\ccrkp0bK.s:223    .text.dac_output_buffer_disable:000000000000000a .L0 
C:\Users\test\AppData\Local\Temp\ccrkp0bK.s:224    .text.dac_output_buffer_disable:000000000000000a .L0 
C:\Users\test\AppData\Local\Temp\ccrkp0bK.s:229    .text.dac_output_buffer_disable:0000000000000014 .L0 
C:\Users\test\AppData\Local\Temp\ccrkp0bK.s:230    .text.dac_output_buffer_disable:0000000000000014 .L0 
C:\Users\test\AppData\Local\Temp\ccrkp0bK.s:234    .text.dac_output_buffer_disable:000000000000001e .L0 
C:\Users\test\AppData\Local\Temp\ccrkp0bK.s:235    .text.dac_output_buffer_disable:0000000000000020 .L0 
C:\Users\test\AppData\Local\Temp\ccrkp0bK.s:242    .text.dac_output_value_get:0000000000000000 dac_output_value_get
C:\Users\test\AppData\Local\Temp\ccrkp0bK.s:245    .text.dac_output_value_get:0000000000000000 .L0 
C:\Users\test\AppData\Local\Temp\ccrkp0bK.s:247    .text.dac_output_value_get:0000000000000000 .L0 
C:\Users\test\AppData\Local\Temp\ccrkp0bK.s:248    .text.dac_output_value_get:0000000000000000 .L0 
C:\Users\test\AppData\Local\Temp\ccrkp0bK.s:249    .text.dac_output_value_get:0000000000000000 .L0 
C:\Users\test\AppData\Local\Temp\ccrkp0bK.s:250    .text.dac_output_value_get:0000000000000000 .L0 
C:\Users\test\AppData\Local\Temp\ccrkp0bK.s:252    .text.dac_output_value_get:0000000000000004 .L0 
C:\Users\test\AppData\Local\Temp\ccrkp0bK.s:254    .text.dac_output_value_get:0000000000000006 .L0 
C:\Users\test\AppData\Local\Temp\ccrkp0bK.s:255    .text.dac_output_value_get:0000000000000006 .L0 
C:\Users\test\AppData\Local\Temp\ccrkp0bK.s:258    .text.dac_output_value_get:000000000000000a .L0 
C:\Users\test\AppData\Local\Temp\ccrkp0bK.s:265    .text.dac_output_value_get:0000000000000010 .L0 
C:\Users\test\AppData\Local\Temp\ccrkp0bK.s:266    .text.dac_output_value_get:0000000000000010 .L0 
C:\Users\test\AppData\Local\Temp\ccrkp0bK.s:269    .text.dac_output_value_get:0000000000000014 .L0 
C:\Users\test\AppData\Local\Temp\ccrkp0bK.s:273    .text.dac_output_value_get:0000000000000018 .L0 
C:\Users\test\AppData\Local\Temp\ccrkp0bK.s:274    .text.dac_output_value_get:0000000000000018 .L0 
C:\Users\test\AppData\Local\Temp\ccrkp0bK.s:275    .text.dac_output_value_get:000000000000001a .L0 
C:\Users\test\AppData\Local\Temp\ccrkp0bK.s:282    .text.dac_data_set:0000000000000000 dac_data_set
C:\Users\test\AppData\Local\Temp\ccrkp0bK.s:285    .text.dac_data_set:0000000000000000 .L0 
C:\Users\test\AppData\Local\Temp\ccrkp0bK.s:287    .text.dac_data_set:0000000000000000 .L0 
C:\Users\test\AppData\Local\Temp\ccrkp0bK.s:288    .text.dac_data_set:0000000000000000 .L0 
C:\Users\test\AppData\Local\Temp\ccrkp0bK.s:289    .text.dac_data_set:0000000000000000 .L0 
C:\Users\test\AppData\Local\Temp\ccrkp0bK.s:291    .text.dac_data_set:0000000000000002 .L0 
C:\Users\test\AppData\Local\Temp\ccrkp0bK.s:293    .text.dac_data_set:0000000000000004 .L0 
C:\Users\test\AppData\Local\Temp\ccrkp0bK.s:298    .text.dac_data_set:0000000000000010 .L0 
GAS LISTING C:\Users\test\AppData\Local\Temp\ccrkp0bK.s 			page 28


C:\Users\test\AppData\Local\Temp\ccrkp0bK.s:299    .text.dac_data_set:0000000000000010 .L0 
C:\Users\test\AppData\Local\Temp\ccrkp0bK.s:302    .text.dac_data_set:0000000000000018 .L0 
C:\Users\test\AppData\Local\Temp\ccrkp0bK.s:305    .text.dac_data_set:000000000000001a .L0 
C:\Users\test\AppData\Local\Temp\ccrkp0bK.s:310    .text.dac_data_set:0000000000000026 .L0 
C:\Users\test\AppData\Local\Temp\ccrkp0bK.s:311    .text.dac_data_set:0000000000000026 .L0 
C:\Users\test\AppData\Local\Temp\ccrkp0bK.s:314    .text.dac_data_set:000000000000002e .L0 
C:\Users\test\AppData\Local\Temp\ccrkp0bK.s:315    .text.dac_data_set:000000000000002e .L0 
C:\Users\test\AppData\Local\Temp\ccrkp0bK.s:322    .text.dac_data_set:0000000000000034 .L0 
C:\Users\test\AppData\Local\Temp\ccrkp0bK.s:323    .text.dac_data_set:0000000000000034 .L0 
C:\Users\test\AppData\Local\Temp\ccrkp0bK.s:326    .text.dac_data_set:000000000000003c .L0 
C:\Users\test\AppData\Local\Temp\ccrkp0bK.s:329    .text.dac_data_set:000000000000003e .L0 
C:\Users\test\AppData\Local\Temp\ccrkp0bK.s:330    .text.dac_data_set:000000000000003e .L0 
C:\Users\test\AppData\Local\Temp\ccrkp0bK.s:333    .text.dac_data_set:0000000000000046 .L0 
C:\Users\test\AppData\Local\Temp\ccrkp0bK.s:336    .text.dac_data_set:0000000000000048 .L0 
C:\Users\test\AppData\Local\Temp\ccrkp0bK.s:337    .text.dac_data_set:0000000000000048 .L0 
C:\Users\test\AppData\Local\Temp\ccrkp0bK.s:340    .text.dac_data_set:0000000000000050 .L0 
C:\Users\test\AppData\Local\Temp\ccrkp0bK.s:343    .text.dac_data_set:0000000000000052 .L0 
C:\Users\test\AppData\Local\Temp\ccrkp0bK.s:344    .text.dac_data_set:0000000000000052 .L0 
C:\Users\test\AppData\Local\Temp\ccrkp0bK.s:347    .text.dac_data_set:000000000000005a .L0 
C:\Users\test\AppData\Local\Temp\ccrkp0bK.s:348    .text.dac_data_set:000000000000005c .L0 
C:\Users\test\AppData\Local\Temp\ccrkp0bK.s:355    .text.dac_trigger_enable:0000000000000000 dac_trigger_enable
C:\Users\test\AppData\Local\Temp\ccrkp0bK.s:358    .text.dac_trigger_enable:0000000000000000 .L0 
C:\Users\test\AppData\Local\Temp\ccrkp0bK.s:360    .text.dac_trigger_enable:0000000000000000 .L0 
C:\Users\test\AppData\Local\Temp\ccrkp0bK.s:361    .text.dac_trigger_enable:0000000000000000 .L0 
C:\Users\test\AppData\Local\Temp\ccrkp0bK.s:362    .text.dac_trigger_enable:0000000000000000 .L0 
C:\Users\test\AppData\Local\Temp\ccrkp0bK.s:365    .text.dac_trigger_enable:0000000000000008 .L0 
C:\Users\test\AppData\Local\Temp\ccrkp0bK.s:367    .text.dac_trigger_enable:000000000000000a .L0 
C:\Users\test\AppData\Local\Temp\ccrkp0bK.s:368    .text.dac_trigger_enable:000000000000000a .L0 
C:\Users\test\AppData\Local\Temp\ccrkp0bK.s:373    .text.dac_trigger_enable:0000000000000014 .L0 
C:\Users\test\AppData\Local\Temp\ccrkp0bK.s:374    .text.dac_trigger_enable:0000000000000014 .L0 
C:\Users\test\AppData\Local\Temp\ccrkp0bK.s:378    .text.dac_trigger_enable:000000000000001e .L0 
C:\Users\test\AppData\Local\Temp\ccrkp0bK.s:379    .text.dac_trigger_enable:0000000000000020 .L0 
C:\Users\test\AppData\Local\Temp\ccrkp0bK.s:386    .text.dac_trigger_disable:0000000000000000 dac_trigger_disable
C:\Users\test\AppData\Local\Temp\ccrkp0bK.s:389    .text.dac_trigger_disable:0000000000000000 .L0 
C:\Users\test\AppData\Local\Temp\ccrkp0bK.s:391    .text.dac_trigger_disable:0000000000000000 .L0 
C:\Users\test\AppData\Local\Temp\ccrkp0bK.s:392    .text.dac_trigger_disable:0000000000000000 .L0 
C:\Users\test\AppData\Local\Temp\ccrkp0bK.s:393    .text.dac_trigger_disable:0000000000000000 .L0 
C:\Users\test\AppData\Local\Temp\ccrkp0bK.s:395    .text.dac_trigger_disable:0000000000000002 .L0 
C:\Users\test\AppData\Local\Temp\ccrkp0bK.s:396    .text.dac_trigger_disable:0000000000000002 .L0 
C:\Users\test\AppData\Local\Temp\ccrkp0bK.s:403    .text.dac_trigger_disable:0000000000000012 .L0 
C:\Users\test\AppData\Local\Temp\ccrkp0bK.s:404    .text.dac_trigger_disable:0000000000000012 .L0 
C:\Users\test\AppData\Local\Temp\ccrkp0bK.s:411    .text.dac_trigger_disable:0000000000000026 .L0 
C:\Users\test\AppData\Local\Temp\ccrkp0bK.s:412    .text.dac_trigger_disable:0000000000000028 .L0 
C:\Users\test\AppData\Local\Temp\ccrkp0bK.s:419    .text.dac_trigger_source_config:0000000000000000 dac_trigger_source_config
C:\Users\test\AppData\Local\Temp\ccrkp0bK.s:422    .text.dac_trigger_source_config:0000000000000000 .L0 
C:\Users\test\AppData\Local\Temp\ccrkp0bK.s:424    .text.dac_trigger_source_config:0000000000000000 .L0 
C:\Users\test\AppData\Local\Temp\ccrkp0bK.s:425    .text.dac_trigger_source_config:0000000000000000 .L0 
C:\Users\test\AppData\Local\Temp\ccrkp0bK.s:426    .text.dac_trigger_source_config:0000000000000000 .L0 
C:\Users\test\AppData\Local\Temp\ccrkp0bK.s:429    .text.dac_trigger_source_config:0000000000000008 .L0 
C:\Users\test\AppData\Local\Temp\ccrkp0bK.s:431    .text.dac_trigger_source_config:000000000000000a .L0 
C:\Users\test\AppData\Local\Temp\ccrkp0bK.s:432    .text.dac_trigger_source_config:000000000000000a .L0 
C:\Users\test\AppData\Local\Temp\ccrkp0bK.s:435    .text.dac_trigger_source_config:0000000000000012 .L0 
C:\Users\test\AppData\Local\Temp\ccrkp0bK.s:436    .text.dac_trigger_source_config:0000000000000012 .L0 
C:\Users\test\AppData\Local\Temp\ccrkp0bK.s:444    .text.dac_trigger_source_config:000000000000001e .L0 
C:\Users\test\AppData\Local\Temp\ccrkp0bK.s:445    .text.dac_trigger_source_config:000000000000001e .L0 
C:\Users\test\AppData\Local\Temp\ccrkp0bK.s:450    .text.dac_trigger_source_config:000000000000002a .L0 
C:\Users\test\AppData\Local\Temp\ccrkp0bK.s:451    .text.dac_trigger_source_config:000000000000002a .L0 
GAS LISTING C:\Users\test\AppData\Local\Temp\ccrkp0bK.s 			page 29


C:\Users\test\AppData\Local\Temp\ccrkp0bK.s:453    .text.dac_trigger_source_config:000000000000002e .L0 
C:\Users\test\AppData\Local\Temp\ccrkp0bK.s:456    .text.dac_trigger_source_config:0000000000000030 .L0 
C:\Users\test\AppData\Local\Temp\ccrkp0bK.s:459    .text.dac_trigger_source_config:0000000000000036 .L0 
C:\Users\test\AppData\Local\Temp\ccrkp0bK.s:460    .text.dac_trigger_source_config:0000000000000038 .L0 
C:\Users\test\AppData\Local\Temp\ccrkp0bK.s:467    .text.dac_software_trigger_enable:0000000000000000 dac_software_trigger_enable
C:\Users\test\AppData\Local\Temp\ccrkp0bK.s:470    .text.dac_software_trigger_enable:0000000000000000 .L0 
C:\Users\test\AppData\Local\Temp\ccrkp0bK.s:472    .text.dac_software_trigger_enable:0000000000000000 .L0 
C:\Users\test\AppData\Local\Temp\ccrkp0bK.s:473    .text.dac_software_trigger_enable:0000000000000000 .L0 
C:\Users\test\AppData\Local\Temp\ccrkp0bK.s:474    .text.dac_software_trigger_enable:0000000000000000 .L0 
C:\Users\test\AppData\Local\Temp\ccrkp0bK.s:477    .text.dac_software_trigger_enable:0000000000000008 .L0 
C:\Users\test\AppData\Local\Temp\ccrkp0bK.s:479    .text.dac_software_trigger_enable:000000000000000a .L0 
C:\Users\test\AppData\Local\Temp\ccrkp0bK.s:480    .text.dac_software_trigger_enable:000000000000000a .L0 
C:\Users\test\AppData\Local\Temp\ccrkp0bK.s:485    .text.dac_software_trigger_enable:0000000000000014 .L0 
C:\Users\test\AppData\Local\Temp\ccrkp0bK.s:486    .text.dac_software_trigger_enable:0000000000000014 .L0 
C:\Users\test\AppData\Local\Temp\ccrkp0bK.s:489    .text.dac_software_trigger_enable:000000000000001c .L0 
C:\Users\test\AppData\Local\Temp\ccrkp0bK.s:490    .text.dac_software_trigger_enable:000000000000001e .L0 
C:\Users\test\AppData\Local\Temp\ccrkp0bK.s:497    .text.dac_software_trigger_disable:0000000000000000 dac_software_trigger_disable
C:\Users\test\AppData\Local\Temp\ccrkp0bK.s:500    .text.dac_software_trigger_disable:0000000000000000 .L0 
C:\Users\test\AppData\Local\Temp\ccrkp0bK.s:502    .text.dac_software_trigger_disable:0000000000000000 .L0 
C:\Users\test\AppData\Local\Temp\ccrkp0bK.s:503    .text.dac_software_trigger_disable:0000000000000000 .L0 
C:\Users\test\AppData\Local\Temp\ccrkp0bK.s:504    .text.dac_software_trigger_disable:0000000000000000 .L0 
C:\Users\test\AppData\Local\Temp\ccrkp0bK.s:507    .text.dac_software_trigger_disable:0000000000000008 .L0 
C:\Users\test\AppData\Local\Temp\ccrkp0bK.s:509    .text.dac_software_trigger_disable:000000000000000a .L0 
C:\Users\test\AppData\Local\Temp\ccrkp0bK.s:510    .text.dac_software_trigger_disable:000000000000000a .L0 
C:\Users\test\AppData\Local\Temp\ccrkp0bK.s:515    .text.dac_software_trigger_disable:0000000000000012 .L0 
C:\Users\test\AppData\Local\Temp\ccrkp0bK.s:516    .text.dac_software_trigger_disable:0000000000000012 .L0 
C:\Users\test\AppData\Local\Temp\ccrkp0bK.s:519    .text.dac_software_trigger_disable:0000000000000018 .L0 
C:\Users\test\AppData\Local\Temp\ccrkp0bK.s:520    .text.dac_software_trigger_disable:000000000000001a .L0 
C:\Users\test\AppData\Local\Temp\ccrkp0bK.s:527    .text.dac_wave_mode_config:0000000000000000 dac_wave_mode_config
C:\Users\test\AppData\Local\Temp\ccrkp0bK.s:530    .text.dac_wave_mode_config:0000000000000000 .L0 
C:\Users\test\AppData\Local\Temp\ccrkp0bK.s:532    .text.dac_wave_mode_config:0000000000000000 .L0 
C:\Users\test\AppData\Local\Temp\ccrkp0bK.s:533    .text.dac_wave_mode_config:0000000000000000 .L0 
C:\Users\test\AppData\Local\Temp\ccrkp0bK.s:534    .text.dac_wave_mode_config:0000000000000000 .L0 
C:\Users\test\AppData\Local\Temp\ccrkp0bK.s:537    .text.dac_wave_mode_config:0000000000000008 .L0 
C:\Users\test\AppData\Local\Temp\ccrkp0bK.s:539    .text.dac_wave_mode_config:000000000000000a .L0 
C:\Users\test\AppData\Local\Temp\ccrkp0bK.s:540    .text.dac_wave_mode_config:000000000000000a .L0 
C:\Users\test\AppData\Local\Temp\ccrkp0bK.s:543    .text.dac_wave_mode_config:0000000000000012 .L0 
C:\Users\test\AppData\Local\Temp\ccrkp0bK.s:544    .text.dac_wave_mode_config:0000000000000012 .L0 
C:\Users\test\AppData\Local\Temp\ccrkp0bK.s:552    .text.dac_wave_mode_config:000000000000001e .L0 
C:\Users\test\AppData\Local\Temp\ccrkp0bK.s:553    .text.dac_wave_mode_config:000000000000001e .L0 
C:\Users\test\AppData\Local\Temp\ccrkp0bK.s:558    .text.dac_wave_mode_config:000000000000002a .L0 
C:\Users\test\AppData\Local\Temp\ccrkp0bK.s:559    .text.dac_wave_mode_config:000000000000002a .L0 
C:\Users\test\AppData\Local\Temp\ccrkp0bK.s:561    .text.dac_wave_mode_config:000000000000002e .L0 
C:\Users\test\AppData\Local\Temp\ccrkp0bK.s:564    .text.dac_wave_mode_config:0000000000000030 .L0 
C:\Users\test\AppData\Local\Temp\ccrkp0bK.s:567    .text.dac_wave_mode_config:0000000000000036 .L0 
C:\Users\test\AppData\Local\Temp\ccrkp0bK.s:568    .text.dac_wave_mode_config:0000000000000038 .L0 
C:\Users\test\AppData\Local\Temp\ccrkp0bK.s:575    .text.dac_wave_bit_width_config:0000000000000000 dac_wave_bit_width_config
C:\Users\test\AppData\Local\Temp\ccrkp0bK.s:578    .text.dac_wave_bit_width_config:0000000000000000 .L0 
C:\Users\test\AppData\Local\Temp\ccrkp0bK.s:580    .text.dac_wave_bit_width_config:0000000000000000 .L0 
C:\Users\test\AppData\Local\Temp\ccrkp0bK.s:581    .text.dac_wave_bit_width_config:0000000000000000 .L0 
C:\Users\test\AppData\Local\Temp\ccrkp0bK.s:582    .text.dac_wave_bit_width_config:0000000000000000 .L0 
C:\Users\test\AppData\Local\Temp\ccrkp0bK.s:585    .text.dac_wave_bit_width_config:0000000000000008 .L0 
C:\Users\test\AppData\Local\Temp\ccrkp0bK.s:587    .text.dac_wave_bit_width_config:000000000000000a .L0 
C:\Users\test\AppData\Local\Temp\ccrkp0bK.s:588    .text.dac_wave_bit_width_config:000000000000000a .L0 
C:\Users\test\AppData\Local\Temp\ccrkp0bK.s:593    .text.dac_wave_bit_width_config:0000000000000016 .L0 
C:\Users\test\AppData\Local\Temp\ccrkp0bK.s:594    .text.dac_wave_bit_width_config:0000000000000016 .L0 
C:\Users\test\AppData\Local\Temp\ccrkp0bK.s:602    .text.dac_wave_bit_width_config:0000000000000022 .L0 
GAS LISTING C:\Users\test\AppData\Local\Temp\ccrkp0bK.s 			page 30


C:\Users\test\AppData\Local\Temp\ccrkp0bK.s:603    .text.dac_wave_bit_width_config:0000000000000022 .L0 
C:\Users\test\AppData\Local\Temp\ccrkp0bK.s:608    .text.dac_wave_bit_width_config:000000000000002e .L0 
C:\Users\test\AppData\Local\Temp\ccrkp0bK.s:609    .text.dac_wave_bit_width_config:000000000000002e .L0 
C:\Users\test\AppData\Local\Temp\ccrkp0bK.s:611    .text.dac_wave_bit_width_config:0000000000000032 .L0 
C:\Users\test\AppData\Local\Temp\ccrkp0bK.s:614    .text.dac_wave_bit_width_config:0000000000000034 .L0 
C:\Users\test\AppData\Local\Temp\ccrkp0bK.s:617    .text.dac_wave_bit_width_config:000000000000003a .L0 
C:\Users\test\AppData\Local\Temp\ccrkp0bK.s:618    .text.dac_wave_bit_width_config:000000000000003c .L0 
C:\Users\test\AppData\Local\Temp\ccrkp0bK.s:625    .text.dac_lfsr_noise_config:0000000000000000 dac_lfsr_noise_config
C:\Users\test\AppData\Local\Temp\ccrkp0bK.s:627    .text.dac_lfsr_noise_config:0000000000000000 .L0 
C:\Users\test\AppData\Local\Temp\ccrkp0bK.s:629    .text.dac_lfsr_noise_config:0000000000000008 .L0 
C:\Users\test\AppData\Local\Temp\ccrkp0bK.s:636    .text.dac_triangle_noise_config:0000000000000000 dac_triangle_noise_config
C:\Users\test\AppData\Local\Temp\ccrkp0bK.s:638    .text.dac_triangle_noise_config:0000000000000000 .L0 
C:\Users\test\AppData\Local\Temp\ccrkp0bK.s:640    .text.dac_triangle_noise_config:0000000000000008 .L0 
C:\Users\test\AppData\Local\Temp\ccrkp0bK.s:647    .text.dac_concurrent_enable:0000000000000000 dac_concurrent_enable
C:\Users\test\AppData\Local\Temp\ccrkp0bK.s:650    .text.dac_concurrent_enable:0000000000000000 .L0 
C:\Users\test\AppData\Local\Temp\ccrkp0bK.s:651    .text.dac_concurrent_enable:0000000000000000 .L0 
C:\Users\test\AppData\Local\Temp\ccrkp0bK.s:653    .text.dac_concurrent_enable:0000000000000000 .L0 
C:\Users\test\AppData\Local\Temp\ccrkp0bK.s:654    .text.dac_concurrent_enable:0000000000000000 .L0 
C:\Users\test\AppData\Local\Temp\ccrkp0bK.s:655    .text.dac_concurrent_enable:0000000000000000 .L0 
C:\Users\test\AppData\Local\Temp\ccrkp0bK.s:656    .text.dac_concurrent_enable:0000000000000000 .L0 
C:\Users\test\AppData\Local\Temp\ccrkp0bK.s:663    .text.dac_concurrent_enable:0000000000000012 .L0 
C:\Users\test\AppData\Local\Temp\ccrkp0bK.s:664    .text.dac_concurrent_enable:0000000000000014 .L0 
C:\Users\test\AppData\Local\Temp\ccrkp0bK.s:671    .text.dac_concurrent_disable:0000000000000000 dac_concurrent_disable
C:\Users\test\AppData\Local\Temp\ccrkp0bK.s:674    .text.dac_concurrent_disable:0000000000000000 .L0 
C:\Users\test\AppData\Local\Temp\ccrkp0bK.s:675    .text.dac_concurrent_disable:0000000000000000 .L0 
C:\Users\test\AppData\Local\Temp\ccrkp0bK.s:677    .text.dac_concurrent_disable:0000000000000000 .L0 
C:\Users\test\AppData\Local\Temp\ccrkp0bK.s:678    .text.dac_concurrent_disable:0000000000000000 .L0 
C:\Users\test\AppData\Local\Temp\ccrkp0bK.s:679    .text.dac_concurrent_disable:0000000000000000 .L0 
C:\Users\test\AppData\Local\Temp\ccrkp0bK.s:680    .text.dac_concurrent_disable:0000000000000000 .L0 
C:\Users\test\AppData\Local\Temp\ccrkp0bK.s:687    .text.dac_concurrent_disable:0000000000000012 .L0 
C:\Users\test\AppData\Local\Temp\ccrkp0bK.s:688    .text.dac_concurrent_disable:0000000000000014 .L0 
C:\Users\test\AppData\Local\Temp\ccrkp0bK.s:695    .text.dac_concurrent_software_trigger_enable:0000000000000000 dac_concurrent_software_trigger_enable
C:\Users\test\AppData\Local\Temp\ccrkp0bK.s:698    .text.dac_concurrent_software_trigger_enable:0000000000000000 .L0 
C:\Users\test\AppData\Local\Temp\ccrkp0bK.s:699    .text.dac_concurrent_software_trigger_enable:0000000000000000 .L0 
C:\Users\test\AppData\Local\Temp\ccrkp0bK.s:701    .text.dac_concurrent_software_trigger_enable:0000000000000000 .L0 
C:\Users\test\AppData\Local\Temp\ccrkp0bK.s:702    .text.dac_concurrent_software_trigger_enable:0000000000000000 .L0 
C:\Users\test\AppData\Local\Temp\ccrkp0bK.s:703    .text.dac_concurrent_software_trigger_enable:0000000000000000 .L0 
C:\Users\test\AppData\Local\Temp\ccrkp0bK.s:704    .text.dac_concurrent_software_trigger_enable:0000000000000000 .L0 
C:\Users\test\AppData\Local\Temp\ccrkp0bK.s:709    .text.dac_concurrent_software_trigger_enable:0000000000000010 .L0 
C:\Users\test\AppData\Local\Temp\ccrkp0bK.s:710    .text.dac_concurrent_software_trigger_enable:0000000000000012 .L0 
C:\Users\test\AppData\Local\Temp\ccrkp0bK.s:717    .text.dac_concurrent_software_trigger_disable:0000000000000000 dac_concurrent_software_trigger_disable
C:\Users\test\AppData\Local\Temp\ccrkp0bK.s:720    .text.dac_concurrent_software_trigger_disable:0000000000000000 .L0 
C:\Users\test\AppData\Local\Temp\ccrkp0bK.s:721    .text.dac_concurrent_software_trigger_disable:0000000000000000 .L0 
C:\Users\test\AppData\Local\Temp\ccrkp0bK.s:723    .text.dac_concurrent_software_trigger_disable:0000000000000000 .L0 
C:\Users\test\AppData\Local\Temp\ccrkp0bK.s:724    .text.dac_concurrent_software_trigger_disable:0000000000000000 .L0 
C:\Users\test\AppData\Local\Temp\ccrkp0bK.s:725    .text.dac_concurrent_software_trigger_disable:0000000000000000 .L0 
C:\Users\test\AppData\Local\Temp\ccrkp0bK.s:726    .text.dac_concurrent_software_trigger_disable:0000000000000000 .L0 
C:\Users\test\AppData\Local\Temp\ccrkp0bK.s:731    .text.dac_concurrent_software_trigger_disable:000000000000000e .L0 
C:\Users\test\AppData\Local\Temp\ccrkp0bK.s:732    .text.dac_concurrent_software_trigger_disable:0000000000000010 .L0 
C:\Users\test\AppData\Local\Temp\ccrkp0bK.s:739    .text.dac_concurrent_output_buffer_enable:0000000000000000 dac_concurrent_output_buffer_enable
C:\Users\test\AppData\Local\Temp\ccrkp0bK.s:742    .text.dac_concurrent_output_buffer_enable:0000000000000000 .L0 
C:\Users\test\AppData\Local\Temp\ccrkp0bK.s:743    .text.dac_concurrent_output_buffer_enable:0000000000000000 .L0 
C:\Users\test\AppData\Local\Temp\ccrkp0bK.s:745    .text.dac_concurrent_output_buffer_enable:0000000000000000 .L0 
C:\Users\test\AppData\Local\Temp\ccrkp0bK.s:746    .text.dac_concurrent_output_buffer_enable:0000000000000000 .L0 
C:\Users\test\AppData\Local\Temp\ccrkp0bK.s:747    .text.dac_concurrent_output_buffer_enable:0000000000000000 .L0 
C:\Users\test\AppData\Local\Temp\ccrkp0bK.s:748    .text.dac_concurrent_output_buffer_enable:0000000000000000 .L0 
C:\Users\test\AppData\Local\Temp\ccrkp0bK.s:755    .text.dac_concurrent_output_buffer_enable:0000000000000012 .L0 
GAS LISTING C:\Users\test\AppData\Local\Temp\ccrkp0bK.s 			page 31


C:\Users\test\AppData\Local\Temp\ccrkp0bK.s:756    .text.dac_concurrent_output_buffer_enable:0000000000000014 .L0 
C:\Users\test\AppData\Local\Temp\ccrkp0bK.s:763    .text.dac_concurrent_output_buffer_disable:0000000000000000 dac_concurrent_output_buffer_disable
C:\Users\test\AppData\Local\Temp\ccrkp0bK.s:766    .text.dac_concurrent_output_buffer_disable:0000000000000000 .L0 
C:\Users\test\AppData\Local\Temp\ccrkp0bK.s:767    .text.dac_concurrent_output_buffer_disable:0000000000000000 .L0 
C:\Users\test\AppData\Local\Temp\ccrkp0bK.s:769    .text.dac_concurrent_output_buffer_disable:0000000000000000 .L0 
C:\Users\test\AppData\Local\Temp\ccrkp0bK.s:770    .text.dac_concurrent_output_buffer_disable:0000000000000000 .L0 
C:\Users\test\AppData\Local\Temp\ccrkp0bK.s:771    .text.dac_concurrent_output_buffer_disable:0000000000000000 .L0 
C:\Users\test\AppData\Local\Temp\ccrkp0bK.s:772    .text.dac_concurrent_output_buffer_disable:0000000000000000 .L0 
C:\Users\test\AppData\Local\Temp\ccrkp0bK.s:779    .text.dac_concurrent_output_buffer_disable:0000000000000014 .L0 
C:\Users\test\AppData\Local\Temp\ccrkp0bK.s:780    .text.dac_concurrent_output_buffer_disable:0000000000000016 .L0 
C:\Users\test\AppData\Local\Temp\ccrkp0bK.s:787    .text.dac_concurrent_data_set:0000000000000000 dac_concurrent_data_set
C:\Users\test\AppData\Local\Temp\ccrkp0bK.s:790    .text.dac_concurrent_data_set:0000000000000000 .L0 
C:\Users\test\AppData\Local\Temp\ccrkp0bK.s:792    .text.dac_concurrent_data_set:0000000000000000 .L0 
C:\Users\test\AppData\Local\Temp\ccrkp0bK.s:793    .text.dac_concurrent_data_set:0000000000000000 .L0 
C:\Users\test\AppData\Local\Temp\ccrkp0bK.s:794    .text.dac_concurrent_data_set:0000000000000000 .L0 
C:\Users\test\AppData\Local\Temp\ccrkp0bK.s:800    .text.dac_concurrent_data_set:000000000000000e .L0 
C:\Users\test\AppData\Local\Temp\ccrkp0bK.s:801    .text.dac_concurrent_data_set:000000000000000e .L0 
C:\Users\test\AppData\Local\Temp\ccrkp0bK.s:804    .text.dac_concurrent_data_set:0000000000000010 .L0 
C:\Users\test\AppData\Local\Temp\ccrkp0bK.s:807    .text.dac_concurrent_data_set:0000000000000012 .L0 
C:\Users\test\AppData\Local\Temp\ccrkp0bK.s:808    .text.dac_concurrent_data_set:0000000000000012 .L0 
C:\Users\test\AppData\Local\Temp\ccrkp0bK.s:811    .text.dac_concurrent_data_set:000000000000001a .L0 
C:\Users\test\AppData\Local\Temp\ccrkp0bK.s:812    .text.dac_concurrent_data_set:000000000000001a .L0 
C:\Users\test\AppData\Local\Temp\ccrkp0bK.s:818    .text.dac_concurrent_data_set:000000000000001e .L0 
C:\Users\test\AppData\Local\Temp\ccrkp0bK.s:819    .text.dac_concurrent_data_set:000000000000001e .L0 
C:\Users\test\AppData\Local\Temp\ccrkp0bK.s:822    .text.dac_concurrent_data_set:0000000000000020 .L0 
C:\Users\test\AppData\Local\Temp\ccrkp0bK.s:825    .text.dac_concurrent_data_set:0000000000000022 .L0 
C:\Users\test\AppData\Local\Temp\ccrkp0bK.s:826    .text.dac_concurrent_data_set:0000000000000022 .L0 
C:\Users\test\AppData\Local\Temp\ccrkp0bK.s:829    .text.dac_concurrent_data_set:000000000000002a .L0 
C:\Users\test\AppData\Local\Temp\ccrkp0bK.s:833    .text.dac_concurrent_data_set:000000000000002c .L0 
C:\Users\test\AppData\Local\Temp\ccrkp0bK.s:834    .text.dac_concurrent_data_set:000000000000002c .L0 
C:\Users\test\AppData\Local\Temp\ccrkp0bK.s:837    .text.dac_concurrent_data_set:000000000000002e .L0 
C:\Users\test\AppData\Local\Temp\ccrkp0bK.s:840    .text.dac_concurrent_data_set:0000000000000030 .L0 
C:\Users\test\AppData\Local\Temp\ccrkp0bK.s:841    .text.dac_concurrent_data_set:0000000000000030 .L0 
C:\Users\test\AppData\Local\Temp\ccrkp0bK.s:844    .text.dac_concurrent_data_set:0000000000000038 .L0 
C:\Users\test\AppData\Local\Temp\ccrkp0bK.s:845    .text.dac_concurrent_data_set:000000000000003a .L0 
C:\Users\test\AppData\Local\Temp\ccrkp0bK.s:44     .text.dac_deinit:0000000000000020 .L0 
C:\Users\test\AppData\Local\Temp\ccrkp0bK.s:75     .text.dac_enable:000000000000001e .L0 
C:\Users\test\AppData\Local\Temp\ccrkp0bK.s:108    .text.dac_disable:0000000000000026 .L0 
C:\Users\test\AppData\Local\Temp\ccrkp0bK.s:140    .text.dac_dma_enable:0000000000000020 .L0 
C:\Users\test\AppData\Local\Temp\ccrkp0bK.s:174    .text.dac_dma_disable:0000000000000024 .L0 
C:\Users\test\AppData\Local\Temp\ccrkp0bK.s:207    .text.dac_output_buffer_enable:0000000000000026 .L0 
C:\Users\test\AppData\Local\Temp\ccrkp0bK.s:238    .text.dac_output_buffer_disable:0000000000000020 .L0 
C:\Users\test\AppData\Local\Temp\ccrkp0bK.s:278    .text.dac_output_value_get:000000000000001a .L0 
C:\Users\test\AppData\Local\Temp\ccrkp0bK.s:351    .text.dac_data_set:000000000000005c .L0 
C:\Users\test\AppData\Local\Temp\ccrkp0bK.s:382    .text.dac_trigger_enable:0000000000000020 .L0 
C:\Users\test\AppData\Local\Temp\ccrkp0bK.s:415    .text.dac_trigger_disable:0000000000000028 .L0 
C:\Users\test\AppData\Local\Temp\ccrkp0bK.s:463    .text.dac_trigger_source_config:0000000000000038 .L0 
C:\Users\test\AppData\Local\Temp\ccrkp0bK.s:493    .text.dac_software_trigger_enable:000000000000001e .L0 
C:\Users\test\AppData\Local\Temp\ccrkp0bK.s:523    .text.dac_software_trigger_disable:000000000000001a .L0 
C:\Users\test\AppData\Local\Temp\ccrkp0bK.s:571    .text.dac_wave_mode_config:0000000000000038 .L0 
C:\Users\test\AppData\Local\Temp\ccrkp0bK.s:621    .text.dac_wave_bit_width_config:000000000000003c .L0 
C:\Users\test\AppData\Local\Temp\ccrkp0bK.s:667    .text.dac_concurrent_enable:0000000000000014 .L0 
C:\Users\test\AppData\Local\Temp\ccrkp0bK.s:691    .text.dac_concurrent_disable:0000000000000014 .L0 
C:\Users\test\AppData\Local\Temp\ccrkp0bK.s:713    .text.dac_concurrent_software_trigger_enable:0000000000000012 .L0 
C:\Users\test\AppData\Local\Temp\ccrkp0bK.s:735    .text.dac_concurrent_software_trigger_disable:0000000000000010 .L0 
C:\Users\test\AppData\Local\Temp\ccrkp0bK.s:759    .text.dac_concurrent_output_buffer_enable:0000000000000014 .L0 
C:\Users\test\AppData\Local\Temp\ccrkp0bK.s:783    .text.dac_concurrent_output_buffer_disable:0000000000000016 .L0 
GAS LISTING C:\Users\test\AppData\Local\Temp\ccrkp0bK.s 			page 32


C:\Users\test\AppData\Local\Temp\ccrkp0bK.s:848    .text.dac_concurrent_data_set:000000000000003a .L0 
                     .debug_frame:0000000000000000 .L0 
C:\Users\test\AppData\Local\Temp\ccrkp0bK.s:64     .text.dac_enable:0000000000000014 .L5
C:\Users\test\AppData\Local\Temp\ccrkp0bK.s:94     .text.dac_disable:0000000000000012 .L8
C:\Users\test\AppData\Local\Temp\ccrkp0bK.s:129    .text.dac_dma_enable:0000000000000014 .L11
C:\Users\test\AppData\Local\Temp\ccrkp0bK.s:162    .text.dac_dma_disable:0000000000000016 .L14
C:\Users\test\AppData\Local\Temp\ccrkp0bK.s:193    .text.dac_output_buffer_enable:0000000000000012 .L17
C:\Users\test\AppData\Local\Temp\ccrkp0bK.s:227    .text.dac_output_buffer_disable:0000000000000014 .L20
C:\Users\test\AppData\Local\Temp\ccrkp0bK.s:263    .text.dac_output_value_get:0000000000000010 .L23
C:\Users\test\AppData\Local\Temp\ccrkp0bK.s:303    .text.dac_data_set:000000000000001a .L26
C:\Users\test\AppData\Local\Temp\ccrkp0bK.s:320    .text.dac_data_set:0000000000000034 .L27
C:\Users\test\AppData\Local\Temp\ccrkp0bK.s:327    .text.dac_data_set:000000000000003e .L28
C:\Users\test\AppData\Local\Temp\ccrkp0bK.s:316    .text.dac_data_set:0000000000000030 .L34
C:\Users\test\AppData\Local\Temp\ccrkp0bK.s:341    .text.dac_data_set:0000000000000052 .L31
C:\Users\test\AppData\Local\Temp\ccrkp0bK.s:334    .text.dac_data_set:0000000000000048 .L32
C:\Users\test\AppData\Local\Temp\ccrkp0bK.s:318    .text.dac_data_set:0000000000000032 .L35
C:\Users\test\AppData\Local\Temp\ccrkp0bK.s:371    .text.dac_trigger_enable:0000000000000014 .L37
C:\Users\test\AppData\Local\Temp\ccrkp0bK.s:401    .text.dac_trigger_disable:0000000000000012 .L40
C:\Users\test\AppData\Local\Temp\ccrkp0bK.s:442    .text.dac_trigger_source_config:000000000000001e .L43
C:\Users\test\AppData\Local\Temp\ccrkp0bK.s:483    .text.dac_software_trigger_enable:0000000000000014 .L46
C:\Users\test\AppData\Local\Temp\ccrkp0bK.s:513    .text.dac_software_trigger_disable:0000000000000012 .L49
C:\Users\test\AppData\Local\Temp\ccrkp0bK.s:550    .text.dac_wave_mode_config:000000000000001e .L52
C:\Users\test\AppData\Local\Temp\ccrkp0bK.s:600    .text.dac_wave_bit_width_config:0000000000000022 .L55
C:\Users\test\AppData\Local\Temp\ccrkp0bK.s:816    .text.dac_concurrent_data_set:000000000000001e .L66
C:\Users\test\AppData\Local\Temp\ccrkp0bK.s:831    .text.dac_concurrent_data_set:000000000000002c .L67
C:\Users\test\AppData\Local\Temp\ccrkp0bK.s:814    .text.dac_concurrent_data_set:000000000000001c .L70
C:\Users\test\AppData\Local\Temp\ccrkp0bK.s:1707   .debug_abbrev:0000000000000000 .Ldebug_abbrev0
C:\Users\test\AppData\Local\Temp\ccrkp0bK.s:2530   .debug_str:0000000000000237 .LASF81
C:\Users\test\AppData\Local\Temp\ccrkp0bK.s:2574   .debug_str:0000000000000402 .LASF82
C:\Users\test\AppData\Local\Temp\ccrkp0bK.s:2498   .debug_str:0000000000000141 .LASF83
C:\Users\test\AppData\Local\Temp\ccrkp0bK.s:2408   .debug_ranges:0000000000000000 .Ldebug_ranges0
C:\Users\test\AppData\Local\Temp\ccrkp0bK.s:2458   .debug_line:0000000000000000 .Ldebug_line0
C:\Users\test\AppData\Local\Temp\ccrkp0bK.s:2546   .debug_str:000000000000031e .LASF0
C:\Users\test\AppData\Local\Temp\ccrkp0bK.s:2534   .debug_str:00000000000002ce .LASF1
C:\Users\test\AppData\Local\Temp\ccrkp0bK.s:2522   .debug_str:00000000000001fd .LASF2
C:\Users\test\AppData\Local\Temp\ccrkp0bK.s:2474   .debug_str:000000000000005a .LASF3
C:\Users\test\AppData\Local\Temp\ccrkp0bK.s:2490   .debug_str:00000000000000ed .LASF6
C:\Users\test\AppData\Local\Temp\ccrkp0bK.s:2554   .debug_str:000000000000034d .LASF4
C:\Users\test\AppData\Local\Temp\ccrkp0bK.s:2508   .debug_str:000000000000019f .LASF5
C:\Users\test\AppData\Local\Temp\ccrkp0bK.s:2470   .debug_str:0000000000000041 .LASF7
C:\Users\test\AppData\Local\Temp\ccrkp0bK.s:2578   .debug_str:0000000000000446 .LASF8
C:\Users\test\AppData\Local\Temp\ccrkp0bK.s:2506   .debug_str:0000000000000191 .LASF9
C:\Users\test\AppData\Local\Temp\ccrkp0bK.s:2538   .debug_str:00000000000002e5 .LASF10
C:\Users\test\AppData\Local\Temp\ccrkp0bK.s:2548   .debug_str:000000000000032b .LASF11
C:\Users\test\AppData\Local\Temp\ccrkp0bK.s:2542   .debug_str:0000000000000309 .LASF12
C:\Users\test\AppData\Local\Temp\ccrkp0bK.s:2568   .debug_str:00000000000003df .LASF84
C:\Users\test\AppData\Local\Temp\ccrkp0bK.s:2462   .debug_str:000000000000000e .LASF13
C:\Users\test\AppData\Local\Temp\ccrkp0bK.s:2562   .debug_str:00000000000003ad .LASF14
C:\Users\test\AppData\Local\Temp\ccrkp0bK.s:2606   .debug_str:0000000000000520 .LASF15
C:\Users\test\AppData\Local\Temp\ccrkp0bK.s:2488   .debug_str:00000000000000df .LASF16
C:\Users\test\AppData\Local\Temp\ccrkp0bK.s:2516   .debug_str:00000000000001c8 .LASF17
C:\Users\test\AppData\Local\Temp\ccrkp0bK.s:2566   .debug_str:00000000000003d1 .LASF18
C:\Users\test\AppData\Local\Temp\ccrkp0bK.s:2616   .debug_str:000000000000055e .LASF19
C:\Users\test\AppData\Local\Temp\ccrkp0bK.s:2630   .debug_str:00000000000005f7 .LASF20
C:\Users\test\AppData\Local\Temp\ccrkp0bK.s:2482   .debug_str:00000000000000af .LASF21
C:\Users\test\AppData\Local\Temp\ccrkp0bK.s:2510   .debug_str:00000000000001a8 .LASF22
C:\Users\test\AppData\Local\Temp\ccrkp0bK.s:2572   .debug_str:00000000000003f4 .LASF23
GAS LISTING C:\Users\test\AppData\Local\Temp\ccrkp0bK.s 			page 33


C:\Users\test\AppData\Local\Temp\ccrkp0bK.s:2628   .debug_str:00000000000005e9 .LASF24
C:\Users\test\AppData\Local\Temp\ccrkp0bK.s:2586   .debug_str:0000000000000494 .LASF25
C:\Users\test\AppData\Local\Temp\ccrkp0bK.s:2464   .debug_str:000000000000001b .LASF26
C:\Users\test\AppData\Local\Temp\ccrkp0bK.s:2592   .debug_str:00000000000004b8 .LASF27
C:\Users\test\AppData\Local\Temp\ccrkp0bK.s:2588   .debug_str:00000000000004a1 .LASF28
C:\Users\test\AppData\Local\Temp\ccrkp0bK.s:2468   .debug_str:0000000000000035 .LASF29
C:\Users\test\AppData\Local\Temp\ccrkp0bK.s:2504   .debug_str:0000000000000185 .LASF30
C:\Users\test\AppData\Local\Temp\ccrkp0bK.s:2478   .debug_str:000000000000007e .LASF31
C:\Users\test\AppData\Local\Temp\ccrkp0bK.s:2590   .debug_str:00000000000004ad .LASF32
C:\Users\test\AppData\Local\Temp\ccrkp0bK.s:2536   .debug_str:00000000000002da .LASF33
C:\Users\test\AppData\Local\Temp\ccrkp0bK.s:2526   .debug_str:000000000000021e .LASF34
C:\Users\test\AppData\Local\Temp\ccrkp0bK.s:2540   .debug_str:00000000000002fc .LASF35
C:\Users\test\AppData\Local\Temp\ccrkp0bK.s:2582   .debug_str:0000000000000472 .LASF36
C:\Users\test\AppData\Local\Temp\ccrkp0bK.s:2466   .debug_str:0000000000000028 .LASF37
C:\Users\test\AppData\Local\Temp\ccrkp0bK.s:2502   .debug_str:0000000000000178 .LASF38
C:\Users\test\AppData\Local\Temp\ccrkp0bK.s:2550   .debug_str:0000000000000334 .LASF39
C:\Users\test\AppData\Local\Temp\ccrkp0bK.s:2552   .debug_str:0000000000000341 .LASF40
C:\Users\test\AppData\Local\Temp\ccrkp0bK.s:2596   .debug_str:00000000000004de .LASF41
C:\Users\test\AppData\Local\Temp\ccrkp0bK.s:2460   .debug_str:0000000000000000 .LASF42
C:\Users\test\AppData\Local\Temp\ccrkp0bK.s:2602   .debug_str:00000000000004ff .LASF43
C:\Users\test\AppData\Local\Temp\ccrkp0bK.s:2520   .debug_str:00000000000001ef .LASF44
C:\Users\test\AppData\Local\Temp\ccrkp0bK.s:2494   .debug_str:000000000000011f .LASF48
C:\Users\test\AppData\Local\Temp\ccrkp0bK.s:788    .text.dac_concurrent_data_set:0000000000000000 .LFB26
C:\Users\test\AppData\Local\Temp\ccrkp0bK.s:846    .text.dac_concurrent_data_set:000000000000003a .LFE26
C:\Users\test\AppData\Local\Temp\ccrkp0bK.s:2512   .debug_str:00000000000001b4 .LASF45
C:\Users\test\AppData\Local\Temp\ccrkp0bK.s:2608   .debug_str:000000000000052e .LASF46
C:\Users\test\AppData\Local\Temp\ccrkp0bK.s:2610   .debug_str:0000000000000534 .LASF47
C:\Users\test\AppData\Local\Temp\ccrkp0bK.s:2146   .debug_loc:0000000000000000 .LLST6
C:\Users\test\AppData\Local\Temp\ccrkp0bK.s:2570   .debug_str:00000000000003ef .LASF50
C:\Users\test\AppData\Local\Temp\ccrkp0bK.s:2182   .debug_loc:0000000000000053 .LLST7
C:\Users\test\AppData\Local\Temp\ccrkp0bK.s:2480   .debug_str:000000000000008a .LASF49
C:\Users\test\AppData\Local\Temp\ccrkp0bK.s:764    .text.dac_concurrent_output_buffer_disable:0000000000000000 .LFB25
C:\Users\test\AppData\Local\Temp\ccrkp0bK.s:781    .text.dac_concurrent_output_buffer_disable:0000000000000016 .LFE25
C:\Users\test\AppData\Local\Temp\ccrkp0bK.s:2618   .debug_str:000000000000056c .LASF51
C:\Users\test\AppData\Local\Temp\ccrkp0bK.s:740    .text.dac_concurrent_output_buffer_enable:0000000000000000 .LFB24
C:\Users\test\AppData\Local\Temp\ccrkp0bK.s:757    .text.dac_concurrent_output_buffer_enable:0000000000000014 .LFE24
C:\Users\test\AppData\Local\Temp\ccrkp0bK.s:2622   .debug_str:00000000000005a0 .LASF52
C:\Users\test\AppData\Local\Temp\ccrkp0bK.s:718    .text.dac_concurrent_software_trigger_disable:0000000000000000 .LFB23
C:\Users\test\AppData\Local\Temp\ccrkp0bK.s:733    .text.dac_concurrent_software_trigger_disable:0000000000000010 .LFE23
C:\Users\test\AppData\Local\Temp\ccrkp0bK.s:2492   .debug_str:00000000000000f8 .LASF53
C:\Users\test\AppData\Local\Temp\ccrkp0bK.s:696    .text.dac_concurrent_software_trigger_enable:0000000000000000 .LFB22
C:\Users\test\AppData\Local\Temp\ccrkp0bK.s:711    .text.dac_concurrent_software_trigger_enable:0000000000000012 .LFE22
C:\Users\test\AppData\Local\Temp\ccrkp0bK.s:2560   .debug_str:0000000000000396 .LASF54
C:\Users\test\AppData\Local\Temp\ccrkp0bK.s:672    .text.dac_concurrent_disable:0000000000000000 .LFB21
C:\Users\test\AppData\Local\Temp\ccrkp0bK.s:689    .text.dac_concurrent_disable:0000000000000014 .LFE21
C:\Users\test\AppData\Local\Temp\ccrkp0bK.s:2564   .debug_str:00000000000003bb .LASF55
C:\Users\test\AppData\Local\Temp\ccrkp0bK.s:648    .text.dac_concurrent_enable:0000000000000000 .LFB20
C:\Users\test\AppData\Local\Temp\ccrkp0bK.s:665    .text.dac_concurrent_enable:0000000000000014 .LFE20
C:\Users\test\AppData\Local\Temp\ccrkp0bK.s:2594   .debug_str:00000000000004c4 .LASF58
C:\Users\test\AppData\Local\Temp\ccrkp0bK.s:2500   .debug_str:000000000000016d .LASF56
C:\Users\test\AppData\Local\Temp\ccrkp0bK.s:2514   .debug_str:00000000000001be .LASF57
C:\Users\test\AppData\Local\Temp\ccrkp0bK.s:2576   .debug_str:0000000000000430 .LASF59
C:\Users\test\AppData\Local\Temp\ccrkp0bK.s:2612   .debug_str:000000000000053a .LASF60
C:\Users\test\AppData\Local\Temp\ccrkp0bK.s:2558   .debug_str:000000000000037c .LASF61
C:\Users\test\AppData\Local\Temp\ccrkp0bK.s:576    .text.dac_wave_bit_width_config:0000000000000000 .LFB17
C:\Users\test\AppData\Local\Temp\ccrkp0bK.s:619    .text.dac_wave_bit_width_config:000000000000003c .LFE17
C:\Users\test\AppData\Local\Temp\ccrkp0bK.s:2496   .debug_str:0000000000000137 .LASF62
GAS LISTING C:\Users\test\AppData\Local\Temp\ccrkp0bK.s 			page 34


C:\Users\test\AppData\Local\Temp\ccrkp0bK.s:2212   .debug_loc:00000000000000a0 .LLST5
C:\Users\test\AppData\Local\Temp\ccrkp0bK.s:2584   .debug_str:000000000000047f .LASF63
C:\Users\test\AppData\Local\Temp\ccrkp0bK.s:528    .text.dac_wave_mode_config:0000000000000000 .LFB16
C:\Users\test\AppData\Local\Temp\ccrkp0bK.s:569    .text.dac_wave_mode_config:0000000000000038 .LFE16
C:\Users\test\AppData\Local\Temp\ccrkp0bK.s:2600   .debug_str:00000000000004f5 .LASF64
C:\Users\test\AppData\Local\Temp\ccrkp0bK.s:2237   .debug_loc:00000000000000da .LLST4
C:\Users\test\AppData\Local\Temp\ccrkp0bK.s:2532   .debug_str:00000000000002b1 .LASF65
C:\Users\test\AppData\Local\Temp\ccrkp0bK.s:498    .text.dac_software_trigger_disable:0000000000000000 .LFB15
C:\Users\test\AppData\Local\Temp\ccrkp0bK.s:521    .text.dac_software_trigger_disable:000000000000001a .LFE15
C:\Users\test\AppData\Local\Temp\ccrkp0bK.s:2556   .debug_str:0000000000000360 .LASF66
C:\Users\test\AppData\Local\Temp\ccrkp0bK.s:468    .text.dac_software_trigger_enable:0000000000000000 .LFB14
C:\Users\test\AppData\Local\Temp\ccrkp0bK.s:491    .text.dac_software_trigger_enable:000000000000001e .LFE14
C:\Users\test\AppData\Local\Temp\ccrkp0bK.s:2580   .debug_str:0000000000000458 .LASF67
C:\Users\test\AppData\Local\Temp\ccrkp0bK.s:420    .text.dac_trigger_source_config:0000000000000000 .LFB13
C:\Users\test\AppData\Local\Temp\ccrkp0bK.s:461    .text.dac_trigger_source_config:0000000000000038 .LFE13
C:\Users\test\AppData\Local\Temp\ccrkp0bK.s:2472   .debug_str:000000000000004c .LASF68
C:\Users\test\AppData\Local\Temp\ccrkp0bK.s:2262   .debug_loc:0000000000000114 .LLST3
C:\Users\test\AppData\Local\Temp\ccrkp0bK.s:2626   .debug_str:00000000000005d5 .LASF69
C:\Users\test\AppData\Local\Temp\ccrkp0bK.s:387    .text.dac_trigger_disable:0000000000000000 .LFB12
C:\Users\test\AppData\Local\Temp\ccrkp0bK.s:413    .text.dac_trigger_disable:0000000000000028 .LFE12
C:\Users\test\AppData\Local\Temp\ccrkp0bK.s:2524   .debug_str:000000000000020b .LASF70
C:\Users\test\AppData\Local\Temp\ccrkp0bK.s:356    .text.dac_trigger_enable:0000000000000000 .LFB11
C:\Users\test\AppData\Local\Temp\ccrkp0bK.s:380    .text.dac_trigger_enable:0000000000000020 .LFE11
C:\Users\test\AppData\Local\Temp\ccrkp0bK.s:2624   .debug_str:00000000000005c8 .LASF71
C:\Users\test\AppData\Local\Temp\ccrkp0bK.s:283    .text.dac_data_set:0000000000000000 .LFB10
C:\Users\test\AppData\Local\Temp\ccrkp0bK.s:349    .text.dac_data_set:000000000000005c .LFE10
C:\Users\test\AppData\Local\Temp\ccrkp0bK.s:2604   .debug_str:000000000000050b .LASF85
C:\Users\test\AppData\Local\Temp\ccrkp0bK.s:243    .text.dac_output_value_get:0000000000000000 .LFB9
C:\Users\test\AppData\Local\Temp\ccrkp0bK.s:276    .text.dac_output_value_get:000000000000001a .LFE9
C:\Users\test\AppData\Local\Temp\ccrkp0bK.s:2287   .debug_loc:000000000000014e .LLST1
C:\Users\test\AppData\Local\Temp\ccrkp0bK.s:2312   .debug_loc:0000000000000188 .LLST2
C:\Users\test\AppData\Local\Temp\ccrkp0bK.s:2476   .debug_str:0000000000000064 .LASF72
C:\Users\test\AppData\Local\Temp\ccrkp0bK.s:212    .text.dac_output_buffer_disable:0000000000000000 .LFB8
C:\Users\test\AppData\Local\Temp\ccrkp0bK.s:236    .text.dac_output_buffer_disable:0000000000000020 .LFE8
C:\Users\test\AppData\Local\Temp\ccrkp0bK.s:2518   .debug_str:00000000000001d6 .LASF73
C:\Users\test\AppData\Local\Temp\ccrkp0bK.s:179    .text.dac_output_buffer_enable:0000000000000000 .LFB7
C:\Users\test\AppData\Local\Temp\ccrkp0bK.s:205    .text.dac_output_buffer_enable:0000000000000026 .LFE7
C:\Users\test\AppData\Local\Temp\ccrkp0bK.s:2620   .debug_str:0000000000000590 .LASF74
C:\Users\test\AppData\Local\Temp\ccrkp0bK.s:145    .text.dac_dma_disable:0000000000000000 .LFB6
C:\Users\test\AppData\Local\Temp\ccrkp0bK.s:172    .text.dac_dma_disable:0000000000000024 .LFE6
C:\Users\test\AppData\Local\Temp\ccrkp0bK.s:2528   .debug_str:0000000000000228 .LASF75
C:\Users\test\AppData\Local\Temp\ccrkp0bK.s:113    .text.dac_dma_enable:0000000000000000 .LFB5
C:\Users\test\AppData\Local\Temp\ccrkp0bK.s:138    .text.dac_dma_enable:0000000000000020 .LFE5
C:\Users\test\AppData\Local\Temp\ccrkp0bK.s:2544   .debug_str:0000000000000312 .LASF76
C:\Users\test\AppData\Local\Temp\ccrkp0bK.s:80     .text.dac_disable:0000000000000000 .LFB4
C:\Users\test\AppData\Local\Temp\ccrkp0bK.s:106    .text.dac_disable:0000000000000026 .LFE4
C:\Users\test\AppData\Local\Temp\ccrkp0bK.s:2598   .debug_str:00000000000004ea .LASF77
C:\Users\test\AppData\Local\Temp\ccrkp0bK.s:49     .text.dac_enable:0000000000000000 .LFB3
C:\Users\test\AppData\Local\Temp\ccrkp0bK.s:73     .text.dac_enable:000000000000001e .LFE3
C:\Users\test\AppData\Local\Temp\ccrkp0bK.s:2486   .debug_str:00000000000000d4 .LASF78
C:\Users\test\AppData\Local\Temp\ccrkp0bK.s:11     .text.dac_deinit:0000000000000000 .LFB2
C:\Users\test\AppData\Local\Temp\ccrkp0bK.s:42     .text.dac_deinit:0000000000000020 .LFE2
C:\Users\test\AppData\Local\Temp\ccrkp0bK.s:2333   .debug_loc:00000000000001be .LLST0
C:\Users\test\AppData\Local\Temp\ccrkp0bK.s:27     .text.dac_deinit:0000000000000010 .LVL0
C:\Users\test\AppData\Local\Temp\ccrkp0bK.s:40     .text.dac_deinit:0000000000000020 .LVL1
C:\Users\test\AppData\Local\Temp\ccrkp0bK.s:2614   .debug_str:0000000000000546 .LASF79
C:\Users\test\AppData\Local\Temp\ccrkp0bK.s:2484   .debug_str:00000000000000bb .LASF80
GAS LISTING C:\Users\test\AppData\Local\Temp\ccrkp0bK.s 			page 35


C:\Users\test\AppData\Local\Temp\ccrkp0bK.s:791    .text.dac_concurrent_data_set:0000000000000000 .LVL37
C:\Users\test\AppData\Local\Temp\ccrkp0bK.s:802    .text.dac_concurrent_data_set:0000000000000010 .LVL38
C:\Users\test\AppData\Local\Temp\ccrkp0bK.s:813    .text.dac_concurrent_data_set:000000000000001c .LVL40
C:\Users\test\AppData\Local\Temp\ccrkp0bK.s:820    .text.dac_concurrent_data_set:0000000000000020 .LVL41
C:\Users\test\AppData\Local\Temp\ccrkp0bK.s:830    .text.dac_concurrent_data_set:000000000000002c .LVL43
C:\Users\test\AppData\Local\Temp\ccrkp0bK.s:835    .text.dac_concurrent_data_set:000000000000002e .LVL44
C:\Users\test\AppData\Local\Temp\ccrkp0bK.s:805    .text.dac_concurrent_data_set:0000000000000012 .LVL39
C:\Users\test\AppData\Local\Temp\ccrkp0bK.s:823    .text.dac_concurrent_data_set:0000000000000022 .LVL42
C:\Users\test\AppData\Local\Temp\ccrkp0bK.s:838    .text.dac_concurrent_data_set:0000000000000030 .LVL45
C:\Users\test\AppData\Local\Temp\ccrkp0bK.s:579    .text.dac_wave_bit_width_config:0000000000000000 .LVL27
C:\Users\test\AppData\Local\Temp\ccrkp0bK.s:596    .text.dac_wave_bit_width_config:000000000000001c .LVL28
C:\Users\test\AppData\Local\Temp\ccrkp0bK.s:599    .text.dac_wave_bit_width_config:0000000000000022 .LVL29
C:\Users\test\AppData\Local\Temp\ccrkp0bK.s:612    .text.dac_wave_bit_width_config:0000000000000034 .LVL30
C:\Users\test\AppData\Local\Temp\ccrkp0bK.s:531    .text.dac_wave_mode_config:0000000000000000 .LVL23
C:\Users\test\AppData\Local\Temp\ccrkp0bK.s:546    .text.dac_wave_mode_config:0000000000000018 .LVL24
C:\Users\test\AppData\Local\Temp\ccrkp0bK.s:549    .text.dac_wave_mode_config:000000000000001e .LVL25
C:\Users\test\AppData\Local\Temp\ccrkp0bK.s:562    .text.dac_wave_mode_config:0000000000000030 .LVL26
C:\Users\test\AppData\Local\Temp\ccrkp0bK.s:423    .text.dac_trigger_source_config:0000000000000000 .LVL17
C:\Users\test\AppData\Local\Temp\ccrkp0bK.s:438    .text.dac_trigger_source_config:0000000000000018 .LVL18
C:\Users\test\AppData\Local\Temp\ccrkp0bK.s:441    .text.dac_trigger_source_config:000000000000001e .LVL19
C:\Users\test\AppData\Local\Temp\ccrkp0bK.s:454    .text.dac_trigger_source_config:0000000000000030 .LVL20
C:\Users\test\AppData\Local\Temp\ccrkp0bK.s:246    .text.dac_output_value_get:0000000000000000 .LVL8
C:\Users\test\AppData\Local\Temp\ccrkp0bK.s:256    .text.dac_output_value_get:000000000000000a .LVL9
C:\Users\test\AppData\Local\Temp\ccrkp0bK.s:262    .text.dac_output_value_get:0000000000000010 .LVL11
C:\Users\test\AppData\Local\Temp\ccrkp0bK.s:267    .text.dac_output_value_get:0000000000000014 .LVL12
C:\Users\test\AppData\Local\Temp\ccrkp0bK.s:260    .text.dac_output_value_get:000000000000000e .LVL10
C:\Users\test\AppData\Local\Temp\ccrkp0bK.s:271    .text.dac_output_value_get:0000000000000018 .LVL13
C:\Users\test\AppData\Local\Temp\ccrkp0bK.s:18     .text.dac_deinit:0000000000000002 .LCFI0
C:\Users\test\AppData\Local\Temp\ccrkp0bK.s:36     .text.dac_deinit:0000000000000018 .LCFI1
C:\Users\test\AppData\Local\Temp\ccrkp0bK.s:855    .debug_info:0000000000000000 .Ldebug_info0

UNDEFINED SYMBOLS
rcu_periph_reset_enable
rcu_periph_reset_disable
