ARM GAS  C:\Users\test\AppData\Local\Temp\ccwqrrBM.s 			page 1


   1              		.cpu cortex-m3
   2              		.eabi_attribute 20, 1
   3              		.eabi_attribute 21, 1
   4              		.eabi_attribute 23, 3
   5              		.eabi_attribute 24, 1
   6              		.eabi_attribute 25, 1
   7              		.eabi_attribute 26, 1
   8              		.eabi_attribute 30, 2
   9              		.eabi_attribute 34, 1
  10              		.eabi_attribute 18, 4
  11              		.file	"main.c"
  12              		.text
  13              	.Ltext0:
  14              		.cfi_sections	.debug_frame
  15              		.section	.text.startup.main,"ax",%progbits
  16              		.align	1
  17              		.p2align 2,,3
  18              		.global	main
  19              		.arch armv7-m
  20              		.syntax unified
  21              		.thumb
  22              		.thumb_func
  23              		.fpu softvfp
  25              	main:
  26              	.LFB20:
  27              		.file 1 "application/main.c"
   1:application/main.c **** #include "gpio-core.h"
   2:application/main.c **** #include "spi-core.h"
   3:application/main.c **** #include "delay-core.h"
   4:application/main.c **** #include "uart-core.h"
   5:application/main.c **** 
   6:application/main.c **** struct gpio_desp led =
   7:application/main.c **** {
   8:application/main.c ****     .pin_num = 2, //GPIOA2
   9:application/main.c ****     .mode = GPIO_PP_OUTPUT,
  10:application/main.c ****     .flag = 0,
  11:application/main.c **** };
  12:application/main.c **** 
  13:application/main.c **** struct uart_device tty0 =
  14:application/main.c **** {
  15:application/main.c ****     .baud_rate = 115200,
  16:application/main.c ****     .uart = 0,
  17:application/main.c **** };
  18:application/main.c **** 
  19:application/main.c **** int main(void)
  20:application/main.c **** {
  28              		.loc 1 20 1 view -0
  29              		.cfi_startproc
  30              		@ Volatile: function does not return.
  31              		@ args = 0, pretend = 0, frame = 0
  32              		@ frame_needed = 0, uses_anonymous_args = 0
  21:application/main.c ****     gpio_get(&led); //申请一个GPIO资源
  33              		.loc 1 21 5 view .LVU1
  34              	.LVL0:
  35              	.LBB18:
  36              	.LBI18:
  37              		.file 2 "core/gpio-core.h"
ARM GAS  C:\Users\test\AppData\Local\Temp\ccwqrrBM.s 			page 2


   1:core/gpio-core.h **** #ifndef __GPIO_CORE_H_
   2:core/gpio-core.h **** #define __GPIO_CORE_H_
   3:core/gpio-core.h **** #include "module.h"
   4:core/gpio-core.h **** 
   5:core/gpio-core.h **** struct gpio_controller;
   6:core/gpio-core.h **** 
   7:core/gpio-core.h **** 
   8:core/gpio-core.h **** typedef struct gpio_desp
   9:core/gpio-core.h **** {
  10:core/gpio-core.h ****     uint16_t pin_num;
  11:core/gpio-core.h ****     uint16_t direction:1;
  12:core/gpio-core.h ****     uint16_t status:1;
  13:core/gpio-core.h ****     uint16_t mode:4;
  14:core/gpio-core.h ****     uint16_t flag:1;
  15:core/gpio-core.h ****     struct gpio_controller *ctl;
  16:core/gpio-core.h ****     
  17:core/gpio-core.h **** }gpio_desp_t;
  18:core/gpio-core.h **** 
  19:core/gpio-core.h **** typedef enum gpio_direction
  20:core/gpio-core.h **** {
  21:core/gpio-core.h ****     GPIO_PP_OUTPUT = 0,
  22:core/gpio-core.h ****     GPIO_FINPUT,
  23:core/gpio-core.h ****     GPIO_PU_OUTPUT,
  24:core/gpio-core.h ****     GPIO_PD_OUTPUT,
  25:core/gpio-core.h ****     
  26:core/gpio-core.h **** }gpio_direction_t;
  27:core/gpio-core.h **** 
  28:core/gpio-core.h **** typedef struct gpio_operations
  29:core/gpio-core.h **** {
  30:core/gpio-core.h ****     int8_t   (*get)(gpio_desp_t *gpio_desp);
  31:core/gpio-core.h ****     void     (*set_direction)(gpio_desp_t *gpio_desp, gpio_direction_t dir);
  32:core/gpio-core.h ****     void     (*set_value)(gpio_desp_t *gpio_desp, uint8_t value);
  33:core/gpio-core.h ****     uint32_t (*get_value)(gpio_desp_t *gpio_desp);
  34:core/gpio-core.h ****     void     (*put)(gpio_desp_t *gpio_desp);
  35:core/gpio-core.h **** 
  36:core/gpio-core.h **** }gpio_operations_t;
  37:core/gpio-core.h **** 
  38:core/gpio-core.h **** 
  39:core/gpio-core.h **** typedef struct gpio_controller
  40:core/gpio-core.h **** {
  41:core/gpio-core.h ****     gpio_desp_t *desp;
  42:core/gpio-core.h ****     gpio_operations_t  ops;
  43:core/gpio-core.h **** 
  44:core/gpio-core.h **** }gpio_controller_t;
  45:core/gpio-core.h **** 
  46:core/gpio-core.h **** 
  47:core/gpio-core.h **** static inline int8_t gpio_get(gpio_desp_t *gpio_desp)
  38              		.loc 2 47 22 view .LVU2
  39              	.LBB19:
  48:core/gpio-core.h **** {
  49:core/gpio-core.h ****     gpio_desp->ctl = (gpio_controller_t*)&__gpio_core_init;
  40              		.loc 2 49 5 view .LVU3
  41              	.LBE19:
  42              	.LBE18:
  20:application/main.c ****     gpio_get(&led); //申请一个GPIO资源
  43              		.loc 1 20 1 is_stmt 0 view .LVU4
  44 0000 08B5     		push	{r3, lr}
ARM GAS  C:\Users\test\AppData\Local\Temp\ccwqrrBM.s 			page 3


  45              	.LCFI0:
  46              		.cfi_def_cfa_offset 8
  47              		.cfi_offset 3, -8
  48              		.cfi_offset 14, -4
  49              	.LBB21:
  50              	.LBB20:
  51              		.loc 2 49 20 view .LVU5
  52 0002 134C     		ldr	r4, .L5
  53 0004 134B     		ldr	r3, .L5+4
  50:core/gpio-core.h ****     return gpio_desp->ctl->ops.get(gpio_desp);
  54              		.loc 2 50 12 view .LVU6
  55 0006 2046     		mov	r0, r4
  56 0008 5A68     		ldr	r2, [r3, #4]
  49:core/gpio-core.h ****     return gpio_desp->ctl->ops.get(gpio_desp);
  57              		.loc 2 49 20 view .LVU7
  58 000a 6360     		str	r3, [r4, #4]
  59              		.loc 2 50 5 is_stmt 1 view .LVU8
  60              		.loc 2 50 12 is_stmt 0 view .LVU9
  61 000c 9047     		blx	r2
  62              	.LVL1:
  63              		.loc 2 50 12 view .LVU10
  64              	.LBE20:
  65              	.LBE21:
  22:application/main.c ****     gpio_set_direction(&led,GPIO_PP_OUTPUT);//设置GPIO为推挽输出
  66              		.loc 1 22 5 is_stmt 1 view .LVU11
  67              	.LBB22:
  68              	.LBI22:
  51:core/gpio-core.h **** }
  52:core/gpio-core.h **** 
  53:core/gpio-core.h **** static inline void gpio_set_direction(gpio_desp_t *gpio_desp, gpio_direction_t dir)
  69              		.loc 2 53 20 view .LVU12
  70              	.LBB23:
  54:core/gpio-core.h **** {
  55:core/gpio-core.h ****     gpio_desp->ctl->ops.set_direction(gpio_desp,dir);
  71              		.loc 2 55 5 view .LVU13
  72              		.loc 2 55 24 is_stmt 0 view .LVU14
  73 000e 6368     		ldr	r3, [r4, #4]
  74              		.loc 2 55 5 view .LVU15
  75 0010 0021     		movs	r1, #0
  76 0012 2046     		mov	r0, r4
  77 0014 9B68     		ldr	r3, [r3, #8]
  78 0016 9847     		blx	r3
  79              	.LVL2:
  80              		.loc 2 55 5 view .LVU16
  81              	.LBE23:
  82              	.LBE22:
  23:application/main.c ****     uart_probe(&tty0);
  83              		.loc 1 23 5 is_stmt 1 view .LVU17
  84              	.LBB24:
  85              	.LBI24:
  86              		.file 3 "core/uart-core.h"
   1:core/uart-core.h **** #ifndef  __UART_CORE_H_
   2:core/uart-core.h **** #define  __UART_CORE_H_
   3:core/uart-core.h **** 
   4:core/uart-core.h **** #include "module.h"
   5:core/uart-core.h **** 
   6:core/uart-core.h **** typedef struct uart_device
ARM GAS  C:\Users\test\AppData\Local\Temp\ccwqrrBM.s 			page 4


   7:core/uart-core.h **** {
   8:core/uart-core.h ****     uint8_t  uart;
   9:core/uart-core.h ****     uint8_t  irq_en;
  10:core/uart-core.h ****     uint32_t baud_rate;
  11:core/uart-core.h ****     struct   uart_controller *ctrller;
  12:core/uart-core.h ****     
  13:core/uart-core.h **** }uart_device_t;
  14:core/uart-core.h **** 
  15:core/uart-core.h **** typedef struct uart_ops
  16:core/uart-core.h **** {
  17:core/uart-core.h ****     int8_t (*probe)(struct uart_device *dev);
  18:core/uart-core.h ****     int8_t (*remove)(struct uart_device *dev);
  19:core/uart-core.h ****     int8_t (*set_baud_rate)(struct uart_device *dev, uint32_t baud_rate);
  20:core/uart-core.h ****     int32_t (*poll_read)(struct uart_device *dev, uint8_t *buffer, uint32_t len);
  21:core/uart-core.h ****     int32_t (*poll_write)(struct uart_device *dev, uint8_t *buffer, uint32_t len);
  22:core/uart-core.h ****     int8_t (*set_handler)(struct uart_device *dev, void (*handler)(void));
  23:core/uart-core.h **** 
  24:core/uart-core.h **** }uart_ops_t;
  25:core/uart-core.h **** 
  26:core/uart-core.h **** typedef struct uart_controller
  27:core/uart-core.h **** {
  28:core/uart-core.h ****     uint32_t    baud_rate;
  29:core/uart-core.h ****     uart_ops_t  ops;
  30:core/uart-core.h **** 
  31:core/uart-core.h **** }uart_controller_t;
  32:core/uart-core.h **** 
  33:core/uart-core.h **** 
  34:core/uart-core.h **** static inline int8_t uart_probe(struct uart_device *dev)
  87              		.loc 3 34 22 view .LVU18
  88              	.LBB25:
  35:core/uart-core.h **** {
  36:core/uart-core.h ****     dev->ctrller = (struct uart_controller *)&__uart_core_init;
  89              		.loc 3 36 5 view .LVU19
  90              		.loc 3 36 18 is_stmt 0 view .LVU20
  91 0018 0F4B     		ldr	r3, .L5+8
  92 001a 1048     		ldr	r0, .L5+12
  93              	.LBE25:
  94              	.LBE24:
  95              	.LBB27:
  96              	.LBB28:
  97              		.file 4 "core/delay-core.h"
   1:core/delay-core.h **** #ifndef __DELAY_CORE_H_
   2:core/delay-core.h **** #define __DELAY_CORE_H_
   3:core/delay-core.h **** 
   4:core/delay-core.h **** #include "module.h"
   5:core/delay-core.h **** 
   6:core/delay-core.h **** static struct delay_core *__delay_core = (struct delay_core*)&__delay_core_init;
   7:core/delay-core.h **** 
   8:core/delay-core.h **** struct delay_core
   9:core/delay-core.h **** {
  10:core/delay-core.h ****     void (*udelay)(uint32_t us);
  11:core/delay-core.h ****     void (*mdelay)(uint32_t ms);
  12:core/delay-core.h ****     void (*sdelay)(uint32_t s);
  13:core/delay-core.h **** };
  14:core/delay-core.h **** 
  15:core/delay-core.h **** static inline void udelay(uint32_t us)
  16:core/delay-core.h **** {
ARM GAS  C:\Users\test\AppData\Local\Temp\ccwqrrBM.s 			page 5


  17:core/delay-core.h ****     __delay_core->udelay(us);
  18:core/delay-core.h **** }
  19:core/delay-core.h **** 
  20:core/delay-core.h **** static inline void mdelay(uint32_t ms)
  21:core/delay-core.h **** {
  22:core/delay-core.h ****     __delay_core->mdelay(ms);
  98              		.loc 4 22 17 view .LVU21
  99 001c 104D     		ldr	r5, .L5+16
 100              	.LBE28:
 101              	.LBE27:
 102              	.LBB30:
 103              	.LBB26:
  37:core/uart-core.h ****     return dev->ctrller->ops.probe(dev);
 104              		.loc 3 37 12 view .LVU22
 105 001e 5A68     		ldr	r2, [r3, #4]
  36:core/uart-core.h ****     return dev->ctrller->ops.probe(dev);
 106              		.loc 3 36 18 view .LVU23
 107 0020 8360     		str	r3, [r0, #8]
 108              		.loc 3 37 5 is_stmt 1 view .LVU24
 109              		.loc 3 37 12 is_stmt 0 view .LVU25
 110 0022 9047     		blx	r2
 111              	.LVL3:
 112              		.loc 3 37 12 view .LVU26
 113              	.LBE26:
 114              	.LBE30:
  24:application/main.c ****     mdelay(1000);
 115              		.loc 1 24 5 is_stmt 1 view .LVU27
 116              	.LBB31:
 117              	.LBI27:
  20:core/delay-core.h **** {
 118              		.loc 4 20 20 view .LVU28
 119              	.LBB29:
 120              		.loc 4 22 5 view .LVU29
 121 0024 4FF47A70 		mov	r0, #1000
 122 0028 6B68     		ldr	r3, [r5, #4]
 123 002a 9847     		blx	r3
 124              	.LVL4:
 125              		.loc 4 22 5 is_stmt 0 view .LVU30
 126              	.LBE29:
 127              	.LBE31:
  25:application/main.c ****     char test[100] = "hello Qdriver 9079613232342414";
 128              		.loc 1 25 5 is_stmt 1 view .LVU31
 129              	.L2:
  26:application/main.c ****     while (1)
 130              		.loc 1 26 5 discriminator 1 view .LVU32
  27:application/main.c ****     {
  28:application/main.c ****          gpio_set_value(&led,0);
 131              		.loc 1 28 10 discriminator 1 view .LVU33
 132              	.LBB32:
 133              	.LBI32:
  56:core/gpio-core.h **** }
  57:core/gpio-core.h **** 
  58:core/gpio-core.h **** static inline void gpio_set_value(gpio_desp_t *gpio_desp, uint8_t value)
 134              		.loc 2 58 20 discriminator 1 view .LVU34
 135              	.LBB33:
  59:core/gpio-core.h **** {
  60:core/gpio-core.h ****     gpio_desp->ctl->ops.set_value(gpio_desp,value);
ARM GAS  C:\Users\test\AppData\Local\Temp\ccwqrrBM.s 			page 6


 136              		.loc 2 60 5 discriminator 1 view .LVU35
 137              		.loc 2 60 24 is_stmt 0 discriminator 1 view .LVU36
 138 002c 6368     		ldr	r3, [r4, #4]
 139              		.loc 2 60 5 discriminator 1 view .LVU37
 140 002e 0021     		movs	r1, #0
 141 0030 2046     		mov	r0, r4
 142 0032 DB68     		ldr	r3, [r3, #12]
 143 0034 9847     		blx	r3
 144              	.LVL5:
 145              		.loc 2 60 5 discriminator 1 view .LVU38
 146              	.LBE33:
 147              	.LBE32:
  29:application/main.c ****          mdelay(50);      //使用延时函数，延时500ms
 148              		.loc 1 29 10 is_stmt 1 discriminator 1 view .LVU39
 149              	.LBB34:
 150              	.LBI34:
  20:core/delay-core.h **** {
 151              		.loc 4 20 20 discriminator 1 view .LVU40
 152              	.LBB35:
 153              		.loc 4 22 5 discriminator 1 view .LVU41
 154 0036 6B68     		ldr	r3, [r5, #4]
 155 0038 3220     		movs	r0, #50
 156 003a 9847     		blx	r3
 157              	.LVL6:
 158              		.loc 4 22 5 is_stmt 0 discriminator 1 view .LVU42
 159              	.LBE35:
 160              	.LBE34:
  30:application/main.c ****          gpio_set_value(&led,1);
 161              		.loc 1 30 10 is_stmt 1 discriminator 1 view .LVU43
 162              	.LBB36:
 163              	.LBI36:
  58:core/gpio-core.h **** {
 164              		.loc 2 58 20 discriminator 1 view .LVU44
 165              	.LBB37:
 166              		.loc 2 60 5 discriminator 1 view .LVU45
 167              		.loc 2 60 24 is_stmt 0 discriminator 1 view .LVU46
 168 003c 6368     		ldr	r3, [r4, #4]
 169              		.loc 2 60 5 discriminator 1 view .LVU47
 170 003e 2046     		mov	r0, r4
 171 0040 0121     		movs	r1, #1
 172 0042 DB68     		ldr	r3, [r3, #12]
 173 0044 9847     		blx	r3
 174              	.LVL7:
 175              		.loc 2 60 5 discriminator 1 view .LVU48
 176              	.LBE37:
 177              	.LBE36:
  31:application/main.c ****          mdelay(50);      //使用延时函数，延时500ms
 178              		.loc 1 31 10 is_stmt 1 discriminator 1 view .LVU49
 179              	.LBB38:
 180              	.LBI38:
  20:core/delay-core.h **** {
 181              		.loc 4 20 20 discriminator 1 view .LVU50
 182              	.LBB39:
 183              		.loc 4 22 5 discriminator 1 view .LVU51
 184 0046 3220     		movs	r0, #50
 185 0048 6B68     		ldr	r3, [r5, #4]
 186 004a 9847     		blx	r3
ARM GAS  C:\Users\test\AppData\Local\Temp\ccwqrrBM.s 			page 7


 187              	.LVL8:
 188 004c EEE7     		b	.L2
 189              	.L6:
 190 004e 00BF     		.align	2
 191              	.L5:
 192 0050 00000000 		.word	.LANCHOR0
 193 0054 00000000 		.word	__gpio_core_init
 194 0058 00000000 		.word	__uart_core_init
 195 005c 00000000 		.word	.LANCHOR1
 196 0060 00000000 		.word	__delay_core_init
 197              	.LBE39:
 198              	.LBE38:
 199              		.cfi_endproc
 200              	.LFE20:
 202              		.global	tty0
 203              		.global	led
 204              		.section	.data.led,"aw"
 205              		.align	2
 206              		.set	.LANCHOR0,. + 0
 209              	led:
 210 0000 0200     		.short	2
 211 0002 00       		.byte	0
 212 0003 00000000 		.space	5
 212      00
 213              		.section	.data.tty0,"aw"
 214              		.align	2
 215              		.set	.LANCHOR1,. + 0
 218              	tty0:
 219 0000 00       		.byte	0
 220 0001 000000   		.space	3
 221 0004 00C20100 		.word	115200
 222 0008 00000000 		.space	4
 223              		.text
 224              	.Letext0:
 225              		.file 5 "e:\\nxp_mcu\\ft1_mcu_make\\toolschain\\arm-none-eabi\\include\\machine\\_default_types.h"
 226              		.file 6 "e:\\nxp_mcu\\ft1_mcu_make\\toolschain\\arm-none-eabi\\include\\sys\\_stdint.h"
 227              		.file 7 "core/module.h"
ARM GAS  C:\Users\test\AppData\Local\Temp\ccwqrrBM.s 			page 8


DEFINED SYMBOLS
                            *ABS*:00000000 main.c
C:\Users\test\AppData\Local\Temp\ccwqrrBM.s:16     .text.startup.main:00000000 $t
C:\Users\test\AppData\Local\Temp\ccwqrrBM.s:25     .text.startup.main:00000000 main
C:\Users\test\AppData\Local\Temp\ccwqrrBM.s:192    .text.startup.main:00000050 $d
C:\Users\test\AppData\Local\Temp\ccwqrrBM.s:218    .data.tty0:00000000 tty0
C:\Users\test\AppData\Local\Temp\ccwqrrBM.s:209    .data.led:00000000 led
C:\Users\test\AppData\Local\Temp\ccwqrrBM.s:205    .data.led:00000000 $d
C:\Users\test\AppData\Local\Temp\ccwqrrBM.s:214    .data.tty0:00000000 $d

UNDEFINED SYMBOLS
__gpio_core_init
__uart_core_init
__delay_core_init
