GAS LISTING C:\Users\test\AppData\Local\Temp\ccMFLWLO.s 			page 1


   1              		.file	"n200_func.c"
   2              		.option nopic
   3              		.text
   4              	.Ltext0:
   5              		.cfi_sections	.debug_frame
   6              		.section	.text.pmp_open_all_space,"ax",@progbits
   7              		.align	1
   8              		.globl	pmp_open_all_space
  10              	pmp_open_all_space:
  11              	.LFB2:
  12              		.file 1 "arch/riscv/mach-gd32vf10x/system/n200_func.c"
   1:arch/riscv/mach-gd32vf10x/system/n200_func.c **** // See LICENSE for license details.
   2:arch/riscv/mach-gd32vf10x/system/n200_func.c **** #include "gd32vf103.h"
   3:arch/riscv/mach-gd32vf10x/system/n200_func.c **** 
   4:arch/riscv/mach-gd32vf10x/system/n200_func.c **** #include "riscv_encoding.h"
   5:arch/riscv/mach-gd32vf10x/system/n200_func.c **** #include "n200_func.h"
   6:arch/riscv/mach-gd32vf10x/system/n200_func.c **** 
   7:arch/riscv/mach-gd32vf10x/system/n200_func.c ****     // Configure PMP to make all the address space accesable and executable
   8:arch/riscv/mach-gd32vf10x/system/n200_func.c **** void pmp_open_all_space(){
  13              		.loc 1 8 26
  14              		.cfi_startproc
   9:arch/riscv/mach-gd32vf10x/system/n200_func.c ****     // Config entry0 addr to all 1s to make the range cover all space
  10:arch/riscv/mach-gd32vf10x/system/n200_func.c ****     asm volatile ("li x6, 0xffffffff":::"x6");
  15              		.loc 1 10 5
  16              	 #APP
  17              	# 10 "arch/riscv/mach-gd32vf10x/system/n200_func.c" 1
  11              	    asm volatile ("csrw pmpaddr0, x6":::);
  18              		li x6, 0xffffffff
  19              	# 0 "" 2
  20              		.loc 1 11 5
  21              	# 11 "arch/riscv/mach-gd32vf10x/system/n200_func.c" 1
  12              	    // Config entry0 cfg to make it NAPOT address mode, and R/W/X okay
  13:arch/riscv/mach-gd32vf10x/system/n200_func.c ****     asm volatile ("li x6, 0x7f":::"x6");
  22              		csrw pmpaddr0, x6
  23              	# 0 "" 2
  24              		.loc 1 13 5
  25              	# 13 "arch/riscv/mach-gd32vf10x/system/n200_func.c" 1
  14              	    asm volatile ("csrw pmpcfg0, x6":::);
  26              		li x6, 0x7f
  27              	# 0 "" 2
  28              		.loc 1 14 5
  29              	# 14 "arch/riscv/mach-gd32vf10x/system/n200_func.c" 1
  15              	}
  30              		csrw pmpcfg0, x6
  31              	# 0 "" 2
  32              		.loc 1 15 1 is_stmt 0
  33              	 #NO_APP
  34 0010 8280     		ret
  35              		.cfi_endproc
  36              	.LFE2:
  38              		.section	.text.switch_m2u_mode,"ax",@progbits
  39              		.align	1
  40              		.globl	switch_m2u_mode
  42              	switch_m2u_mode:
  43              	.LFB3:
  16:arch/riscv/mach-gd32vf10x/system/n200_func.c **** 
  17:arch/riscv/mach-gd32vf10x/system/n200_func.c **** void switch_m2u_mode(){
GAS LISTING C:\Users\test\AppData\Local\Temp\ccMFLWLO.s 			page 2


  44              		.loc 1 17 23 is_stmt 1
  45              		.cfi_startproc
  18:arch/riscv/mach-gd32vf10x/system/n200_func.c ****     clear_csr (mstatus,MSTATUS_MPP);
  46              		.loc 1 18 5
  47              	.LBB87:
  48              		.loc 1 18 5
  49              		.loc 1 18 5
  50              		.loc 1 18 5
  51 0000 8967     		li	a5,8192
  52 0002 93870780 		addi	a5,a5,-2048
  53              	 #APP
  54              	# 18 "arch/riscv/mach-gd32vf10x/system/n200_func.c" 1
  19              	    //printf("\nIn the m2u function, the mstatus is 0x%x\n", read_csr(mstatus));
  55              		csrrc a5, mstatus, a5
  56              	# 0 "" 2
  57              	.LVL0:
  18:arch/riscv/mach-gd32vf10x/system/n200_func.c ****     clear_csr (mstatus,MSTATUS_MPP);
  58              		.loc 1 18 5
  59              	 #NO_APP
  60              	.LBE87:
  20:arch/riscv/mach-gd32vf10x/system/n200_func.c ****     //printf("\nIn the m2u function, the mepc is 0x%x\n", read_csr(mepc));
  21:arch/riscv/mach-gd32vf10x/system/n200_func.c ****     asm volatile ("la x6, 1f    ":::"x6");
  61              		.loc 1 21 5
  62              	 #APP
  63              	# 21 "arch/riscv/mach-gd32vf10x/system/n200_func.c" 1
  22              	    asm volatile ("csrw mepc, x6":::);
  64              		la x6, 1f    
  65              	# 0 "" 2
  66              		.loc 1 22 5
  67              	# 22 "arch/riscv/mach-gd32vf10x/system/n200_func.c" 1
  23              	    asm volatile ("mret":::);
  68              		csrw mepc, x6
  69              	# 0 "" 2
  70              		.loc 1 23 5
  71              	# 23 "arch/riscv/mach-gd32vf10x/system/n200_func.c" 1
  24              	    asm volatile ("1:":::);
  72              		mret
  73              	# 0 "" 2
  74              		.loc 1 24 5
  75              	# 24 "arch/riscv/mach-gd32vf10x/system/n200_func.c" 1
  25              	} 
  76              		1:
  77              	# 0 "" 2
  78              		.loc 1 25 1 is_stmt 0
  79              	 #NO_APP
  80 001a 8280     		ret
  81              		.cfi_endproc
  82              	.LFE3:
  84              		.section	.text.mtime_lo,"ax",@progbits
  85              		.align	1
  86              		.globl	mtime_lo
  88              	mtime_lo:
  89              	.LFB4:
  26:arch/riscv/mach-gd32vf10x/system/n200_func.c **** 
  27:arch/riscv/mach-gd32vf10x/system/n200_func.c **** unsigned int mtime_lo(void)
  28:arch/riscv/mach-gd32vf10x/system/n200_func.c **** {
  90              		.loc 1 28 1 is_stmt 1
GAS LISTING C:\Users\test\AppData\Local\Temp\ccMFLWLO.s 			page 3


  91              		.cfi_startproc
  29:arch/riscv/mach-gd32vf10x/system/n200_func.c ****   return *(volatile unsigned int *)(TIMER_CTRL_ADDR + TIMER_MTIME);
  92              		.loc 1 29 3
  93              		.loc 1 29 10 is_stmt 0
  94 0000 B70700D1 		li	a5,-788529152
  95 0004 8843     		lw	a0,0(a5)
  30:arch/riscv/mach-gd32vf10x/system/n200_func.c **** }
  96              		.loc 1 30 1
  97 0006 8280     		ret
  98              		.cfi_endproc
  99              	.LFE4:
 101              		.section	.text.mtime_hi,"ax",@progbits
 102              		.align	1
 103              		.globl	mtime_hi
 105              	mtime_hi:
 106              	.LFB5:
  31:arch/riscv/mach-gd32vf10x/system/n200_func.c **** 
  32:arch/riscv/mach-gd32vf10x/system/n200_func.c **** 
  33:arch/riscv/mach-gd32vf10x/system/n200_func.c **** unsigned int mtime_hi(void)
  34:arch/riscv/mach-gd32vf10x/system/n200_func.c **** {
 107              		.loc 1 34 1 is_stmt 1
 108              		.cfi_startproc
  35:arch/riscv/mach-gd32vf10x/system/n200_func.c ****   return *(volatile unsigned int *)(TIMER_CTRL_ADDR + TIMER_MTIME + 4);
 109              		.loc 1 35 3
 110              		.loc 1 35 10 is_stmt 0
 111 0000 B70700D1 		li	a5,-788529152
 112 0004 C843     		lw	a0,4(a5)
  36:arch/riscv/mach-gd32vf10x/system/n200_func.c **** }
 113              		.loc 1 36 1
 114 0006 8280     		ret
 115              		.cfi_endproc
 116              	.LFE5:
 118              		.section	.text.get_timer_value,"ax",@progbits
 119              		.align	1
 120              		.globl	get_timer_value
 122              	get_timer_value:
 123              	.LFB6:
  37:arch/riscv/mach-gd32vf10x/system/n200_func.c **** 
  38:arch/riscv/mach-gd32vf10x/system/n200_func.c **** unsigned long long get_timer_value()
  39:arch/riscv/mach-gd32vf10x/system/n200_func.c **** {
 124              		.loc 1 39 1 is_stmt 1
 125              		.cfi_startproc
 126              	.LBB88:
 127              	.LBB89:
 128              	.LBB90:
  35:arch/riscv/mach-gd32vf10x/system/n200_func.c **** }
 129              		.loc 1 35 10 is_stmt 0
 130 0000 B70700D1 		li	a5,-788529152
 131              	.L7:
 132              	.LBE90:
 133              	.LBE89:
 134              	.LBE88:
  40:arch/riscv/mach-gd32vf10x/system/n200_func.c ****   while (1) {
 135              		.loc 1 40 3 is_stmt 1
 136              	.LBB97:
  41:arch/riscv/mach-gd32vf10x/system/n200_func.c ****     unsigned int hi = mtime_hi();
 137              		.loc 1 41 5
GAS LISTING C:\Users\test\AppData\Local\Temp\ccMFLWLO.s 			page 4


 138              	.LBB92:
 139              	.LBB91:
  35:arch/riscv/mach-gd32vf10x/system/n200_func.c **** }
 140              		.loc 1 35 3
  35:arch/riscv/mach-gd32vf10x/system/n200_func.c **** }
 141              		.loc 1 35 10 is_stmt 0
 142 0004 D843     		lw	a4,4(a5)
 143              	.LVL1:
 144              	.LBE91:
 145              	.LBE92:
  42:arch/riscv/mach-gd32vf10x/system/n200_func.c ****     unsigned int lo = mtime_lo();
 146              		.loc 1 42 5 is_stmt 1
 147              	.LBB93:
 148              	.LBB94:
  29:arch/riscv/mach-gd32vf10x/system/n200_func.c **** }
 149              		.loc 1 29 3
  29:arch/riscv/mach-gd32vf10x/system/n200_func.c **** }
 150              		.loc 1 29 10 is_stmt 0
 151 0006 8843     		lw	a0,0(a5)
 152              	.LVL2:
 153              	.LBE94:
 154              	.LBE93:
  43:arch/riscv/mach-gd32vf10x/system/n200_func.c ****     if (hi == mtime_hi())
 155              		.loc 1 43 5 is_stmt 1
 156              	.LBB95:
 157              	.LBB96:
  35:arch/riscv/mach-gd32vf10x/system/n200_func.c **** }
 158              		.loc 1 35 3
  35:arch/riscv/mach-gd32vf10x/system/n200_func.c **** }
 159              		.loc 1 35 10 is_stmt 0
 160 0008 CC43     		lw	a1,4(a5)
 161              	.LBE96:
 162              	.LBE95:
 163              		.loc 1 43 8
 164 000a E39DE5FE 		bne	a1,a4,.L7
 165              	.LBE97:
  44:arch/riscv/mach-gd32vf10x/system/n200_func.c ****       return ((unsigned long long)hi << 32) | lo;
  45:arch/riscv/mach-gd32vf10x/system/n200_func.c ****   }
  46:arch/riscv/mach-gd32vf10x/system/n200_func.c **** }
 166              		.loc 1 46 1
 167 000e 8280     		ret
 168              		.cfi_endproc
 169              	.LFE6:
 171              		.section	.text.get_timer_freq,"ax",@progbits
 172              		.align	1
 173              		.globl	get_timer_freq
 175              	get_timer_freq:
 176              	.LFB7:
  47:arch/riscv/mach-gd32vf10x/system/n200_func.c **** 
  48:arch/riscv/mach-gd32vf10x/system/n200_func.c **** unsigned int get_timer_freq()
  49:arch/riscv/mach-gd32vf10x/system/n200_func.c **** {
 177              		.loc 1 49 1 is_stmt 1
 178              		.cfi_startproc
  50:arch/riscv/mach-gd32vf10x/system/n200_func.c ****   return TIMER_FREQ;
 179              		.loc 1 50 3
 180              		.loc 1 50 10 is_stmt 0
 181 0000 B7070000 		lui	a5,%hi(SystemCoreClock)
GAS LISTING C:\Users\test\AppData\Local\Temp\ccMFLWLO.s 			page 5


 182 0004 03A50700 		lw	a0,%lo(SystemCoreClock)(a5)
  51:arch/riscv/mach-gd32vf10x/system/n200_func.c **** }
 183              		.loc 1 51 1
 184 0008 0981     		srli	a0,a0,2
 185 000a 8280     		ret
 186              		.cfi_endproc
 187              	.LFE7:
 189              		.section	.text.get_instret_value,"ax",@progbits
 190              		.align	1
 191              		.globl	get_instret_value
 193              	get_instret_value:
 194              	.LFB8:
  52:arch/riscv/mach-gd32vf10x/system/n200_func.c **** 
  53:arch/riscv/mach-gd32vf10x/system/n200_func.c **** unsigned long long get_instret_value()
  54:arch/riscv/mach-gd32vf10x/system/n200_func.c **** {
 195              		.loc 1 54 1 is_stmt 1
 196              		.cfi_startproc
 197              	.L11:
  55:arch/riscv/mach-gd32vf10x/system/n200_func.c ****   while (1) {
 198              		.loc 1 55 3
 199              	.LBB98:
  56:arch/riscv/mach-gd32vf10x/system/n200_func.c ****     unsigned int hi = read_csr(minstreth);
 200              		.loc 1 56 5
 201              	.LBB99:
 202              		.loc 1 56 23
 203              		.loc 1 56 23
 204              	 #APP
 205              	# 56 "arch/riscv/mach-gd32vf10x/system/n200_func.c" 1
  57              	    unsigned int lo = read_csr(minstret);
 206              		csrr a1, minstreth
 207              	# 0 "" 2
 208              	.LVL3:
  56:arch/riscv/mach-gd32vf10x/system/n200_func.c ****     unsigned int hi = read_csr(minstreth);
 209              		.loc 1 56 23
 210              	 #NO_APP
 211              	.LBE99:
 212              		.loc 1 57 5
 213              	.LBB100:
 214              		.loc 1 57 23
 215              		.loc 1 57 23
 216              	 #APP
 217              	# 57 "arch/riscv/mach-gd32vf10x/system/n200_func.c" 1
  58              	    if (hi == read_csr(minstreth))
 218              		csrr a0, minstret
 219              	# 0 "" 2
 220              	.LVL4:
  57:arch/riscv/mach-gd32vf10x/system/n200_func.c ****     if (hi == read_csr(minstreth))
 221              		.loc 1 57 23
 222              	 #NO_APP
 223              	.LBE100:
 224              		.loc 1 58 5
 225              	.LBB101:
 226              		.loc 1 58 15
 227              		.loc 1 58 15
 228              	 #APP
 229              	# 58 "arch/riscv/mach-gd32vf10x/system/n200_func.c" 1
  59              	      return ((unsigned long long)hi << 32) | lo;
GAS LISTING C:\Users\test\AppData\Local\Temp\ccMFLWLO.s 			page 6


 230              		csrr a5, minstreth
 231              	# 0 "" 2
 232              	.LVL5:
  58:arch/riscv/mach-gd32vf10x/system/n200_func.c ****       return ((unsigned long long)hi << 32) | lo;
 233              		.loc 1 58 15
 234              	 #NO_APP
 235              	.LBE101:
  58:arch/riscv/mach-gd32vf10x/system/n200_func.c ****       return ((unsigned long long)hi << 32) | lo;
 236              		.loc 1 58 8 is_stmt 0
 237 000c E39AF5FE 		bne	a1,a5,.L11
 238              	.LBE98:
  60:arch/riscv/mach-gd32vf10x/system/n200_func.c ****   }
  61:arch/riscv/mach-gd32vf10x/system/n200_func.c **** }
 239              		.loc 1 61 1
 240 0010 8280     		ret
 241              		.cfi_endproc
 242              	.LFE8:
 244              		.section	.text.get_cycle_value,"ax",@progbits
 245              		.align	1
 246              		.globl	get_cycle_value
 248              	get_cycle_value:
 249              	.LFB9:
  62:arch/riscv/mach-gd32vf10x/system/n200_func.c **** 
  63:arch/riscv/mach-gd32vf10x/system/n200_func.c **** unsigned long long get_cycle_value()
  64:arch/riscv/mach-gd32vf10x/system/n200_func.c **** {
 250              		.loc 1 64 1 is_stmt 1
 251              		.cfi_startproc
 252              	.L14:
  65:arch/riscv/mach-gd32vf10x/system/n200_func.c ****   while (1) {
 253              		.loc 1 65 3
 254              	.LBB102:
  66:arch/riscv/mach-gd32vf10x/system/n200_func.c ****     unsigned int hi = read_csr(mcycleh);
 255              		.loc 1 66 5
 256              	.LBB103:
 257              		.loc 1 66 23
 258              		.loc 1 66 23
 259              	 #APP
 260              	# 66 "arch/riscv/mach-gd32vf10x/system/n200_func.c" 1
  67              	    unsigned int lo = read_csr(mcycle);
 261              		csrr a1, mcycleh
 262              	# 0 "" 2
 263              	.LVL6:
  66:arch/riscv/mach-gd32vf10x/system/n200_func.c ****     unsigned int hi = read_csr(mcycleh);
 264              		.loc 1 66 23
 265              	 #NO_APP
 266              	.LBE103:
 267              		.loc 1 67 5
 268              	.LBB104:
 269              		.loc 1 67 23
 270              		.loc 1 67 23
 271              	 #APP
 272              	# 67 "arch/riscv/mach-gd32vf10x/system/n200_func.c" 1
  68              	    if (hi == read_csr(mcycleh))
 273              		csrr a0, mcycle
 274              	# 0 "" 2
 275              	.LVL7:
  67:arch/riscv/mach-gd32vf10x/system/n200_func.c ****     if (hi == read_csr(mcycleh))
GAS LISTING C:\Users\test\AppData\Local\Temp\ccMFLWLO.s 			page 7


 276              		.loc 1 67 23
 277              	 #NO_APP
 278              	.LBE104:
 279              		.loc 1 68 5
 280              	.LBB105:
 281              		.loc 1 68 15
 282              		.loc 1 68 15
 283              	 #APP
 284              	# 68 "arch/riscv/mach-gd32vf10x/system/n200_func.c" 1
  69              	      return ((unsigned long long)hi << 32) | lo;
 285              		csrr a5, mcycleh
 286              	# 0 "" 2
 287              	.LVL8:
  68:arch/riscv/mach-gd32vf10x/system/n200_func.c ****       return ((unsigned long long)hi << 32) | lo;
 288              		.loc 1 68 15
 289              	 #NO_APP
 290              	.LBE105:
  68:arch/riscv/mach-gd32vf10x/system/n200_func.c ****       return ((unsigned long long)hi << 32) | lo;
 291              		.loc 1 68 8 is_stmt 0
 292 000c E39AF5FE 		bne	a1,a5,.L14
 293              	.LBE102:
  70:arch/riscv/mach-gd32vf10x/system/n200_func.c ****   }
  71:arch/riscv/mach-gd32vf10x/system/n200_func.c **** }
 294              		.loc 1 71 1
 295 0010 8280     		ret
 296              		.cfi_endproc
 297              	.LFE9:
 299              		.section	.text.measure_cpu_freq,"ax",@progbits
 300              		.align	1
 301              		.globl	measure_cpu_freq
 303              	measure_cpu_freq:
 304              	.LFB10:
  72:arch/riscv/mach-gd32vf10x/system/n200_func.c **** 
  73:arch/riscv/mach-gd32vf10x/system/n200_func.c **** unsigned int __attribute__((noinline)) measure_cpu_freq(unsigned int n)
  74:arch/riscv/mach-gd32vf10x/system/n200_func.c **** {
 305              		.loc 1 74 1 is_stmt 1
 306              		.cfi_startproc
 307              	.LVL9:
  75:arch/riscv/mach-gd32vf10x/system/n200_func.c ****   unsigned int start_mtime, delta_mtime;
 308              		.loc 1 75 3
  76:arch/riscv/mach-gd32vf10x/system/n200_func.c ****   unsigned int mtime_freq = get_timer_freq();
 309              		.loc 1 76 3
 310              	.LBB106:
 311              	.LBB107:
  50:arch/riscv/mach-gd32vf10x/system/n200_func.c **** }
 312              		.loc 1 50 3
  50:arch/riscv/mach-gd32vf10x/system/n200_func.c **** }
 313              		.loc 1 50 10 is_stmt 0
 314 0000 B7070000 		lui	a5,%hi(SystemCoreClock)
 315 0004 03A70700 		lw	a4,%lo(SystemCoreClock)(a5)
 316              	.LBE107:
 317              	.LBE106:
 318              	.LBB109:
 319              	.LBB110:
  29:arch/riscv/mach-gd32vf10x/system/n200_func.c **** }
 320              		.loc 1 29 10
 321 0008 B70700D1 		li	a5,-788529152
GAS LISTING C:\Users\test\AppData\Local\Temp\ccMFLWLO.s 			page 8


 322 000c 9443     		lw	a3,0(a5)
 323              	.LBE110:
 324              	.LBE109:
 325              	.LBB112:
 326              	.LBB108:
  50:arch/riscv/mach-gd32vf10x/system/n200_func.c **** }
 327              		.loc 1 50 10
 328 000e 13562700 		srli	a2,a4,2
 329              	.LVL10:
 330              	.LBE108:
 331              	.LBE112:
  77:arch/riscv/mach-gd32vf10x/system/n200_func.c **** 
  78:arch/riscv/mach-gd32vf10x/system/n200_func.c ****   // Don't start measuruing until we see an mtime tick
  79:arch/riscv/mach-gd32vf10x/system/n200_func.c ****   unsigned int tmp = mtime_lo();
 332              		.loc 1 79 3 is_stmt 1
 333              	.LBB113:
 334              	.LBB111:
  29:arch/riscv/mach-gd32vf10x/system/n200_func.c **** }
 335              		.loc 1 29 3
 336              	.L17:
 337              	.LBE111:
 338              	.LBE113:
  80:arch/riscv/mach-gd32vf10x/system/n200_func.c ****   do {
 339              		.loc 1 80 3 discriminator 1
  81:arch/riscv/mach-gd32vf10x/system/n200_func.c ****     start_mtime = mtime_lo();
 340              		.loc 1 81 5 discriminator 1
 341              	.LBB114:
 342              	.LBB115:
  29:arch/riscv/mach-gd32vf10x/system/n200_func.c **** }
 343              		.loc 1 29 3 discriminator 1
  29:arch/riscv/mach-gd32vf10x/system/n200_func.c **** }
 344              		.loc 1 29 10 is_stmt 0 discriminator 1
 345 0012 9843     		lw	a4,0(a5)
 346              	.LVL11:
 347              	.LBE115:
 348              	.LBE114:
  82:arch/riscv/mach-gd32vf10x/system/n200_func.c ****   } while (start_mtime == tmp);
 349              		.loc 1 82 3 discriminator 1
 350 0014 E38FE6FE 		beq	a3,a4,.L17
  83:arch/riscv/mach-gd32vf10x/system/n200_func.c **** 
  84:arch/riscv/mach-gd32vf10x/system/n200_func.c ****   unsigned int start_mcycle = read_csr(mcycle);
 351              		.loc 1 84 3 is_stmt 1
 352              	.LBB116:
 353              		.loc 1 84 31
 354              		.loc 1 84 31
 355              	 #APP
 356              	# 84 "arch/riscv/mach-gd32vf10x/system/n200_func.c" 1
  85              	
 357              		csrr a1, mcycle
 358              	# 0 "" 2
 359              	.LVL12:
  84:arch/riscv/mach-gd32vf10x/system/n200_func.c ****   unsigned int start_mcycle = read_csr(mcycle);
 360              		.loc 1 84 31
 361              	 #NO_APP
 362              	.LBE116:
 363              	.LBB117:
 364              	.LBB118:
GAS LISTING C:\Users\test\AppData\Local\Temp\ccMFLWLO.s 			page 9


  29:arch/riscv/mach-gd32vf10x/system/n200_func.c **** }
 365              		.loc 1 29 10 is_stmt 0
 366 001c B70600D1 		li	a3,-788529152
 367              	.LVL13:
 368              	.L18:
 369              	.LBE118:
 370              	.LBE117:
  86:arch/riscv/mach-gd32vf10x/system/n200_func.c ****   do {
 371              		.loc 1 86 3 is_stmt 1 discriminator 1
  87:arch/riscv/mach-gd32vf10x/system/n200_func.c ****     delta_mtime = mtime_lo() - start_mtime;
 372              		.loc 1 87 5 discriminator 1
 373              	.LBB120:
 374              	.LBB119:
  29:arch/riscv/mach-gd32vf10x/system/n200_func.c **** }
 375              		.loc 1 29 3 discriminator 1
  29:arch/riscv/mach-gd32vf10x/system/n200_func.c **** }
 376              		.loc 1 29 10 is_stmt 0 discriminator 1
 377 0020 9C42     		lw	a5,0(a3)
 378              	.LBE119:
 379              	.LBE120:
 380              		.loc 1 87 17 discriminator 1
 381 0022 998F     		sub	a5,a5,a4
 382              	.LVL14:
  88:arch/riscv/mach-gd32vf10x/system/n200_func.c ****   } while (delta_mtime < n);
 383              		.loc 1 88 3 discriminator 1
 384 0024 E3EEA7FE 		bltu	a5,a0,.L18
  89:arch/riscv/mach-gd32vf10x/system/n200_func.c **** 
  90:arch/riscv/mach-gd32vf10x/system/n200_func.c ****   unsigned int delta_mcycle = read_csr(mcycle) - start_mcycle;
 385              		.loc 1 90 3 is_stmt 1
 386              	.LBB121:
 387              		.loc 1 90 31
 388              		.loc 1 90 31
 389              	 #APP
 390              	# 90 "arch/riscv/mach-gd32vf10x/system/n200_func.c" 1
  91              	
 391              		csrr a4, mcycle
 392              	# 0 "" 2
 393              	.LVL15:
  90:arch/riscv/mach-gd32vf10x/system/n200_func.c ****   unsigned int delta_mcycle = read_csr(mcycle) - start_mcycle;
 394              		.loc 1 90 31
 395              	 #NO_APP
 396              	.LBE121:
  90:arch/riscv/mach-gd32vf10x/system/n200_func.c ****   unsigned int delta_mcycle = read_csr(mcycle) - start_mcycle;
 397              		.loc 1 90 16 is_stmt 0
 398 002c 0D8F     		sub	a4,a4,a1
 399              	.LVL16:
  92:arch/riscv/mach-gd32vf10x/system/n200_func.c ****   return (delta_mcycle / delta_mtime) * mtime_freq
 400              		.loc 1 92 3 is_stmt 1
  93:arch/riscv/mach-gd32vf10x/system/n200_func.c ****          + ((delta_mcycle % delta_mtime) * mtime_freq) / delta_mtime;
 401              		.loc 1 93 27 is_stmt 0
 402 002e 3375F702 		remu	a0,a4,a5
 403              	.LVL17:
  92:arch/riscv/mach-gd32vf10x/system/n200_func.c ****   return (delta_mcycle / delta_mtime) * mtime_freq
 404              		.loc 1 92 24
 405 0032 3357F702 		divu	a4,a4,a5
 406              	.LVL18:
 407              		.loc 1 93 42
GAS LISTING C:\Users\test\AppData\Local\Temp\ccMFLWLO.s 			page 10


 408 0036 3305C502 		mul	a0,a0,a2
 409              		.loc 1 93 56
 410 003a 3355F502 		divu	a0,a0,a5
  92:arch/riscv/mach-gd32vf10x/system/n200_func.c ****   return (delta_mcycle / delta_mtime) * mtime_freq
 411              		.loc 1 92 39
 412 003e 3307C702 		mul	a4,a4,a2
  94:arch/riscv/mach-gd32vf10x/system/n200_func.c **** }
 413              		.loc 1 94 1
 414 0042 3A95     		add	a0,a0,a4
 415 0044 8280     		ret
 416              		.cfi_endproc
 417              	.LFE10:
 419              		.section	.text.get_cpu_freq,"ax",@progbits
 420              		.align	1
 421              		.globl	get_cpu_freq
 423              	get_cpu_freq:
 424              	.LFB11:
  95:arch/riscv/mach-gd32vf10x/system/n200_func.c **** 
  96:arch/riscv/mach-gd32vf10x/system/n200_func.c **** unsigned int get_cpu_freq()
  97:arch/riscv/mach-gd32vf10x/system/n200_func.c **** {
 425              		.loc 1 97 1 is_stmt 1
 426              		.cfi_startproc
  98:arch/riscv/mach-gd32vf10x/system/n200_func.c ****   unsigned int cpu_freq;
 427              		.loc 1 98 3
  99:arch/riscv/mach-gd32vf10x/system/n200_func.c **** 
 100:arch/riscv/mach-gd32vf10x/system/n200_func.c ****   // warm up
 101:arch/riscv/mach-gd32vf10x/system/n200_func.c ****   measure_cpu_freq(1);
 428              		.loc 1 101 3
  97:arch/riscv/mach-gd32vf10x/system/n200_func.c ****   unsigned int cpu_freq;
 429              		.loc 1 97 1 is_stmt 0
 430 0000 4111     		addi	sp,sp,-16
 431              	.LCFI0:
 432              		.cfi_def_cfa_offset 16
 433              		.loc 1 101 3
 434 0002 0545     		li	a0,1
  97:arch/riscv/mach-gd32vf10x/system/n200_func.c ****   unsigned int cpu_freq;
 435              		.loc 1 97 1
 436 0004 06C6     		sw	ra,12(sp)
 437              		.cfi_offset 1, -4
 438              		.loc 1 101 3
 439 0006 97000000 		call	measure_cpu_freq
 439      E7800000 
 440              	.LVL19:
 102:arch/riscv/mach-gd32vf10x/system/n200_func.c ****   // measure for real
 103:arch/riscv/mach-gd32vf10x/system/n200_func.c ****   cpu_freq = measure_cpu_freq(100);
 441              		.loc 1 103 3 is_stmt 1
 104:arch/riscv/mach-gd32vf10x/system/n200_func.c **** 
 105:arch/riscv/mach-gd32vf10x/system/n200_func.c ****   return cpu_freq;
 106:arch/riscv/mach-gd32vf10x/system/n200_func.c **** }
 442              		.loc 1 106 1 is_stmt 0
 443 000e B240     		lw	ra,12(sp)
 444              		.cfi_restore 1
 103:arch/riscv/mach-gd32vf10x/system/n200_func.c **** 
 445              		.loc 1 103 14
 446 0010 13054006 		li	a0,100
 447              		.loc 1 106 1
 448 0014 4101     		addi	sp,sp,16
GAS LISTING C:\Users\test\AppData\Local\Temp\ccMFLWLO.s 			page 11


 449              	.LCFI1:
 450              		.cfi_def_cfa_offset 0
 103:arch/riscv/mach-gd32vf10x/system/n200_func.c **** 
 451              		.loc 1 103 14
 452 0016 17030000 		tail	measure_cpu_freq
 452      67000300 
 453              	.LVL20:
 454              		.cfi_endproc
 455              	.LFE11:
 457              		.section	.text.eclic_init,"ax",@progbits
 458              		.align	1
 459              		.globl	eclic_init
 461              	eclic_init:
 462              	.LFB12:
 107:arch/riscv/mach-gd32vf10x/system/n200_func.c **** 
 108:arch/riscv/mach-gd32vf10x/system/n200_func.c **** 
 109:arch/riscv/mach-gd32vf10x/system/n200_func.c **** 
 110:arch/riscv/mach-gd32vf10x/system/n200_func.c **** // Note that there are no assertions or bounds checking on these
 111:arch/riscv/mach-gd32vf10x/system/n200_func.c **** // parameter values.
 112:arch/riscv/mach-gd32vf10x/system/n200_func.c **** 
 113:arch/riscv/mach-gd32vf10x/system/n200_func.c **** 
 114:arch/riscv/mach-gd32vf10x/system/n200_func.c **** 
 115:arch/riscv/mach-gd32vf10x/system/n200_func.c ****   
 116:arch/riscv/mach-gd32vf10x/system/n200_func.c **** void eclic_init ( unsigned int num_irq )
 117:arch/riscv/mach-gd32vf10x/system/n200_func.c **** {
 463              		.loc 1 117 1 is_stmt 1
 464              		.cfi_startproc
 465              	.LVL21:
 118:arch/riscv/mach-gd32vf10x/system/n200_func.c **** 
 119:arch/riscv/mach-gd32vf10x/system/n200_func.c ****   typedef volatile unsigned int vuint32_t;
 466              		.loc 1 119 3
 120:arch/riscv/mach-gd32vf10x/system/n200_func.c **** 
 121:arch/riscv/mach-gd32vf10x/system/n200_func.c ****   //clear cfg register 
 122:arch/riscv/mach-gd32vf10x/system/n200_func.c ****   *(volatile unsigned char*)(ECLIC_ADDR_BASE+ECLIC_CFG_OFFSET)=0;
 467              		.loc 1 122 3
 468              		.loc 1 122 63 is_stmt 0
 469 0000 370700D2 		li	a4,-771751936
 470 0004 23000700 		sb	zero,0(a4)
 123:arch/riscv/mach-gd32vf10x/system/n200_func.c **** 
 124:arch/riscv/mach-gd32vf10x/system/n200_func.c ****   //clear minthresh register 
 125:arch/riscv/mach-gd32vf10x/system/n200_func.c ****   *(volatile unsigned char*)(ECLIC_ADDR_BASE+ECLIC_MTH_OFFSET)=0;
 471              		.loc 1 125 3 is_stmt 1
 126:arch/riscv/mach-gd32vf10x/system/n200_func.c **** 
 127:arch/riscv/mach-gd32vf10x/system/n200_func.c ****   //clear all IP/IE/ATTR/CTRL bits for all interrupt sources
 128:arch/riscv/mach-gd32vf10x/system/n200_func.c ****   vuint32_t * ptr;
 129:arch/riscv/mach-gd32vf10x/system/n200_func.c **** 
 130:arch/riscv/mach-gd32vf10x/system/n200_func.c ****   vuint32_t * base = (vuint32_t*)(ECLIC_ADDR_BASE + ECLIC_INT_IP_OFFSET);
 131:arch/riscv/mach-gd32vf10x/system/n200_func.c ****   vuint32_t * upper = (vuint32_t*)(base + num_irq*4);
 472              		.loc 1 131 41 is_stmt 0
 473 0008 1205     		slli	a0,a0,4
 474              	.LVL22:
 475              		.loc 1 131 15
 476 000a B71700D2 		li	a5,-771747840
 125:arch/riscv/mach-gd32vf10x/system/n200_func.c **** 
 477              		.loc 1 125 63
 478 000e A3050700 		sb	zero,11(a4)
 128:arch/riscv/mach-gd32vf10x/system/n200_func.c **** 
GAS LISTING C:\Users\test\AppData\Local\Temp\ccMFLWLO.s 			page 12


 479              		.loc 1 128 3 is_stmt 1
 130:arch/riscv/mach-gd32vf10x/system/n200_func.c ****   vuint32_t * upper = (vuint32_t*)(base + num_irq*4);
 480              		.loc 1 130 3
 481              	.LVL23:
 482              		.loc 1 131 3
 483              		.loc 1 131 15 is_stmt 0
 484 0012 3E95     		add	a0,a5,a0
 485              	.LVL24:
 132:arch/riscv/mach-gd32vf10x/system/n200_func.c **** 
 133:arch/riscv/mach-gd32vf10x/system/n200_func.c ****   for (ptr = base; ptr < upper; ptr=ptr+4){
 486              		.loc 1 133 3 is_stmt 1
 487 0014 63F7A700 		bleu	a0,a5,.L23
 488              	.LVL25:
 489              	.L25:
 134:arch/riscv/mach-gd32vf10x/system/n200_func.c ****     *ptr = 0;
 490              		.loc 1 134 5 discriminator 3
 491              		.loc 1 134 10 is_stmt 0 discriminator 3
 492 0018 23A00700 		sw	zero,0(a5)
 133:arch/riscv/mach-gd32vf10x/system/n200_func.c ****     *ptr = 0;
 493              		.loc 1 133 36 discriminator 3
 494 001c C107     		addi	a5,a5,16
 495              	.LVL26:
 133:arch/riscv/mach-gd32vf10x/system/n200_func.c ****     *ptr = 0;
 496              		.loc 1 133 3 discriminator 3
 497 001e E3EDA7FE 		bgtu	a0,a5,.L25
 498              	.LVL27:
 499              	.L23:
 135:arch/riscv/mach-gd32vf10x/system/n200_func.c ****   }
 136:arch/riscv/mach-gd32vf10x/system/n200_func.c **** }
 500              		.loc 1 136 1
 501 0022 8280     		ret
 502              		.cfi_endproc
 503              	.LFE12:
 505              		.section	.text.eclic_enable_interrupt,"ax",@progbits
 506              		.align	1
 507              		.globl	eclic_enable_interrupt
 509              	eclic_enable_interrupt:
 510              	.LFB13:
 137:arch/riscv/mach-gd32vf10x/system/n200_func.c **** 
 138:arch/riscv/mach-gd32vf10x/system/n200_func.c **** 
 139:arch/riscv/mach-gd32vf10x/system/n200_func.c **** 
 140:arch/riscv/mach-gd32vf10x/system/n200_func.c **** void eclic_enable_interrupt (unsigned int source) {
 511              		.loc 1 140 51 is_stmt 1
 512              		.cfi_startproc
 513              	.LVL28:
 141:arch/riscv/mach-gd32vf10x/system/n200_func.c ****     *(volatile unsigned char*)(ECLIC_ADDR_BASE+ECLIC_INT_IE_OFFSET+source*4) = 1;
 514              		.loc 1 141 5
 515              		.loc 1 141 67 is_stmt 0
 516 0000 B71700D2 		li	a5,-771747840
 517 0004 8507     		addi	a5,a5,1
 518              		.loc 1 141 74
 519 0006 0A05     		slli	a0,a0,2
 520              	.LVL29:
 521              		.loc 1 141 67
 522 0008 3E95     		add	a0,a0,a5
 523              		.loc 1 141 78
 524 000a 8547     		li	a5,1
GAS LISTING C:\Users\test\AppData\Local\Temp\ccMFLWLO.s 			page 13


 525 000c 2300F500 		sb	a5,0(a0)
 142:arch/riscv/mach-gd32vf10x/system/n200_func.c **** }
 526              		.loc 1 142 1
 527 0010 8280     		ret
 528              		.cfi_endproc
 529              	.LFE13:
 531              		.section	.text.eclic_disable_interrupt,"ax",@progbits
 532              		.align	1
 533              		.globl	eclic_disable_interrupt
 535              	eclic_disable_interrupt:
 536              	.LFB14:
 143:arch/riscv/mach-gd32vf10x/system/n200_func.c **** 
 144:arch/riscv/mach-gd32vf10x/system/n200_func.c **** void eclic_disable_interrupt (unsigned int source){
 537              		.loc 1 144 51 is_stmt 1
 538              		.cfi_startproc
 539              	.LVL30:
 145:arch/riscv/mach-gd32vf10x/system/n200_func.c ****     *(volatile unsigned char*)(ECLIC_ADDR_BASE+ECLIC_INT_IE_OFFSET+source*4) = 0;
 540              		.loc 1 145 5
 541              		.loc 1 145 67 is_stmt 0
 542 0000 B71700D2 		li	a5,-771747840
 543              		.loc 1 145 74
 544 0004 0A05     		slli	a0,a0,2
 545              	.LVL31:
 546              		.loc 1 145 67
 547 0006 8507     		addi	a5,a5,1
 548 0008 3E95     		add	a0,a0,a5
 549              		.loc 1 145 78
 550 000a 23000500 		sb	zero,0(a0)
 146:arch/riscv/mach-gd32vf10x/system/n200_func.c **** }
 551              		.loc 1 146 1
 552 000e 8280     		ret
 553              		.cfi_endproc
 554              	.LFE14:
 556              		.section	.text.eclic_set_pending,"ax",@progbits
 557              		.align	1
 558              		.globl	eclic_set_pending
 560              	eclic_set_pending:
 561              	.LFB15:
 147:arch/riscv/mach-gd32vf10x/system/n200_func.c **** 
 148:arch/riscv/mach-gd32vf10x/system/n200_func.c **** void eclic_set_pending(unsigned int source){
 562              		.loc 1 148 44 is_stmt 1
 563              		.cfi_startproc
 564              	.LVL32:
 149:arch/riscv/mach-gd32vf10x/system/n200_func.c ****     *(volatile unsigned char*)(ECLIC_ADDR_BASE+ECLIC_INT_IP_OFFSET+source*4) = 1;
 565              		.loc 1 149 5
 566              		.loc 1 149 67 is_stmt 0
 567 0000 B7078034 		li	a5,880803840
 568 0004 93870740 		addi	a5,a5,1024
 569 0008 3E95     		add	a0,a0,a5
 570              	.LVL33:
 571 000a 0A05     		slli	a0,a0,2
 572              	.LVL34:
 573              		.loc 1 149 78
 574 000c 8547     		li	a5,1
 575 000e 2300F500 		sb	a5,0(a0)
 150:arch/riscv/mach-gd32vf10x/system/n200_func.c **** }
 576              		.loc 1 150 1
GAS LISTING C:\Users\test\AppData\Local\Temp\ccMFLWLO.s 			page 14


 577 0012 8280     		ret
 578              		.cfi_endproc
 579              	.LFE15:
 581              		.section	.text.eclic_clear_pending,"ax",@progbits
 582              		.align	1
 583              		.globl	eclic_clear_pending
 585              	eclic_clear_pending:
 586              	.LFB16:
 151:arch/riscv/mach-gd32vf10x/system/n200_func.c **** 
 152:arch/riscv/mach-gd32vf10x/system/n200_func.c **** void eclic_clear_pending(unsigned int source){
 587              		.loc 1 152 46 is_stmt 1
 588              		.cfi_startproc
 589              	.LVL35:
 153:arch/riscv/mach-gd32vf10x/system/n200_func.c ****     *(volatile unsigned char*)(ECLIC_ADDR_BASE+ECLIC_INT_IP_OFFSET+source*4) = 0;
 590              		.loc 1 153 5
 591              		.loc 1 153 67 is_stmt 0
 592 0000 B7078034 		li	a5,880803840
 593 0004 93870740 		addi	a5,a5,1024
 594 0008 3E95     		add	a0,a0,a5
 595              	.LVL36:
 596 000a 0A05     		slli	a0,a0,2
 597              	.LVL37:
 598              		.loc 1 153 78
 599 000c 23000500 		sb	zero,0(a0)
 154:arch/riscv/mach-gd32vf10x/system/n200_func.c **** }
 600              		.loc 1 154 1
 601 0010 8280     		ret
 602              		.cfi_endproc
 603              	.LFE16:
 605              		.section	.text.eclic_set_intctrl,"ax",@progbits
 606              		.align	1
 607              		.globl	eclic_set_intctrl
 609              	eclic_set_intctrl:
 610              	.LFB17:
 155:arch/riscv/mach-gd32vf10x/system/n200_func.c **** 
 156:arch/riscv/mach-gd32vf10x/system/n200_func.c **** void eclic_set_intctrl (unsigned int source, unsigned char intctrl){
 611              		.loc 1 156 68 is_stmt 1
 612              		.cfi_startproc
 613              	.LVL38:
 157:arch/riscv/mach-gd32vf10x/system/n200_func.c ****   *(volatile unsigned char*)(ECLIC_ADDR_BASE+ECLIC_INT_CTRL_OFFSET+source*4) = intctrl;
 614              		.loc 1 157 3
 615              		.loc 1 157 67 is_stmt 0
 616 0000 B71700D2 		li	a5,-771747840
 617              		.loc 1 157 74
 618 0004 0A05     		slli	a0,a0,2
 619              	.LVL39:
 620              		.loc 1 157 67
 621 0006 8D07     		addi	a5,a5,3
 622 0008 3E95     		add	a0,a0,a5
 623              		.loc 1 157 78
 624 000a 2300B500 		sb	a1,0(a0)
 158:arch/riscv/mach-gd32vf10x/system/n200_func.c **** }
 625              		.loc 1 158 1
 626 000e 8280     		ret
 627              		.cfi_endproc
 628              	.LFE17:
 630              		.section	.text.eclic_get_intctrl,"ax",@progbits
GAS LISTING C:\Users\test\AppData\Local\Temp\ccMFLWLO.s 			page 15


 631              		.align	1
 632              		.globl	eclic_get_intctrl
 634              	eclic_get_intctrl:
 635              	.LFB18:
 159:arch/riscv/mach-gd32vf10x/system/n200_func.c **** 
 160:arch/riscv/mach-gd32vf10x/system/n200_func.c **** unsigned char eclic_get_intctrl  (unsigned int source){
 636              		.loc 1 160 55 is_stmt 1
 637              		.cfi_startproc
 638              	.LVL40:
 161:arch/riscv/mach-gd32vf10x/system/n200_func.c ****   return *(volatile unsigned char*)(ECLIC_ADDR_BASE+ECLIC_INT_CTRL_OFFSET+source*4);
 639              		.loc 1 161 3
 640              		.loc 1 161 74 is_stmt 0
 641 0000 B71700D2 		li	a5,-771747840
 642 0004 8D07     		addi	a5,a5,3
 643              		.loc 1 161 81
 644 0006 0A05     		slli	a0,a0,2
 645              	.LVL41:
 646              		.loc 1 161 74
 647 0008 3E95     		add	a0,a0,a5
 648              		.loc 1 161 10
 649 000a 03450500 		lbu	a0,0(a0)
 162:arch/riscv/mach-gd32vf10x/system/n200_func.c **** }
 650              		.loc 1 162 1
 651 000e 8280     		ret
 652              		.cfi_endproc
 653              	.LFE18:
 655              		.section	.text.eclic_set_intattr,"ax",@progbits
 656              		.align	1
 657              		.globl	eclic_set_intattr
 659              	eclic_set_intattr:
 660              	.LFB19:
 163:arch/riscv/mach-gd32vf10x/system/n200_func.c **** 
 164:arch/riscv/mach-gd32vf10x/system/n200_func.c **** void eclic_set_intattr (unsigned int source, unsigned char intattr){
 661              		.loc 1 164 68 is_stmt 1
 662              		.cfi_startproc
 663              	.LVL42:
 165:arch/riscv/mach-gd32vf10x/system/n200_func.c ****   *(volatile unsigned char*)(ECLIC_ADDR_BASE+ECLIC_INT_ATTR_OFFSET+source*4) = intattr;
 664              		.loc 1 165 3
 665              		.loc 1 165 67 is_stmt 0
 666 0000 B71700D2 		li	a5,-771747840
 667              		.loc 1 165 74
 668 0004 0A05     		slli	a0,a0,2
 669              	.LVL43:
 670              		.loc 1 165 67
 671 0006 8907     		addi	a5,a5,2
 672 0008 3E95     		add	a0,a0,a5
 673              		.loc 1 165 78
 674 000a 2300B500 		sb	a1,0(a0)
 166:arch/riscv/mach-gd32vf10x/system/n200_func.c **** }
 675              		.loc 1 166 1
 676 000e 8280     		ret
 677              		.cfi_endproc
 678              	.LFE19:
 680              		.section	.text.eclic_get_intattr,"ax",@progbits
 681              		.align	1
 682              		.globl	eclic_get_intattr
 684              	eclic_get_intattr:
GAS LISTING C:\Users\test\AppData\Local\Temp\ccMFLWLO.s 			page 16


 685              	.LFB20:
 167:arch/riscv/mach-gd32vf10x/system/n200_func.c **** 
 168:arch/riscv/mach-gd32vf10x/system/n200_func.c **** unsigned char eclic_get_intattr  (unsigned int source){
 686              		.loc 1 168 55 is_stmt 1
 687              		.cfi_startproc
 688              	.LVL44:
 169:arch/riscv/mach-gd32vf10x/system/n200_func.c ****   return *(volatile unsigned char*)(ECLIC_ADDR_BASE+ECLIC_INT_ATTR_OFFSET+source*4);
 689              		.loc 1 169 3
 690              		.loc 1 169 74 is_stmt 0
 691 0000 B71700D2 		li	a5,-771747840
 692 0004 8907     		addi	a5,a5,2
 693              		.loc 1 169 81
 694 0006 0A05     		slli	a0,a0,2
 695              	.LVL45:
 696              		.loc 1 169 74
 697 0008 3E95     		add	a0,a0,a5
 698              		.loc 1 169 10
 699 000a 03450500 		lbu	a0,0(a0)
 170:arch/riscv/mach-gd32vf10x/system/n200_func.c **** }
 700              		.loc 1 170 1
 701 000e 8280     		ret
 702              		.cfi_endproc
 703              	.LFE20:
 705              		.section	.text.eclic_set_cliccfg,"ax",@progbits
 706              		.align	1
 707              		.globl	eclic_set_cliccfg
 709              	eclic_set_cliccfg:
 710              	.LFB21:
 171:arch/riscv/mach-gd32vf10x/system/n200_func.c **** 
 172:arch/riscv/mach-gd32vf10x/system/n200_func.c **** void eclic_set_cliccfg (unsigned char cliccfg){
 711              		.loc 1 172 47 is_stmt 1
 712              		.cfi_startproc
 713              	.LVL46:
 173:arch/riscv/mach-gd32vf10x/system/n200_func.c ****   *(volatile unsigned char*)(ECLIC_ADDR_BASE+ECLIC_CFG_OFFSET) = cliccfg;
 714              		.loc 1 173 3
 715              		.loc 1 173 64 is_stmt 0
 716 0000 B70700D2 		li	a5,-771751936
 717 0004 2380A700 		sb	a0,0(a5)
 174:arch/riscv/mach-gd32vf10x/system/n200_func.c **** }
 718              		.loc 1 174 1
 719 0008 8280     		ret
 720              		.cfi_endproc
 721              	.LFE21:
 723              		.section	.text.eclic_get_cliccfg,"ax",@progbits
 724              		.align	1
 725              		.globl	eclic_get_cliccfg
 727              	eclic_get_cliccfg:
 728              	.LFB22:
 175:arch/riscv/mach-gd32vf10x/system/n200_func.c **** 
 176:arch/riscv/mach-gd32vf10x/system/n200_func.c **** unsigned char eclic_get_cliccfg  (){
 729              		.loc 1 176 36 is_stmt 1
 730              		.cfi_startproc
 177:arch/riscv/mach-gd32vf10x/system/n200_func.c ****   return *(volatile unsigned char*)(ECLIC_ADDR_BASE+ECLIC_CFG_OFFSET);
 731              		.loc 1 177 3
 732              		.loc 1 177 10 is_stmt 0
 733 0000 B70700D2 		li	a5,-771751936
 734 0004 03C50700 		lbu	a0,0(a5)
GAS LISTING C:\Users\test\AppData\Local\Temp\ccMFLWLO.s 			page 17


 178:arch/riscv/mach-gd32vf10x/system/n200_func.c **** }
 735              		.loc 1 178 1
 736 0008 8280     		ret
 737              		.cfi_endproc
 738              	.LFE22:
 740              		.section	.text.eclic_set_mth,"ax",@progbits
 741              		.align	1
 742              		.globl	eclic_set_mth
 744              	eclic_set_mth:
 745              	.LFB23:
 179:arch/riscv/mach-gd32vf10x/system/n200_func.c **** 
 180:arch/riscv/mach-gd32vf10x/system/n200_func.c **** void eclic_set_mth (unsigned char mth){
 746              		.loc 1 180 39 is_stmt 1
 747              		.cfi_startproc
 748              	.LVL47:
 181:arch/riscv/mach-gd32vf10x/system/n200_func.c ****   *(volatile unsigned char*)(ECLIC_ADDR_BASE+ECLIC_MTH_OFFSET) = mth;
 749              		.loc 1 181 3
 750              		.loc 1 181 64 is_stmt 0
 751 0000 B70700D2 		li	a5,-771751936
 752 0004 A385A700 		sb	a0,11(a5)
 182:arch/riscv/mach-gd32vf10x/system/n200_func.c **** }
 753              		.loc 1 182 1
 754 0008 8280     		ret
 755              		.cfi_endproc
 756              	.LFE23:
 758              		.section	.text.eclic_get_mth,"ax",@progbits
 759              		.align	1
 760              		.globl	eclic_get_mth
 762              	eclic_get_mth:
 763              	.LFB24:
 183:arch/riscv/mach-gd32vf10x/system/n200_func.c **** 
 184:arch/riscv/mach-gd32vf10x/system/n200_func.c **** unsigned char eclic_get_mth  (){
 764              		.loc 1 184 32 is_stmt 1
 765              		.cfi_startproc
 185:arch/riscv/mach-gd32vf10x/system/n200_func.c ****   return *(volatile unsigned char*)(ECLIC_ADDR_BASE+ECLIC_MTH_OFFSET);
 766              		.loc 1 185 3
 767              		.loc 1 185 10 is_stmt 0
 768 0000 B70700D2 		li	a5,-771751936
 769 0004 03C5B700 		lbu	a0,11(a5)
 186:arch/riscv/mach-gd32vf10x/system/n200_func.c **** }
 770              		.loc 1 186 1
 771 0008 8280     		ret
 772              		.cfi_endproc
 773              	.LFE24:
 775              		.section	.text.eclic_set_nlbits,"ax",@progbits
 776              		.align	1
 777              		.globl	eclic_set_nlbits
 779              	eclic_set_nlbits:
 780              	.LFB25:
 187:arch/riscv/mach-gd32vf10x/system/n200_func.c **** 
 188:arch/riscv/mach-gd32vf10x/system/n200_func.c **** //sets nlbits 
 189:arch/riscv/mach-gd32vf10x/system/n200_func.c **** void eclic_set_nlbits(unsigned char nlbits) {
 781              		.loc 1 189 45 is_stmt 1
 782              		.cfi_startproc
 783              	.LVL48:
 190:arch/riscv/mach-gd32vf10x/system/n200_func.c ****   //shift nlbits to correct position
 191:arch/riscv/mach-gd32vf10x/system/n200_func.c ****   unsigned char nlbits_shifted = nlbits << ECLIC_CFG_NLBITS_LSB;
GAS LISTING C:\Users\test\AppData\Local\Temp\ccMFLWLO.s 			page 18


 784              		.loc 1 191 3
 192:arch/riscv/mach-gd32vf10x/system/n200_func.c **** 
 193:arch/riscv/mach-gd32vf10x/system/n200_func.c ****   //read the current cliccfg 
 194:arch/riscv/mach-gd32vf10x/system/n200_func.c ****   unsigned char old_cliccfg = eclic_get_cliccfg();
 785              		.loc 1 194 3
 786              	.LBB122:
 787              	.LBB123:
 177:arch/riscv/mach-gd32vf10x/system/n200_func.c **** }
 788              		.loc 1 177 3
 177:arch/riscv/mach-gd32vf10x/system/n200_func.c **** }
 789              		.loc 1 177 10 is_stmt 0
 790 0000 370700D2 		li	a4,-771751936
 791 0004 83470700 		lbu	a5,0(a4)
 792              	.LVL49:
 793              	.LBE123:
 794              	.LBE122:
 195:arch/riscv/mach-gd32vf10x/system/n200_func.c ****   unsigned char new_cliccfg = (old_cliccfg & (~ECLIC_CFG_NLBITS_MASK)) | (ECLIC_CFG_NLBITS_MASK & n
 795              		.loc 1 195 3 is_stmt 1
 191:arch/riscv/mach-gd32vf10x/system/n200_func.c **** 
 796              		.loc 1 191 17 is_stmt 0
 797 0008 0605     		slli	a0,a0,1
 798              	.LVL50:
 799              		.loc 1 195 97
 800 000a 7989     		andi	a0,a0,30
 801              		.loc 1 195 44
 802 000c 93F7170E 		andi	a5,a5,225
 803              	.LVL51:
 804              		.loc 1 195 17
 805 0010 5D8D     		or	a0,a0,a5
 806              	.LVL52:
 196:arch/riscv/mach-gd32vf10x/system/n200_func.c **** 
 197:arch/riscv/mach-gd32vf10x/system/n200_func.c ****   eclic_set_cliccfg(new_cliccfg);
 807              		.loc 1 197 3 is_stmt 1
 808              	.LBB124:
 809              	.LBB125:
 173:arch/riscv/mach-gd32vf10x/system/n200_func.c **** }
 810              		.loc 1 173 3
 173:arch/riscv/mach-gd32vf10x/system/n200_func.c **** }
 811              		.loc 1 173 64 is_stmt 0
 812 0012 2300A700 		sb	a0,0(a4)
 813              	.LVL53:
 814              	.LBE125:
 815              	.LBE124:
 198:arch/riscv/mach-gd32vf10x/system/n200_func.c **** }
 816              		.loc 1 198 1
 817 0016 8280     		ret
 818              		.cfi_endproc
 819              	.LFE25:
 821              		.section	.text.eclic_get_nlbits,"ax",@progbits
 822              		.align	1
 823              		.globl	eclic_get_nlbits
 825              	eclic_get_nlbits:
 826              	.LFB26:
 199:arch/riscv/mach-gd32vf10x/system/n200_func.c **** 
 200:arch/riscv/mach-gd32vf10x/system/n200_func.c **** //get nlbits 
 201:arch/riscv/mach-gd32vf10x/system/n200_func.c **** unsigned char eclic_get_nlbits(void) {
 827              		.loc 1 201 38 is_stmt 1
GAS LISTING C:\Users\test\AppData\Local\Temp\ccMFLWLO.s 			page 19


 828              		.cfi_startproc
 202:arch/riscv/mach-gd32vf10x/system/n200_func.c ****   //extract nlbits
 203:arch/riscv/mach-gd32vf10x/system/n200_func.c ****   unsigned char nlbits = eclic_get_cliccfg();
 829              		.loc 1 203 3
 830              	.LBB126:
 831              	.LBB127:
 177:arch/riscv/mach-gd32vf10x/system/n200_func.c **** }
 832              		.loc 1 177 3
 177:arch/riscv/mach-gd32vf10x/system/n200_func.c **** }
 833              		.loc 1 177 10 is_stmt 0
 834 0000 B70700D2 		li	a5,-771751936
 835 0004 03C50700 		lbu	a0,0(a5)
 836              	.LVL54:
 837              	.LBE127:
 838              	.LBE126:
 204:arch/riscv/mach-gd32vf10x/system/n200_func.c ****   nlbits = (nlbits & ECLIC_CFG_NLBITS_MASK) >> ECLIC_CFG_NLBITS_LSB;
 839              		.loc 1 204 3 is_stmt 1
 205:arch/riscv/mach-gd32vf10x/system/n200_func.c ****   return nlbits;
 840              		.loc 1 205 3
 204:arch/riscv/mach-gd32vf10x/system/n200_func.c ****   nlbits = (nlbits & ECLIC_CFG_NLBITS_MASK) >> ECLIC_CFG_NLBITS_LSB;
 841              		.loc 1 204 45 is_stmt 0
 842 0008 0581     		srli	a0,a0,1
 843              	.LVL55:
 206:arch/riscv/mach-gd32vf10x/system/n200_func.c **** }
 844              		.loc 1 206 1
 845 000a 3D89     		andi	a0,a0,15
 846 000c 8280     		ret
 847              		.cfi_endproc
 848              	.LFE26:
 850              		.section	.text.eclic_set_irq_lvl,"ax",@progbits
 851              		.align	1
 852              		.globl	eclic_set_irq_lvl
 854              	eclic_set_irq_lvl:
 855              	.LFB27:
 207:arch/riscv/mach-gd32vf10x/system/n200_func.c **** 
 208:arch/riscv/mach-gd32vf10x/system/n200_func.c **** //sets an interrupt level based encoding of nlbits and ECLICINTCTLBITS
 209:arch/riscv/mach-gd32vf10x/system/n200_func.c **** void eclic_set_irq_lvl(unsigned int source, unsigned char lvl) {
 856              		.loc 1 209 64 is_stmt 1
 857              		.cfi_startproc
 858              	.LVL56:
 210:arch/riscv/mach-gd32vf10x/system/n200_func.c ****   //extract nlbits
 211:arch/riscv/mach-gd32vf10x/system/n200_func.c ****   unsigned char nlbits = eclic_get_nlbits();
 859              		.loc 1 211 3
 860              	.LBB128:
 861              	.LBB129:
 203:arch/riscv/mach-gd32vf10x/system/n200_func.c ****   nlbits = (nlbits & ECLIC_CFG_NLBITS_MASK) >> ECLIC_CFG_NLBITS_LSB;
 862              		.loc 1 203 3
 863              	.LBB130:
 864              	.LBB131:
 177:arch/riscv/mach-gd32vf10x/system/n200_func.c **** }
 865              		.loc 1 177 3
 177:arch/riscv/mach-gd32vf10x/system/n200_func.c **** }
 866              		.loc 1 177 10 is_stmt 0
 867 0000 B70700D2 		li	a5,-771751936
 868 0004 03C70700 		lbu	a4,0(a5)
 869              	.LVL57:
 870              	.LBE131:
GAS LISTING C:\Users\test\AppData\Local\Temp\ccMFLWLO.s 			page 20


 871              	.LBE130:
 204:arch/riscv/mach-gd32vf10x/system/n200_func.c ****   return nlbits;
 872              		.loc 1 204 3 is_stmt 1
 205:arch/riscv/mach-gd32vf10x/system/n200_func.c **** }
 873              		.loc 1 205 3
 874              	.LBE129:
 875              	.LBE128:
 212:arch/riscv/mach-gd32vf10x/system/n200_func.c ****   if (nlbits > ECLICINTCTLBITS) {
 876              		.loc 1 212 3
 213:arch/riscv/mach-gd32vf10x/system/n200_func.c ****     nlbits = ECLICINTCTLBITS;
 214:arch/riscv/mach-gd32vf10x/system/n200_func.c ****   }
 215:arch/riscv/mach-gd32vf10x/system/n200_func.c **** 
 216:arch/riscv/mach-gd32vf10x/system/n200_func.c ****   //shift lvl right to mask off unused bits
 217:arch/riscv/mach-gd32vf10x/system/n200_func.c ****   lvl = lvl >> (8-nlbits);
 877              		.loc 1 217 3
 878              		.loc 1 217 18 is_stmt 0
 879 0008 9147     		li	a5,4
 880              	.LBB133:
 881              	.LBB132:
 204:arch/riscv/mach-gd32vf10x/system/n200_func.c ****   return nlbits;
 882              		.loc 1 204 45
 883 000a 0583     		srli	a4,a4,1
 884              	.LVL58:
 204:arch/riscv/mach-gd32vf10x/system/n200_func.c ****   return nlbits;
 885              		.loc 1 204 10
 886 000c 3D8B     		andi	a4,a4,15
 887              	.LBE132:
 888              	.LBE133:
 889              		.loc 1 217 18
 890 000e BA86     		mv	a3,a4
 891 0010 63F3E700 		bleu	a4,a5,.L42
 892 0014 9146     		li	a3,4
 893              	.L42:
 894              	.LBB134:
 895              	.LBB135:
 161:arch/riscv/mach-gd32vf10x/system/n200_func.c **** }
 896              		.loc 1 161 74
 897 0016 B71700D2 		li	a5,-771747840
 898 001a 8D07     		addi	a5,a5,3
 161:arch/riscv/mach-gd32vf10x/system/n200_func.c **** }
 899              		.loc 1 161 81
 900 001c 0A05     		slli	a0,a0,2
 901              	.LVL59:
 161:arch/riscv/mach-gd32vf10x/system/n200_func.c **** }
 902              		.loc 1 161 74
 903 001e 3E95     		add	a0,a0,a5
 161:arch/riscv/mach-gd32vf10x/system/n200_func.c **** }
 904              		.loc 1 161 10
 905 0020 83470500 		lbu	a5,0(a0)
 906              	.LBE135:
 907              	.LBE134:
 908              		.loc 1 217 18
 909 0024 13F6F60F 		andi	a2,a3,0xff
 910 0028 2147     		li	a4,8
 911 002a 118F     		sub	a4,a4,a2
 912              	.LVL60:
 218:arch/riscv/mach-gd32vf10x/system/n200_func.c ****   //shift lvl into correct bit position
GAS LISTING C:\Users\test\AppData\Local\Temp\ccMFLWLO.s 			page 21


 219:arch/riscv/mach-gd32vf10x/system/n200_func.c ****   lvl = lvl << (8-nlbits);
 913              		.loc 1 219 3 is_stmt 1
 220:arch/riscv/mach-gd32vf10x/system/n200_func.c ****  
 221:arch/riscv/mach-gd32vf10x/system/n200_func.c ****   //write to clicintctrl
 222:arch/riscv/mach-gd32vf10x/system/n200_func.c ****   unsigned char current_intctrl = eclic_get_intctrl(source);
 223:arch/riscv/mach-gd32vf10x/system/n200_func.c ****   //shift intctrl left to mask off unused bits
 224:arch/riscv/mach-gd32vf10x/system/n200_func.c ****   current_intctrl = current_intctrl << nlbits;
 914              		.loc 1 224 37 is_stmt 0
 915 002c B397D700 		sll	a5,a5,a3
 217:arch/riscv/mach-gd32vf10x/system/n200_func.c ****   //shift lvl into correct bit position
 916              		.loc 1 217 13
 917 0030 B3D5E540 		sra	a1,a1,a4
 918              	.LVL61:
 225:arch/riscv/mach-gd32vf10x/system/n200_func.c ****   //shift intctrl into correct bit position
 226:arch/riscv/mach-gd32vf10x/system/n200_func.c ****   current_intctrl = current_intctrl >> nlbits;
 919              		.loc 1 226 37
 920 0034 93F7F70F 		andi	a5,a5,255
 219:arch/riscv/mach-gd32vf10x/system/n200_func.c ****  
 921              		.loc 1 219 13
 922 0038 B395E500 		sll	a1,a1,a4
 923              	.LVL62:
 222:arch/riscv/mach-gd32vf10x/system/n200_func.c ****   //shift intctrl left to mask off unused bits
 924              		.loc 1 222 3 is_stmt 1
 925              	.LBB137:
 926              	.LBB136:
 161:arch/riscv/mach-gd32vf10x/system/n200_func.c **** }
 927              		.loc 1 161 3
 928              	.LBE136:
 929              	.LBE137:
 224:arch/riscv/mach-gd32vf10x/system/n200_func.c ****   //shift intctrl into correct bit position
 930              		.loc 1 224 3
 931              		.loc 1 226 3
 227:arch/riscv/mach-gd32vf10x/system/n200_func.c **** 
 228:arch/riscv/mach-gd32vf10x/system/n200_func.c ****   eclic_set_intctrl(source, (current_intctrl | lvl));
 932              		.loc 1 228 3
 226:arch/riscv/mach-gd32vf10x/system/n200_func.c **** 
 933              		.loc 1 226 37 is_stmt 0
 934 003c B3D7D740 		sra	a5,a5,a3
 935              		.loc 1 228 3
 936 0040 CD8F     		or	a5,a5,a1
 937 0042 93F7F70F 		andi	a5,a5,0xff
 938              	.LVL63:
 939              	.LBB138:
 940              	.LBB139:
 157:arch/riscv/mach-gd32vf10x/system/n200_func.c **** }
 941              		.loc 1 157 3 is_stmt 1
 157:arch/riscv/mach-gd32vf10x/system/n200_func.c **** }
 942              		.loc 1 157 78 is_stmt 0
 943 0046 2300F500 		sb	a5,0(a0)
 944              	.LVL64:
 945              	.LBE139:
 946              	.LBE138:
 229:arch/riscv/mach-gd32vf10x/system/n200_func.c **** }
 947              		.loc 1 229 1
 948 004a 8280     		ret
 949              		.cfi_endproc
 950              	.LFE27:
GAS LISTING C:\Users\test\AppData\Local\Temp\ccMFLWLO.s 			page 22


 952              		.section	.text.eclic_get_irq_lvl,"ax",@progbits
 953              		.align	1
 954              		.globl	eclic_get_irq_lvl
 956              	eclic_get_irq_lvl:
 957              	.LFB28:
 230:arch/riscv/mach-gd32vf10x/system/n200_func.c **** 
 231:arch/riscv/mach-gd32vf10x/system/n200_func.c **** //gets an interrupt level based encoding of nlbits
 232:arch/riscv/mach-gd32vf10x/system/n200_func.c **** unsigned char eclic_get_irq_lvl(unsigned int source) {
 958              		.loc 1 232 54 is_stmt 1
 959              		.cfi_startproc
 960              	.LVL65:
 233:arch/riscv/mach-gd32vf10x/system/n200_func.c ****   //extract nlbits
 234:arch/riscv/mach-gd32vf10x/system/n200_func.c ****   unsigned char nlbits = eclic_get_nlbits();
 961              		.loc 1 234 3
 962              	.LBB140:
 963              	.LBB141:
 203:arch/riscv/mach-gd32vf10x/system/n200_func.c ****   nlbits = (nlbits & ECLIC_CFG_NLBITS_MASK) >> ECLIC_CFG_NLBITS_LSB;
 964              		.loc 1 203 3
 965              	.LBB142:
 966              	.LBB143:
 177:arch/riscv/mach-gd32vf10x/system/n200_func.c **** }
 967              		.loc 1 177 3
 177:arch/riscv/mach-gd32vf10x/system/n200_func.c **** }
 968              		.loc 1 177 10 is_stmt 0
 969 0000 B70700D2 		li	a5,-771751936
 970              	.LBE143:
 971              	.LBE142:
 972              	.LBE141:
 973              	.LBE140:
 974              	.LBB148:
 975              	.LBB149:
 161:arch/riscv/mach-gd32vf10x/system/n200_func.c **** }
 976              		.loc 1 161 74
 977 0004 371700D2 		li	a4,-771747840
 978              	.LBE149:
 979              	.LBE148:
 980              	.LBB152:
 981              	.LBB146:
 982              	.LBB145:
 983              	.LBB144:
 177:arch/riscv/mach-gd32vf10x/system/n200_func.c **** }
 984              		.loc 1 177 10
 985 0008 83C70700 		lbu	a5,0(a5)
 986              	.LVL66:
 987              	.LBE144:
 988              	.LBE145:
 204:arch/riscv/mach-gd32vf10x/system/n200_func.c ****   return nlbits;
 989              		.loc 1 204 3 is_stmt 1
 205:arch/riscv/mach-gd32vf10x/system/n200_func.c **** }
 990              		.loc 1 205 3
 991              	.LBE146:
 992              	.LBE152:
 235:arch/riscv/mach-gd32vf10x/system/n200_func.c ****   if (nlbits > ECLICINTCTLBITS) {
 993              		.loc 1 235 3
 236:arch/riscv/mach-gd32vf10x/system/n200_func.c ****     nlbits = ECLICINTCTLBITS;
 237:arch/riscv/mach-gd32vf10x/system/n200_func.c ****   }
 238:arch/riscv/mach-gd32vf10x/system/n200_func.c **** 
GAS LISTING C:\Users\test\AppData\Local\Temp\ccMFLWLO.s 			page 23


 239:arch/riscv/mach-gd32vf10x/system/n200_func.c ****   unsigned char intctrl = eclic_get_intctrl(source);
 994              		.loc 1 239 3
 995              	.LBB153:
 996              	.LBB150:
 161:arch/riscv/mach-gd32vf10x/system/n200_func.c **** }
 997              		.loc 1 161 3
 161:arch/riscv/mach-gd32vf10x/system/n200_func.c **** }
 998              		.loc 1 161 74 is_stmt 0
 999 000c 0D07     		addi	a4,a4,3
 161:arch/riscv/mach-gd32vf10x/system/n200_func.c **** }
 1000              		.loc 1 161 81
 1001 000e 0A05     		slli	a0,a0,2
 1002              	.LVL67:
 161:arch/riscv/mach-gd32vf10x/system/n200_func.c **** }
 1003              		.loc 1 161 74
 1004 0010 3A95     		add	a0,a0,a4
 161:arch/riscv/mach-gd32vf10x/system/n200_func.c **** }
 1005              		.loc 1 161 10
 1006 0012 03450500 		lbu	a0,0(a0)
 1007              	.LBE150:
 1008              	.LBE153:
 1009              	.LBB154:
 1010              	.LBB147:
 204:arch/riscv/mach-gd32vf10x/system/n200_func.c ****   return nlbits;
 1011              		.loc 1 204 45
 1012 0016 8583     		srli	a5,a5,1
 1013              	.LVL68:
 204:arch/riscv/mach-gd32vf10x/system/n200_func.c ****   return nlbits;
 1014              		.loc 1 204 10
 1015 0018 BD8B     		andi	a5,a5,15
 1016              	.LBE147:
 1017              	.LBE154:
 240:arch/riscv/mach-gd32vf10x/system/n200_func.c **** 
 241:arch/riscv/mach-gd32vf10x/system/n200_func.c ****   //shift intctrl
 242:arch/riscv/mach-gd32vf10x/system/n200_func.c ****   intctrl = intctrl >> (8-nlbits);
 1018              		.loc 1 242 26
 1019 001a 9146     		li	a3,4
 1020              	.LBB155:
 1021              	.LBB151:
 161:arch/riscv/mach-gd32vf10x/system/n200_func.c **** }
 1022              		.loc 1 161 10
 1023 001c 1375F50F 		andi	a0,a0,0xff
 1024              	.LVL69:
 1025              	.LBE151:
 1026              	.LBE155:
 1027              		.loc 1 242 3 is_stmt 1
 1028              		.loc 1 242 26 is_stmt 0
 1029 0020 13F7F70F 		andi	a4,a5,0xff
 1030 0024 63F3F600 		bleu	a5,a3,.L44
 1031 0028 1147     		li	a4,4
 1032              	.L44:
 1033 002a A147     		li	a5,8
 1034 002c 998F     		sub	a5,a5,a4
 1035              	.LVL70:
 243:arch/riscv/mach-gd32vf10x/system/n200_func.c ****   //shift intctrl
 244:arch/riscv/mach-gd32vf10x/system/n200_func.c ****   unsigned char lvl = intctrl << (8-nlbits);
 1036              		.loc 1 244 3 is_stmt 1
GAS LISTING C:\Users\test\AppData\Local\Temp\ccMFLWLO.s 			page 24


 245:arch/riscv/mach-gd32vf10x/system/n200_func.c **** 
 246:arch/riscv/mach-gd32vf10x/system/n200_func.c ****   return lvl;
 1037              		.loc 1 246 3
 242:arch/riscv/mach-gd32vf10x/system/n200_func.c ****   //shift intctrl
 1038              		.loc 1 242 21 is_stmt 0
 1039 002e 3355F540 		sra	a0,a0,a5
 1040              	.LVL71:
 244:arch/riscv/mach-gd32vf10x/system/n200_func.c **** 
 1041              		.loc 1 244 31
 1042 0032 3315F500 		sll	a0,a0,a5
 247:arch/riscv/mach-gd32vf10x/system/n200_func.c **** }
 1043              		.loc 1 247 1
 1044 0036 1375F50F 		andi	a0,a0,0xff
 1045 003a 8280     		ret
 1046              		.cfi_endproc
 1047              	.LFE28:
 1049              		.section	.text.eclic_set_irq_lvl_abs,"ax",@progbits
 1050              		.align	1
 1051              		.globl	eclic_set_irq_lvl_abs
 1053              	eclic_set_irq_lvl_abs:
 1054              	.LFB29:
 248:arch/riscv/mach-gd32vf10x/system/n200_func.c **** 
 249:arch/riscv/mach-gd32vf10x/system/n200_func.c **** void eclic_set_irq_lvl_abs(unsigned int source, unsigned char lvl_abs) {
 1055              		.loc 1 249 72 is_stmt 1
 1056              		.cfi_startproc
 1057              	.LVL72:
 250:arch/riscv/mach-gd32vf10x/system/n200_func.c ****   //extract nlbits
 251:arch/riscv/mach-gd32vf10x/system/n200_func.c ****   unsigned char nlbits = eclic_get_nlbits();
 1058              		.loc 1 251 3
 1059              	.LBB156:
 1060              	.LBB157:
 203:arch/riscv/mach-gd32vf10x/system/n200_func.c ****   nlbits = (nlbits & ECLIC_CFG_NLBITS_MASK) >> ECLIC_CFG_NLBITS_LSB;
 1061              		.loc 1 203 3
 1062              	.LBB158:
 1063              	.LBB159:
 177:arch/riscv/mach-gd32vf10x/system/n200_func.c **** }
 1064              		.loc 1 177 3
 177:arch/riscv/mach-gd32vf10x/system/n200_func.c **** }
 1065              		.loc 1 177 10 is_stmt 0
 1066 0000 B70700D2 		li	a5,-771751936
 1067 0004 03C70700 		lbu	a4,0(a5)
 1068              	.LVL73:
 1069              	.LBE159:
 1070              	.LBE158:
 204:arch/riscv/mach-gd32vf10x/system/n200_func.c ****   return nlbits;
 1071              		.loc 1 204 3 is_stmt 1
 205:arch/riscv/mach-gd32vf10x/system/n200_func.c **** }
 1072              		.loc 1 205 3
 1073              	.LBE157:
 1074              	.LBE156:
 252:arch/riscv/mach-gd32vf10x/system/n200_func.c ****   if (nlbits > ECLICINTCTLBITS) {
 1075              		.loc 1 252 3
 253:arch/riscv/mach-gd32vf10x/system/n200_func.c ****     nlbits = ECLICINTCTLBITS;
 254:arch/riscv/mach-gd32vf10x/system/n200_func.c ****   }
 255:arch/riscv/mach-gd32vf10x/system/n200_func.c **** 
 256:arch/riscv/mach-gd32vf10x/system/n200_func.c ****   //shift lvl_abs into correct bit position
 257:arch/riscv/mach-gd32vf10x/system/n200_func.c ****   unsigned char lvl = lvl_abs << (8-nlbits);
GAS LISTING C:\Users\test\AppData\Local\Temp\ccMFLWLO.s 			page 25


 1076              		.loc 1 257 3
 1077              		.loc 1 257 36 is_stmt 0
 1078 0008 9147     		li	a5,4
 1079              	.LBB161:
 1080              	.LBB160:
 204:arch/riscv/mach-gd32vf10x/system/n200_func.c ****   return nlbits;
 1081              		.loc 1 204 45
 1082 000a 0583     		srli	a4,a4,1
 1083              	.LVL74:
 204:arch/riscv/mach-gd32vf10x/system/n200_func.c ****   return nlbits;
 1084              		.loc 1 204 10
 1085 000c 3D8B     		andi	a4,a4,15
 1086              	.LBE160:
 1087              	.LBE161:
 1088              		.loc 1 257 36
 1089 000e BA86     		mv	a3,a4
 1090 0010 63F3E700 		bleu	a4,a5,.L46
 1091 0014 9146     		li	a3,4
 1092              	.L46:
 1093              	.LBB162:
 1094              	.LBB163:
 161:arch/riscv/mach-gd32vf10x/system/n200_func.c **** }
 1095              		.loc 1 161 74
 1096 0016 B71700D2 		li	a5,-771747840
 1097 001a 8D07     		addi	a5,a5,3
 161:arch/riscv/mach-gd32vf10x/system/n200_func.c **** }
 1098              		.loc 1 161 81
 1099 001c 0A05     		slli	a0,a0,2
 1100              	.LVL75:
 161:arch/riscv/mach-gd32vf10x/system/n200_func.c **** }
 1101              		.loc 1 161 74
 1102 001e 3E95     		add	a0,a0,a5
 161:arch/riscv/mach-gd32vf10x/system/n200_func.c **** }
 1103              		.loc 1 161 10
 1104 0020 83470500 		lbu	a5,0(a0)
 1105              	.LBE163:
 1106              	.LBE162:
 1107              		.loc 1 257 36
 1108 0024 13F6F60F 		andi	a2,a3,0xff
 1109              	.LVL76:
 258:arch/riscv/mach-gd32vf10x/system/n200_func.c ****  
 259:arch/riscv/mach-gd32vf10x/system/n200_func.c ****   //write to clicintctrl
 260:arch/riscv/mach-gd32vf10x/system/n200_func.c ****   unsigned char current_intctrl = eclic_get_intctrl(source);
 1110              		.loc 1 260 3 is_stmt 1
 1111              	.LBB165:
 1112              	.LBB164:
 161:arch/riscv/mach-gd32vf10x/system/n200_func.c **** }
 1113              		.loc 1 161 3
 1114              	.LBE164:
 1115              	.LBE165:
 261:arch/riscv/mach-gd32vf10x/system/n200_func.c ****   //shift intctrl left to mask off unused bits
 262:arch/riscv/mach-gd32vf10x/system/n200_func.c ****   current_intctrl = current_intctrl << nlbits;
 1116              		.loc 1 262 3
 263:arch/riscv/mach-gd32vf10x/system/n200_func.c ****   //shift intctrl into correct bit position
 264:arch/riscv/mach-gd32vf10x/system/n200_func.c ****   current_intctrl = current_intctrl >> nlbits;
 1117              		.loc 1 264 3
 265:arch/riscv/mach-gd32vf10x/system/n200_func.c **** 
GAS LISTING C:\Users\test\AppData\Local\Temp\ccMFLWLO.s 			page 26


 266:arch/riscv/mach-gd32vf10x/system/n200_func.c ****   eclic_set_intctrl(source, (current_intctrl | lvl));
 1118              		.loc 1 266 3
 257:arch/riscv/mach-gd32vf10x/system/n200_func.c ****  
 1119              		.loc 1 257 36 is_stmt 0
 1120 0028 2147     		li	a4,8
 262:arch/riscv/mach-gd32vf10x/system/n200_func.c ****   //shift intctrl into correct bit position
 1121              		.loc 1 262 37
 1122 002a B397D700 		sll	a5,a5,a3
 1123              	.LVL77:
 264:arch/riscv/mach-gd32vf10x/system/n200_func.c **** 
 1124              		.loc 1 264 37
 1125 002e 93F7F70F 		andi	a5,a5,255
 257:arch/riscv/mach-gd32vf10x/system/n200_func.c ****  
 1126              		.loc 1 257 36
 1127 0032 118F     		sub	a4,a4,a2
 264:arch/riscv/mach-gd32vf10x/system/n200_func.c **** 
 1128              		.loc 1 264 37
 1129 0034 B3D7D740 		sra	a5,a5,a3
 257:arch/riscv/mach-gd32vf10x/system/n200_func.c ****  
 1130              		.loc 1 257 31
 1131 0038 B395E500 		sll	a1,a1,a4
 1132              	.LVL78:
 1133              		.loc 1 266 3
 1134 003c CD8F     		or	a5,a5,a1
 1135 003e 93F7F70F 		andi	a5,a5,0xff
 1136              	.LVL79:
 1137              	.LBB166:
 1138              	.LBB167:
 157:arch/riscv/mach-gd32vf10x/system/n200_func.c **** }
 1139              		.loc 1 157 3 is_stmt 1
 157:arch/riscv/mach-gd32vf10x/system/n200_func.c **** }
 1140              		.loc 1 157 78 is_stmt 0
 1141 0042 2300F500 		sb	a5,0(a0)
 1142              	.LVL80:
 1143              	.LBE167:
 1144              	.LBE166:
 267:arch/riscv/mach-gd32vf10x/system/n200_func.c **** }
 1145              		.loc 1 267 1
 1146 0046 8280     		ret
 1147              		.cfi_endproc
 1148              	.LFE29:
 1150              		.section	.text.eclic_get_irq_lvl_abs,"ax",@progbits
 1151              		.align	1
 1152              		.globl	eclic_get_irq_lvl_abs
 1154              	eclic_get_irq_lvl_abs:
 1155              	.LFB30:
 268:arch/riscv/mach-gd32vf10x/system/n200_func.c **** 
 269:arch/riscv/mach-gd32vf10x/system/n200_func.c **** unsigned char eclic_get_irq_lvl_abs(unsigned int source) {
 1156              		.loc 1 269 58 is_stmt 1
 1157              		.cfi_startproc
 1158              	.LVL81:
 270:arch/riscv/mach-gd32vf10x/system/n200_func.c ****   //extract nlbits
 271:arch/riscv/mach-gd32vf10x/system/n200_func.c ****   unsigned char nlbits = eclic_get_nlbits();
 1159              		.loc 1 271 3
 1160              	.LBB168:
 1161              	.LBB169:
 203:arch/riscv/mach-gd32vf10x/system/n200_func.c ****   nlbits = (nlbits & ECLIC_CFG_NLBITS_MASK) >> ECLIC_CFG_NLBITS_LSB;
GAS LISTING C:\Users\test\AppData\Local\Temp\ccMFLWLO.s 			page 27


 1162              		.loc 1 203 3
 1163              	.LBB170:
 1164              	.LBB171:
 177:arch/riscv/mach-gd32vf10x/system/n200_func.c **** }
 1165              		.loc 1 177 3
 177:arch/riscv/mach-gd32vf10x/system/n200_func.c **** }
 1166              		.loc 1 177 10 is_stmt 0
 1167 0000 B70700D2 		li	a5,-771751936
 1168              	.LBE171:
 1169              	.LBE170:
 1170              	.LBE169:
 1171              	.LBE168:
 1172              	.LBB176:
 1173              	.LBB177:
 161:arch/riscv/mach-gd32vf10x/system/n200_func.c **** }
 1174              		.loc 1 161 74
 1175 0004 371700D2 		li	a4,-771747840
 1176              	.LBE177:
 1177              	.LBE176:
 1178              	.LBB180:
 1179              	.LBB174:
 1180              	.LBB173:
 1181              	.LBB172:
 177:arch/riscv/mach-gd32vf10x/system/n200_func.c **** }
 1182              		.loc 1 177 10
 1183 0008 83C70700 		lbu	a5,0(a5)
 1184              	.LVL82:
 1185              	.LBE172:
 1186              	.LBE173:
 204:arch/riscv/mach-gd32vf10x/system/n200_func.c ****   return nlbits;
 1187              		.loc 1 204 3 is_stmt 1
 205:arch/riscv/mach-gd32vf10x/system/n200_func.c **** }
 1188              		.loc 1 205 3
 1189              	.LBE174:
 1190              	.LBE180:
 272:arch/riscv/mach-gd32vf10x/system/n200_func.c ****   if (nlbits > ECLICINTCTLBITS) {
 1191              		.loc 1 272 3
 273:arch/riscv/mach-gd32vf10x/system/n200_func.c ****     nlbits = ECLICINTCTLBITS;
 274:arch/riscv/mach-gd32vf10x/system/n200_func.c ****   }
 275:arch/riscv/mach-gd32vf10x/system/n200_func.c **** 
 276:arch/riscv/mach-gd32vf10x/system/n200_func.c ****   unsigned char intctrl = eclic_get_intctrl(source);
 1192              		.loc 1 276 3
 1193              	.LBB181:
 1194              	.LBB178:
 161:arch/riscv/mach-gd32vf10x/system/n200_func.c **** }
 1195              		.loc 1 161 3
 161:arch/riscv/mach-gd32vf10x/system/n200_func.c **** }
 1196              		.loc 1 161 74 is_stmt 0
 1197 000c 0D07     		addi	a4,a4,3
 161:arch/riscv/mach-gd32vf10x/system/n200_func.c **** }
 1198              		.loc 1 161 81
 1199 000e 0A05     		slli	a0,a0,2
 1200              	.LVL83:
 161:arch/riscv/mach-gd32vf10x/system/n200_func.c **** }
 1201              		.loc 1 161 74
 1202 0010 3A95     		add	a0,a0,a4
 161:arch/riscv/mach-gd32vf10x/system/n200_func.c **** }
GAS LISTING C:\Users\test\AppData\Local\Temp\ccMFLWLO.s 			page 28


 1203              		.loc 1 161 10
 1204 0012 03450500 		lbu	a0,0(a0)
 1205              	.LBE178:
 1206              	.LBE181:
 1207              	.LBB182:
 1208              	.LBB175:
 204:arch/riscv/mach-gd32vf10x/system/n200_func.c ****   return nlbits;
 1209              		.loc 1 204 45
 1210 0016 8583     		srli	a5,a5,1
 1211              	.LVL84:
 204:arch/riscv/mach-gd32vf10x/system/n200_func.c ****   return nlbits;
 1212              		.loc 1 204 10
 1213 0018 BD8B     		andi	a5,a5,15
 1214              	.LBE175:
 1215              	.LBE182:
 277:arch/riscv/mach-gd32vf10x/system/n200_func.c **** 
 278:arch/riscv/mach-gd32vf10x/system/n200_func.c ****   //shift intctrl
 279:arch/riscv/mach-gd32vf10x/system/n200_func.c ****   intctrl = intctrl >> (8-nlbits);
 1216              		.loc 1 279 26
 1217 001a 9146     		li	a3,4
 1218              	.LBB183:
 1219              	.LBB179:
 161:arch/riscv/mach-gd32vf10x/system/n200_func.c **** }
 1220              		.loc 1 161 10
 1221 001c 1375F50F 		andi	a0,a0,0xff
 1222              	.LVL85:
 1223              	.LBE179:
 1224              	.LBE183:
 1225              		.loc 1 279 3 is_stmt 1
 280:arch/riscv/mach-gd32vf10x/system/n200_func.c ****   //shift intctrl
 281:arch/riscv/mach-gd32vf10x/system/n200_func.c ****   unsigned char lvl_abs = intctrl;
 1226              		.loc 1 281 3
 282:arch/riscv/mach-gd32vf10x/system/n200_func.c **** 
 283:arch/riscv/mach-gd32vf10x/system/n200_func.c ****   return lvl_abs;
 1227              		.loc 1 283 3
 279:arch/riscv/mach-gd32vf10x/system/n200_func.c ****   //shift intctrl
 1228              		.loc 1 279 26 is_stmt 0
 1229 0020 13F7F70F 		andi	a4,a5,0xff
 1230 0024 63F3F600 		bleu	a5,a3,.L48
 1231 0028 1147     		li	a4,4
 1232              	.L48:
 1233 002a A147     		li	a5,8
 1234 002c 3387E740 		sub	a4,a5,a4
 279:arch/riscv/mach-gd32vf10x/system/n200_func.c ****   //shift intctrl
 1235              		.loc 1 279 21
 1236 0030 3355E540 		sra	a0,a0,a4
 284:arch/riscv/mach-gd32vf10x/system/n200_func.c **** }
 1237              		.loc 1 284 1
 1238 0034 1375F50F 		andi	a0,a0,0xff
 1239 0038 8280     		ret
 1240              		.cfi_endproc
 1241              	.LFE30:
 1243              		.section	.text.eclic_set_irq_priority,"ax",@progbits
 1244              		.align	1
 1245              		.globl	eclic_set_irq_priority
 1247              	eclic_set_irq_priority:
 1248              	.LFB31:
GAS LISTING C:\Users\test\AppData\Local\Temp\ccMFLWLO.s 			page 29


 285:arch/riscv/mach-gd32vf10x/system/n200_func.c **** 
 286:arch/riscv/mach-gd32vf10x/system/n200_func.c **** //sets an interrupt priority based encoding of nlbits and ECLICINTCTLBITS
 287:arch/riscv/mach-gd32vf10x/system/n200_func.c **** unsigned char eclic_set_irq_priority(unsigned int source, unsigned char priority) {
 1249              		.loc 1 287 83 is_stmt 1
 1250              		.cfi_startproc
 1251              	.LVL86:
 288:arch/riscv/mach-gd32vf10x/system/n200_func.c **** 	//extract nlbits
 289:arch/riscv/mach-gd32vf10x/system/n200_func.c **** 	unsigned char nlbits = eclic_get_nlbits();
 1252              		.loc 1 289 2
 1253              	.LBB184:
 1254              	.LBB185:
 203:arch/riscv/mach-gd32vf10x/system/n200_func.c ****   nlbits = (nlbits & ECLIC_CFG_NLBITS_MASK) >> ECLIC_CFG_NLBITS_LSB;
 1255              		.loc 1 203 3
 1256              	.LBB186:
 1257              	.LBB187:
 177:arch/riscv/mach-gd32vf10x/system/n200_func.c **** }
 1258              		.loc 1 177 3
 177:arch/riscv/mach-gd32vf10x/system/n200_func.c **** }
 1259              		.loc 1 177 10 is_stmt 0
 1260 0000 B70700D2 		li	a5,-771751936
 1261 0004 03C70700 		lbu	a4,0(a5)
 1262              	.LVL87:
 1263              	.LBE187:
 1264              	.LBE186:
 204:arch/riscv/mach-gd32vf10x/system/n200_func.c ****   return nlbits;
 1265              		.loc 1 204 3 is_stmt 1
 204:arch/riscv/mach-gd32vf10x/system/n200_func.c ****   return nlbits;
 1266              		.loc 1 204 45 is_stmt 0
 1267 0008 0583     		srli	a4,a4,1
 1268              	.LVL88:
 205:arch/riscv/mach-gd32vf10x/system/n200_func.c **** }
 1269              		.loc 1 205 3 is_stmt 1
 1270              	.LBE185:
 1271              	.LBE184:
 290:arch/riscv/mach-gd32vf10x/system/n200_func.c **** 	if (nlbits >= ECLICINTCTLBITS) {
 1272              		.loc 1 290 2
 1273              		.loc 1 290 5 is_stmt 0
 1274 000a 9377C700 		andi	a5,a4,12
 1275 000e 85EF     		bne	a5,zero,.L51
 291:arch/riscv/mach-gd32vf10x/system/n200_func.c **** 		nlbits = ECLICINTCTLBITS;
 292:arch/riscv/mach-gd32vf10x/system/n200_func.c **** 		return 0;
 293:arch/riscv/mach-gd32vf10x/system/n200_func.c **** 	}
 294:arch/riscv/mach-gd32vf10x/system/n200_func.c **** 
 295:arch/riscv/mach-gd32vf10x/system/n200_func.c **** 	//shift priority into correct bit position
 296:arch/riscv/mach-gd32vf10x/system/n200_func.c **** 	priority = priority << (8 - ECLICINTCTLBITS);
 1276              		.loc 1 296 2 is_stmt 1
 1277              	.LBB188:
 1278              	.LBB189:
 161:arch/riscv/mach-gd32vf10x/system/n200_func.c **** }
 1279              		.loc 1 161 74 is_stmt 0
 1280 0010 B71600D2 		li	a3,-771747840
 161:arch/riscv/mach-gd32vf10x/system/n200_func.c **** }
 1281              		.loc 1 161 81
 1282 0014 0A05     		slli	a0,a0,2
 1283              	.LVL89:
 161:arch/riscv/mach-gd32vf10x/system/n200_func.c **** }
 1284              		.loc 1 161 74
GAS LISTING C:\Users\test\AppData\Local\Temp\ccMFLWLO.s 			page 30


 1285 0016 8D06     		addi	a3,a3,3
 1286 0018 AA96     		add	a3,a0,a3
 161:arch/riscv/mach-gd32vf10x/system/n200_func.c **** }
 1287              		.loc 1 161 10
 1288 001a 83C70600 		lbu	a5,0(a3)
 1289              	.LBE189:
 1290              	.LBE188:
 297:arch/riscv/mach-gd32vf10x/system/n200_func.c **** 
 298:arch/riscv/mach-gd32vf10x/system/n200_func.c **** 	//write to eclicintctrl
 299:arch/riscv/mach-gd32vf10x/system/n200_func.c **** 	unsigned char current_intctrl = eclic_get_intctrl(source);
 300:arch/riscv/mach-gd32vf10x/system/n200_func.c **** 	//shift intctrl right to mask off unused bits
 301:arch/riscv/mach-gd32vf10x/system/n200_func.c **** 	current_intctrl = current_intctrl >> (8-nlbits);
 1291              		.loc 1 301 41
 1292 001e 2146     		li	a2,8
 1293 0020 3D8B     		andi	a4,a4,15
 1294              	.LVL90:
 1295 0022 3307E640 		sub	a4,a2,a4
 1296              		.loc 1 301 36
 1297 0026 B3D7E740 		sra	a5,a5,a4
 296:arch/riscv/mach-gd32vf10x/system/n200_func.c **** 
 1298              		.loc 1 296 11
 1299 002a 13954500 		slli	a0,a1,4
 302:arch/riscv/mach-gd32vf10x/system/n200_func.c **** 	//shift intctrl into correct bit position
 303:arch/riscv/mach-gd32vf10x/system/n200_func.c **** 	current_intctrl = current_intctrl << (8-nlbits);
 1300              		.loc 1 303 36
 1301 002e 93F7F70F 		andi	a5,a5,255
 296:arch/riscv/mach-gd32vf10x/system/n200_func.c **** 
 1302              		.loc 1 296 11
 1303 0032 1375F50F 		andi	a0,a0,0xff
 1304              	.LVL91:
 299:arch/riscv/mach-gd32vf10x/system/n200_func.c **** 	//shift intctrl right to mask off unused bits
 1305              		.loc 1 299 2 is_stmt 1
 1306              	.LBB191:
 1307              	.LBB190:
 161:arch/riscv/mach-gd32vf10x/system/n200_func.c **** }
 1308              		.loc 1 161 3
 1309              	.LBE190:
 1310              	.LBE191:
 301:arch/riscv/mach-gd32vf10x/system/n200_func.c **** 	//shift intctrl into correct bit position
 1311              		.loc 1 301 2
 1312              		.loc 1 303 2
 304:arch/riscv/mach-gd32vf10x/system/n200_func.c **** 
 305:arch/riscv/mach-gd32vf10x/system/n200_func.c **** 	eclic_set_intctrl(source, (current_intctrl | priority));
 1313              		.loc 1 305 2
 303:arch/riscv/mach-gd32vf10x/system/n200_func.c **** 
 1314              		.loc 1 303 36 is_stmt 0
 1315 0036 B397E700 		sll	a5,a5,a4
 1316              		.loc 1 305 2
 1317 003a C98F     		or	a5,a0,a5
 1318 003c 93F7F70F 		andi	a5,a5,0xff
 1319              	.LVL92:
 1320              	.LBB192:
 1321              	.LBB193:
 157:arch/riscv/mach-gd32vf10x/system/n200_func.c **** }
 1322              		.loc 1 157 3 is_stmt 1
 157:arch/riscv/mach-gd32vf10x/system/n200_func.c **** }
 1323              		.loc 1 157 78 is_stmt 0
GAS LISTING C:\Users\test\AppData\Local\Temp\ccMFLWLO.s 			page 31


 1324 0040 2380F600 		sb	a5,0(a3)
 1325              	.LVL93:
 1326              	.LBE193:
 1327              	.LBE192:
 306:arch/riscv/mach-gd32vf10x/system/n200_func.c **** 
 307:arch/riscv/mach-gd32vf10x/system/n200_func.c **** 	return priority;
 1328              		.loc 1 307 2 is_stmt 1
 1329              		.loc 1 307 9 is_stmt 0
 1330 0044 8280     		ret
 1331              	.LVL94:
 1332              	.L51:
 292:arch/riscv/mach-gd32vf10x/system/n200_func.c **** 	}
 1333              		.loc 1 292 10
 1334 0046 0145     		li	a0,0
 1335              	.LVL95:
 308:arch/riscv/mach-gd32vf10x/system/n200_func.c **** }
 1336              		.loc 1 308 1
 1337 0048 8280     		ret
 1338              		.cfi_endproc
 1339              	.LFE31:
 1341              		.section	.text.eclic_get_irq_priority,"ax",@progbits
 1342              		.align	1
 1343              		.globl	eclic_get_irq_priority
 1345              	eclic_get_irq_priority:
 1346              	.LFB32:
 309:arch/riscv/mach-gd32vf10x/system/n200_func.c **** 
 310:arch/riscv/mach-gd32vf10x/system/n200_func.c **** //gets an interrupt priority based encoding of nlbits
 311:arch/riscv/mach-gd32vf10x/system/n200_func.c **** unsigned char eclic_get_irq_priority(unsigned int source) {
 1347              		.loc 1 311 59 is_stmt 1
 1348              		.cfi_startproc
 1349              	.LVL96:
 312:arch/riscv/mach-gd32vf10x/system/n200_func.c **** 	//extract nlbits
 313:arch/riscv/mach-gd32vf10x/system/n200_func.c **** 	unsigned char nlbits = eclic_get_nlbits();
 1350              		.loc 1 313 2
 1351              	.LBB194:
 1352              	.LBB195:
 203:arch/riscv/mach-gd32vf10x/system/n200_func.c ****   nlbits = (nlbits & ECLIC_CFG_NLBITS_MASK) >> ECLIC_CFG_NLBITS_LSB;
 1353              		.loc 1 203 3
 1354              	.LBB196:
 1355              	.LBB197:
 177:arch/riscv/mach-gd32vf10x/system/n200_func.c **** }
 1356              		.loc 1 177 3
 177:arch/riscv/mach-gd32vf10x/system/n200_func.c **** }
 1357              		.loc 1 177 10 is_stmt 0
 1358 0000 B70700D2 		li	a5,-771751936
 1359              	.LBE197:
 1360              	.LBE196:
 1361              	.LBE195:
 1362              	.LBE194:
 1363              	.LBB202:
 1364              	.LBB203:
 161:arch/riscv/mach-gd32vf10x/system/n200_func.c **** }
 1365              		.loc 1 161 74
 1366 0004 371700D2 		li	a4,-771747840
 1367              	.LBE203:
 1368              	.LBE202:
 1369              	.LBB206:
GAS LISTING C:\Users\test\AppData\Local\Temp\ccMFLWLO.s 			page 32


 1370              	.LBB200:
 1371              	.LBB199:
 1372              	.LBB198:
 177:arch/riscv/mach-gd32vf10x/system/n200_func.c **** }
 1373              		.loc 1 177 10
 1374 0008 83C70700 		lbu	a5,0(a5)
 1375              	.LVL97:
 1376              	.LBE198:
 1377              	.LBE199:
 204:arch/riscv/mach-gd32vf10x/system/n200_func.c ****   return nlbits;
 1378              		.loc 1 204 3 is_stmt 1
 205:arch/riscv/mach-gd32vf10x/system/n200_func.c **** }
 1379              		.loc 1 205 3
 1380              	.LBE200:
 1381              	.LBE206:
 314:arch/riscv/mach-gd32vf10x/system/n200_func.c **** 	if (nlbits > ECLICINTCTLBITS) {
 1382              		.loc 1 314 2
 315:arch/riscv/mach-gd32vf10x/system/n200_func.c **** 		nlbits = ECLICINTCTLBITS;
 316:arch/riscv/mach-gd32vf10x/system/n200_func.c **** 	}
 317:arch/riscv/mach-gd32vf10x/system/n200_func.c **** 
 318:arch/riscv/mach-gd32vf10x/system/n200_func.c **** 	unsigned char intctrl = eclic_get_intctrl(source);
 1383              		.loc 1 318 2
 1384              	.LBB207:
 1385              	.LBB204:
 161:arch/riscv/mach-gd32vf10x/system/n200_func.c **** }
 1386              		.loc 1 161 3
 161:arch/riscv/mach-gd32vf10x/system/n200_func.c **** }
 1387              		.loc 1 161 74 is_stmt 0
 1388 000c 0D07     		addi	a4,a4,3
 161:arch/riscv/mach-gd32vf10x/system/n200_func.c **** }
 1389              		.loc 1 161 81
 1390 000e 0A05     		slli	a0,a0,2
 1391              	.LVL98:
 161:arch/riscv/mach-gd32vf10x/system/n200_func.c **** }
 1392              		.loc 1 161 74
 1393 0010 3A95     		add	a0,a0,a4
 161:arch/riscv/mach-gd32vf10x/system/n200_func.c **** }
 1394              		.loc 1 161 10
 1395 0012 03450500 		lbu	a0,0(a0)
 1396              	.LBE204:
 1397              	.LBE207:
 1398              	.LBB208:
 1399              	.LBB201:
 204:arch/riscv/mach-gd32vf10x/system/n200_func.c ****   return nlbits;
 1400              		.loc 1 204 45
 1401 0016 8583     		srli	a5,a5,1
 1402              	.LVL99:
 204:arch/riscv/mach-gd32vf10x/system/n200_func.c ****   return nlbits;
 1403              		.loc 1 204 10
 1404 0018 BD8B     		andi	a5,a5,15
 1405              	.LBE201:
 1406              	.LBE208:
 319:arch/riscv/mach-gd32vf10x/system/n200_func.c **** 
 320:arch/riscv/mach-gd32vf10x/system/n200_func.c **** 	//shift intctrl
 321:arch/riscv/mach-gd32vf10x/system/n200_func.c **** 	intctrl = intctrl << nlbits;
 1407              		.loc 1 321 20
 1408 001a 9146     		li	a3,4
GAS LISTING C:\Users\test\AppData\Local\Temp\ccMFLWLO.s 			page 33


 1409              	.LBB209:
 1410              	.LBB205:
 161:arch/riscv/mach-gd32vf10x/system/n200_func.c **** }
 1411              		.loc 1 161 10
 1412 001c 1375F50F 		andi	a0,a0,0xff
 1413              	.LVL100:
 1414              	.LBE205:
 1415              	.LBE209:
 1416              		.loc 1 321 2 is_stmt 1
 1417              		.loc 1 321 20 is_stmt 0
 1418 0020 3E87     		mv	a4,a5
 1419 0022 63F3F600 		bleu	a5,a3,.L53
 1420 0026 1147     		li	a4,4
 1421              	.L53:
 1422 0028 9377F70F 		andi	a5,a4,0xff
 1423              	.LVL101:
 322:arch/riscv/mach-gd32vf10x/system/n200_func.c **** 	//shift intctrl
 323:arch/riscv/mach-gd32vf10x/system/n200_func.c **** 	unsigned char priority = intctrl >> (nlbits+(8 - ECLICINTCTLBITS));
 1424              		.loc 1 323 2 is_stmt 1
 324:arch/riscv/mach-gd32vf10x/system/n200_func.c **** 
 325:arch/riscv/mach-gd32vf10x/system/n200_func.c **** 	return priority;
 1425              		.loc 1 325 2
 321:arch/riscv/mach-gd32vf10x/system/n200_func.c **** 	//shift intctrl
 1426              		.loc 1 321 20 is_stmt 0
 1427 002c 3315E500 		sll	a0,a0,a4
 1428              	.LVL102:
 323:arch/riscv/mach-gd32vf10x/system/n200_func.c **** 
 1429              		.loc 1 323 45
 1430 0030 9107     		addi	a5,a5,4
 323:arch/riscv/mach-gd32vf10x/system/n200_func.c **** 
 1431              		.loc 1 323 35
 1432 0032 1375F50F 		andi	a0,a0,255
 1433 0036 3355F540 		sra	a0,a0,a5
 326:arch/riscv/mach-gd32vf10x/system/n200_func.c **** }
 1434              		.loc 1 326 1
 1435 003a 1375F50F 		andi	a0,a0,0xff
 1436 003e 8280     		ret
 1437              		.cfi_endproc
 1438              	.LFE32:
 1440              		.section	.text.eclic_mode_enable,"ax",@progbits
 1441              		.align	1
 1442              		.globl	eclic_mode_enable
 1444              	eclic_mode_enable:
 1445              	.LFB33:
 327:arch/riscv/mach-gd32vf10x/system/n200_func.c **** 
 328:arch/riscv/mach-gd32vf10x/system/n200_func.c **** void eclic_mode_enable() {
 1446              		.loc 1 328 26 is_stmt 1
 1447              		.cfi_startproc
 329:arch/riscv/mach-gd32vf10x/system/n200_func.c ****   unsigned int mtvec_value = read_csr(mtvec);
 1448              		.loc 1 329 3
 1449              	.LBB210:
 1450              		.loc 1 329 30
 1451              		.loc 1 329 30
 1452              	 #APP
 1453              	# 329 "arch/riscv/mach-gd32vf10x/system/n200_func.c" 1
 330              	  mtvec_value = mtvec_value & 0xFFFFFFC0;
 1454              		csrr a5, mtvec
GAS LISTING C:\Users\test\AppData\Local\Temp\ccMFLWLO.s 			page 34


 1455              	# 0 "" 2
 1456              	.LVL103:
 329:arch/riscv/mach-gd32vf10x/system/n200_func.c ****   unsigned int mtvec_value = read_csr(mtvec);
 1457              		.loc 1 329 30
 1458              	 #NO_APP
 1459              	.LBE210:
 1460              		.loc 1 330 3
 1461              		.loc 1 330 15 is_stmt 0
 1462 0004 93F707FC 		andi	a5,a5,-64
 1463              	.LVL104:
 331:arch/riscv/mach-gd32vf10x/system/n200_func.c ****   mtvec_value = mtvec_value | 0x00000003;
 1464              		.loc 1 331 3 is_stmt 1
 332:arch/riscv/mach-gd32vf10x/system/n200_func.c ****   write_csr(mtvec,mtvec_value);
 1465              		.loc 1 332 3
 1466              		.loc 1 332 3
 331:arch/riscv/mach-gd32vf10x/system/n200_func.c ****   mtvec_value = mtvec_value | 0x00000003;
 1467              		.loc 1 331 15 is_stmt 0
 1468 0008 93E73700 		ori	a5,a5,3
 1469              	.LVL105:
 1470              		.loc 1 332 3
 1471              	 #APP
 1472              	# 332 "arch/riscv/mach-gd32vf10x/system/n200_func.c" 1
 333              	}
 1473              		csrw mtvec, a5
 1474              	# 0 "" 2
 1475              		.loc 1 333 1
 1476              	 #NO_APP
 1477 0010 8280     		ret
 1478              		.cfi_endproc
 1479              	.LFE33:
 1481              		.section	.text.eclic_set_vmode,"ax",@progbits
 1482              		.align	1
 1483              		.globl	eclic_set_vmode
 1485              	eclic_set_vmode:
 1486              	.LFB34:
 334:arch/riscv/mach-gd32vf10x/system/n200_func.c **** 
 335:arch/riscv/mach-gd32vf10x/system/n200_func.c **** //sets vector-mode or non-vector mode 
 336:arch/riscv/mach-gd32vf10x/system/n200_func.c **** void eclic_set_vmode(unsigned int source) {
 1487              		.loc 1 336 43 is_stmt 1
 1488              		.cfi_startproc
 1489              	.LVL106:
 337:arch/riscv/mach-gd32vf10x/system/n200_func.c ****   //read the current attr 
 338:arch/riscv/mach-gd32vf10x/system/n200_func.c ****   unsigned char old_intattr = eclic_get_intattr(source);
 1490              		.loc 1 338 3
 1491              	.LBB211:
 1492              	.LBB212:
 169:arch/riscv/mach-gd32vf10x/system/n200_func.c **** }
 1493              		.loc 1 169 3
 169:arch/riscv/mach-gd32vf10x/system/n200_func.c **** }
 1494              		.loc 1 169 74 is_stmt 0
 1495 0000 B71700D2 		li	a5,-771747840
 1496 0004 8907     		addi	a5,a5,2
 169:arch/riscv/mach-gd32vf10x/system/n200_func.c **** }
 1497              		.loc 1 169 81
 1498 0006 0A05     		slli	a0,a0,2
 1499              	.LVL107:
 169:arch/riscv/mach-gd32vf10x/system/n200_func.c **** }
GAS LISTING C:\Users\test\AppData\Local\Temp\ccMFLWLO.s 			page 35


 1500              		.loc 1 169 74
 1501 0008 3E95     		add	a0,a0,a5
 169:arch/riscv/mach-gd32vf10x/system/n200_func.c **** }
 1502              		.loc 1 169 10
 1503 000a 83470500 		lbu	a5,0(a0)
 1504              	.LVL108:
 1505              	.LBE212:
 1506              	.LBE211:
 339:arch/riscv/mach-gd32vf10x/system/n200_func.c ****       // Keep other bits unchanged and only set the LSB bit
 340:arch/riscv/mach-gd32vf10x/system/n200_func.c ****   unsigned char new_intattr = (old_intattr | 0x1); 
 1507              		.loc 1 340 3 is_stmt 1
 1508              		.loc 1 340 17 is_stmt 0
 1509 000e 93E71700 		ori	a5,a5,1
 1510              	.LVL109:
 341:arch/riscv/mach-gd32vf10x/system/n200_func.c **** 
 342:arch/riscv/mach-gd32vf10x/system/n200_func.c ****   eclic_set_intattr(source,new_intattr);
 1511              		.loc 1 342 3 is_stmt 1
 1512              	.LBB213:
 1513              	.LBB214:
 165:arch/riscv/mach-gd32vf10x/system/n200_func.c **** }
 1514              		.loc 1 165 3
 165:arch/riscv/mach-gd32vf10x/system/n200_func.c **** }
 1515              		.loc 1 165 78 is_stmt 0
 1516 0012 2300F500 		sb	a5,0(a0)
 1517              	.LVL110:
 1518              	.LBE214:
 1519              	.LBE213:
 343:arch/riscv/mach-gd32vf10x/system/n200_func.c **** }
 1520              		.loc 1 343 1
 1521 0016 8280     		ret
 1522              		.cfi_endproc
 1523              	.LFE34:
 1525              		.section	.text.eclic_set_nonvmode,"ax",@progbits
 1526              		.align	1
 1527              		.globl	eclic_set_nonvmode
 1529              	eclic_set_nonvmode:
 1530              	.LFB35:
 344:arch/riscv/mach-gd32vf10x/system/n200_func.c **** 
 345:arch/riscv/mach-gd32vf10x/system/n200_func.c **** void eclic_set_nonvmode(unsigned int source) {
 1531              		.loc 1 345 46 is_stmt 1
 1532              		.cfi_startproc
 1533              	.LVL111:
 346:arch/riscv/mach-gd32vf10x/system/n200_func.c ****   //read the current attr 
 347:arch/riscv/mach-gd32vf10x/system/n200_func.c ****   unsigned char old_intattr = eclic_get_intattr(source);
 1534              		.loc 1 347 3
 1535              	.LBB215:
 1536              	.LBB216:
 169:arch/riscv/mach-gd32vf10x/system/n200_func.c **** }
 1537              		.loc 1 169 3
 169:arch/riscv/mach-gd32vf10x/system/n200_func.c **** }
 1538              		.loc 1 169 74 is_stmt 0
 1539 0000 B71700D2 		li	a5,-771747840
 1540 0004 8907     		addi	a5,a5,2
 169:arch/riscv/mach-gd32vf10x/system/n200_func.c **** }
 1541              		.loc 1 169 81
 1542 0006 0A05     		slli	a0,a0,2
 1543              	.LVL112:
GAS LISTING C:\Users\test\AppData\Local\Temp\ccMFLWLO.s 			page 36


 169:arch/riscv/mach-gd32vf10x/system/n200_func.c **** }
 1544              		.loc 1 169 74
 1545 0008 3E95     		add	a0,a0,a5
 169:arch/riscv/mach-gd32vf10x/system/n200_func.c **** }
 1546              		.loc 1 169 10
 1547 000a 83470500 		lbu	a5,0(a0)
 1548              	.LVL113:
 1549              	.LBE216:
 1550              	.LBE215:
 348:arch/riscv/mach-gd32vf10x/system/n200_func.c ****       // Keep other bits unchanged and only clear the LSB bit
 349:arch/riscv/mach-gd32vf10x/system/n200_func.c ****   unsigned char new_intattr = (old_intattr & (~0x1));
 1551              		.loc 1 349 3 is_stmt 1
 1552              		.loc 1 349 17 is_stmt 0
 1553 000e 93F7E70F 		andi	a5,a5,254
 1554              	.LVL114:
 350:arch/riscv/mach-gd32vf10x/system/n200_func.c **** 
 351:arch/riscv/mach-gd32vf10x/system/n200_func.c ****   eclic_set_intattr(source,new_intattr);
 1555              		.loc 1 351 3 is_stmt 1
 1556              	.LBB217:
 1557              	.LBB218:
 165:arch/riscv/mach-gd32vf10x/system/n200_func.c **** }
 1558              		.loc 1 165 3
 165:arch/riscv/mach-gd32vf10x/system/n200_func.c **** }
 1559              		.loc 1 165 78 is_stmt 0
 1560 0012 2300F500 		sb	a5,0(a0)
 1561              	.LVL115:
 1562              	.LBE218:
 1563              	.LBE217:
 352:arch/riscv/mach-gd32vf10x/system/n200_func.c **** }
 1564              		.loc 1 352 1
 1565 0016 8280     		ret
 1566              		.cfi_endproc
 1567              	.LFE35:
 1569              		.section	.text.eclic_set_level_trig,"ax",@progbits
 1570              		.align	1
 1571              		.globl	eclic_set_level_trig
 1573              	eclic_set_level_trig:
 1574              	.LFB36:
 353:arch/riscv/mach-gd32vf10x/system/n200_func.c **** 
 354:arch/riscv/mach-gd32vf10x/system/n200_func.c **** //sets interrupt as level sensitive
 355:arch/riscv/mach-gd32vf10x/system/n200_func.c **** //Bit 1, trig[0], is defined as "edge-triggered" (0: level-triggered, 1: edge-triggered); 
 356:arch/riscv/mach-gd32vf10x/system/n200_func.c **** //Bit 2, trig[1], is defined as "negative-edge" (0: positive-edge, 1: negative-edge).
 357:arch/riscv/mach-gd32vf10x/system/n200_func.c **** 
 358:arch/riscv/mach-gd32vf10x/system/n200_func.c **** void eclic_set_level_trig(unsigned int source) {
 1575              		.loc 1 358 48 is_stmt 1
 1576              		.cfi_startproc
 1577              	.LVL116:
 359:arch/riscv/mach-gd32vf10x/system/n200_func.c ****   //read the current attr 
 360:arch/riscv/mach-gd32vf10x/system/n200_func.c ****   unsigned char old_intattr = eclic_get_intattr(source);
 1578              		.loc 1 360 3
 1579              	.LBB219:
 1580              	.LBB220:
 169:arch/riscv/mach-gd32vf10x/system/n200_func.c **** }
 1581              		.loc 1 169 3
 169:arch/riscv/mach-gd32vf10x/system/n200_func.c **** }
 1582              		.loc 1 169 74 is_stmt 0
 1583 0000 B71700D2 		li	a5,-771747840
GAS LISTING C:\Users\test\AppData\Local\Temp\ccMFLWLO.s 			page 37


 1584 0004 8907     		addi	a5,a5,2
 169:arch/riscv/mach-gd32vf10x/system/n200_func.c **** }
 1585              		.loc 1 169 81
 1586 0006 0A05     		slli	a0,a0,2
 1587              	.LVL117:
 169:arch/riscv/mach-gd32vf10x/system/n200_func.c **** }
 1588              		.loc 1 169 74
 1589 0008 3E95     		add	a0,a0,a5
 169:arch/riscv/mach-gd32vf10x/system/n200_func.c **** }
 1590              		.loc 1 169 10
 1591 000a 83470500 		lbu	a5,0(a0)
 1592              	.LVL118:
 1593              	.LBE220:
 1594              	.LBE219:
 361:arch/riscv/mach-gd32vf10x/system/n200_func.c ****       // Keep other bits unchanged and only clear the bit 1
 362:arch/riscv/mach-gd32vf10x/system/n200_func.c ****   unsigned char new_intattr = (old_intattr & (~0x2));
 1595              		.loc 1 362 3 is_stmt 1
 1596              		.loc 1 362 17 is_stmt 0
 1597 000e 93F7D70F 		andi	a5,a5,253
 1598              	.LVL119:
 363:arch/riscv/mach-gd32vf10x/system/n200_func.c **** 
 364:arch/riscv/mach-gd32vf10x/system/n200_func.c ****   eclic_set_intattr(source,new_intattr);
 1599              		.loc 1 364 3 is_stmt 1
 1600              	.LBB221:
 1601              	.LBB222:
 165:arch/riscv/mach-gd32vf10x/system/n200_func.c **** }
 1602              		.loc 1 165 3
 165:arch/riscv/mach-gd32vf10x/system/n200_func.c **** }
 1603              		.loc 1 165 78 is_stmt 0
 1604 0012 2300F500 		sb	a5,0(a0)
 1605              	.LVL120:
 1606              	.LBE222:
 1607              	.LBE221:
 365:arch/riscv/mach-gd32vf10x/system/n200_func.c **** }
 1608              		.loc 1 365 1
 1609 0016 8280     		ret
 1610              		.cfi_endproc
 1611              	.LFE36:
 1613              		.section	.text.eclic_set_posedge_trig,"ax",@progbits
 1614              		.align	1
 1615              		.globl	eclic_set_posedge_trig
 1617              	eclic_set_posedge_trig:
 1618              	.LFB37:
 366:arch/riscv/mach-gd32vf10x/system/n200_func.c **** 
 367:arch/riscv/mach-gd32vf10x/system/n200_func.c **** void eclic_set_posedge_trig(unsigned int source) {
 1619              		.loc 1 367 50 is_stmt 1
 1620              		.cfi_startproc
 1621              	.LVL121:
 368:arch/riscv/mach-gd32vf10x/system/n200_func.c ****   //read the current attr 
 369:arch/riscv/mach-gd32vf10x/system/n200_func.c ****   unsigned char old_intattr = eclic_get_intattr(source);
 1622              		.loc 1 369 3
 1623              	.LBB223:
 1624              	.LBB224:
 169:arch/riscv/mach-gd32vf10x/system/n200_func.c **** }
 1625              		.loc 1 169 3
 169:arch/riscv/mach-gd32vf10x/system/n200_func.c **** }
 1626              		.loc 1 169 74 is_stmt 0
GAS LISTING C:\Users\test\AppData\Local\Temp\ccMFLWLO.s 			page 38


 1627 0000 B71700D2 		li	a5,-771747840
 1628 0004 8907     		addi	a5,a5,2
 169:arch/riscv/mach-gd32vf10x/system/n200_func.c **** }
 1629              		.loc 1 169 81
 1630 0006 0A05     		slli	a0,a0,2
 1631              	.LVL122:
 169:arch/riscv/mach-gd32vf10x/system/n200_func.c **** }
 1632              		.loc 1 169 74
 1633 0008 3E95     		add	a0,a0,a5
 169:arch/riscv/mach-gd32vf10x/system/n200_func.c **** }
 1634              		.loc 1 169 10
 1635 000a 83470500 		lbu	a5,0(a0)
 1636              	.LVL123:
 1637              	.LBE224:
 1638              	.LBE223:
 370:arch/riscv/mach-gd32vf10x/system/n200_func.c ****       // Keep other bits unchanged and only set the bit 1
 371:arch/riscv/mach-gd32vf10x/system/n200_func.c ****   unsigned char new_intattr = (old_intattr | 0x2);
 1639              		.loc 1 371 3 is_stmt 1
 372:arch/riscv/mach-gd32vf10x/system/n200_func.c ****       // Keep other bits unchanged and only clear the bit 2
 373:arch/riscv/mach-gd32vf10x/system/n200_func.c ****   new_intattr = (old_intattr & (~0x4));
 1640              		.loc 1 373 3
 1641              		.loc 1 373 15 is_stmt 0
 1642 000e 93F7B70F 		andi	a5,a5,251
 1643              	.LVL124:
 374:arch/riscv/mach-gd32vf10x/system/n200_func.c **** 
 375:arch/riscv/mach-gd32vf10x/system/n200_func.c ****   eclic_set_intattr(source,new_intattr);
 1644              		.loc 1 375 3 is_stmt 1
 1645              	.LBB225:
 1646              	.LBB226:
 165:arch/riscv/mach-gd32vf10x/system/n200_func.c **** }
 1647              		.loc 1 165 3
 165:arch/riscv/mach-gd32vf10x/system/n200_func.c **** }
 1648              		.loc 1 165 78 is_stmt 0
 1649 0012 2300F500 		sb	a5,0(a0)
 1650              	.LVL125:
 1651              	.LBE226:
 1652              	.LBE225:
 376:arch/riscv/mach-gd32vf10x/system/n200_func.c **** }
 1653              		.loc 1 376 1
 1654 0016 8280     		ret
 1655              		.cfi_endproc
 1656              	.LFE37:
 1658              		.section	.text.eclic_set_negedge_trig,"ax",@progbits
 1659              		.align	1
 1660              		.globl	eclic_set_negedge_trig
 1662              	eclic_set_negedge_trig:
 1663              	.LFB38:
 377:arch/riscv/mach-gd32vf10x/system/n200_func.c **** 
 378:arch/riscv/mach-gd32vf10x/system/n200_func.c **** void eclic_set_negedge_trig(unsigned int source) {
 1664              		.loc 1 378 50 is_stmt 1
 1665              		.cfi_startproc
 1666              	.LVL126:
 379:arch/riscv/mach-gd32vf10x/system/n200_func.c ****   //read the current attr 
 380:arch/riscv/mach-gd32vf10x/system/n200_func.c ****   unsigned char old_intattr = eclic_get_intattr(source);
 1667              		.loc 1 380 3
 1668              	.LBB227:
 1669              	.LBB228:
GAS LISTING C:\Users\test\AppData\Local\Temp\ccMFLWLO.s 			page 39


 169:arch/riscv/mach-gd32vf10x/system/n200_func.c **** }
 1670              		.loc 1 169 3
 169:arch/riscv/mach-gd32vf10x/system/n200_func.c **** }
 1671              		.loc 1 169 74 is_stmt 0
 1672 0000 B71700D2 		li	a5,-771747840
 1673 0004 8907     		addi	a5,a5,2
 169:arch/riscv/mach-gd32vf10x/system/n200_func.c **** }
 1674              		.loc 1 169 81
 1675 0006 0A05     		slli	a0,a0,2
 1676              	.LVL127:
 169:arch/riscv/mach-gd32vf10x/system/n200_func.c **** }
 1677              		.loc 1 169 74
 1678 0008 3E95     		add	a0,a0,a5
 169:arch/riscv/mach-gd32vf10x/system/n200_func.c **** }
 1679              		.loc 1 169 10
 1680 000a 83470500 		lbu	a5,0(a0)
 1681              	.LVL128:
 1682              	.LBE228:
 1683              	.LBE227:
 381:arch/riscv/mach-gd32vf10x/system/n200_func.c ****       // Keep other bits unchanged and only set the bit 1
 382:arch/riscv/mach-gd32vf10x/system/n200_func.c ****   unsigned char new_intattr = (old_intattr | 0x2);
 1684              		.loc 1 382 3 is_stmt 1
 383:arch/riscv/mach-gd32vf10x/system/n200_func.c ****       // Keep other bits unchanged and only set the bit 2
 384:arch/riscv/mach-gd32vf10x/system/n200_func.c ****   new_intattr = (old_intattr | 0x4);
 1685              		.loc 1 384 3
 1686              		.loc 1 384 15 is_stmt 0
 1687 000e 93E74700 		ori	a5,a5,4
 1688              	.LVL129:
 385:arch/riscv/mach-gd32vf10x/system/n200_func.c **** 
 386:arch/riscv/mach-gd32vf10x/system/n200_func.c ****   eclic_set_intattr(source,new_intattr);
 1689              		.loc 1 386 3 is_stmt 1
 1690              	.LBB229:
 1691              	.LBB230:
 165:arch/riscv/mach-gd32vf10x/system/n200_func.c **** }
 1692              		.loc 1 165 3
 165:arch/riscv/mach-gd32vf10x/system/n200_func.c **** }
 1693              		.loc 1 165 78 is_stmt 0
 1694 0012 2300F500 		sb	a5,0(a0)
 1695              	.LVL130:
 1696              	.LBE230:
 1697              	.LBE229:
 387:arch/riscv/mach-gd32vf10x/system/n200_func.c **** }
 1698              		.loc 1 387 1
 1699 0016 8280     		ret
 1700              		.cfi_endproc
 1701              	.LFE38:
 1703              		.text
 1704              	.Letext0:
 1705              		.file 2 "d:\\risc_v_gcc\\riscv-none-embed\\include\\machine\\_default_types.h"
 1706              		.file 3 "d:\\risc_v_gcc\\riscv-none-embed\\include\\sys\\_stdint.h"
 1707              		.file 4 "arch/riscv/mach-gd32vf10x/system/system_gd32vf103.h"
GAS LISTING C:\Users\test\AppData\Local\Temp\ccMFLWLO.s 			page 40


DEFINED SYMBOLS
                            *ABS*:0000000000000000 n200_func.c
C:\Users\test\AppData\Local\Temp\ccMFLWLO.s:10     .text.pmp_open_all_space:0000000000000000 pmp_open_all_space
C:\Users\test\AppData\Local\Temp\ccMFLWLO.s:14     .text.pmp_open_all_space:0000000000000000 .L0 
C:\Users\test\AppData\Local\Temp\ccMFLWLO.s:15     .text.pmp_open_all_space:0000000000000000 .L0 
arch/riscv/mach-gd32vf10x/system/n200_func.c:10     .text.pmp_open_all_space:0000000000000000 .L0 
arch/riscv/mach-gd32vf10x/system/n200_func.c:11     .text.pmp_open_all_space:0000000000000004 .L0 
arch/riscv/mach-gd32vf10x/system/n200_func.c:13     .text.pmp_open_all_space:0000000000000008 .L0 
arch/riscv/mach-gd32vf10x/system/n200_func.c:14     .text.pmp_open_all_space:000000000000000c .L0 
C:\Users\test\AppData\Local\Temp\ccMFLWLO.s:34     .text.pmp_open_all_space:0000000000000010 .L0 
C:\Users\test\AppData\Local\Temp\ccMFLWLO.s:35     .text.pmp_open_all_space:0000000000000012 .L0 
C:\Users\test\AppData\Local\Temp\ccMFLWLO.s:42     .text.switch_m2u_mode:0000000000000000 switch_m2u_mode
C:\Users\test\AppData\Local\Temp\ccMFLWLO.s:45     .text.switch_m2u_mode:0000000000000000 .L0 
C:\Users\test\AppData\Local\Temp\ccMFLWLO.s:46     .text.switch_m2u_mode:0000000000000000 .L0 
C:\Users\test\AppData\Local\Temp\ccMFLWLO.s:48     .text.switch_m2u_mode:0000000000000000 .L0 
C:\Users\test\AppData\Local\Temp\ccMFLWLO.s:49     .text.switch_m2u_mode:0000000000000000 .L0 
C:\Users\test\AppData\Local\Temp\ccMFLWLO.s:50     .text.switch_m2u_mode:0000000000000000 .L0 
C:\Users\test\AppData\Local\Temp\ccMFLWLO.s:51     .text.switch_m2u_mode:0000000000000000 .L0 
C:\Users\test\AppData\Local\Temp\ccMFLWLO.s:61     .text.switch_m2u_mode:000000000000000a .L0 
arch/riscv/mach-gd32vf10x/system/n200_func.c:21     .text.switch_m2u_mode:000000000000000a .L0 
arch/riscv/mach-gd32vf10x/system/n200_func.c:22     .text.switch_m2u_mode:0000000000000012 .L0 
arch/riscv/mach-gd32vf10x/system/n200_func.c:23     .text.switch_m2u_mode:0000000000000016 .L0 
C:\Users\test\AppData\Local\Temp\ccMFLWLO.s:78     .text.switch_m2u_mode:000000000000001a .L0 
C:\Users\test\AppData\Local\Temp\ccMFLWLO.s:80     .text.switch_m2u_mode:000000000000001a .L0 
C:\Users\test\AppData\Local\Temp\ccMFLWLO.s:81     .text.switch_m2u_mode:000000000000001c .L0 
C:\Users\test\AppData\Local\Temp\ccMFLWLO.s:88     .text.mtime_lo:0000000000000000 mtime_lo
C:\Users\test\AppData\Local\Temp\ccMFLWLO.s:91     .text.mtime_lo:0000000000000000 .L0 
C:\Users\test\AppData\Local\Temp\ccMFLWLO.s:92     .text.mtime_lo:0000000000000000 .L0 
C:\Users\test\AppData\Local\Temp\ccMFLWLO.s:93     .text.mtime_lo:0000000000000000 .L0 
C:\Users\test\AppData\Local\Temp\ccMFLWLO.s:94     .text.mtime_lo:0000000000000000 .L0 
C:\Users\test\AppData\Local\Temp\ccMFLWLO.s:97     .text.mtime_lo:0000000000000006 .L0 
C:\Users\test\AppData\Local\Temp\ccMFLWLO.s:98     .text.mtime_lo:0000000000000008 .L0 
C:\Users\test\AppData\Local\Temp\ccMFLWLO.s:105    .text.mtime_hi:0000000000000000 mtime_hi
C:\Users\test\AppData\Local\Temp\ccMFLWLO.s:108    .text.mtime_hi:0000000000000000 .L0 
C:\Users\test\AppData\Local\Temp\ccMFLWLO.s:109    .text.mtime_hi:0000000000000000 .L0 
C:\Users\test\AppData\Local\Temp\ccMFLWLO.s:110    .text.mtime_hi:0000000000000000 .L0 
C:\Users\test\AppData\Local\Temp\ccMFLWLO.s:111    .text.mtime_hi:0000000000000000 .L0 
C:\Users\test\AppData\Local\Temp\ccMFLWLO.s:114    .text.mtime_hi:0000000000000006 .L0 
C:\Users\test\AppData\Local\Temp\ccMFLWLO.s:115    .text.mtime_hi:0000000000000008 .L0 
C:\Users\test\AppData\Local\Temp\ccMFLWLO.s:122    .text.get_timer_value:0000000000000000 get_timer_value
C:\Users\test\AppData\Local\Temp\ccMFLWLO.s:125    .text.get_timer_value:0000000000000000 .L0 
C:\Users\test\AppData\Local\Temp\ccMFLWLO.s:129    .text.get_timer_value:0000000000000000 .L0 
C:\Users\test\AppData\Local\Temp\ccMFLWLO.s:130    .text.get_timer_value:0000000000000000 .L0 
C:\Users\test\AppData\Local\Temp\ccMFLWLO.s:137    .text.get_timer_value:0000000000000004 .L0 
C:\Users\test\AppData\Local\Temp\ccMFLWLO.s:140    .text.get_timer_value:0000000000000004 .L0 
C:\Users\test\AppData\Local\Temp\ccMFLWLO.s:141    .text.get_timer_value:0000000000000004 .L0 
C:\Users\test\AppData\Local\Temp\ccMFLWLO.s:142    .text.get_timer_value:0000000000000004 .L0 
C:\Users\test\AppData\Local\Temp\ccMFLWLO.s:149    .text.get_timer_value:0000000000000006 .L0 
C:\Users\test\AppData\Local\Temp\ccMFLWLO.s:150    .text.get_timer_value:0000000000000006 .L0 
C:\Users\test\AppData\Local\Temp\ccMFLWLO.s:151    .text.get_timer_value:0000000000000006 .L0 
C:\Users\test\AppData\Local\Temp\ccMFLWLO.s:158    .text.get_timer_value:0000000000000008 .L0 
C:\Users\test\AppData\Local\Temp\ccMFLWLO.s:159    .text.get_timer_value:0000000000000008 .L0 
C:\Users\test\AppData\Local\Temp\ccMFLWLO.s:160    .text.get_timer_value:0000000000000008 .L0 
C:\Users\test\AppData\Local\Temp\ccMFLWLO.s:164    .text.get_timer_value:000000000000000a .L0 
C:\Users\test\AppData\Local\Temp\ccMFLWLO.s:167    .text.get_timer_value:000000000000000e .L0 
C:\Users\test\AppData\Local\Temp\ccMFLWLO.s:168    .text.get_timer_value:0000000000000010 .L0 
C:\Users\test\AppData\Local\Temp\ccMFLWLO.s:175    .text.get_timer_freq:0000000000000000 get_timer_freq
GAS LISTING C:\Users\test\AppData\Local\Temp\ccMFLWLO.s 			page 41


C:\Users\test\AppData\Local\Temp\ccMFLWLO.s:178    .text.get_timer_freq:0000000000000000 .L0 
C:\Users\test\AppData\Local\Temp\ccMFLWLO.s:179    .text.get_timer_freq:0000000000000000 .L0 
C:\Users\test\AppData\Local\Temp\ccMFLWLO.s:180    .text.get_timer_freq:0000000000000000 .L0 
C:\Users\test\AppData\Local\Temp\ccMFLWLO.s:181    .text.get_timer_freq:0000000000000000 .L0 
C:\Users\test\AppData\Local\Temp\ccMFLWLO.s:184    .text.get_timer_freq:0000000000000008 .L0 
C:\Users\test\AppData\Local\Temp\ccMFLWLO.s:186    .text.get_timer_freq:000000000000000c .L0 
C:\Users\test\AppData\Local\Temp\ccMFLWLO.s:193    .text.get_instret_value:0000000000000000 get_instret_value
C:\Users\test\AppData\Local\Temp\ccMFLWLO.s:196    .text.get_instret_value:0000000000000000 .L0 
C:\Users\test\AppData\Local\Temp\ccMFLWLO.s:198    .text.get_instret_value:0000000000000000 .L0 
C:\Users\test\AppData\Local\Temp\ccMFLWLO.s:200    .text.get_instret_value:0000000000000000 .L0 
C:\Users\test\AppData\Local\Temp\ccMFLWLO.s:202    .text.get_instret_value:0000000000000000 .L0 
C:\Users\test\AppData\Local\Temp\ccMFLWLO.s:203    .text.get_instret_value:0000000000000000 .L0 
arch/riscv/mach-gd32vf10x/system/n200_func.c:56     .text.get_instret_value:0000000000000000 .L0 
C:\Users\test\AppData\Local\Temp\ccMFLWLO.s:212    .text.get_instret_value:0000000000000004 .L0 
C:\Users\test\AppData\Local\Temp\ccMFLWLO.s:214    .text.get_instret_value:0000000000000004 .L0 
C:\Users\test\AppData\Local\Temp\ccMFLWLO.s:215    .text.get_instret_value:0000000000000004 .L0 
arch/riscv/mach-gd32vf10x/system/n200_func.c:57     .text.get_instret_value:0000000000000004 .L0 
C:\Users\test\AppData\Local\Temp\ccMFLWLO.s:224    .text.get_instret_value:0000000000000008 .L0 
C:\Users\test\AppData\Local\Temp\ccMFLWLO.s:226    .text.get_instret_value:0000000000000008 .L0 
C:\Users\test\AppData\Local\Temp\ccMFLWLO.s:227    .text.get_instret_value:0000000000000008 .L0 
arch/riscv/mach-gd32vf10x/system/n200_func.c:58     .text.get_instret_value:0000000000000008 .L0 
C:\Users\test\AppData\Local\Temp\ccMFLWLO.s:236    .text.get_instret_value:000000000000000c .L0 
C:\Users\test\AppData\Local\Temp\ccMFLWLO.s:237    .text.get_instret_value:000000000000000c .L0 
C:\Users\test\AppData\Local\Temp\ccMFLWLO.s:240    .text.get_instret_value:0000000000000010 .L0 
C:\Users\test\AppData\Local\Temp\ccMFLWLO.s:241    .text.get_instret_value:0000000000000012 .L0 
C:\Users\test\AppData\Local\Temp\ccMFLWLO.s:248    .text.get_cycle_value:0000000000000000 get_cycle_value
C:\Users\test\AppData\Local\Temp\ccMFLWLO.s:251    .text.get_cycle_value:0000000000000000 .L0 
C:\Users\test\AppData\Local\Temp\ccMFLWLO.s:253    .text.get_cycle_value:0000000000000000 .L0 
C:\Users\test\AppData\Local\Temp\ccMFLWLO.s:255    .text.get_cycle_value:0000000000000000 .L0 
C:\Users\test\AppData\Local\Temp\ccMFLWLO.s:257    .text.get_cycle_value:0000000000000000 .L0 
C:\Users\test\AppData\Local\Temp\ccMFLWLO.s:258    .text.get_cycle_value:0000000000000000 .L0 
arch/riscv/mach-gd32vf10x/system/n200_func.c:66     .text.get_cycle_value:0000000000000000 .L0 
C:\Users\test\AppData\Local\Temp\ccMFLWLO.s:267    .text.get_cycle_value:0000000000000004 .L0 
C:\Users\test\AppData\Local\Temp\ccMFLWLO.s:269    .text.get_cycle_value:0000000000000004 .L0 
C:\Users\test\AppData\Local\Temp\ccMFLWLO.s:270    .text.get_cycle_value:0000000000000004 .L0 
arch/riscv/mach-gd32vf10x/system/n200_func.c:67     .text.get_cycle_value:0000000000000004 .L0 
C:\Users\test\AppData\Local\Temp\ccMFLWLO.s:279    .text.get_cycle_value:0000000000000008 .L0 
C:\Users\test\AppData\Local\Temp\ccMFLWLO.s:281    .text.get_cycle_value:0000000000000008 .L0 
C:\Users\test\AppData\Local\Temp\ccMFLWLO.s:282    .text.get_cycle_value:0000000000000008 .L0 
arch/riscv/mach-gd32vf10x/system/n200_func.c:68     .text.get_cycle_value:0000000000000008 .L0 
C:\Users\test\AppData\Local\Temp\ccMFLWLO.s:291    .text.get_cycle_value:000000000000000c .L0 
C:\Users\test\AppData\Local\Temp\ccMFLWLO.s:292    .text.get_cycle_value:000000000000000c .L0 
C:\Users\test\AppData\Local\Temp\ccMFLWLO.s:295    .text.get_cycle_value:0000000000000010 .L0 
C:\Users\test\AppData\Local\Temp\ccMFLWLO.s:296    .text.get_cycle_value:0000000000000012 .L0 
C:\Users\test\AppData\Local\Temp\ccMFLWLO.s:303    .text.measure_cpu_freq:0000000000000000 measure_cpu_freq
C:\Users\test\AppData\Local\Temp\ccMFLWLO.s:306    .text.measure_cpu_freq:0000000000000000 .L0 
C:\Users\test\AppData\Local\Temp\ccMFLWLO.s:308    .text.measure_cpu_freq:0000000000000000 .L0 
C:\Users\test\AppData\Local\Temp\ccMFLWLO.s:309    .text.measure_cpu_freq:0000000000000000 .L0 
C:\Users\test\AppData\Local\Temp\ccMFLWLO.s:312    .text.measure_cpu_freq:0000000000000000 .L0 
C:\Users\test\AppData\Local\Temp\ccMFLWLO.s:313    .text.measure_cpu_freq:0000000000000000 .L0 
C:\Users\test\AppData\Local\Temp\ccMFLWLO.s:314    .text.measure_cpu_freq:0000000000000000 .L0 
C:\Users\test\AppData\Local\Temp\ccMFLWLO.s:321    .text.measure_cpu_freq:0000000000000008 .L0 
C:\Users\test\AppData\Local\Temp\ccMFLWLO.s:328    .text.measure_cpu_freq:000000000000000e .L0 
C:\Users\test\AppData\Local\Temp\ccMFLWLO.s:335    .text.measure_cpu_freq:0000000000000012 .L0 
C:\Users\test\AppData\Local\Temp\ccMFLWLO.s:339    .text.measure_cpu_freq:0000000000000012 .L0 
C:\Users\test\AppData\Local\Temp\ccMFLWLO.s:340    .text.measure_cpu_freq:0000000000000012 .L0 
C:\Users\test\AppData\Local\Temp\ccMFLWLO.s:343    .text.measure_cpu_freq:0000000000000012 .L0 
GAS LISTING C:\Users\test\AppData\Local\Temp\ccMFLWLO.s 			page 42


C:\Users\test\AppData\Local\Temp\ccMFLWLO.s:344    .text.measure_cpu_freq:0000000000000012 .L0 
C:\Users\test\AppData\Local\Temp\ccMFLWLO.s:345    .text.measure_cpu_freq:0000000000000012 .L0 
C:\Users\test\AppData\Local\Temp\ccMFLWLO.s:350    .text.measure_cpu_freq:0000000000000014 .L0 
C:\Users\test\AppData\Local\Temp\ccMFLWLO.s:353    .text.measure_cpu_freq:0000000000000018 .L0 
C:\Users\test\AppData\Local\Temp\ccMFLWLO.s:354    .text.measure_cpu_freq:0000000000000018 .L0 
arch/riscv/mach-gd32vf10x/system/n200_func.c:84     .text.measure_cpu_freq:0000000000000018 .L0 
C:\Users\test\AppData\Local\Temp\ccMFLWLO.s:365    .text.measure_cpu_freq:000000000000001c .L0 
C:\Users\test\AppData\Local\Temp\ccMFLWLO.s:366    .text.measure_cpu_freq:000000000000001c .L0 
C:\Users\test\AppData\Local\Temp\ccMFLWLO.s:372    .text.measure_cpu_freq:0000000000000020 .L0 
C:\Users\test\AppData\Local\Temp\ccMFLWLO.s:375    .text.measure_cpu_freq:0000000000000020 .L0 
C:\Users\test\AppData\Local\Temp\ccMFLWLO.s:376    .text.measure_cpu_freq:0000000000000020 .L0 
C:\Users\test\AppData\Local\Temp\ccMFLWLO.s:377    .text.measure_cpu_freq:0000000000000020 .L0 
C:\Users\test\AppData\Local\Temp\ccMFLWLO.s:381    .text.measure_cpu_freq:0000000000000022 .L0 
C:\Users\test\AppData\Local\Temp\ccMFLWLO.s:384    .text.measure_cpu_freq:0000000000000024 .L0 
C:\Users\test\AppData\Local\Temp\ccMFLWLO.s:387    .text.measure_cpu_freq:0000000000000028 .L0 
C:\Users\test\AppData\Local\Temp\ccMFLWLO.s:388    .text.measure_cpu_freq:0000000000000028 .L0 
arch/riscv/mach-gd32vf10x/system/n200_func.c:90     .text.measure_cpu_freq:0000000000000028 .L0 
C:\Users\test\AppData\Local\Temp\ccMFLWLO.s:397    .text.measure_cpu_freq:000000000000002c .L0 
C:\Users\test\AppData\Local\Temp\ccMFLWLO.s:398    .text.measure_cpu_freq:000000000000002c .L0 
C:\Users\test\AppData\Local\Temp\ccMFLWLO.s:401    .text.measure_cpu_freq:000000000000002e .L0 
C:\Users\test\AppData\Local\Temp\ccMFLWLO.s:402    .text.measure_cpu_freq:000000000000002e .L0 
C:\Users\test\AppData\Local\Temp\ccMFLWLO.s:405    .text.measure_cpu_freq:0000000000000032 .L0 
C:\Users\test\AppData\Local\Temp\ccMFLWLO.s:408    .text.measure_cpu_freq:0000000000000036 .L0 
C:\Users\test\AppData\Local\Temp\ccMFLWLO.s:410    .text.measure_cpu_freq:000000000000003a .L0 
C:\Users\test\AppData\Local\Temp\ccMFLWLO.s:412    .text.measure_cpu_freq:000000000000003e .L0 
C:\Users\test\AppData\Local\Temp\ccMFLWLO.s:414    .text.measure_cpu_freq:0000000000000042 .L0 
C:\Users\test\AppData\Local\Temp\ccMFLWLO.s:416    .text.measure_cpu_freq:0000000000000046 .L0 
C:\Users\test\AppData\Local\Temp\ccMFLWLO.s:423    .text.get_cpu_freq:0000000000000000 get_cpu_freq
C:\Users\test\AppData\Local\Temp\ccMFLWLO.s:426    .text.get_cpu_freq:0000000000000000 .L0 
C:\Users\test\AppData\Local\Temp\ccMFLWLO.s:427    .text.get_cpu_freq:0000000000000000 .L0 
C:\Users\test\AppData\Local\Temp\ccMFLWLO.s:428    .text.get_cpu_freq:0000000000000000 .L0 
C:\Users\test\AppData\Local\Temp\ccMFLWLO.s:429    .text.get_cpu_freq:0000000000000000 .L0 
C:\Users\test\AppData\Local\Temp\ccMFLWLO.s:430    .text.get_cpu_freq:0000000000000000 .L0 
C:\Users\test\AppData\Local\Temp\ccMFLWLO.s:432    .text.get_cpu_freq:0000000000000002 .L0 
C:\Users\test\AppData\Local\Temp\ccMFLWLO.s:434    .text.get_cpu_freq:0000000000000002 .L0 
C:\Users\test\AppData\Local\Temp\ccMFLWLO.s:436    .text.get_cpu_freq:0000000000000004 .L0 
C:\Users\test\AppData\Local\Temp\ccMFLWLO.s:437    .text.get_cpu_freq:0000000000000006 .L0 
C:\Users\test\AppData\Local\Temp\ccMFLWLO.s:439    .text.get_cpu_freq:0000000000000006 .L0 
C:\Users\test\AppData\Local\Temp\ccMFLWLO.s:442    .text.get_cpu_freq:000000000000000e .L0 
C:\Users\test\AppData\Local\Temp\ccMFLWLO.s:443    .text.get_cpu_freq:000000000000000e .L0 
C:\Users\test\AppData\Local\Temp\ccMFLWLO.s:444    .text.get_cpu_freq:0000000000000010 .L0 
C:\Users\test\AppData\Local\Temp\ccMFLWLO.s:446    .text.get_cpu_freq:0000000000000010 .L0 
C:\Users\test\AppData\Local\Temp\ccMFLWLO.s:448    .text.get_cpu_freq:0000000000000014 .L0 
C:\Users\test\AppData\Local\Temp\ccMFLWLO.s:450    .text.get_cpu_freq:0000000000000016 .L0 
C:\Users\test\AppData\Local\Temp\ccMFLWLO.s:452    .text.get_cpu_freq:0000000000000016 .L0 
C:\Users\test\AppData\Local\Temp\ccMFLWLO.s:454    .text.get_cpu_freq:000000000000001e .L0 
C:\Users\test\AppData\Local\Temp\ccMFLWLO.s:461    .text.eclic_init:0000000000000000 eclic_init
C:\Users\test\AppData\Local\Temp\ccMFLWLO.s:464    .text.eclic_init:0000000000000000 .L0 
C:\Users\test\AppData\Local\Temp\ccMFLWLO.s:466    .text.eclic_init:0000000000000000 .L0 
C:\Users\test\AppData\Local\Temp\ccMFLWLO.s:467    .text.eclic_init:0000000000000000 .L0 
C:\Users\test\AppData\Local\Temp\ccMFLWLO.s:468    .text.eclic_init:0000000000000000 .L0 
C:\Users\test\AppData\Local\Temp\ccMFLWLO.s:469    .text.eclic_init:0000000000000000 .L0 
C:\Users\test\AppData\Local\Temp\ccMFLWLO.s:472    .text.eclic_init:0000000000000008 .L0 
C:\Users\test\AppData\Local\Temp\ccMFLWLO.s:473    .text.eclic_init:0000000000000008 .L0 
C:\Users\test\AppData\Local\Temp\ccMFLWLO.s:476    .text.eclic_init:000000000000000a .L0 
C:\Users\test\AppData\Local\Temp\ccMFLWLO.s:478    .text.eclic_init:000000000000000e .L0 
C:\Users\test\AppData\Local\Temp\ccMFLWLO.s:480    .text.eclic_init:0000000000000012 .L0 
GAS LISTING C:\Users\test\AppData\Local\Temp\ccMFLWLO.s 			page 43


C:\Users\test\AppData\Local\Temp\ccMFLWLO.s:482    .text.eclic_init:0000000000000012 .L0 
C:\Users\test\AppData\Local\Temp\ccMFLWLO.s:483    .text.eclic_init:0000000000000012 .L0 
C:\Users\test\AppData\Local\Temp\ccMFLWLO.s:484    .text.eclic_init:0000000000000012 .L0 
C:\Users\test\AppData\Local\Temp\ccMFLWLO.s:487    .text.eclic_init:0000000000000014 .L0 
C:\Users\test\AppData\Local\Temp\ccMFLWLO.s:491    .text.eclic_init:0000000000000018 .L0 
C:\Users\test\AppData\Local\Temp\ccMFLWLO.s:492    .text.eclic_init:0000000000000018 .L0 
C:\Users\test\AppData\Local\Temp\ccMFLWLO.s:494    .text.eclic_init:000000000000001c .L0 
C:\Users\test\AppData\Local\Temp\ccMFLWLO.s:497    .text.eclic_init:000000000000001e .L0 
C:\Users\test\AppData\Local\Temp\ccMFLWLO.s:501    .text.eclic_init:0000000000000022 .L0 
C:\Users\test\AppData\Local\Temp\ccMFLWLO.s:502    .text.eclic_init:0000000000000024 .L0 
C:\Users\test\AppData\Local\Temp\ccMFLWLO.s:509    .text.eclic_enable_interrupt:0000000000000000 eclic_enable_interrupt
C:\Users\test\AppData\Local\Temp\ccMFLWLO.s:512    .text.eclic_enable_interrupt:0000000000000000 .L0 
C:\Users\test\AppData\Local\Temp\ccMFLWLO.s:514    .text.eclic_enable_interrupt:0000000000000000 .L0 
C:\Users\test\AppData\Local\Temp\ccMFLWLO.s:515    .text.eclic_enable_interrupt:0000000000000000 .L0 
C:\Users\test\AppData\Local\Temp\ccMFLWLO.s:516    .text.eclic_enable_interrupt:0000000000000000 .L0 
C:\Users\test\AppData\Local\Temp\ccMFLWLO.s:519    .text.eclic_enable_interrupt:0000000000000006 .L0 
C:\Users\test\AppData\Local\Temp\ccMFLWLO.s:522    .text.eclic_enable_interrupt:0000000000000008 .L0 
C:\Users\test\AppData\Local\Temp\ccMFLWLO.s:524    .text.eclic_enable_interrupt:000000000000000a .L0 
C:\Users\test\AppData\Local\Temp\ccMFLWLO.s:527    .text.eclic_enable_interrupt:0000000000000010 .L0 
C:\Users\test\AppData\Local\Temp\ccMFLWLO.s:528    .text.eclic_enable_interrupt:0000000000000012 .L0 
C:\Users\test\AppData\Local\Temp\ccMFLWLO.s:535    .text.eclic_disable_interrupt:0000000000000000 eclic_disable_interrupt
C:\Users\test\AppData\Local\Temp\ccMFLWLO.s:538    .text.eclic_disable_interrupt:0000000000000000 .L0 
C:\Users\test\AppData\Local\Temp\ccMFLWLO.s:540    .text.eclic_disable_interrupt:0000000000000000 .L0 
C:\Users\test\AppData\Local\Temp\ccMFLWLO.s:541    .text.eclic_disable_interrupt:0000000000000000 .L0 
C:\Users\test\AppData\Local\Temp\ccMFLWLO.s:542    .text.eclic_disable_interrupt:0000000000000000 .L0 
C:\Users\test\AppData\Local\Temp\ccMFLWLO.s:544    .text.eclic_disable_interrupt:0000000000000004 .L0 
C:\Users\test\AppData\Local\Temp\ccMFLWLO.s:547    .text.eclic_disable_interrupt:0000000000000006 .L0 
C:\Users\test\AppData\Local\Temp\ccMFLWLO.s:550    .text.eclic_disable_interrupt:000000000000000a .L0 
C:\Users\test\AppData\Local\Temp\ccMFLWLO.s:552    .text.eclic_disable_interrupt:000000000000000e .L0 
C:\Users\test\AppData\Local\Temp\ccMFLWLO.s:553    .text.eclic_disable_interrupt:0000000000000010 .L0 
C:\Users\test\AppData\Local\Temp\ccMFLWLO.s:560    .text.eclic_set_pending:0000000000000000 eclic_set_pending
C:\Users\test\AppData\Local\Temp\ccMFLWLO.s:563    .text.eclic_set_pending:0000000000000000 .L0 
C:\Users\test\AppData\Local\Temp\ccMFLWLO.s:565    .text.eclic_set_pending:0000000000000000 .L0 
C:\Users\test\AppData\Local\Temp\ccMFLWLO.s:566    .text.eclic_set_pending:0000000000000000 .L0 
C:\Users\test\AppData\Local\Temp\ccMFLWLO.s:567    .text.eclic_set_pending:0000000000000000 .L0 
C:\Users\test\AppData\Local\Temp\ccMFLWLO.s:574    .text.eclic_set_pending:000000000000000c .L0 
C:\Users\test\AppData\Local\Temp\ccMFLWLO.s:577    .text.eclic_set_pending:0000000000000012 .L0 
C:\Users\test\AppData\Local\Temp\ccMFLWLO.s:578    .text.eclic_set_pending:0000000000000014 .L0 
C:\Users\test\AppData\Local\Temp\ccMFLWLO.s:585    .text.eclic_clear_pending:0000000000000000 eclic_clear_pending
C:\Users\test\AppData\Local\Temp\ccMFLWLO.s:588    .text.eclic_clear_pending:0000000000000000 .L0 
C:\Users\test\AppData\Local\Temp\ccMFLWLO.s:590    .text.eclic_clear_pending:0000000000000000 .L0 
C:\Users\test\AppData\Local\Temp\ccMFLWLO.s:591    .text.eclic_clear_pending:0000000000000000 .L0 
C:\Users\test\AppData\Local\Temp\ccMFLWLO.s:592    .text.eclic_clear_pending:0000000000000000 .L0 
C:\Users\test\AppData\Local\Temp\ccMFLWLO.s:599    .text.eclic_clear_pending:000000000000000c .L0 
C:\Users\test\AppData\Local\Temp\ccMFLWLO.s:601    .text.eclic_clear_pending:0000000000000010 .L0 
C:\Users\test\AppData\Local\Temp\ccMFLWLO.s:602    .text.eclic_clear_pending:0000000000000012 .L0 
C:\Users\test\AppData\Local\Temp\ccMFLWLO.s:609    .text.eclic_set_intctrl:0000000000000000 eclic_set_intctrl
C:\Users\test\AppData\Local\Temp\ccMFLWLO.s:612    .text.eclic_set_intctrl:0000000000000000 .L0 
C:\Users\test\AppData\Local\Temp\ccMFLWLO.s:614    .text.eclic_set_intctrl:0000000000000000 .L0 
C:\Users\test\AppData\Local\Temp\ccMFLWLO.s:615    .text.eclic_set_intctrl:0000000000000000 .L0 
C:\Users\test\AppData\Local\Temp\ccMFLWLO.s:616    .text.eclic_set_intctrl:0000000000000000 .L0 
C:\Users\test\AppData\Local\Temp\ccMFLWLO.s:618    .text.eclic_set_intctrl:0000000000000004 .L0 
C:\Users\test\AppData\Local\Temp\ccMFLWLO.s:621    .text.eclic_set_intctrl:0000000000000006 .L0 
C:\Users\test\AppData\Local\Temp\ccMFLWLO.s:624    .text.eclic_set_intctrl:000000000000000a .L0 
C:\Users\test\AppData\Local\Temp\ccMFLWLO.s:626    .text.eclic_set_intctrl:000000000000000e .L0 
C:\Users\test\AppData\Local\Temp\ccMFLWLO.s:627    .text.eclic_set_intctrl:0000000000000010 .L0 
C:\Users\test\AppData\Local\Temp\ccMFLWLO.s:634    .text.eclic_get_intctrl:0000000000000000 eclic_get_intctrl
GAS LISTING C:\Users\test\AppData\Local\Temp\ccMFLWLO.s 			page 44


C:\Users\test\AppData\Local\Temp\ccMFLWLO.s:637    .text.eclic_get_intctrl:0000000000000000 .L0 
C:\Users\test\AppData\Local\Temp\ccMFLWLO.s:639    .text.eclic_get_intctrl:0000000000000000 .L0 
C:\Users\test\AppData\Local\Temp\ccMFLWLO.s:640    .text.eclic_get_intctrl:0000000000000000 .L0 
C:\Users\test\AppData\Local\Temp\ccMFLWLO.s:641    .text.eclic_get_intctrl:0000000000000000 .L0 
C:\Users\test\AppData\Local\Temp\ccMFLWLO.s:644    .text.eclic_get_intctrl:0000000000000006 .L0 
C:\Users\test\AppData\Local\Temp\ccMFLWLO.s:647    .text.eclic_get_intctrl:0000000000000008 .L0 
C:\Users\test\AppData\Local\Temp\ccMFLWLO.s:649    .text.eclic_get_intctrl:000000000000000a .L0 
C:\Users\test\AppData\Local\Temp\ccMFLWLO.s:651    .text.eclic_get_intctrl:000000000000000e .L0 
C:\Users\test\AppData\Local\Temp\ccMFLWLO.s:652    .text.eclic_get_intctrl:0000000000000010 .L0 
C:\Users\test\AppData\Local\Temp\ccMFLWLO.s:659    .text.eclic_set_intattr:0000000000000000 eclic_set_intattr
C:\Users\test\AppData\Local\Temp\ccMFLWLO.s:662    .text.eclic_set_intattr:0000000000000000 .L0 
C:\Users\test\AppData\Local\Temp\ccMFLWLO.s:664    .text.eclic_set_intattr:0000000000000000 .L0 
C:\Users\test\AppData\Local\Temp\ccMFLWLO.s:665    .text.eclic_set_intattr:0000000000000000 .L0 
C:\Users\test\AppData\Local\Temp\ccMFLWLO.s:666    .text.eclic_set_intattr:0000000000000000 .L0 
C:\Users\test\AppData\Local\Temp\ccMFLWLO.s:668    .text.eclic_set_intattr:0000000000000004 .L0 
C:\Users\test\AppData\Local\Temp\ccMFLWLO.s:671    .text.eclic_set_intattr:0000000000000006 .L0 
C:\Users\test\AppData\Local\Temp\ccMFLWLO.s:674    .text.eclic_set_intattr:000000000000000a .L0 
C:\Users\test\AppData\Local\Temp\ccMFLWLO.s:676    .text.eclic_set_intattr:000000000000000e .L0 
C:\Users\test\AppData\Local\Temp\ccMFLWLO.s:677    .text.eclic_set_intattr:0000000000000010 .L0 
C:\Users\test\AppData\Local\Temp\ccMFLWLO.s:684    .text.eclic_get_intattr:0000000000000000 eclic_get_intattr
C:\Users\test\AppData\Local\Temp\ccMFLWLO.s:687    .text.eclic_get_intattr:0000000000000000 .L0 
C:\Users\test\AppData\Local\Temp\ccMFLWLO.s:689    .text.eclic_get_intattr:0000000000000000 .L0 
C:\Users\test\AppData\Local\Temp\ccMFLWLO.s:690    .text.eclic_get_intattr:0000000000000000 .L0 
C:\Users\test\AppData\Local\Temp\ccMFLWLO.s:691    .text.eclic_get_intattr:0000000000000000 .L0 
C:\Users\test\AppData\Local\Temp\ccMFLWLO.s:694    .text.eclic_get_intattr:0000000000000006 .L0 
C:\Users\test\AppData\Local\Temp\ccMFLWLO.s:697    .text.eclic_get_intattr:0000000000000008 .L0 
C:\Users\test\AppData\Local\Temp\ccMFLWLO.s:699    .text.eclic_get_intattr:000000000000000a .L0 
C:\Users\test\AppData\Local\Temp\ccMFLWLO.s:701    .text.eclic_get_intattr:000000000000000e .L0 
C:\Users\test\AppData\Local\Temp\ccMFLWLO.s:702    .text.eclic_get_intattr:0000000000000010 .L0 
C:\Users\test\AppData\Local\Temp\ccMFLWLO.s:709    .text.eclic_set_cliccfg:0000000000000000 eclic_set_cliccfg
C:\Users\test\AppData\Local\Temp\ccMFLWLO.s:712    .text.eclic_set_cliccfg:0000000000000000 .L0 
C:\Users\test\AppData\Local\Temp\ccMFLWLO.s:714    .text.eclic_set_cliccfg:0000000000000000 .L0 
C:\Users\test\AppData\Local\Temp\ccMFLWLO.s:715    .text.eclic_set_cliccfg:0000000000000000 .L0 
C:\Users\test\AppData\Local\Temp\ccMFLWLO.s:716    .text.eclic_set_cliccfg:0000000000000000 .L0 
C:\Users\test\AppData\Local\Temp\ccMFLWLO.s:719    .text.eclic_set_cliccfg:0000000000000008 .L0 
C:\Users\test\AppData\Local\Temp\ccMFLWLO.s:720    .text.eclic_set_cliccfg:000000000000000a .L0 
C:\Users\test\AppData\Local\Temp\ccMFLWLO.s:727    .text.eclic_get_cliccfg:0000000000000000 eclic_get_cliccfg
C:\Users\test\AppData\Local\Temp\ccMFLWLO.s:730    .text.eclic_get_cliccfg:0000000000000000 .L0 
C:\Users\test\AppData\Local\Temp\ccMFLWLO.s:731    .text.eclic_get_cliccfg:0000000000000000 .L0 
C:\Users\test\AppData\Local\Temp\ccMFLWLO.s:732    .text.eclic_get_cliccfg:0000000000000000 .L0 
C:\Users\test\AppData\Local\Temp\ccMFLWLO.s:733    .text.eclic_get_cliccfg:0000000000000000 .L0 
C:\Users\test\AppData\Local\Temp\ccMFLWLO.s:736    .text.eclic_get_cliccfg:0000000000000008 .L0 
C:\Users\test\AppData\Local\Temp\ccMFLWLO.s:737    .text.eclic_get_cliccfg:000000000000000a .L0 
C:\Users\test\AppData\Local\Temp\ccMFLWLO.s:744    .text.eclic_set_mth:0000000000000000 eclic_set_mth
C:\Users\test\AppData\Local\Temp\ccMFLWLO.s:747    .text.eclic_set_mth:0000000000000000 .L0 
C:\Users\test\AppData\Local\Temp\ccMFLWLO.s:749    .text.eclic_set_mth:0000000000000000 .L0 
C:\Users\test\AppData\Local\Temp\ccMFLWLO.s:750    .text.eclic_set_mth:0000000000000000 .L0 
C:\Users\test\AppData\Local\Temp\ccMFLWLO.s:751    .text.eclic_set_mth:0000000000000000 .L0 
C:\Users\test\AppData\Local\Temp\ccMFLWLO.s:754    .text.eclic_set_mth:0000000000000008 .L0 
C:\Users\test\AppData\Local\Temp\ccMFLWLO.s:755    .text.eclic_set_mth:000000000000000a .L0 
C:\Users\test\AppData\Local\Temp\ccMFLWLO.s:762    .text.eclic_get_mth:0000000000000000 eclic_get_mth
C:\Users\test\AppData\Local\Temp\ccMFLWLO.s:765    .text.eclic_get_mth:0000000000000000 .L0 
C:\Users\test\AppData\Local\Temp\ccMFLWLO.s:766    .text.eclic_get_mth:0000000000000000 .L0 
C:\Users\test\AppData\Local\Temp\ccMFLWLO.s:767    .text.eclic_get_mth:0000000000000000 .L0 
C:\Users\test\AppData\Local\Temp\ccMFLWLO.s:768    .text.eclic_get_mth:0000000000000000 .L0 
C:\Users\test\AppData\Local\Temp\ccMFLWLO.s:771    .text.eclic_get_mth:0000000000000008 .L0 
C:\Users\test\AppData\Local\Temp\ccMFLWLO.s:772    .text.eclic_get_mth:000000000000000a .L0 
GAS LISTING C:\Users\test\AppData\Local\Temp\ccMFLWLO.s 			page 45


C:\Users\test\AppData\Local\Temp\ccMFLWLO.s:779    .text.eclic_set_nlbits:0000000000000000 eclic_set_nlbits
C:\Users\test\AppData\Local\Temp\ccMFLWLO.s:782    .text.eclic_set_nlbits:0000000000000000 .L0 
C:\Users\test\AppData\Local\Temp\ccMFLWLO.s:784    .text.eclic_set_nlbits:0000000000000000 .L0 
C:\Users\test\AppData\Local\Temp\ccMFLWLO.s:785    .text.eclic_set_nlbits:0000000000000000 .L0 
C:\Users\test\AppData\Local\Temp\ccMFLWLO.s:788    .text.eclic_set_nlbits:0000000000000000 .L0 
C:\Users\test\AppData\Local\Temp\ccMFLWLO.s:789    .text.eclic_set_nlbits:0000000000000000 .L0 
C:\Users\test\AppData\Local\Temp\ccMFLWLO.s:790    .text.eclic_set_nlbits:0000000000000000 .L0 
C:\Users\test\AppData\Local\Temp\ccMFLWLO.s:796    .text.eclic_set_nlbits:0000000000000008 .L0 
C:\Users\test\AppData\Local\Temp\ccMFLWLO.s:797    .text.eclic_set_nlbits:0000000000000008 .L0 
C:\Users\test\AppData\Local\Temp\ccMFLWLO.s:800    .text.eclic_set_nlbits:000000000000000a .L0 
C:\Users\test\AppData\Local\Temp\ccMFLWLO.s:802    .text.eclic_set_nlbits:000000000000000c .L0 
C:\Users\test\AppData\Local\Temp\ccMFLWLO.s:805    .text.eclic_set_nlbits:0000000000000010 .L0 
C:\Users\test\AppData\Local\Temp\ccMFLWLO.s:810    .text.eclic_set_nlbits:0000000000000012 .L0 
C:\Users\test\AppData\Local\Temp\ccMFLWLO.s:811    .text.eclic_set_nlbits:0000000000000012 .L0 
C:\Users\test\AppData\Local\Temp\ccMFLWLO.s:812    .text.eclic_set_nlbits:0000000000000012 .L0 
C:\Users\test\AppData\Local\Temp\ccMFLWLO.s:817    .text.eclic_set_nlbits:0000000000000016 .L0 
C:\Users\test\AppData\Local\Temp\ccMFLWLO.s:818    .text.eclic_set_nlbits:0000000000000018 .L0 
C:\Users\test\AppData\Local\Temp\ccMFLWLO.s:825    .text.eclic_get_nlbits:0000000000000000 eclic_get_nlbits
C:\Users\test\AppData\Local\Temp\ccMFLWLO.s:828    .text.eclic_get_nlbits:0000000000000000 .L0 
C:\Users\test\AppData\Local\Temp\ccMFLWLO.s:829    .text.eclic_get_nlbits:0000000000000000 .L0 
C:\Users\test\AppData\Local\Temp\ccMFLWLO.s:832    .text.eclic_get_nlbits:0000000000000000 .L0 
C:\Users\test\AppData\Local\Temp\ccMFLWLO.s:833    .text.eclic_get_nlbits:0000000000000000 .L0 
C:\Users\test\AppData\Local\Temp\ccMFLWLO.s:834    .text.eclic_get_nlbits:0000000000000000 .L0 
C:\Users\test\AppData\Local\Temp\ccMFLWLO.s:840    .text.eclic_get_nlbits:0000000000000008 .L0 
C:\Users\test\AppData\Local\Temp\ccMFLWLO.s:841    .text.eclic_get_nlbits:0000000000000008 .L0 
C:\Users\test\AppData\Local\Temp\ccMFLWLO.s:842    .text.eclic_get_nlbits:0000000000000008 .L0 
C:\Users\test\AppData\Local\Temp\ccMFLWLO.s:845    .text.eclic_get_nlbits:000000000000000a .L0 
C:\Users\test\AppData\Local\Temp\ccMFLWLO.s:847    .text.eclic_get_nlbits:000000000000000e .L0 
C:\Users\test\AppData\Local\Temp\ccMFLWLO.s:854    .text.eclic_set_irq_lvl:0000000000000000 eclic_set_irq_lvl
C:\Users\test\AppData\Local\Temp\ccMFLWLO.s:857    .text.eclic_set_irq_lvl:0000000000000000 .L0 
C:\Users\test\AppData\Local\Temp\ccMFLWLO.s:859    .text.eclic_set_irq_lvl:0000000000000000 .L0 
C:\Users\test\AppData\Local\Temp\ccMFLWLO.s:862    .text.eclic_set_irq_lvl:0000000000000000 .L0 
C:\Users\test\AppData\Local\Temp\ccMFLWLO.s:865    .text.eclic_set_irq_lvl:0000000000000000 .L0 
C:\Users\test\AppData\Local\Temp\ccMFLWLO.s:866    .text.eclic_set_irq_lvl:0000000000000000 .L0 
C:\Users\test\AppData\Local\Temp\ccMFLWLO.s:867    .text.eclic_set_irq_lvl:0000000000000000 .L0 
C:\Users\test\AppData\Local\Temp\ccMFLWLO.s:873    .text.eclic_set_irq_lvl:0000000000000008 .L0 
C:\Users\test\AppData\Local\Temp\ccMFLWLO.s:876    .text.eclic_set_irq_lvl:0000000000000008 .L0 
C:\Users\test\AppData\Local\Temp\ccMFLWLO.s:877    .text.eclic_set_irq_lvl:0000000000000008 .L0 
C:\Users\test\AppData\Local\Temp\ccMFLWLO.s:878    .text.eclic_set_irq_lvl:0000000000000008 .L0 
C:\Users\test\AppData\Local\Temp\ccMFLWLO.s:879    .text.eclic_set_irq_lvl:0000000000000008 .L0 
C:\Users\test\AppData\Local\Temp\ccMFLWLO.s:883    .text.eclic_set_irq_lvl:000000000000000a .L0 
C:\Users\test\AppData\Local\Temp\ccMFLWLO.s:886    .text.eclic_set_irq_lvl:000000000000000c .L0 
C:\Users\test\AppData\Local\Temp\ccMFLWLO.s:890    .text.eclic_set_irq_lvl:000000000000000e .L0 
C:\Users\test\AppData\Local\Temp\ccMFLWLO.s:897    .text.eclic_set_irq_lvl:0000000000000016 .L0 
C:\Users\test\AppData\Local\Temp\ccMFLWLO.s:900    .text.eclic_set_irq_lvl:000000000000001c .L0 
C:\Users\test\AppData\Local\Temp\ccMFLWLO.s:903    .text.eclic_set_irq_lvl:000000000000001e .L0 
C:\Users\test\AppData\Local\Temp\ccMFLWLO.s:905    .text.eclic_set_irq_lvl:0000000000000020 .L0 
C:\Users\test\AppData\Local\Temp\ccMFLWLO.s:909    .text.eclic_set_irq_lvl:0000000000000024 .L0 
C:\Users\test\AppData\Local\Temp\ccMFLWLO.s:914    .text.eclic_set_irq_lvl:000000000000002c .L0 
C:\Users\test\AppData\Local\Temp\ccMFLWLO.s:915    .text.eclic_set_irq_lvl:000000000000002c .L0 
C:\Users\test\AppData\Local\Temp\ccMFLWLO.s:917    .text.eclic_set_irq_lvl:0000000000000030 .L0 
C:\Users\test\AppData\Local\Temp\ccMFLWLO.s:920    .text.eclic_set_irq_lvl:0000000000000034 .L0 
C:\Users\test\AppData\Local\Temp\ccMFLWLO.s:922    .text.eclic_set_irq_lvl:0000000000000038 .L0 
C:\Users\test\AppData\Local\Temp\ccMFLWLO.s:927    .text.eclic_set_irq_lvl:000000000000003c .L0 
C:\Users\test\AppData\Local\Temp\ccMFLWLO.s:930    .text.eclic_set_irq_lvl:000000000000003c .L0 
C:\Users\test\AppData\Local\Temp\ccMFLWLO.s:931    .text.eclic_set_irq_lvl:000000000000003c .L0 
C:\Users\test\AppData\Local\Temp\ccMFLWLO.s:932    .text.eclic_set_irq_lvl:000000000000003c .L0 
GAS LISTING C:\Users\test\AppData\Local\Temp\ccMFLWLO.s 			page 46


C:\Users\test\AppData\Local\Temp\ccMFLWLO.s:933    .text.eclic_set_irq_lvl:000000000000003c .L0 
C:\Users\test\AppData\Local\Temp\ccMFLWLO.s:934    .text.eclic_set_irq_lvl:000000000000003c .L0 
C:\Users\test\AppData\Local\Temp\ccMFLWLO.s:936    .text.eclic_set_irq_lvl:0000000000000040 .L0 
C:\Users\test\AppData\Local\Temp\ccMFLWLO.s:942    .text.eclic_set_irq_lvl:0000000000000046 .L0 
C:\Users\test\AppData\Local\Temp\ccMFLWLO.s:943    .text.eclic_set_irq_lvl:0000000000000046 .L0 
C:\Users\test\AppData\Local\Temp\ccMFLWLO.s:948    .text.eclic_set_irq_lvl:000000000000004a .L0 
C:\Users\test\AppData\Local\Temp\ccMFLWLO.s:949    .text.eclic_set_irq_lvl:000000000000004c .L0 
C:\Users\test\AppData\Local\Temp\ccMFLWLO.s:956    .text.eclic_get_irq_lvl:0000000000000000 eclic_get_irq_lvl
C:\Users\test\AppData\Local\Temp\ccMFLWLO.s:959    .text.eclic_get_irq_lvl:0000000000000000 .L0 
C:\Users\test\AppData\Local\Temp\ccMFLWLO.s:961    .text.eclic_get_irq_lvl:0000000000000000 .L0 
C:\Users\test\AppData\Local\Temp\ccMFLWLO.s:964    .text.eclic_get_irq_lvl:0000000000000000 .L0 
C:\Users\test\AppData\Local\Temp\ccMFLWLO.s:967    .text.eclic_get_irq_lvl:0000000000000000 .L0 
C:\Users\test\AppData\Local\Temp\ccMFLWLO.s:968    .text.eclic_get_irq_lvl:0000000000000000 .L0 
C:\Users\test\AppData\Local\Temp\ccMFLWLO.s:969    .text.eclic_get_irq_lvl:0000000000000000 .L0 
C:\Users\test\AppData\Local\Temp\ccMFLWLO.s:977    .text.eclic_get_irq_lvl:0000000000000004 .L0 
C:\Users\test\AppData\Local\Temp\ccMFLWLO.s:985    .text.eclic_get_irq_lvl:0000000000000008 .L0 
C:\Users\test\AppData\Local\Temp\ccMFLWLO.s:990    .text.eclic_get_irq_lvl:000000000000000c .L0 
C:\Users\test\AppData\Local\Temp\ccMFLWLO.s:993    .text.eclic_get_irq_lvl:000000000000000c .L0 
C:\Users\test\AppData\Local\Temp\ccMFLWLO.s:994    .text.eclic_get_irq_lvl:000000000000000c .L0 
C:\Users\test\AppData\Local\Temp\ccMFLWLO.s:997    .text.eclic_get_irq_lvl:000000000000000c .L0 
C:\Users\test\AppData\Local\Temp\ccMFLWLO.s:998    .text.eclic_get_irq_lvl:000000000000000c .L0 
C:\Users\test\AppData\Local\Temp\ccMFLWLO.s:999    .text.eclic_get_irq_lvl:000000000000000c .L0 
C:\Users\test\AppData\Local\Temp\ccMFLWLO.s:1001   .text.eclic_get_irq_lvl:000000000000000e .L0 
C:\Users\test\AppData\Local\Temp\ccMFLWLO.s:1004   .text.eclic_get_irq_lvl:0000000000000010 .L0 
C:\Users\test\AppData\Local\Temp\ccMFLWLO.s:1006   .text.eclic_get_irq_lvl:0000000000000012 .L0 
C:\Users\test\AppData\Local\Temp\ccMFLWLO.s:1012   .text.eclic_get_irq_lvl:0000000000000016 .L0 
C:\Users\test\AppData\Local\Temp\ccMFLWLO.s:1015   .text.eclic_get_irq_lvl:0000000000000018 .L0 
C:\Users\test\AppData\Local\Temp\ccMFLWLO.s:1019   .text.eclic_get_irq_lvl:000000000000001a .L0 
C:\Users\test\AppData\Local\Temp\ccMFLWLO.s:1023   .text.eclic_get_irq_lvl:000000000000001c .L0 
C:\Users\test\AppData\Local\Temp\ccMFLWLO.s:1028   .text.eclic_get_irq_lvl:0000000000000020 .L0 
C:\Users\test\AppData\Local\Temp\ccMFLWLO.s:1029   .text.eclic_get_irq_lvl:0000000000000020 .L0 
C:\Users\test\AppData\Local\Temp\ccMFLWLO.s:1037   .text.eclic_get_irq_lvl:000000000000002e .L0 
C:\Users\test\AppData\Local\Temp\ccMFLWLO.s:1038   .text.eclic_get_irq_lvl:000000000000002e .L0 
C:\Users\test\AppData\Local\Temp\ccMFLWLO.s:1039   .text.eclic_get_irq_lvl:000000000000002e .L0 
C:\Users\test\AppData\Local\Temp\ccMFLWLO.s:1042   .text.eclic_get_irq_lvl:0000000000000032 .L0 
C:\Users\test\AppData\Local\Temp\ccMFLWLO.s:1044   .text.eclic_get_irq_lvl:0000000000000036 .L0 
C:\Users\test\AppData\Local\Temp\ccMFLWLO.s:1046   .text.eclic_get_irq_lvl:000000000000003c .L0 
C:\Users\test\AppData\Local\Temp\ccMFLWLO.s:1053   .text.eclic_set_irq_lvl_abs:0000000000000000 eclic_set_irq_lvl_abs
C:\Users\test\AppData\Local\Temp\ccMFLWLO.s:1056   .text.eclic_set_irq_lvl_abs:0000000000000000 .L0 
C:\Users\test\AppData\Local\Temp\ccMFLWLO.s:1058   .text.eclic_set_irq_lvl_abs:0000000000000000 .L0 
C:\Users\test\AppData\Local\Temp\ccMFLWLO.s:1061   .text.eclic_set_irq_lvl_abs:0000000000000000 .L0 
C:\Users\test\AppData\Local\Temp\ccMFLWLO.s:1064   .text.eclic_set_irq_lvl_abs:0000000000000000 .L0 
C:\Users\test\AppData\Local\Temp\ccMFLWLO.s:1065   .text.eclic_set_irq_lvl_abs:0000000000000000 .L0 
C:\Users\test\AppData\Local\Temp\ccMFLWLO.s:1066   .text.eclic_set_irq_lvl_abs:0000000000000000 .L0 
C:\Users\test\AppData\Local\Temp\ccMFLWLO.s:1072   .text.eclic_set_irq_lvl_abs:0000000000000008 .L0 
C:\Users\test\AppData\Local\Temp\ccMFLWLO.s:1075   .text.eclic_set_irq_lvl_abs:0000000000000008 .L0 
C:\Users\test\AppData\Local\Temp\ccMFLWLO.s:1076   .text.eclic_set_irq_lvl_abs:0000000000000008 .L0 
C:\Users\test\AppData\Local\Temp\ccMFLWLO.s:1077   .text.eclic_set_irq_lvl_abs:0000000000000008 .L0 
C:\Users\test\AppData\Local\Temp\ccMFLWLO.s:1078   .text.eclic_set_irq_lvl_abs:0000000000000008 .L0 
C:\Users\test\AppData\Local\Temp\ccMFLWLO.s:1082   .text.eclic_set_irq_lvl_abs:000000000000000a .L0 
C:\Users\test\AppData\Local\Temp\ccMFLWLO.s:1085   .text.eclic_set_irq_lvl_abs:000000000000000c .L0 
C:\Users\test\AppData\Local\Temp\ccMFLWLO.s:1089   .text.eclic_set_irq_lvl_abs:000000000000000e .L0 
C:\Users\test\AppData\Local\Temp\ccMFLWLO.s:1096   .text.eclic_set_irq_lvl_abs:0000000000000016 .L0 
C:\Users\test\AppData\Local\Temp\ccMFLWLO.s:1099   .text.eclic_set_irq_lvl_abs:000000000000001c .L0 
C:\Users\test\AppData\Local\Temp\ccMFLWLO.s:1102   .text.eclic_set_irq_lvl_abs:000000000000001e .L0 
C:\Users\test\AppData\Local\Temp\ccMFLWLO.s:1104   .text.eclic_set_irq_lvl_abs:0000000000000020 .L0 
C:\Users\test\AppData\Local\Temp\ccMFLWLO.s:1108   .text.eclic_set_irq_lvl_abs:0000000000000024 .L0 
GAS LISTING C:\Users\test\AppData\Local\Temp\ccMFLWLO.s 			page 47


C:\Users\test\AppData\Local\Temp\ccMFLWLO.s:1113   .text.eclic_set_irq_lvl_abs:0000000000000028 .L0 
C:\Users\test\AppData\Local\Temp\ccMFLWLO.s:1116   .text.eclic_set_irq_lvl_abs:0000000000000028 .L0 
C:\Users\test\AppData\Local\Temp\ccMFLWLO.s:1117   .text.eclic_set_irq_lvl_abs:0000000000000028 .L0 
C:\Users\test\AppData\Local\Temp\ccMFLWLO.s:1118   .text.eclic_set_irq_lvl_abs:0000000000000028 .L0 
C:\Users\test\AppData\Local\Temp\ccMFLWLO.s:1119   .text.eclic_set_irq_lvl_abs:0000000000000028 .L0 
C:\Users\test\AppData\Local\Temp\ccMFLWLO.s:1120   .text.eclic_set_irq_lvl_abs:0000000000000028 .L0 
C:\Users\test\AppData\Local\Temp\ccMFLWLO.s:1122   .text.eclic_set_irq_lvl_abs:000000000000002a .L0 
C:\Users\test\AppData\Local\Temp\ccMFLWLO.s:1125   .text.eclic_set_irq_lvl_abs:000000000000002e .L0 
C:\Users\test\AppData\Local\Temp\ccMFLWLO.s:1127   .text.eclic_set_irq_lvl_abs:0000000000000032 .L0 
C:\Users\test\AppData\Local\Temp\ccMFLWLO.s:1129   .text.eclic_set_irq_lvl_abs:0000000000000034 .L0 
C:\Users\test\AppData\Local\Temp\ccMFLWLO.s:1131   .text.eclic_set_irq_lvl_abs:0000000000000038 .L0 
C:\Users\test\AppData\Local\Temp\ccMFLWLO.s:1134   .text.eclic_set_irq_lvl_abs:000000000000003c .L0 
C:\Users\test\AppData\Local\Temp\ccMFLWLO.s:1140   .text.eclic_set_irq_lvl_abs:0000000000000042 .L0 
C:\Users\test\AppData\Local\Temp\ccMFLWLO.s:1141   .text.eclic_set_irq_lvl_abs:0000000000000042 .L0 
C:\Users\test\AppData\Local\Temp\ccMFLWLO.s:1146   .text.eclic_set_irq_lvl_abs:0000000000000046 .L0 
C:\Users\test\AppData\Local\Temp\ccMFLWLO.s:1147   .text.eclic_set_irq_lvl_abs:0000000000000048 .L0 
C:\Users\test\AppData\Local\Temp\ccMFLWLO.s:1154   .text.eclic_get_irq_lvl_abs:0000000000000000 eclic_get_irq_lvl_abs
C:\Users\test\AppData\Local\Temp\ccMFLWLO.s:1157   .text.eclic_get_irq_lvl_abs:0000000000000000 .L0 
C:\Users\test\AppData\Local\Temp\ccMFLWLO.s:1159   .text.eclic_get_irq_lvl_abs:0000000000000000 .L0 
C:\Users\test\AppData\Local\Temp\ccMFLWLO.s:1162   .text.eclic_get_irq_lvl_abs:0000000000000000 .L0 
C:\Users\test\AppData\Local\Temp\ccMFLWLO.s:1165   .text.eclic_get_irq_lvl_abs:0000000000000000 .L0 
C:\Users\test\AppData\Local\Temp\ccMFLWLO.s:1166   .text.eclic_get_irq_lvl_abs:0000000000000000 .L0 
C:\Users\test\AppData\Local\Temp\ccMFLWLO.s:1167   .text.eclic_get_irq_lvl_abs:0000000000000000 .L0 
C:\Users\test\AppData\Local\Temp\ccMFLWLO.s:1175   .text.eclic_get_irq_lvl_abs:0000000000000004 .L0 
C:\Users\test\AppData\Local\Temp\ccMFLWLO.s:1183   .text.eclic_get_irq_lvl_abs:0000000000000008 .L0 
C:\Users\test\AppData\Local\Temp\ccMFLWLO.s:1188   .text.eclic_get_irq_lvl_abs:000000000000000c .L0 
C:\Users\test\AppData\Local\Temp\ccMFLWLO.s:1191   .text.eclic_get_irq_lvl_abs:000000000000000c .L0 
C:\Users\test\AppData\Local\Temp\ccMFLWLO.s:1192   .text.eclic_get_irq_lvl_abs:000000000000000c .L0 
C:\Users\test\AppData\Local\Temp\ccMFLWLO.s:1195   .text.eclic_get_irq_lvl_abs:000000000000000c .L0 
C:\Users\test\AppData\Local\Temp\ccMFLWLO.s:1196   .text.eclic_get_irq_lvl_abs:000000000000000c .L0 
C:\Users\test\AppData\Local\Temp\ccMFLWLO.s:1197   .text.eclic_get_irq_lvl_abs:000000000000000c .L0 
C:\Users\test\AppData\Local\Temp\ccMFLWLO.s:1199   .text.eclic_get_irq_lvl_abs:000000000000000e .L0 
C:\Users\test\AppData\Local\Temp\ccMFLWLO.s:1202   .text.eclic_get_irq_lvl_abs:0000000000000010 .L0 
C:\Users\test\AppData\Local\Temp\ccMFLWLO.s:1204   .text.eclic_get_irq_lvl_abs:0000000000000012 .L0 
C:\Users\test\AppData\Local\Temp\ccMFLWLO.s:1210   .text.eclic_get_irq_lvl_abs:0000000000000016 .L0 
C:\Users\test\AppData\Local\Temp\ccMFLWLO.s:1213   .text.eclic_get_irq_lvl_abs:0000000000000018 .L0 
C:\Users\test\AppData\Local\Temp\ccMFLWLO.s:1217   .text.eclic_get_irq_lvl_abs:000000000000001a .L0 
C:\Users\test\AppData\Local\Temp\ccMFLWLO.s:1221   .text.eclic_get_irq_lvl_abs:000000000000001c .L0 
C:\Users\test\AppData\Local\Temp\ccMFLWLO.s:1226   .text.eclic_get_irq_lvl_abs:0000000000000020 .L0 
C:\Users\test\AppData\Local\Temp\ccMFLWLO.s:1227   .text.eclic_get_irq_lvl_abs:0000000000000020 .L0 
C:\Users\test\AppData\Local\Temp\ccMFLWLO.s:1228   .text.eclic_get_irq_lvl_abs:0000000000000020 .L0 
C:\Users\test\AppData\Local\Temp\ccMFLWLO.s:1229   .text.eclic_get_irq_lvl_abs:0000000000000020 .L0 
C:\Users\test\AppData\Local\Temp\ccMFLWLO.s:1236   .text.eclic_get_irq_lvl_abs:0000000000000030 .L0 
C:\Users\test\AppData\Local\Temp\ccMFLWLO.s:1238   .text.eclic_get_irq_lvl_abs:0000000000000034 .L0 
C:\Users\test\AppData\Local\Temp\ccMFLWLO.s:1240   .text.eclic_get_irq_lvl_abs:000000000000003a .L0 
C:\Users\test\AppData\Local\Temp\ccMFLWLO.s:1247   .text.eclic_set_irq_priority:0000000000000000 eclic_set_irq_priority
C:\Users\test\AppData\Local\Temp\ccMFLWLO.s:1250   .text.eclic_set_irq_priority:0000000000000000 .L0 
C:\Users\test\AppData\Local\Temp\ccMFLWLO.s:1252   .text.eclic_set_irq_priority:0000000000000000 .L0 
C:\Users\test\AppData\Local\Temp\ccMFLWLO.s:1255   .text.eclic_set_irq_priority:0000000000000000 .L0 
C:\Users\test\AppData\Local\Temp\ccMFLWLO.s:1258   .text.eclic_set_irq_priority:0000000000000000 .L0 
C:\Users\test\AppData\Local\Temp\ccMFLWLO.s:1259   .text.eclic_set_irq_priority:0000000000000000 .L0 
C:\Users\test\AppData\Local\Temp\ccMFLWLO.s:1260   .text.eclic_set_irq_priority:0000000000000000 .L0 
C:\Users\test\AppData\Local\Temp\ccMFLWLO.s:1266   .text.eclic_set_irq_priority:0000000000000008 .L0 
C:\Users\test\AppData\Local\Temp\ccMFLWLO.s:1267   .text.eclic_set_irq_priority:0000000000000008 .L0 
C:\Users\test\AppData\Local\Temp\ccMFLWLO.s:1272   .text.eclic_set_irq_priority:000000000000000a .L0 
C:\Users\test\AppData\Local\Temp\ccMFLWLO.s:1273   .text.eclic_set_irq_priority:000000000000000a .L0 
C:\Users\test\AppData\Local\Temp\ccMFLWLO.s:1274   .text.eclic_set_irq_priority:000000000000000a .L0 
GAS LISTING C:\Users\test\AppData\Local\Temp\ccMFLWLO.s 			page 48


C:\Users\test\AppData\Local\Temp\ccMFLWLO.s:1279   .text.eclic_set_irq_priority:0000000000000010 .L0 
C:\Users\test\AppData\Local\Temp\ccMFLWLO.s:1280   .text.eclic_set_irq_priority:0000000000000010 .L0 
C:\Users\test\AppData\Local\Temp\ccMFLWLO.s:1282   .text.eclic_set_irq_priority:0000000000000014 .L0 
C:\Users\test\AppData\Local\Temp\ccMFLWLO.s:1285   .text.eclic_set_irq_priority:0000000000000016 .L0 
C:\Users\test\AppData\Local\Temp\ccMFLWLO.s:1288   .text.eclic_set_irq_priority:000000000000001a .L0 
C:\Users\test\AppData\Local\Temp\ccMFLWLO.s:1292   .text.eclic_set_irq_priority:000000000000001e .L0 
C:\Users\test\AppData\Local\Temp\ccMFLWLO.s:1297   .text.eclic_set_irq_priority:0000000000000026 .L0 
C:\Users\test\AppData\Local\Temp\ccMFLWLO.s:1299   .text.eclic_set_irq_priority:000000000000002a .L0 
C:\Users\test\AppData\Local\Temp\ccMFLWLO.s:1301   .text.eclic_set_irq_priority:000000000000002e .L0 
C:\Users\test\AppData\Local\Temp\ccMFLWLO.s:1303   .text.eclic_set_irq_priority:0000000000000032 .L0 
C:\Users\test\AppData\Local\Temp\ccMFLWLO.s:1308   .text.eclic_set_irq_priority:0000000000000036 .L0 
C:\Users\test\AppData\Local\Temp\ccMFLWLO.s:1311   .text.eclic_set_irq_priority:0000000000000036 .L0 
C:\Users\test\AppData\Local\Temp\ccMFLWLO.s:1312   .text.eclic_set_irq_priority:0000000000000036 .L0 
C:\Users\test\AppData\Local\Temp\ccMFLWLO.s:1313   .text.eclic_set_irq_priority:0000000000000036 .L0 
C:\Users\test\AppData\Local\Temp\ccMFLWLO.s:1314   .text.eclic_set_irq_priority:0000000000000036 .L0 
C:\Users\test\AppData\Local\Temp\ccMFLWLO.s:1315   .text.eclic_set_irq_priority:0000000000000036 .L0 
C:\Users\test\AppData\Local\Temp\ccMFLWLO.s:1317   .text.eclic_set_irq_priority:000000000000003a .L0 
C:\Users\test\AppData\Local\Temp\ccMFLWLO.s:1323   .text.eclic_set_irq_priority:0000000000000040 .L0 
C:\Users\test\AppData\Local\Temp\ccMFLWLO.s:1324   .text.eclic_set_irq_priority:0000000000000040 .L0 
C:\Users\test\AppData\Local\Temp\ccMFLWLO.s:1329   .text.eclic_set_irq_priority:0000000000000044 .L0 
C:\Users\test\AppData\Local\Temp\ccMFLWLO.s:1330   .text.eclic_set_irq_priority:0000000000000044 .L0 
C:\Users\test\AppData\Local\Temp\ccMFLWLO.s:1334   .text.eclic_set_irq_priority:0000000000000046 .L0 
C:\Users\test\AppData\Local\Temp\ccMFLWLO.s:1337   .text.eclic_set_irq_priority:0000000000000048 .L0 
C:\Users\test\AppData\Local\Temp\ccMFLWLO.s:1338   .text.eclic_set_irq_priority:000000000000004a .L0 
C:\Users\test\AppData\Local\Temp\ccMFLWLO.s:1345   .text.eclic_get_irq_priority:0000000000000000 eclic_get_irq_priority
C:\Users\test\AppData\Local\Temp\ccMFLWLO.s:1348   .text.eclic_get_irq_priority:0000000000000000 .L0 
C:\Users\test\AppData\Local\Temp\ccMFLWLO.s:1350   .text.eclic_get_irq_priority:0000000000000000 .L0 
C:\Users\test\AppData\Local\Temp\ccMFLWLO.s:1353   .text.eclic_get_irq_priority:0000000000000000 .L0 
C:\Users\test\AppData\Local\Temp\ccMFLWLO.s:1356   .text.eclic_get_irq_priority:0000000000000000 .L0 
C:\Users\test\AppData\Local\Temp\ccMFLWLO.s:1357   .text.eclic_get_irq_priority:0000000000000000 .L0 
C:\Users\test\AppData\Local\Temp\ccMFLWLO.s:1358   .text.eclic_get_irq_priority:0000000000000000 .L0 
C:\Users\test\AppData\Local\Temp\ccMFLWLO.s:1366   .text.eclic_get_irq_priority:0000000000000004 .L0 
C:\Users\test\AppData\Local\Temp\ccMFLWLO.s:1374   .text.eclic_get_irq_priority:0000000000000008 .L0 
C:\Users\test\AppData\Local\Temp\ccMFLWLO.s:1379   .text.eclic_get_irq_priority:000000000000000c .L0 
C:\Users\test\AppData\Local\Temp\ccMFLWLO.s:1382   .text.eclic_get_irq_priority:000000000000000c .L0 
C:\Users\test\AppData\Local\Temp\ccMFLWLO.s:1383   .text.eclic_get_irq_priority:000000000000000c .L0 
C:\Users\test\AppData\Local\Temp\ccMFLWLO.s:1386   .text.eclic_get_irq_priority:000000000000000c .L0 
C:\Users\test\AppData\Local\Temp\ccMFLWLO.s:1387   .text.eclic_get_irq_priority:000000000000000c .L0 
C:\Users\test\AppData\Local\Temp\ccMFLWLO.s:1388   .text.eclic_get_irq_priority:000000000000000c .L0 
C:\Users\test\AppData\Local\Temp\ccMFLWLO.s:1390   .text.eclic_get_irq_priority:000000000000000e .L0 
C:\Users\test\AppData\Local\Temp\ccMFLWLO.s:1393   .text.eclic_get_irq_priority:0000000000000010 .L0 
C:\Users\test\AppData\Local\Temp\ccMFLWLO.s:1395   .text.eclic_get_irq_priority:0000000000000012 .L0 
C:\Users\test\AppData\Local\Temp\ccMFLWLO.s:1401   .text.eclic_get_irq_priority:0000000000000016 .L0 
C:\Users\test\AppData\Local\Temp\ccMFLWLO.s:1404   .text.eclic_get_irq_priority:0000000000000018 .L0 
C:\Users\test\AppData\Local\Temp\ccMFLWLO.s:1408   .text.eclic_get_irq_priority:000000000000001a .L0 
C:\Users\test\AppData\Local\Temp\ccMFLWLO.s:1412   .text.eclic_get_irq_priority:000000000000001c .L0 
C:\Users\test\AppData\Local\Temp\ccMFLWLO.s:1417   .text.eclic_get_irq_priority:0000000000000020 .L0 
C:\Users\test\AppData\Local\Temp\ccMFLWLO.s:1418   .text.eclic_get_irq_priority:0000000000000020 .L0 
C:\Users\test\AppData\Local\Temp\ccMFLWLO.s:1425   .text.eclic_get_irq_priority:000000000000002c .L0 
C:\Users\test\AppData\Local\Temp\ccMFLWLO.s:1426   .text.eclic_get_irq_priority:000000000000002c .L0 
C:\Users\test\AppData\Local\Temp\ccMFLWLO.s:1427   .text.eclic_get_irq_priority:000000000000002c .L0 
C:\Users\test\AppData\Local\Temp\ccMFLWLO.s:1430   .text.eclic_get_irq_priority:0000000000000030 .L0 
C:\Users\test\AppData\Local\Temp\ccMFLWLO.s:1432   .text.eclic_get_irq_priority:0000000000000032 .L0 
C:\Users\test\AppData\Local\Temp\ccMFLWLO.s:1435   .text.eclic_get_irq_priority:000000000000003a .L0 
C:\Users\test\AppData\Local\Temp\ccMFLWLO.s:1437   .text.eclic_get_irq_priority:0000000000000040 .L0 
C:\Users\test\AppData\Local\Temp\ccMFLWLO.s:1444   .text.eclic_mode_enable:0000000000000000 eclic_mode_enable
C:\Users\test\AppData\Local\Temp\ccMFLWLO.s:1447   .text.eclic_mode_enable:0000000000000000 .L0 
GAS LISTING C:\Users\test\AppData\Local\Temp\ccMFLWLO.s 			page 49


C:\Users\test\AppData\Local\Temp\ccMFLWLO.s:1448   .text.eclic_mode_enable:0000000000000000 .L0 
C:\Users\test\AppData\Local\Temp\ccMFLWLO.s:1450   .text.eclic_mode_enable:0000000000000000 .L0 
C:\Users\test\AppData\Local\Temp\ccMFLWLO.s:1451   .text.eclic_mode_enable:0000000000000000 .L0 
arch/riscv/mach-gd32vf10x/system/n200_func.c:329    .text.eclic_mode_enable:0000000000000000 .L0 
C:\Users\test\AppData\Local\Temp\ccMFLWLO.s:1460   .text.eclic_mode_enable:0000000000000004 .L0 
C:\Users\test\AppData\Local\Temp\ccMFLWLO.s:1461   .text.eclic_mode_enable:0000000000000004 .L0 
C:\Users\test\AppData\Local\Temp\ccMFLWLO.s:1462   .text.eclic_mode_enable:0000000000000004 .L0 
C:\Users\test\AppData\Local\Temp\ccMFLWLO.s:1465   .text.eclic_mode_enable:0000000000000008 .L0 
C:\Users\test\AppData\Local\Temp\ccMFLWLO.s:1466   .text.eclic_mode_enable:0000000000000008 .L0 
C:\Users\test\AppData\Local\Temp\ccMFLWLO.s:1467   .text.eclic_mode_enable:0000000000000008 .L0 
C:\Users\test\AppData\Local\Temp\ccMFLWLO.s:1468   .text.eclic_mode_enable:0000000000000008 .L0 
arch/riscv/mach-gd32vf10x/system/n200_func.c:332    .text.eclic_mode_enable:000000000000000c .L0 
C:\Users\test\AppData\Local\Temp\ccMFLWLO.s:1477   .text.eclic_mode_enable:0000000000000010 .L0 
C:\Users\test\AppData\Local\Temp\ccMFLWLO.s:1478   .text.eclic_mode_enable:0000000000000012 .L0 
C:\Users\test\AppData\Local\Temp\ccMFLWLO.s:1485   .text.eclic_set_vmode:0000000000000000 eclic_set_vmode
C:\Users\test\AppData\Local\Temp\ccMFLWLO.s:1488   .text.eclic_set_vmode:0000000000000000 .L0 
C:\Users\test\AppData\Local\Temp\ccMFLWLO.s:1490   .text.eclic_set_vmode:0000000000000000 .L0 
C:\Users\test\AppData\Local\Temp\ccMFLWLO.s:1493   .text.eclic_set_vmode:0000000000000000 .L0 
C:\Users\test\AppData\Local\Temp\ccMFLWLO.s:1494   .text.eclic_set_vmode:0000000000000000 .L0 
C:\Users\test\AppData\Local\Temp\ccMFLWLO.s:1495   .text.eclic_set_vmode:0000000000000000 .L0 
C:\Users\test\AppData\Local\Temp\ccMFLWLO.s:1498   .text.eclic_set_vmode:0000000000000006 .L0 
C:\Users\test\AppData\Local\Temp\ccMFLWLO.s:1501   .text.eclic_set_vmode:0000000000000008 .L0 
C:\Users\test\AppData\Local\Temp\ccMFLWLO.s:1503   .text.eclic_set_vmode:000000000000000a .L0 
C:\Users\test\AppData\Local\Temp\ccMFLWLO.s:1508   .text.eclic_set_vmode:000000000000000e .L0 
C:\Users\test\AppData\Local\Temp\ccMFLWLO.s:1509   .text.eclic_set_vmode:000000000000000e .L0 
C:\Users\test\AppData\Local\Temp\ccMFLWLO.s:1514   .text.eclic_set_vmode:0000000000000012 .L0 
C:\Users\test\AppData\Local\Temp\ccMFLWLO.s:1515   .text.eclic_set_vmode:0000000000000012 .L0 
C:\Users\test\AppData\Local\Temp\ccMFLWLO.s:1516   .text.eclic_set_vmode:0000000000000012 .L0 
C:\Users\test\AppData\Local\Temp\ccMFLWLO.s:1521   .text.eclic_set_vmode:0000000000000016 .L0 
C:\Users\test\AppData\Local\Temp\ccMFLWLO.s:1522   .text.eclic_set_vmode:0000000000000018 .L0 
C:\Users\test\AppData\Local\Temp\ccMFLWLO.s:1529   .text.eclic_set_nonvmode:0000000000000000 eclic_set_nonvmode
C:\Users\test\AppData\Local\Temp\ccMFLWLO.s:1532   .text.eclic_set_nonvmode:0000000000000000 .L0 
C:\Users\test\AppData\Local\Temp\ccMFLWLO.s:1534   .text.eclic_set_nonvmode:0000000000000000 .L0 
C:\Users\test\AppData\Local\Temp\ccMFLWLO.s:1537   .text.eclic_set_nonvmode:0000000000000000 .L0 
C:\Users\test\AppData\Local\Temp\ccMFLWLO.s:1538   .text.eclic_set_nonvmode:0000000000000000 .L0 
C:\Users\test\AppData\Local\Temp\ccMFLWLO.s:1539   .text.eclic_set_nonvmode:0000000000000000 .L0 
C:\Users\test\AppData\Local\Temp\ccMFLWLO.s:1542   .text.eclic_set_nonvmode:0000000000000006 .L0 
C:\Users\test\AppData\Local\Temp\ccMFLWLO.s:1545   .text.eclic_set_nonvmode:0000000000000008 .L0 
C:\Users\test\AppData\Local\Temp\ccMFLWLO.s:1547   .text.eclic_set_nonvmode:000000000000000a .L0 
C:\Users\test\AppData\Local\Temp\ccMFLWLO.s:1552   .text.eclic_set_nonvmode:000000000000000e .L0 
C:\Users\test\AppData\Local\Temp\ccMFLWLO.s:1553   .text.eclic_set_nonvmode:000000000000000e .L0 
C:\Users\test\AppData\Local\Temp\ccMFLWLO.s:1558   .text.eclic_set_nonvmode:0000000000000012 .L0 
C:\Users\test\AppData\Local\Temp\ccMFLWLO.s:1559   .text.eclic_set_nonvmode:0000000000000012 .L0 
C:\Users\test\AppData\Local\Temp\ccMFLWLO.s:1560   .text.eclic_set_nonvmode:0000000000000012 .L0 
C:\Users\test\AppData\Local\Temp\ccMFLWLO.s:1565   .text.eclic_set_nonvmode:0000000000000016 .L0 
C:\Users\test\AppData\Local\Temp\ccMFLWLO.s:1566   .text.eclic_set_nonvmode:0000000000000018 .L0 
C:\Users\test\AppData\Local\Temp\ccMFLWLO.s:1573   .text.eclic_set_level_trig:0000000000000000 eclic_set_level_trig
C:\Users\test\AppData\Local\Temp\ccMFLWLO.s:1576   .text.eclic_set_level_trig:0000000000000000 .L0 
C:\Users\test\AppData\Local\Temp\ccMFLWLO.s:1578   .text.eclic_set_level_trig:0000000000000000 .L0 
C:\Users\test\AppData\Local\Temp\ccMFLWLO.s:1581   .text.eclic_set_level_trig:0000000000000000 .L0 
C:\Users\test\AppData\Local\Temp\ccMFLWLO.s:1582   .text.eclic_set_level_trig:0000000000000000 .L0 
C:\Users\test\AppData\Local\Temp\ccMFLWLO.s:1583   .text.eclic_set_level_trig:0000000000000000 .L0 
C:\Users\test\AppData\Local\Temp\ccMFLWLO.s:1586   .text.eclic_set_level_trig:0000000000000006 .L0 
C:\Users\test\AppData\Local\Temp\ccMFLWLO.s:1589   .text.eclic_set_level_trig:0000000000000008 .L0 
C:\Users\test\AppData\Local\Temp\ccMFLWLO.s:1591   .text.eclic_set_level_trig:000000000000000a .L0 
C:\Users\test\AppData\Local\Temp\ccMFLWLO.s:1596   .text.eclic_set_level_trig:000000000000000e .L0 
C:\Users\test\AppData\Local\Temp\ccMFLWLO.s:1597   .text.eclic_set_level_trig:000000000000000e .L0 
GAS LISTING C:\Users\test\AppData\Local\Temp\ccMFLWLO.s 			page 50


C:\Users\test\AppData\Local\Temp\ccMFLWLO.s:1602   .text.eclic_set_level_trig:0000000000000012 .L0 
C:\Users\test\AppData\Local\Temp\ccMFLWLO.s:1603   .text.eclic_set_level_trig:0000000000000012 .L0 
C:\Users\test\AppData\Local\Temp\ccMFLWLO.s:1604   .text.eclic_set_level_trig:0000000000000012 .L0 
C:\Users\test\AppData\Local\Temp\ccMFLWLO.s:1609   .text.eclic_set_level_trig:0000000000000016 .L0 
C:\Users\test\AppData\Local\Temp\ccMFLWLO.s:1610   .text.eclic_set_level_trig:0000000000000018 .L0 
C:\Users\test\AppData\Local\Temp\ccMFLWLO.s:1617   .text.eclic_set_posedge_trig:0000000000000000 eclic_set_posedge_trig
C:\Users\test\AppData\Local\Temp\ccMFLWLO.s:1620   .text.eclic_set_posedge_trig:0000000000000000 .L0 
C:\Users\test\AppData\Local\Temp\ccMFLWLO.s:1622   .text.eclic_set_posedge_trig:0000000000000000 .L0 
C:\Users\test\AppData\Local\Temp\ccMFLWLO.s:1625   .text.eclic_set_posedge_trig:0000000000000000 .L0 
C:\Users\test\AppData\Local\Temp\ccMFLWLO.s:1626   .text.eclic_set_posedge_trig:0000000000000000 .L0 
C:\Users\test\AppData\Local\Temp\ccMFLWLO.s:1627   .text.eclic_set_posedge_trig:0000000000000000 .L0 
C:\Users\test\AppData\Local\Temp\ccMFLWLO.s:1630   .text.eclic_set_posedge_trig:0000000000000006 .L0 
C:\Users\test\AppData\Local\Temp\ccMFLWLO.s:1633   .text.eclic_set_posedge_trig:0000000000000008 .L0 
C:\Users\test\AppData\Local\Temp\ccMFLWLO.s:1635   .text.eclic_set_posedge_trig:000000000000000a .L0 
C:\Users\test\AppData\Local\Temp\ccMFLWLO.s:1640   .text.eclic_set_posedge_trig:000000000000000e .L0 
C:\Users\test\AppData\Local\Temp\ccMFLWLO.s:1641   .text.eclic_set_posedge_trig:000000000000000e .L0 
C:\Users\test\AppData\Local\Temp\ccMFLWLO.s:1642   .text.eclic_set_posedge_trig:000000000000000e .L0 
C:\Users\test\AppData\Local\Temp\ccMFLWLO.s:1647   .text.eclic_set_posedge_trig:0000000000000012 .L0 
C:\Users\test\AppData\Local\Temp\ccMFLWLO.s:1648   .text.eclic_set_posedge_trig:0000000000000012 .L0 
C:\Users\test\AppData\Local\Temp\ccMFLWLO.s:1649   .text.eclic_set_posedge_trig:0000000000000012 .L0 
C:\Users\test\AppData\Local\Temp\ccMFLWLO.s:1654   .text.eclic_set_posedge_trig:0000000000000016 .L0 
C:\Users\test\AppData\Local\Temp\ccMFLWLO.s:1655   .text.eclic_set_posedge_trig:0000000000000018 .L0 
C:\Users\test\AppData\Local\Temp\ccMFLWLO.s:1662   .text.eclic_set_negedge_trig:0000000000000000 eclic_set_negedge_trig
C:\Users\test\AppData\Local\Temp\ccMFLWLO.s:1665   .text.eclic_set_negedge_trig:0000000000000000 .L0 
C:\Users\test\AppData\Local\Temp\ccMFLWLO.s:1667   .text.eclic_set_negedge_trig:0000000000000000 .L0 
C:\Users\test\AppData\Local\Temp\ccMFLWLO.s:1670   .text.eclic_set_negedge_trig:0000000000000000 .L0 
C:\Users\test\AppData\Local\Temp\ccMFLWLO.s:1671   .text.eclic_set_negedge_trig:0000000000000000 .L0 
C:\Users\test\AppData\Local\Temp\ccMFLWLO.s:1672   .text.eclic_set_negedge_trig:0000000000000000 .L0 
C:\Users\test\AppData\Local\Temp\ccMFLWLO.s:1675   .text.eclic_set_negedge_trig:0000000000000006 .L0 
C:\Users\test\AppData\Local\Temp\ccMFLWLO.s:1678   .text.eclic_set_negedge_trig:0000000000000008 .L0 
C:\Users\test\AppData\Local\Temp\ccMFLWLO.s:1680   .text.eclic_set_negedge_trig:000000000000000a .L0 
C:\Users\test\AppData\Local\Temp\ccMFLWLO.s:1685   .text.eclic_set_negedge_trig:000000000000000e .L0 
C:\Users\test\AppData\Local\Temp\ccMFLWLO.s:1686   .text.eclic_set_negedge_trig:000000000000000e .L0 
C:\Users\test\AppData\Local\Temp\ccMFLWLO.s:1687   .text.eclic_set_negedge_trig:000000000000000e .L0 
C:\Users\test\AppData\Local\Temp\ccMFLWLO.s:1692   .text.eclic_set_negedge_trig:0000000000000012 .L0 
C:\Users\test\AppData\Local\Temp\ccMFLWLO.s:1693   .text.eclic_set_negedge_trig:0000000000000012 .L0 
C:\Users\test\AppData\Local\Temp\ccMFLWLO.s:1694   .text.eclic_set_negedge_trig:0000000000000012 .L0 
C:\Users\test\AppData\Local\Temp\ccMFLWLO.s:1699   .text.eclic_set_negedge_trig:0000000000000016 .L0 
C:\Users\test\AppData\Local\Temp\ccMFLWLO.s:1700   .text.eclic_set_negedge_trig:0000000000000018 .L0 
C:\Users\test\AppData\Local\Temp\ccMFLWLO.s:38     .text.pmp_open_all_space:0000000000000012 .L0 
C:\Users\test\AppData\Local\Temp\ccMFLWLO.s:84     .text.switch_m2u_mode:000000000000001c .L0 
C:\Users\test\AppData\Local\Temp\ccMFLWLO.s:101    .text.mtime_lo:0000000000000008 .L0 
C:\Users\test\AppData\Local\Temp\ccMFLWLO.s:118    .text.mtime_hi:0000000000000008 .L0 
C:\Users\test\AppData\Local\Temp\ccMFLWLO.s:171    .text.get_timer_value:0000000000000010 .L0 
C:\Users\test\AppData\Local\Temp\ccMFLWLO.s:189    .text.get_timer_freq:000000000000000c .L0 
C:\Users\test\AppData\Local\Temp\ccMFLWLO.s:244    .text.get_instret_value:0000000000000012 .L0 
C:\Users\test\AppData\Local\Temp\ccMFLWLO.s:299    .text.get_cycle_value:0000000000000012 .L0 
C:\Users\test\AppData\Local\Temp\ccMFLWLO.s:419    .text.measure_cpu_freq:0000000000000046 .L0 
C:\Users\test\AppData\Local\Temp\ccMFLWLO.s:457    .text.get_cpu_freq:000000000000001e .L0 
C:\Users\test\AppData\Local\Temp\ccMFLWLO.s:505    .text.eclic_init:0000000000000024 .L0 
C:\Users\test\AppData\Local\Temp\ccMFLWLO.s:531    .text.eclic_enable_interrupt:0000000000000012 .L0 
C:\Users\test\AppData\Local\Temp\ccMFLWLO.s:556    .text.eclic_disable_interrupt:0000000000000010 .L0 
C:\Users\test\AppData\Local\Temp\ccMFLWLO.s:581    .text.eclic_set_pending:0000000000000014 .L0 
C:\Users\test\AppData\Local\Temp\ccMFLWLO.s:605    .text.eclic_clear_pending:0000000000000012 .L0 
C:\Users\test\AppData\Local\Temp\ccMFLWLO.s:630    .text.eclic_set_intctrl:0000000000000010 .L0 
C:\Users\test\AppData\Local\Temp\ccMFLWLO.s:655    .text.eclic_get_intctrl:0000000000000010 .L0 
C:\Users\test\AppData\Local\Temp\ccMFLWLO.s:680    .text.eclic_set_intattr:0000000000000010 .L0 
GAS LISTING C:\Users\test\AppData\Local\Temp\ccMFLWLO.s 			page 51


C:\Users\test\AppData\Local\Temp\ccMFLWLO.s:705    .text.eclic_get_intattr:0000000000000010 .L0 
C:\Users\test\AppData\Local\Temp\ccMFLWLO.s:723    .text.eclic_set_cliccfg:000000000000000a .L0 
C:\Users\test\AppData\Local\Temp\ccMFLWLO.s:740    .text.eclic_get_cliccfg:000000000000000a .L0 
C:\Users\test\AppData\Local\Temp\ccMFLWLO.s:758    .text.eclic_set_mth:000000000000000a .L0 
C:\Users\test\AppData\Local\Temp\ccMFLWLO.s:775    .text.eclic_get_mth:000000000000000a .L0 
C:\Users\test\AppData\Local\Temp\ccMFLWLO.s:821    .text.eclic_set_nlbits:0000000000000018 .L0 
C:\Users\test\AppData\Local\Temp\ccMFLWLO.s:850    .text.eclic_get_nlbits:000000000000000e .L0 
C:\Users\test\AppData\Local\Temp\ccMFLWLO.s:952    .text.eclic_set_irq_lvl:000000000000004c .L0 
C:\Users\test\AppData\Local\Temp\ccMFLWLO.s:1049   .text.eclic_get_irq_lvl:000000000000003c .L0 
C:\Users\test\AppData\Local\Temp\ccMFLWLO.s:1150   .text.eclic_set_irq_lvl_abs:0000000000000048 .L0 
C:\Users\test\AppData\Local\Temp\ccMFLWLO.s:1243   .text.eclic_get_irq_lvl_abs:000000000000003a .L0 
C:\Users\test\AppData\Local\Temp\ccMFLWLO.s:1341   .text.eclic_set_irq_priority:000000000000004a .L0 
C:\Users\test\AppData\Local\Temp\ccMFLWLO.s:1440   .text.eclic_get_irq_priority:0000000000000040 .L0 
C:\Users\test\AppData\Local\Temp\ccMFLWLO.s:1481   .text.eclic_mode_enable:0000000000000012 .L0 
C:\Users\test\AppData\Local\Temp\ccMFLWLO.s:1525   .text.eclic_set_vmode:0000000000000018 .L0 
C:\Users\test\AppData\Local\Temp\ccMFLWLO.s:1569   .text.eclic_set_nonvmode:0000000000000018 .L0 
C:\Users\test\AppData\Local\Temp\ccMFLWLO.s:1613   .text.eclic_set_level_trig:0000000000000018 .L0 
C:\Users\test\AppData\Local\Temp\ccMFLWLO.s:1658   .text.eclic_set_posedge_trig:0000000000000018 .L0 
C:\Users\test\AppData\Local\Temp\ccMFLWLO.s:1703   .text.eclic_set_negedge_trig:0000000000000018 .L0 
                     .debug_frame:0000000000000000 .L0 
arch/riscv/mach-gd32vf10x/system/n200_func.c:24     .text.switch_m2u_mode:000000000000001a .L11
arch/riscv/mach-gd32vf10x/system/n200_func.c:21     .text.switch_m2u_mode:000000000000000a .L0 
C:\Users\test\AppData\Local\Temp\ccMFLWLO.s:131    .text.get_timer_value:0000000000000004 .L7
C:\Users\test\AppData\Local\Temp\ccMFLWLO.s:197    .text.get_instret_value:0000000000000000 .L11
C:\Users\test\AppData\Local\Temp\ccMFLWLO.s:252    .text.get_cycle_value:0000000000000000 .L14
C:\Users\test\AppData\Local\Temp\ccMFLWLO.s:336    .text.measure_cpu_freq:0000000000000012 .L17
C:\Users\test\AppData\Local\Temp\ccMFLWLO.s:368    .text.measure_cpu_freq:0000000000000020 .L18
C:\Users\test\AppData\Local\Temp\ccMFLWLO.s:499    .text.eclic_init:0000000000000022 .L23
C:\Users\test\AppData\Local\Temp\ccMFLWLO.s:489    .text.eclic_init:0000000000000018 .L25
C:\Users\test\AppData\Local\Temp\ccMFLWLO.s:893    .text.eclic_set_irq_lvl:0000000000000016 .L42
C:\Users\test\AppData\Local\Temp\ccMFLWLO.s:1032   .text.eclic_get_irq_lvl:000000000000002a .L44
C:\Users\test\AppData\Local\Temp\ccMFLWLO.s:1092   .text.eclic_set_irq_lvl_abs:0000000000000016 .L46
C:\Users\test\AppData\Local\Temp\ccMFLWLO.s:1232   .text.eclic_get_irq_lvl_abs:000000000000002a .L48
C:\Users\test\AppData\Local\Temp\ccMFLWLO.s:1332   .text.eclic_set_irq_priority:0000000000000046 .L51
C:\Users\test\AppData\Local\Temp\ccMFLWLO.s:1421   .text.eclic_get_irq_priority:0000000000000028 .L53
C:\Users\test\AppData\Local\Temp\ccMFLWLO.s:3535   .debug_abbrev:0000000000000000 .Ldebug_abbrev0
C:\Users\test\AppData\Local\Temp\ccMFLWLO.s:5978   .debug_str:0000000000000265 .LASF71
C:\Users\test\AppData\Local\Temp\ccMFLWLO.s:6020   .debug_str:00000000000003fe .LASF72
C:\Users\test\AppData\Local\Temp\ccMFLWLO.s:6032   .debug_str:0000000000000489 .LASF73
C:\Users\test\AppData\Local\Temp\ccMFLWLO.s:5686   .debug_ranges:0000000000000000 .Ldebug_ranges0
C:\Users\test\AppData\Local\Temp\ccMFLWLO.s:5890   .debug_line:0000000000000000 .Ldebug_line0
C:\Users\test\AppData\Local\Temp\ccMFLWLO.s:5984   .debug_str:00000000000002fa .LASF0
C:\Users\test\AppData\Local\Temp\ccMFLWLO.s:5942   .debug_str:0000000000000158 .LASF1
C:\Users\test\AppData\Local\Temp\ccMFLWLO.s:5966   .debug_str:00000000000001fe .LASF2
C:\Users\test\AppData\Local\Temp\ccMFLWLO.s:5914   .debug_str:000000000000008c .LASF3
C:\Users\test\AppData\Local\Temp\ccMFLWLO.s:6004   .debug_str:0000000000000383 .LASF4
C:\Users\test\AppData\Local\Temp\ccMFLWLO.s:5952   .debug_str:00000000000001a8 .LASF5
C:\Users\test\AppData\Local\Temp\ccMFLWLO.s:5924   .debug_str:00000000000000c0 .LASF9
C:\Users\test\AppData\Local\Temp\ccMFLWLO.s:6016   .debug_str:00000000000003d5 .LASF6
C:\Users\test\AppData\Local\Temp\ccMFLWLO.s:5948   .debug_str:0000000000000188 .LASF7
C:\Users\test\AppData\Local\Temp\ccMFLWLO.s:5976   .debug_str:000000000000024e .LASF8
C:\Users\test\AppData\Local\Temp\ccMFLWLO.s:5980   .debug_str:00000000000002df .LASF10
C:\Users\test\AppData\Local\Temp\ccMFLWLO.s:6010   .debug_str:00000000000003a9 .LASF74
C:\Users\test\AppData\Local\Temp\ccMFLWLO.s:5992   .debug_str:0000000000000328 .LASF13
C:\Users\test\AppData\Local\Temp\ccMFLWLO.s:1663   .text.eclic_set_negedge_trig:0000000000000000 .LFB38
C:\Users\test\AppData\Local\Temp\ccMFLWLO.s:1701   .text.eclic_set_negedge_trig:0000000000000018 .LFE38
C:\Users\test\AppData\Local\Temp\ccMFLWLO.s:5958   .debug_str:00000000000001c2 .LASF15
GAS LISTING C:\Users\test\AppData\Local\Temp\ccMFLWLO.s 			page 52


C:\Users\test\AppData\Local\Temp\ccMFLWLO.s:4534   .debug_loc:0000000000000000 .LLST71
C:\Users\test\AppData\Local\Temp\ccMFLWLO.s:5910   .debug_str:0000000000000069 .LASF11
C:\Users\test\AppData\Local\Temp\ccMFLWLO.s:4548   .debug_loc:0000000000000021 .LLST72
C:\Users\test\AppData\Local\Temp\ccMFLWLO.s:5898   .debug_str:0000000000000025 .LASF12
C:\Users\test\AppData\Local\Temp\ccMFLWLO.s:4555   .debug_loc:0000000000000034 .LLST73
C:\Users\test\AppData\Local\Temp\ccMFLWLO.s:1668   .text.eclic_set_negedge_trig:0000000000000000 .LBB227
C:\Users\test\AppData\Local\Temp\ccMFLWLO.s:1683   .text.eclic_set_negedge_trig:000000000000000e .LBE227
C:\Users\test\AppData\Local\Temp\ccMFLWLO.s:1690   .text.eclic_set_negedge_trig:0000000000000012 .LBB229
C:\Users\test\AppData\Local\Temp\ccMFLWLO.s:1697   .text.eclic_set_negedge_trig:0000000000000016 .LBE229
C:\Users\test\AppData\Local\Temp\ccMFLWLO.s:4570   .debug_loc:0000000000000056 .LLST74
C:\Users\test\AppData\Local\Temp\ccMFLWLO.s:4577   .debug_loc:0000000000000069 .LLST75
C:\Users\test\AppData\Local\Temp\ccMFLWLO.s:5972   .debug_str:0000000000000227 .LASF14
C:\Users\test\AppData\Local\Temp\ccMFLWLO.s:1618   .text.eclic_set_posedge_trig:0000000000000000 .LFB37
C:\Users\test\AppData\Local\Temp\ccMFLWLO.s:1656   .text.eclic_set_posedge_trig:0000000000000018 .LFE37
C:\Users\test\AppData\Local\Temp\ccMFLWLO.s:4587   .debug_loc:000000000000007f .LLST66
C:\Users\test\AppData\Local\Temp\ccMFLWLO.s:4601   .debug_loc:00000000000000a0 .LLST67
C:\Users\test\AppData\Local\Temp\ccMFLWLO.s:4608   .debug_loc:00000000000000b3 .LLST68
C:\Users\test\AppData\Local\Temp\ccMFLWLO.s:1623   .text.eclic_set_posedge_trig:0000000000000000 .LBB223
C:\Users\test\AppData\Local\Temp\ccMFLWLO.s:1638   .text.eclic_set_posedge_trig:000000000000000e .LBE223
C:\Users\test\AppData\Local\Temp\ccMFLWLO.s:1645   .text.eclic_set_posedge_trig:0000000000000012 .LBB225
C:\Users\test\AppData\Local\Temp\ccMFLWLO.s:1652   .text.eclic_set_posedge_trig:0000000000000016 .LBE225
C:\Users\test\AppData\Local\Temp\ccMFLWLO.s:4623   .debug_loc:00000000000000d5 .LLST69
C:\Users\test\AppData\Local\Temp\ccMFLWLO.s:4630   .debug_loc:00000000000000e8 .LLST70
C:\Users\test\AppData\Local\Temp\ccMFLWLO.s:5938   .debug_str:000000000000012d .LASF16
C:\Users\test\AppData\Local\Temp\ccMFLWLO.s:1574   .text.eclic_set_level_trig:0000000000000000 .LFB36
C:\Users\test\AppData\Local\Temp\ccMFLWLO.s:1611   .text.eclic_set_level_trig:0000000000000018 .LFE36
C:\Users\test\AppData\Local\Temp\ccMFLWLO.s:4640   .debug_loc:00000000000000fe .LLST62
C:\Users\test\AppData\Local\Temp\ccMFLWLO.s:4654   .debug_loc:000000000000011f .LLST63
C:\Users\test\AppData\Local\Temp\ccMFLWLO.s:1579   .text.eclic_set_level_trig:0000000000000000 .LBB219
C:\Users\test\AppData\Local\Temp\ccMFLWLO.s:1594   .text.eclic_set_level_trig:000000000000000e .LBE219
C:\Users\test\AppData\Local\Temp\ccMFLWLO.s:1600   .text.eclic_set_level_trig:0000000000000012 .LBB221
C:\Users\test\AppData\Local\Temp\ccMFLWLO.s:1607   .text.eclic_set_level_trig:0000000000000016 .LBE221
C:\Users\test\AppData\Local\Temp\ccMFLWLO.s:4661   .debug_loc:0000000000000132 .LLST64
C:\Users\test\AppData\Local\Temp\ccMFLWLO.s:4668   .debug_loc:0000000000000145 .LLST65
C:\Users\test\AppData\Local\Temp\ccMFLWLO.s:6026   .debug_str:0000000000000450 .LASF17
C:\Users\test\AppData\Local\Temp\ccMFLWLO.s:1530   .text.eclic_set_nonvmode:0000000000000000 .LFB35
C:\Users\test\AppData\Local\Temp\ccMFLWLO.s:1567   .text.eclic_set_nonvmode:0000000000000018 .LFE35
C:\Users\test\AppData\Local\Temp\ccMFLWLO.s:4678   .debug_loc:000000000000015b .LLST58
C:\Users\test\AppData\Local\Temp\ccMFLWLO.s:4692   .debug_loc:000000000000017c .LLST59
C:\Users\test\AppData\Local\Temp\ccMFLWLO.s:1535   .text.eclic_set_nonvmode:0000000000000000 .LBB215
C:\Users\test\AppData\Local\Temp\ccMFLWLO.s:1550   .text.eclic_set_nonvmode:000000000000000e .LBE215
C:\Users\test\AppData\Local\Temp\ccMFLWLO.s:1556   .text.eclic_set_nonvmode:0000000000000012 .LBB217
C:\Users\test\AppData\Local\Temp\ccMFLWLO.s:1563   .text.eclic_set_nonvmode:0000000000000016 .LBE217
C:\Users\test\AppData\Local\Temp\ccMFLWLO.s:4699   .debug_loc:000000000000018f .LLST60
C:\Users\test\AppData\Local\Temp\ccMFLWLO.s:4706   .debug_loc:00000000000001a2 .LLST61
C:\Users\test\AppData\Local\Temp\ccMFLWLO.s:5996   .debug_str:0000000000000351 .LASF18
C:\Users\test\AppData\Local\Temp\ccMFLWLO.s:1486   .text.eclic_set_vmode:0000000000000000 .LFB34
C:\Users\test\AppData\Local\Temp\ccMFLWLO.s:1523   .text.eclic_set_vmode:0000000000000018 .LFE34
C:\Users\test\AppData\Local\Temp\ccMFLWLO.s:4716   .debug_loc:00000000000001b8 .LLST54
C:\Users\test\AppData\Local\Temp\ccMFLWLO.s:4730   .debug_loc:00000000000001d9 .LLST55
C:\Users\test\AppData\Local\Temp\ccMFLWLO.s:1491   .text.eclic_set_vmode:0000000000000000 .LBB211
C:\Users\test\AppData\Local\Temp\ccMFLWLO.s:1506   .text.eclic_set_vmode:000000000000000e .LBE211
C:\Users\test\AppData\Local\Temp\ccMFLWLO.s:1512   .text.eclic_set_vmode:0000000000000012 .LBB213
C:\Users\test\AppData\Local\Temp\ccMFLWLO.s:1519   .text.eclic_set_vmode:0000000000000016 .LBE213
C:\Users\test\AppData\Local\Temp\ccMFLWLO.s:4737   .debug_loc:00000000000001ec .LLST56
C:\Users\test\AppData\Local\Temp\ccMFLWLO.s:4744   .debug_loc:00000000000001ff .LLST57
C:\Users\test\AppData\Local\Temp\ccMFLWLO.s:6014   .debug_str:00000000000003c3 .LASF69
GAS LISTING C:\Users\test\AppData\Local\Temp\ccMFLWLO.s 			page 53


C:\Users\test\AppData\Local\Temp\ccMFLWLO.s:1445   .text.eclic_mode_enable:0000000000000000 .LFB33
C:\Users\test\AppData\Local\Temp\ccMFLWLO.s:1479   .text.eclic_mode_enable:0000000000000012 .LFE33
C:\Users\test\AppData\Local\Temp\ccMFLWLO.s:5956   .debug_str:00000000000001b6 .LASF19
C:\Users\test\AppData\Local\Temp\ccMFLWLO.s:4754   .debug_loc:0000000000000215 .LLST52
C:\Users\test\AppData\Local\Temp\ccMFLWLO.s:1449   .text.eclic_mode_enable:0000000000000000 .LBB210
C:\Users\test\AppData\Local\Temp\ccMFLWLO.s:1459   .text.eclic_mode_enable:0000000000000004 .LBE210
C:\Users\test\AppData\Local\Temp\ccMFLWLO.s:5916   .debug_str:0000000000000096 .LASF20
C:\Users\test\AppData\Local\Temp\ccMFLWLO.s:4773   .debug_loc:0000000000000242 .LLST53
C:\Users\test\AppData\Local\Temp\ccMFLWLO.s:5912   .debug_str:0000000000000075 .LASF24
C:\Users\test\AppData\Local\Temp\ccMFLWLO.s:1346   .text.eclic_get_irq_priority:0000000000000000 .LFB32
C:\Users\test\AppData\Local\Temp\ccMFLWLO.s:1438   .text.eclic_get_irq_priority:0000000000000040 .LFE32
C:\Users\test\AppData\Local\Temp\ccMFLWLO.s:4780   .debug_loc:0000000000000255 .LLST47
C:\Users\test\AppData\Local\Temp\ccMFLWLO.s:5918   .debug_str:000000000000009c .LASF21
C:\Users\test\AppData\Local\Temp\ccMFLWLO.s:4794   .debug_loc:0000000000000276 .LLST48
C:\Users\test\AppData\Local\Temp\ccMFLWLO.s:5970   .debug_str:000000000000021f .LASF22
C:\Users\test\AppData\Local\Temp\ccMFLWLO.s:4822   .debug_loc:000000000000029f .LLST49
C:\Users\test\AppData\Local\Temp\ccMFLWLO.s:5906   .debug_str:0000000000000052 .LASF23
C:\Users\test\AppData\Local\Temp\ccMFLWLO.s:4841   .debug_loc:00000000000002c5 .LLST50
C:\Users\test\AppData\Local\Temp\ccMFLWLO.s:1351   .text.eclic_get_irq_priority:0000000000000000 .LBB194
C:\Users\test\AppData\Local\Temp\ccMFLWLO.s:1354   .text.eclic_get_irq_priority:0000000000000000 .LBB196
C:\Users\test\AppData\Local\Temp\ccMFLWLO.s:1363   .text.eclic_get_irq_priority:0000000000000004 .LBB202
C:\Users\test\AppData\Local\Temp\ccMFLWLO.s:4862   .debug_loc:00000000000002e6 .LLST51
C:\Users\test\AppData\Local\Temp\ccMFLWLO.s:5928   .debug_str:00000000000000dd .LASF25
C:\Users\test\AppData\Local\Temp\ccMFLWLO.s:1248   .text.eclic_set_irq_priority:0000000000000000 .LFB31
C:\Users\test\AppData\Local\Temp\ccMFLWLO.s:1339   .text.eclic_set_irq_priority:000000000000004a .LFE31
C:\Users\test\AppData\Local\Temp\ccMFLWLO.s:4876   .debug_loc:0000000000000307 .LLST41
C:\Users\test\AppData\Local\Temp\ccMFLWLO.s:4901   .debug_loc:0000000000000341 .LLST42
C:\Users\test\AppData\Local\Temp\ccMFLWLO.s:4916   .debug_loc:000000000000036a .LLST43
C:\Users\test\AppData\Local\Temp\ccMFLWLO.s:5974   .debug_str:000000000000023e .LASF27
C:\Users\test\AppData\Local\Temp\ccMFLWLO.s:1253   .text.eclic_set_irq_priority:0000000000000000 .LBB184
C:\Users\test\AppData\Local\Temp\ccMFLWLO.s:1271   .text.eclic_set_irq_priority:000000000000000a .LBE184
C:\Users\test\AppData\Local\Temp\ccMFLWLO.s:1254   .text.eclic_set_irq_priority:0000000000000000 .LBB185
C:\Users\test\AppData\Local\Temp\ccMFLWLO.s:1270   .text.eclic_set_irq_priority:000000000000000a .LBE185
C:\Users\test\AppData\Local\Temp\ccMFLWLO.s:4935   .debug_loc:0000000000000390 .LLST44
C:\Users\test\AppData\Local\Temp\ccMFLWLO.s:1256   .text.eclic_set_irq_priority:0000000000000000 .LBB186
C:\Users\test\AppData\Local\Temp\ccMFLWLO.s:1264   .text.eclic_set_irq_priority:0000000000000008 .LBE186
C:\Users\test\AppData\Local\Temp\ccMFLWLO.s:1277   .text.eclic_set_irq_priority:0000000000000010 .LBB188
C:\Users\test\AppData\Local\Temp\ccMFLWLO.s:1320   .text.eclic_set_irq_priority:0000000000000040 .LBB192
C:\Users\test\AppData\Local\Temp\ccMFLWLO.s:1327   .text.eclic_set_irq_priority:0000000000000044 .LBE192
C:\Users\test\AppData\Local\Temp\ccMFLWLO.s:4942   .debug_loc:00000000000003a3 .LLST45
C:\Users\test\AppData\Local\Temp\ccMFLWLO.s:4949   .debug_loc:00000000000003b6 .LLST46
C:\Users\test\AppData\Local\Temp\ccMFLWLO.s:5940   .debug_str:0000000000000142 .LASF26
C:\Users\test\AppData\Local\Temp\ccMFLWLO.s:1155   .text.eclic_get_irq_lvl_abs:0000000000000000 .LFB30
C:\Users\test\AppData\Local\Temp\ccMFLWLO.s:1241   .text.eclic_get_irq_lvl_abs:000000000000003a .LFE30
C:\Users\test\AppData\Local\Temp\ccMFLWLO.s:4959   .debug_loc:00000000000003cc .LLST38
C:\Users\test\AppData\Local\Temp\ccMFLWLO.s:4973   .debug_loc:00000000000003ed .LLST39
C:\Users\test\AppData\Local\Temp\ccMFLWLO.s:6008   .debug_str:00000000000003a1 .LASF28
C:\Users\test\AppData\Local\Temp\ccMFLWLO.s:1160   .text.eclic_get_irq_lvl_abs:0000000000000000 .LBB168
C:\Users\test\AppData\Local\Temp\ccMFLWLO.s:1163   .text.eclic_get_irq_lvl_abs:0000000000000000 .LBB170
C:\Users\test\AppData\Local\Temp\ccMFLWLO.s:1172   .text.eclic_get_irq_lvl_abs:0000000000000004 .LBB176
C:\Users\test\AppData\Local\Temp\ccMFLWLO.s:5001   .debug_loc:0000000000000416 .LLST40
C:\Users\test\AppData\Local\Temp\ccMFLWLO.s:6022   .debug_str:000000000000042b .LASF29
C:\Users\test\AppData\Local\Temp\ccMFLWLO.s:1054   .text.eclic_set_irq_lvl_abs:0000000000000000 .LFB29
C:\Users\test\AppData\Local\Temp\ccMFLWLO.s:1148   .text.eclic_set_irq_lvl_abs:0000000000000048 .LFE29
C:\Users\test\AppData\Local\Temp\ccMFLWLO.s:5015   .debug_loc:0000000000000437 .LLST31
C:\Users\test\AppData\Local\Temp\ccMFLWLO.s:5029   .debug_loc:0000000000000458 .LLST32
C:\Users\test\AppData\Local\Temp\ccMFLWLO.s:5043   .debug_loc:0000000000000479 .LLST33
GAS LISTING C:\Users\test\AppData\Local\Temp\ccMFLWLO.s 			page 54


C:\Users\test\AppData\Local\Temp\ccMFLWLO.s:5071   .debug_loc:00000000000004a2 .LLST34
C:\Users\test\AppData\Local\Temp\ccMFLWLO.s:5103   .debug_loc:00000000000004d5 .LLST35
C:\Users\test\AppData\Local\Temp\ccMFLWLO.s:1059   .text.eclic_set_irq_lvl_abs:0000000000000000 .LBB156
C:\Users\test\AppData\Local\Temp\ccMFLWLO.s:1062   .text.eclic_set_irq_lvl_abs:0000000000000000 .LBB158
C:\Users\test\AppData\Local\Temp\ccMFLWLO.s:1070   .text.eclic_set_irq_lvl_abs:0000000000000008 .LBE158
C:\Users\test\AppData\Local\Temp\ccMFLWLO.s:1093   .text.eclic_set_irq_lvl_abs:0000000000000016 .LBB162
C:\Users\test\AppData\Local\Temp\ccMFLWLO.s:1137   .text.eclic_set_irq_lvl_abs:0000000000000042 .LBB166
C:\Users\test\AppData\Local\Temp\ccMFLWLO.s:1144   .text.eclic_set_irq_lvl_abs:0000000000000046 .LBE166
C:\Users\test\AppData\Local\Temp\ccMFLWLO.s:5124   .debug_loc:00000000000004f6 .LLST36
C:\Users\test\AppData\Local\Temp\ccMFLWLO.s:5131   .debug_loc:0000000000000509 .LLST37
C:\Users\test\AppData\Local\Temp\ccMFLWLO.s:5932   .debug_str:0000000000000102 .LASF30
C:\Users\test\AppData\Local\Temp\ccMFLWLO.s:957    .text.eclic_get_irq_lvl:0000000000000000 .LFB28
C:\Users\test\AppData\Local\Temp\ccMFLWLO.s:1047   .text.eclic_get_irq_lvl:000000000000003c .LFE28
C:\Users\test\AppData\Local\Temp\ccMFLWLO.s:5141   .debug_loc:000000000000051f .LLST26
C:\Users\test\AppData\Local\Temp\ccMFLWLO.s:5155   .debug_loc:0000000000000540 .LLST27
C:\Users\test\AppData\Local\Temp\ccMFLWLO.s:5183   .debug_loc:0000000000000569 .LLST28
C:\Users\test\AppData\Local\Temp\ccMFLWLO.s:5202   .debug_loc:000000000000058f .LLST29
C:\Users\test\AppData\Local\Temp\ccMFLWLO.s:962    .text.eclic_get_irq_lvl:0000000000000000 .LBB140
C:\Users\test\AppData\Local\Temp\ccMFLWLO.s:965    .text.eclic_get_irq_lvl:0000000000000000 .LBB142
C:\Users\test\AppData\Local\Temp\ccMFLWLO.s:974    .text.eclic_get_irq_lvl:0000000000000004 .LBB148
C:\Users\test\AppData\Local\Temp\ccMFLWLO.s:5220   .debug_loc:00000000000005ad .LLST30
C:\Users\test\AppData\Local\Temp\ccMFLWLO.s:5982   .debug_str:00000000000002e8 .LASF31
C:\Users\test\AppData\Local\Temp\ccMFLWLO.s:855    .text.eclic_set_irq_lvl:0000000000000000 .LFB27
C:\Users\test\AppData\Local\Temp\ccMFLWLO.s:950    .text.eclic_set_irq_lvl:000000000000004c .LFE27
C:\Users\test\AppData\Local\Temp\ccMFLWLO.s:5234   .debug_loc:00000000000005ce .LLST21
C:\Users\test\AppData\Local\Temp\ccMFLWLO.s:5248   .debug_loc:00000000000005ef .LLST22
C:\Users\test\AppData\Local\Temp\ccMFLWLO.s:5284   .debug_loc:0000000000000634 .LLST23
C:\Users\test\AppData\Local\Temp\ccMFLWLO.s:860    .text.eclic_set_irq_lvl:0000000000000000 .LBB128
C:\Users\test\AppData\Local\Temp\ccMFLWLO.s:863    .text.eclic_set_irq_lvl:0000000000000000 .LBB130
C:\Users\test\AppData\Local\Temp\ccMFLWLO.s:871    .text.eclic_set_irq_lvl:0000000000000008 .LBE130
C:\Users\test\AppData\Local\Temp\ccMFLWLO.s:894    .text.eclic_set_irq_lvl:0000000000000016 .LBB134
C:\Users\test\AppData\Local\Temp\ccMFLWLO.s:939    .text.eclic_set_irq_lvl:0000000000000046 .LBB138
C:\Users\test\AppData\Local\Temp\ccMFLWLO.s:946    .text.eclic_set_irq_lvl:000000000000004a .LBE138
C:\Users\test\AppData\Local\Temp\ccMFLWLO.s:5312   .debug_loc:000000000000065d .LLST24
C:\Users\test\AppData\Local\Temp\ccMFLWLO.s:5319   .debug_loc:0000000000000670 .LLST25
C:\Users\test\AppData\Local\Temp\ccMFLWLO.s:5920   .debug_str:00000000000000a3 .LASF37
C:\Users\test\AppData\Local\Temp\ccMFLWLO.s:5960   .debug_str:00000000000001c9 .LASF32
C:\Users\test\AppData\Local\Temp\ccMFLWLO.s:780    .text.eclic_set_nlbits:0000000000000000 .LFB25
C:\Users\test\AppData\Local\Temp\ccMFLWLO.s:819    .text.eclic_set_nlbits:0000000000000018 .LFE25
C:\Users\test\AppData\Local\Temp\ccMFLWLO.s:5329   .debug_loc:0000000000000686 .LLST16
C:\Users\test\AppData\Local\Temp\ccMFLWLO.s:6024   .debug_str:0000000000000441 .LASF33
C:\Users\test\AppData\Local\Temp\ccMFLWLO.s:5343   .debug_loc:00000000000006a7 .LLST17
C:\Users\test\AppData\Local\Temp\ccMFLWLO.s:5990   .debug_str:000000000000031c .LASF34
C:\Users\test\AppData\Local\Temp\ccMFLWLO.s:5363   .debug_loc:00000000000006ce .LLST18
C:\Users\test\AppData\Local\Temp\ccMFLWLO.s:5922   .debug_str:00000000000000b4 .LASF35
C:\Users\test\AppData\Local\Temp\ccMFLWLO.s:786    .text.eclic_set_nlbits:0000000000000000 .LBB122
C:\Users\test\AppData\Local\Temp\ccMFLWLO.s:794    .text.eclic_set_nlbits:0000000000000008 .LBE122
C:\Users\test\AppData\Local\Temp\ccMFLWLO.s:808    .text.eclic_set_nlbits:0000000000000012 .LBB124
C:\Users\test\AppData\Local\Temp\ccMFLWLO.s:815    .text.eclic_set_nlbits:0000000000000016 .LBE124
C:\Users\test\AppData\Local\Temp\ccMFLWLO.s:5370   .debug_loc:00000000000006e1 .LLST19
C:\Users\test\AppData\Local\Temp\ccMFLWLO.s:5908   .debug_str:000000000000005b .LASF75
C:\Users\test\AppData\Local\Temp\ccMFLWLO.s:763    .text.eclic_get_mth:0000000000000000 .LFB24
C:\Users\test\AppData\Local\Temp\ccMFLWLO.s:773    .text.eclic_get_mth:000000000000000a .LFE24
C:\Users\test\AppData\Local\Temp\ccMFLWLO.s:5930   .debug_str:00000000000000f4 .LASF36
C:\Users\test\AppData\Local\Temp\ccMFLWLO.s:745    .text.eclic_set_mth:0000000000000000 .LFB23
C:\Users\test\AppData\Local\Temp\ccMFLWLO.s:756    .text.eclic_set_mth:000000000000000a .LFE23
C:\Users\test\AppData\Local\Temp\ccMFLWLO.s:5962   .debug_str:00000000000001da .LASF64
GAS LISTING C:\Users\test\AppData\Local\Temp\ccMFLWLO.s 			page 55


C:\Users\test\AppData\Local\Temp\ccMFLWLO.s:5944   .debug_str:0000000000000164 .LASF40
C:\Users\test\AppData\Local\Temp\ccMFLWLO.s:6000   .debug_str:000000000000036a .LASF39
C:\Users\test\AppData\Local\Temp\ccMFLWLO.s:5950   .debug_str:0000000000000196 .LASF38
C:\Users\test\AppData\Local\Temp\ccMFLWLO.s:5994   .debug_str:000000000000033f .LASF41
C:\Users\test\AppData\Local\Temp\ccMFLWLO.s:5986   .debug_str:0000000000000307 .LASF42
C:\Users\test\AppData\Local\Temp\ccMFLWLO.s:5946   .debug_str:0000000000000176 .LASF43
C:\Users\test\AppData\Local\Temp\ccMFLWLO.s:5926   .debug_str:00000000000000cb .LASF44
C:\Users\test\AppData\Local\Temp\ccMFLWLO.s:6028   .debug_str:0000000000000463 .LASF45
C:\Users\test\AppData\Local\Temp\ccMFLWLO.s:586    .text.eclic_clear_pending:0000000000000000 .LFB16
C:\Users\test\AppData\Local\Temp\ccMFLWLO.s:603    .text.eclic_clear_pending:0000000000000012 .LFE16
C:\Users\test\AppData\Local\Temp\ccMFLWLO.s:5377   .debug_loc:00000000000006f4 .LLST11
C:\Users\test\AppData\Local\Temp\ccMFLWLO.s:6030   .debug_str:0000000000000477 .LASF46
C:\Users\test\AppData\Local\Temp\ccMFLWLO.s:561    .text.eclic_set_pending:0000000000000000 .LFB15
C:\Users\test\AppData\Local\Temp\ccMFLWLO.s:579    .text.eclic_set_pending:0000000000000014 .LFE15
C:\Users\test\AppData\Local\Temp\ccMFLWLO.s:5397   .debug_loc:0000000000000726 .LLST10
C:\Users\test\AppData\Local\Temp\ccMFLWLO.s:6044   .debug_str:00000000000004f2 .LASF47
C:\Users\test\AppData\Local\Temp\ccMFLWLO.s:536    .text.eclic_disable_interrupt:0000000000000000 .LFB14
C:\Users\test\AppData\Local\Temp\ccMFLWLO.s:554    .text.eclic_disable_interrupt:0000000000000010 .LFE14
C:\Users\test\AppData\Local\Temp\ccMFLWLO.s:5417   .debug_loc:0000000000000758 .LLST9
C:\Users\test\AppData\Local\Temp\ccMFLWLO.s:6018   .debug_str:00000000000003e7 .LASF48
C:\Users\test\AppData\Local\Temp\ccMFLWLO.s:510    .text.eclic_enable_interrupt:0000000000000000 .LFB13
C:\Users\test\AppData\Local\Temp\ccMFLWLO.s:529    .text.eclic_enable_interrupt:0000000000000012 .LFE13
C:\Users\test\AppData\Local\Temp\ccMFLWLO.s:5431   .debug_loc:0000000000000779 .LLST8
C:\Users\test\AppData\Local\Temp\ccMFLWLO.s:5902   .debug_str:0000000000000041 .LASF49
C:\Users\test\AppData\Local\Temp\ccMFLWLO.s:462    .text.eclic_init:0000000000000000 .LFB12
C:\Users\test\AppData\Local\Temp\ccMFLWLO.s:503    .text.eclic_init:0000000000000024 .LFE12
C:\Users\test\AppData\Local\Temp\ccMFLWLO.s:6038   .debug_str:00000000000004ca .LASF50
C:\Users\test\AppData\Local\Temp\ccMFLWLO.s:5445   .debug_loc:000000000000079a .LLST6
C:\Users\test\AppData\Local\Temp\ccMFLWLO.s:6012   .debug_str:00000000000003b9 .LASF51
C:\Users\test\AppData\Local\Temp\ccMFLWLO.s:5459   .debug_loc:00000000000007bb .LLST7
C:\Users\test\AppData\Local\Temp\ccMFLWLO.s:5954   .debug_str:00000000000001b1 .LASF52
C:\Users\test\AppData\Local\Temp\ccMFLWLO.s:5904   .debug_str:000000000000004c .LASF53
C:\Users\test\AppData\Local\Temp\ccMFLWLO.s:5894   .debug_str:000000000000000f .LASF54
C:\Users\test\AppData\Local\Temp\ccMFLWLO.s:424    .text.get_cpu_freq:0000000000000000 .LFB11
C:\Users\test\AppData\Local\Temp\ccMFLWLO.s:455    .text.get_cpu_freq:000000000000001e .LFE11
C:\Users\test\AppData\Local\Temp\ccMFLWLO.s:5472   .debug_loc:00000000000007de .LLST5
C:\Users\test\AppData\Local\Temp\ccMFLWLO.s:5998   .debug_str:0000000000000361 .LASF55
C:\Users\test\AppData\Local\Temp\ccMFLWLO.s:440    .text.get_cpu_freq:000000000000000e .LVL19
C:\Users\test\AppData\Local\Temp\ccMFLWLO.s:453    .text.get_cpu_freq:000000000000001e .LVL20
C:\Users\test\AppData\Local\Temp\ccMFLWLO.s:6002   .debug_str:0000000000000372 .LASF56
C:\Users\test\AppData\Local\Temp\ccMFLWLO.s:304    .text.measure_cpu_freq:0000000000000000 .LFB10
C:\Users\test\AppData\Local\Temp\ccMFLWLO.s:417    .text.measure_cpu_freq:0000000000000046 .LFE10
C:\Users\test\AppData\Local\Temp\ccMFLWLO.s:5490   .debug_loc:000000000000080a .LLST0
C:\Users\test\AppData\Local\Temp\ccMFLWLO.s:5936   .debug_str:0000000000000121 .LASF57
C:\Users\test\AppData\Local\Temp\ccMFLWLO.s:5504   .debug_loc:000000000000082b .LLST1
C:\Users\test\AppData\Local\Temp\ccMFLWLO.s:6034   .debug_str:00000000000004b5 .LASF58
C:\Users\test\AppData\Local\Temp\ccMFLWLO.s:6006   .debug_str:0000000000000396 .LASF59
C:\Users\test\AppData\Local\Temp\ccMFLWLO.s:5511   .debug_loc:000000000000083e .LLST2
C:\Users\test\AppData\Local\Temp\ccMFLWLO.s:5988   .debug_str:000000000000030f .LASF60
C:\Users\test\AppData\Local\Temp\ccMFLWLO.s:5934   .debug_str:0000000000000114 .LASF61
C:\Users\test\AppData\Local\Temp\ccMFLWLO.s:5518   .debug_loc:0000000000000851 .LLST3
C:\Users\test\AppData\Local\Temp\ccMFLWLO.s:352    .text.measure_cpu_freq:0000000000000018 .LBB116
C:\Users\test\AppData\Local\Temp\ccMFLWLO.s:362    .text.measure_cpu_freq:000000000000001c .LBE116
C:\Users\test\AppData\Local\Temp\ccMFLWLO.s:386    .text.measure_cpu_freq:0000000000000028 .LBB121
C:\Users\test\AppData\Local\Temp\ccMFLWLO.s:396    .text.measure_cpu_freq:000000000000002c .LBE121
C:\Users\test\AppData\Local\Temp\ccMFLWLO.s:5525   .debug_loc:0000000000000864 .LLST4
C:\Users\test\AppData\Local\Temp\ccMFLWLO.s:310    .text.measure_cpu_freq:0000000000000000 .LBB106
GAS LISTING C:\Users\test\AppData\Local\Temp\ccMFLWLO.s 			page 56


C:\Users\test\AppData\Local\Temp\ccMFLWLO.s:318    .text.measure_cpu_freq:0000000000000008 .LBB109
C:\Users\test\AppData\Local\Temp\ccMFLWLO.s:341    .text.measure_cpu_freq:0000000000000012 .LBB114
C:\Users\test\AppData\Local\Temp\ccMFLWLO.s:348    .text.measure_cpu_freq:0000000000000014 .LBE114
C:\Users\test\AppData\Local\Temp\ccMFLWLO.s:363    .text.measure_cpu_freq:000000000000001c .LBB117
C:\Users\test\AppData\Local\Temp\ccMFLWLO.s:5900   .debug_str:0000000000000031 .LASF62
C:\Users\test\AppData\Local\Temp\ccMFLWLO.s:249    .text.get_cycle_value:0000000000000000 .LFB9
C:\Users\test\AppData\Local\Temp\ccMFLWLO.s:297    .text.get_cycle_value:0000000000000012 .LFE9
C:\Users\test\AppData\Local\Temp\ccMFLWLO.s:254    .text.get_cycle_value:0000000000000000 .LBB102
C:\Users\test\AppData\Local\Temp\ccMFLWLO.s:293    .text.get_cycle_value:0000000000000010 .LBE102
C:\Users\test\AppData\Local\Temp\ccMFLWLO.s:256    .text.get_cycle_value:0000000000000000 .LBB103
C:\Users\test\AppData\Local\Temp\ccMFLWLO.s:266    .text.get_cycle_value:0000000000000004 .LBE103
C:\Users\test\AppData\Local\Temp\ccMFLWLO.s:268    .text.get_cycle_value:0000000000000004 .LBB104
C:\Users\test\AppData\Local\Temp\ccMFLWLO.s:278    .text.get_cycle_value:0000000000000008 .LBE104
C:\Users\test\AppData\Local\Temp\ccMFLWLO.s:280    .text.get_cycle_value:0000000000000008 .LBB105
C:\Users\test\AppData\Local\Temp\ccMFLWLO.s:290    .text.get_cycle_value:000000000000000c .LBE105
C:\Users\test\AppData\Local\Temp\ccMFLWLO.s:5964   .debug_str:00000000000001ec .LASF63
C:\Users\test\AppData\Local\Temp\ccMFLWLO.s:194    .text.get_instret_value:0000000000000000 .LFB8
C:\Users\test\AppData\Local\Temp\ccMFLWLO.s:242    .text.get_instret_value:0000000000000012 .LFE8
C:\Users\test\AppData\Local\Temp\ccMFLWLO.s:199    .text.get_instret_value:0000000000000000 .LBB98
C:\Users\test\AppData\Local\Temp\ccMFLWLO.s:238    .text.get_instret_value:0000000000000010 .LBE98
C:\Users\test\AppData\Local\Temp\ccMFLWLO.s:201    .text.get_instret_value:0000000000000000 .LBB99
C:\Users\test\AppData\Local\Temp\ccMFLWLO.s:211    .text.get_instret_value:0000000000000004 .LBE99
C:\Users\test\AppData\Local\Temp\ccMFLWLO.s:213    .text.get_instret_value:0000000000000004 .LBB100
C:\Users\test\AppData\Local\Temp\ccMFLWLO.s:223    .text.get_instret_value:0000000000000008 .LBE100
C:\Users\test\AppData\Local\Temp\ccMFLWLO.s:225    .text.get_instret_value:0000000000000008 .LBB101
C:\Users\test\AppData\Local\Temp\ccMFLWLO.s:235    .text.get_instret_value:000000000000000c .LBE101
C:\Users\test\AppData\Local\Temp\ccMFLWLO.s:5892   .debug_str:0000000000000000 .LASF65
C:\Users\test\AppData\Local\Temp\ccMFLWLO.s:6040   .debug_str:00000000000004d2 .LASF66
C:\Users\test\AppData\Local\Temp\ccMFLWLO.s:123    .text.get_timer_value:0000000000000000 .LFB6
C:\Users\test\AppData\Local\Temp\ccMFLWLO.s:169    .text.get_timer_value:0000000000000010 .LFE6
C:\Users\test\AppData\Local\Temp\ccMFLWLO.s:127    .text.get_timer_value:0000000000000000 .LBB89
C:\Users\test\AppData\Local\Temp\ccMFLWLO.s:147    .text.get_timer_value:0000000000000006 .LBB93
C:\Users\test\AppData\Local\Temp\ccMFLWLO.s:154    .text.get_timer_value:0000000000000008 .LBE93
C:\Users\test\AppData\Local\Temp\ccMFLWLO.s:156    .text.get_timer_value:0000000000000008 .LBB95
C:\Users\test\AppData\Local\Temp\ccMFLWLO.s:162    .text.get_timer_value:000000000000000a .LBE95
C:\Users\test\AppData\Local\Temp\ccMFLWLO.s:6036   .debug_str:00000000000004c1 .LASF67
C:\Users\test\AppData\Local\Temp\ccMFLWLO.s:5896   .debug_str:000000000000001c .LASF68
C:\Users\test\AppData\Local\Temp\ccMFLWLO.s:6042   .debug_str:00000000000004e2 .LASF70
C:\Users\test\AppData\Local\Temp\ccMFLWLO.s:43     .text.switch_m2u_mode:0000000000000000 .LFB3
C:\Users\test\AppData\Local\Temp\ccMFLWLO.s:82     .text.switch_m2u_mode:000000000000001c .LFE3
C:\Users\test\AppData\Local\Temp\ccMFLWLO.s:47     .text.switch_m2u_mode:0000000000000000 .LBB87
C:\Users\test\AppData\Local\Temp\ccMFLWLO.s:60     .text.switch_m2u_mode:000000000000000a .LBE87
C:\Users\test\AppData\Local\Temp\ccMFLWLO.s:5968   .debug_str:000000000000020c .LASF76
C:\Users\test\AppData\Local\Temp\ccMFLWLO.s:11     .text.pmp_open_all_space:0000000000000000 .LFB2
C:\Users\test\AppData\Local\Temp\ccMFLWLO.s:36     .text.pmp_open_all_space:0000000000000012 .LFE2
C:\Users\test\AppData\Local\Temp\ccMFLWLO.s:89     .text.mtime_lo:0000000000000000 .LFB4
C:\Users\test\AppData\Local\Temp\ccMFLWLO.s:99     .text.mtime_lo:0000000000000008 .LFE4
C:\Users\test\AppData\Local\Temp\ccMFLWLO.s:106    .text.mtime_hi:0000000000000000 .LFB5
C:\Users\test\AppData\Local\Temp\ccMFLWLO.s:116    .text.mtime_hi:0000000000000008 .LFE5
C:\Users\test\AppData\Local\Temp\ccMFLWLO.s:176    .text.get_timer_freq:0000000000000000 .LFB7
C:\Users\test\AppData\Local\Temp\ccMFLWLO.s:187    .text.get_timer_freq:000000000000000c .LFE7
C:\Users\test\AppData\Local\Temp\ccMFLWLO.s:610    .text.eclic_set_intctrl:0000000000000000 .LFB17
C:\Users\test\AppData\Local\Temp\ccMFLWLO.s:628    .text.eclic_set_intctrl:0000000000000010 .LFE17
C:\Users\test\AppData\Local\Temp\ccMFLWLO.s:5532   .debug_loc:0000000000000877 .LLST12
C:\Users\test\AppData\Local\Temp\ccMFLWLO.s:635    .text.eclic_get_intctrl:0000000000000000 .LFB18
C:\Users\test\AppData\Local\Temp\ccMFLWLO.s:653    .text.eclic_get_intctrl:0000000000000010 .LFE18
C:\Users\test\AppData\Local\Temp\ccMFLWLO.s:5546   .debug_loc:0000000000000898 .LLST13
GAS LISTING C:\Users\test\AppData\Local\Temp\ccMFLWLO.s 			page 57


C:\Users\test\AppData\Local\Temp\ccMFLWLO.s:660    .text.eclic_set_intattr:0000000000000000 .LFB19
C:\Users\test\AppData\Local\Temp\ccMFLWLO.s:678    .text.eclic_set_intattr:0000000000000010 .LFE19
C:\Users\test\AppData\Local\Temp\ccMFLWLO.s:5560   .debug_loc:00000000000008b9 .LLST14
C:\Users\test\AppData\Local\Temp\ccMFLWLO.s:685    .text.eclic_get_intattr:0000000000000000 .LFB20
C:\Users\test\AppData\Local\Temp\ccMFLWLO.s:703    .text.eclic_get_intattr:0000000000000010 .LFE20
C:\Users\test\AppData\Local\Temp\ccMFLWLO.s:5574   .debug_loc:00000000000008da .LLST15
C:\Users\test\AppData\Local\Temp\ccMFLWLO.s:710    .text.eclic_set_cliccfg:0000000000000000 .LFB21
C:\Users\test\AppData\Local\Temp\ccMFLWLO.s:721    .text.eclic_set_cliccfg:000000000000000a .LFE21
C:\Users\test\AppData\Local\Temp\ccMFLWLO.s:728    .text.eclic_get_cliccfg:0000000000000000 .LFB22
C:\Users\test\AppData\Local\Temp\ccMFLWLO.s:738    .text.eclic_get_cliccfg:000000000000000a .LFE22
C:\Users\test\AppData\Local\Temp\ccMFLWLO.s:826    .text.eclic_get_nlbits:0000000000000000 .LFB26
C:\Users\test\AppData\Local\Temp\ccMFLWLO.s:848    .text.eclic_get_nlbits:000000000000000e .LFE26
C:\Users\test\AppData\Local\Temp\ccMFLWLO.s:5588   .debug_loc:00000000000008fb .LLST20
C:\Users\test\AppData\Local\Temp\ccMFLWLO.s:830    .text.eclic_get_nlbits:0000000000000000 .LBB126
C:\Users\test\AppData\Local\Temp\ccMFLWLO.s:838    .text.eclic_get_nlbits:0000000000000008 .LBE126
C:\Users\test\AppData\Local\Temp\ccMFLWLO.s:1666   .text.eclic_set_negedge_trig:0000000000000000 .LVL126
C:\Users\test\AppData\Local\Temp\ccMFLWLO.s:1676   .text.eclic_set_negedge_trig:0000000000000008 .LVL127
C:\Users\test\AppData\Local\Temp\ccMFLWLO.s:1681   .text.eclic_set_negedge_trig:000000000000000e .LVL128
C:\Users\test\AppData\Local\Temp\ccMFLWLO.s:1688   .text.eclic_set_negedge_trig:0000000000000012 .LVL129
C:\Users\test\AppData\Local\Temp\ccMFLWLO.s:1695   .text.eclic_set_negedge_trig:0000000000000016 .LVL130
C:\Users\test\AppData\Local\Temp\ccMFLWLO.s:1621   .text.eclic_set_posedge_trig:0000000000000000 .LVL121
C:\Users\test\AppData\Local\Temp\ccMFLWLO.s:1631   .text.eclic_set_posedge_trig:0000000000000008 .LVL122
C:\Users\test\AppData\Local\Temp\ccMFLWLO.s:1636   .text.eclic_set_posedge_trig:000000000000000e .LVL123
C:\Users\test\AppData\Local\Temp\ccMFLWLO.s:1643   .text.eclic_set_posedge_trig:0000000000000012 .LVL124
C:\Users\test\AppData\Local\Temp\ccMFLWLO.s:1650   .text.eclic_set_posedge_trig:0000000000000016 .LVL125
C:\Users\test\AppData\Local\Temp\ccMFLWLO.s:1577   .text.eclic_set_level_trig:0000000000000000 .LVL116
C:\Users\test\AppData\Local\Temp\ccMFLWLO.s:1587   .text.eclic_set_level_trig:0000000000000008 .LVL117
C:\Users\test\AppData\Local\Temp\ccMFLWLO.s:1592   .text.eclic_set_level_trig:000000000000000e .LVL118
C:\Users\test\AppData\Local\Temp\ccMFLWLO.s:1598   .text.eclic_set_level_trig:0000000000000012 .LVL119
C:\Users\test\AppData\Local\Temp\ccMFLWLO.s:1605   .text.eclic_set_level_trig:0000000000000016 .LVL120
C:\Users\test\AppData\Local\Temp\ccMFLWLO.s:1533   .text.eclic_set_nonvmode:0000000000000000 .LVL111
C:\Users\test\AppData\Local\Temp\ccMFLWLO.s:1543   .text.eclic_set_nonvmode:0000000000000008 .LVL112
C:\Users\test\AppData\Local\Temp\ccMFLWLO.s:1548   .text.eclic_set_nonvmode:000000000000000e .LVL113
C:\Users\test\AppData\Local\Temp\ccMFLWLO.s:1554   .text.eclic_set_nonvmode:0000000000000012 .LVL114
C:\Users\test\AppData\Local\Temp\ccMFLWLO.s:1561   .text.eclic_set_nonvmode:0000000000000016 .LVL115
C:\Users\test\AppData\Local\Temp\ccMFLWLO.s:1489   .text.eclic_set_vmode:0000000000000000 .LVL106
C:\Users\test\AppData\Local\Temp\ccMFLWLO.s:1499   .text.eclic_set_vmode:0000000000000008 .LVL107
C:\Users\test\AppData\Local\Temp\ccMFLWLO.s:1504   .text.eclic_set_vmode:000000000000000e .LVL108
C:\Users\test\AppData\Local\Temp\ccMFLWLO.s:1510   .text.eclic_set_vmode:0000000000000012 .LVL109
C:\Users\test\AppData\Local\Temp\ccMFLWLO.s:1517   .text.eclic_set_vmode:0000000000000016 .LVL110
C:\Users\test\AppData\Local\Temp\ccMFLWLO.s:1456   .text.eclic_mode_enable:0000000000000004 .LVL103
C:\Users\test\AppData\Local\Temp\ccMFLWLO.s:1463   .text.eclic_mode_enable:0000000000000008 .LVL104
C:\Users\test\AppData\Local\Temp\ccMFLWLO.s:1469   .text.eclic_mode_enable:000000000000000c .LVL105
C:\Users\test\AppData\Local\Temp\ccMFLWLO.s:1349   .text.eclic_get_irq_priority:0000000000000000 .LVL96
C:\Users\test\AppData\Local\Temp\ccMFLWLO.s:1391   .text.eclic_get_irq_priority:0000000000000010 .LVL98
C:\Users\test\AppData\Local\Temp\ccMFLWLO.s:1375   .text.eclic_get_irq_priority:000000000000000c .LVL97
C:\Users\test\AppData\Local\Temp\ccMFLWLO.s:1402   .text.eclic_get_irq_priority:0000000000000018 .LVL99
C:\Users\test\AppData\Local\Temp\ccMFLWLO.s:1413   .text.eclic_get_irq_priority:0000000000000020 .LVL100
C:\Users\test\AppData\Local\Temp\ccMFLWLO.s:1423   .text.eclic_get_irq_priority:000000000000002c .LVL101
C:\Users\test\AppData\Local\Temp\ccMFLWLO.s:1428   .text.eclic_get_irq_priority:0000000000000030 .LVL102
C:\Users\test\AppData\Local\Temp\ccMFLWLO.s:1251   .text.eclic_set_irq_priority:0000000000000000 .LVL86
C:\Users\test\AppData\Local\Temp\ccMFLWLO.s:1283   .text.eclic_set_irq_priority:0000000000000016 .LVL89
C:\Users\test\AppData\Local\Temp\ccMFLWLO.s:1331   .text.eclic_set_irq_priority:0000000000000046 .LVL94
C:\Users\test\AppData\Local\Temp\ccMFLWLO.s:1335   .text.eclic_set_irq_priority:0000000000000048 .LVL95
C:\Users\test\AppData\Local\Temp\ccMFLWLO.s:1304   .text.eclic_set_irq_priority:0000000000000036 .LVL91
C:\Users\test\AppData\Local\Temp\ccMFLWLO.s:1268   .text.eclic_set_irq_priority:000000000000000a .LVL88
C:\Users\test\AppData\Local\Temp\ccMFLWLO.s:1294   .text.eclic_set_irq_priority:0000000000000022 .LVL90
GAS LISTING C:\Users\test\AppData\Local\Temp\ccMFLWLO.s 			page 58


C:\Users\test\AppData\Local\Temp\ccMFLWLO.s:1262   .text.eclic_set_irq_priority:0000000000000008 .LVL87
C:\Users\test\AppData\Local\Temp\ccMFLWLO.s:1319   .text.eclic_set_irq_priority:0000000000000040 .LVL92
C:\Users\test\AppData\Local\Temp\ccMFLWLO.s:1325   .text.eclic_set_irq_priority:0000000000000044 .LVL93
C:\Users\test\AppData\Local\Temp\ccMFLWLO.s:1158   .text.eclic_get_irq_lvl_abs:0000000000000000 .LVL81
C:\Users\test\AppData\Local\Temp\ccMFLWLO.s:1200   .text.eclic_get_irq_lvl_abs:0000000000000010 .LVL83
C:\Users\test\AppData\Local\Temp\ccMFLWLO.s:1184   .text.eclic_get_irq_lvl_abs:000000000000000c .LVL82
C:\Users\test\AppData\Local\Temp\ccMFLWLO.s:1211   .text.eclic_get_irq_lvl_abs:0000000000000018 .LVL84
C:\Users\test\AppData\Local\Temp\ccMFLWLO.s:1222   .text.eclic_get_irq_lvl_abs:0000000000000020 .LVL85
C:\Users\test\AppData\Local\Temp\ccMFLWLO.s:1057   .text.eclic_set_irq_lvl_abs:0000000000000000 .LVL72
C:\Users\test\AppData\Local\Temp\ccMFLWLO.s:1100   .text.eclic_set_irq_lvl_abs:000000000000001e .LVL75
C:\Users\test\AppData\Local\Temp\ccMFLWLO.s:1132   .text.eclic_set_irq_lvl_abs:000000000000003c .LVL78
C:\Users\test\AppData\Local\Temp\ccMFLWLO.s:1068   .text.eclic_set_irq_lvl_abs:0000000000000008 .LVL73
C:\Users\test\AppData\Local\Temp\ccMFLWLO.s:1083   .text.eclic_set_irq_lvl_abs:000000000000000c .LVL74
C:\Users\test\AppData\Local\Temp\ccMFLWLO.s:1109   .text.eclic_set_irq_lvl_abs:0000000000000028 .LVL76
C:\Users\test\AppData\Local\Temp\ccMFLWLO.s:1123   .text.eclic_set_irq_lvl_abs:000000000000002e .LVL77
C:\Users\test\AppData\Local\Temp\ccMFLWLO.s:1136   .text.eclic_set_irq_lvl_abs:0000000000000042 .LVL79
C:\Users\test\AppData\Local\Temp\ccMFLWLO.s:1142   .text.eclic_set_irq_lvl_abs:0000000000000046 .LVL80
C:\Users\test\AppData\Local\Temp\ccMFLWLO.s:960    .text.eclic_get_irq_lvl:0000000000000000 .LVL65
C:\Users\test\AppData\Local\Temp\ccMFLWLO.s:1002   .text.eclic_get_irq_lvl:0000000000000010 .LVL67
C:\Users\test\AppData\Local\Temp\ccMFLWLO.s:986    .text.eclic_get_irq_lvl:000000000000000c .LVL66
C:\Users\test\AppData\Local\Temp\ccMFLWLO.s:1013   .text.eclic_get_irq_lvl:0000000000000018 .LVL68
C:\Users\test\AppData\Local\Temp\ccMFLWLO.s:1024   .text.eclic_get_irq_lvl:0000000000000020 .LVL69
C:\Users\test\AppData\Local\Temp\ccMFLWLO.s:1035   .text.eclic_get_irq_lvl:000000000000002e .LVL70
C:\Users\test\AppData\Local\Temp\ccMFLWLO.s:1040   .text.eclic_get_irq_lvl:0000000000000032 .LVL71
C:\Users\test\AppData\Local\Temp\ccMFLWLO.s:858    .text.eclic_set_irq_lvl:0000000000000000 .LVL56
C:\Users\test\AppData\Local\Temp\ccMFLWLO.s:901    .text.eclic_set_irq_lvl:000000000000001e .LVL59
C:\Users\test\AppData\Local\Temp\ccMFLWLO.s:912    .text.eclic_set_irq_lvl:000000000000002c .LVL60
C:\Users\test\AppData\Local\Temp\ccMFLWLO.s:918    .text.eclic_set_irq_lvl:0000000000000034 .LVL61
C:\Users\test\AppData\Local\Temp\ccMFLWLO.s:923    .text.eclic_set_irq_lvl:000000000000003c .LVL62
C:\Users\test\AppData\Local\Temp\ccMFLWLO.s:869    .text.eclic_set_irq_lvl:0000000000000008 .LVL57
C:\Users\test\AppData\Local\Temp\ccMFLWLO.s:884    .text.eclic_set_irq_lvl:000000000000000c .LVL58
C:\Users\test\AppData\Local\Temp\ccMFLWLO.s:938    .text.eclic_set_irq_lvl:0000000000000046 .LVL63
C:\Users\test\AppData\Local\Temp\ccMFLWLO.s:944    .text.eclic_set_irq_lvl:000000000000004a .LVL64
C:\Users\test\AppData\Local\Temp\ccMFLWLO.s:783    .text.eclic_set_nlbits:0000000000000000 .LVL48
C:\Users\test\AppData\Local\Temp\ccMFLWLO.s:798    .text.eclic_set_nlbits:000000000000000a .LVL50
C:\Users\test\AppData\Local\Temp\ccMFLWLO.s:792    .text.eclic_set_nlbits:0000000000000008 .LVL49
C:\Users\test\AppData\Local\Temp\ccMFLWLO.s:803    .text.eclic_set_nlbits:0000000000000010 .LVL51
C:\Users\test\AppData\Local\Temp\ccMFLWLO.s:806    .text.eclic_set_nlbits:0000000000000012 .LVL52
C:\Users\test\AppData\Local\Temp\ccMFLWLO.s:813    .text.eclic_set_nlbits:0000000000000016 .LVL53
C:\Users\test\AppData\Local\Temp\ccMFLWLO.s:589    .text.eclic_clear_pending:0000000000000000 .LVL35
C:\Users\test\AppData\Local\Temp\ccMFLWLO.s:595    .text.eclic_clear_pending:000000000000000a .LVL36
C:\Users\test\AppData\Local\Temp\ccMFLWLO.s:597    .text.eclic_clear_pending:000000000000000c .LVL37
C:\Users\test\AppData\Local\Temp\ccMFLWLO.s:564    .text.eclic_set_pending:0000000000000000 .LVL32
C:\Users\test\AppData\Local\Temp\ccMFLWLO.s:570    .text.eclic_set_pending:000000000000000a .LVL33
C:\Users\test\AppData\Local\Temp\ccMFLWLO.s:572    .text.eclic_set_pending:000000000000000c .LVL34
C:\Users\test\AppData\Local\Temp\ccMFLWLO.s:539    .text.eclic_disable_interrupt:0000000000000000 .LVL30
C:\Users\test\AppData\Local\Temp\ccMFLWLO.s:545    .text.eclic_disable_interrupt:0000000000000006 .LVL31
C:\Users\test\AppData\Local\Temp\ccMFLWLO.s:513    .text.eclic_enable_interrupt:0000000000000000 .LVL28
C:\Users\test\AppData\Local\Temp\ccMFLWLO.s:520    .text.eclic_enable_interrupt:0000000000000008 .LVL29
C:\Users\test\AppData\Local\Temp\ccMFLWLO.s:465    .text.eclic_init:0000000000000000 .LVL21
C:\Users\test\AppData\Local\Temp\ccMFLWLO.s:474    .text.eclic_init:000000000000000a .LVL22
C:\Users\test\AppData\Local\Temp\ccMFLWLO.s:485    .text.eclic_init:0000000000000014 .LVL24
C:\Users\test\AppData\Local\Temp\ccMFLWLO.s:488    .text.eclic_init:0000000000000018 .LVL25
C:\Users\test\AppData\Local\Temp\ccMFLWLO.s:498    .text.eclic_init:0000000000000022 .LVL27
C:\Users\test\AppData\Local\Temp\ccMFLWLO.s:431    .text.get_cpu_freq:0000000000000002 .LCFI0
C:\Users\test\AppData\Local\Temp\ccMFLWLO.s:449    .text.get_cpu_freq:0000000000000016 .LCFI1
C:\Users\test\AppData\Local\Temp\ccMFLWLO.s:307    .text.measure_cpu_freq:0000000000000000 .LVL9
GAS LISTING C:\Users\test\AppData\Local\Temp\ccMFLWLO.s 			page 59


C:\Users\test\AppData\Local\Temp\ccMFLWLO.s:403    .text.measure_cpu_freq:0000000000000032 .LVL17
C:\Users\test\AppData\Local\Temp\ccMFLWLO.s:346    .text.measure_cpu_freq:0000000000000014 .LVL11
C:\Users\test\AppData\Local\Temp\ccMFLWLO.s:393    .text.measure_cpu_freq:000000000000002c .LVL15
C:\Users\test\AppData\Local\Temp\ccMFLWLO.s:329    .text.measure_cpu_freq:0000000000000012 .LVL10
C:\Users\test\AppData\Local\Temp\ccMFLWLO.s:367    .text.measure_cpu_freq:0000000000000020 .LVL13
C:\Users\test\AppData\Local\Temp\ccMFLWLO.s:399    .text.measure_cpu_freq:000000000000002e .LVL16
C:\Users\test\AppData\Local\Temp\ccMFLWLO.s:406    .text.measure_cpu_freq:0000000000000036 .LVL18
C:\Users\test\AppData\Local\Temp\ccMFLWLO.s:613    .text.eclic_set_intctrl:0000000000000000 .LVL38
C:\Users\test\AppData\Local\Temp\ccMFLWLO.s:619    .text.eclic_set_intctrl:0000000000000006 .LVL39
C:\Users\test\AppData\Local\Temp\ccMFLWLO.s:638    .text.eclic_get_intctrl:0000000000000000 .LVL40
C:\Users\test\AppData\Local\Temp\ccMFLWLO.s:645    .text.eclic_get_intctrl:0000000000000008 .LVL41
C:\Users\test\AppData\Local\Temp\ccMFLWLO.s:663    .text.eclic_set_intattr:0000000000000000 .LVL42
C:\Users\test\AppData\Local\Temp\ccMFLWLO.s:669    .text.eclic_set_intattr:0000000000000006 .LVL43
C:\Users\test\AppData\Local\Temp\ccMFLWLO.s:688    .text.eclic_get_intattr:0000000000000000 .LVL44
C:\Users\test\AppData\Local\Temp\ccMFLWLO.s:695    .text.eclic_get_intattr:0000000000000008 .LVL45
C:\Users\test\AppData\Local\Temp\ccMFLWLO.s:836    .text.eclic_get_nlbits:0000000000000008 .LVL54
C:\Users\test\AppData\Local\Temp\ccMFLWLO.s:843    .text.eclic_get_nlbits:000000000000000a .LVL55
C:\Users\test\AppData\Local\Temp\ccMFLWLO.s:1709   .debug_info:0000000000000000 .Ldebug_info0
C:\Users\test\AppData\Local\Temp\ccMFLWLO.s:126    .text.get_timer_value:0000000000000000 .LBB88
C:\Users\test\AppData\Local\Temp\ccMFLWLO.s:134    .text.get_timer_value:0000000000000004 .LBE88
C:\Users\test\AppData\Local\Temp\ccMFLWLO.s:136    .text.get_timer_value:0000000000000004 .LBB97
C:\Users\test\AppData\Local\Temp\ccMFLWLO.s:165    .text.get_timer_value:000000000000000e .LBE97
C:\Users\test\AppData\Local\Temp\ccMFLWLO.s:133    .text.get_timer_value:0000000000000004 .LBE89
C:\Users\test\AppData\Local\Temp\ccMFLWLO.s:138    .text.get_timer_value:0000000000000004 .LBB92
C:\Users\test\AppData\Local\Temp\ccMFLWLO.s:145    .text.get_timer_value:0000000000000006 .LBE92
C:\Users\test\AppData\Local\Temp\ccMFLWLO.s:317    .text.measure_cpu_freq:0000000000000008 .LBE106
C:\Users\test\AppData\Local\Temp\ccMFLWLO.s:325    .text.measure_cpu_freq:000000000000000e .LBB112
C:\Users\test\AppData\Local\Temp\ccMFLWLO.s:331    .text.measure_cpu_freq:0000000000000012 .LBE112
C:\Users\test\AppData\Local\Temp\ccMFLWLO.s:324    .text.measure_cpu_freq:000000000000000e .LBE109
C:\Users\test\AppData\Local\Temp\ccMFLWLO.s:333    .text.measure_cpu_freq:0000000000000012 .LBB113
C:\Users\test\AppData\Local\Temp\ccMFLWLO.s:338    .text.measure_cpu_freq:0000000000000012 .LBE113
C:\Users\test\AppData\Local\Temp\ccMFLWLO.s:370    .text.measure_cpu_freq:0000000000000020 .LBE117
C:\Users\test\AppData\Local\Temp\ccMFLWLO.s:373    .text.measure_cpu_freq:0000000000000020 .LBB120
C:\Users\test\AppData\Local\Temp\ccMFLWLO.s:379    .text.measure_cpu_freq:0000000000000022 .LBE120
C:\Users\test\AppData\Local\Temp\ccMFLWLO.s:875    .text.eclic_set_irq_lvl:0000000000000008 .LBE128
C:\Users\test\AppData\Local\Temp\ccMFLWLO.s:880    .text.eclic_set_irq_lvl:000000000000000a .LBB133
C:\Users\test\AppData\Local\Temp\ccMFLWLO.s:888    .text.eclic_set_irq_lvl:000000000000000e .LBE133
C:\Users\test\AppData\Local\Temp\ccMFLWLO.s:907    .text.eclic_set_irq_lvl:0000000000000024 .LBE134
C:\Users\test\AppData\Local\Temp\ccMFLWLO.s:925    .text.eclic_set_irq_lvl:000000000000003c .LBB137
C:\Users\test\AppData\Local\Temp\ccMFLWLO.s:929    .text.eclic_set_irq_lvl:000000000000003c .LBE137
C:\Users\test\AppData\Local\Temp\ccMFLWLO.s:973    .text.eclic_get_irq_lvl:0000000000000004 .LBE140
C:\Users\test\AppData\Local\Temp\ccMFLWLO.s:980    .text.eclic_get_irq_lvl:0000000000000008 .LBB152
C:\Users\test\AppData\Local\Temp\ccMFLWLO.s:992    .text.eclic_get_irq_lvl:000000000000000c .LBE152
C:\Users\test\AppData\Local\Temp\ccMFLWLO.s:1009   .text.eclic_get_irq_lvl:0000000000000016 .LBB154
C:\Users\test\AppData\Local\Temp\ccMFLWLO.s:1017   .text.eclic_get_irq_lvl:000000000000001a .LBE154
C:\Users\test\AppData\Local\Temp\ccMFLWLO.s:971    .text.eclic_get_irq_lvl:0000000000000004 .LBE142
C:\Users\test\AppData\Local\Temp\ccMFLWLO.s:982    .text.eclic_get_irq_lvl:0000000000000008 .LBB145
C:\Users\test\AppData\Local\Temp\ccMFLWLO.s:988    .text.eclic_get_irq_lvl:000000000000000c .LBE145
C:\Users\test\AppData\Local\Temp\ccMFLWLO.s:979    .text.eclic_get_irq_lvl:0000000000000008 .LBE148
C:\Users\test\AppData\Local\Temp\ccMFLWLO.s:995    .text.eclic_get_irq_lvl:000000000000000c .LBB153
C:\Users\test\AppData\Local\Temp\ccMFLWLO.s:1008   .text.eclic_get_irq_lvl:0000000000000016 .LBE153
C:\Users\test\AppData\Local\Temp\ccMFLWLO.s:1020   .text.eclic_get_irq_lvl:000000000000001c .LBB155
C:\Users\test\AppData\Local\Temp\ccMFLWLO.s:1026   .text.eclic_get_irq_lvl:0000000000000020 .LBE155
C:\Users\test\AppData\Local\Temp\ccMFLWLO.s:1074   .text.eclic_set_irq_lvl_abs:0000000000000008 .LBE156
C:\Users\test\AppData\Local\Temp\ccMFLWLO.s:1079   .text.eclic_set_irq_lvl_abs:000000000000000a .LBB161
C:\Users\test\AppData\Local\Temp\ccMFLWLO.s:1087   .text.eclic_set_irq_lvl_abs:000000000000000e .LBE161
C:\Users\test\AppData\Local\Temp\ccMFLWLO.s:1106   .text.eclic_set_irq_lvl_abs:0000000000000024 .LBE162
GAS LISTING C:\Users\test\AppData\Local\Temp\ccMFLWLO.s 			page 60


C:\Users\test\AppData\Local\Temp\ccMFLWLO.s:1111   .text.eclic_set_irq_lvl_abs:0000000000000028 .LBB165
C:\Users\test\AppData\Local\Temp\ccMFLWLO.s:1115   .text.eclic_set_irq_lvl_abs:0000000000000028 .LBE165
C:\Users\test\AppData\Local\Temp\ccMFLWLO.s:1171   .text.eclic_get_irq_lvl_abs:0000000000000004 .LBE168
C:\Users\test\AppData\Local\Temp\ccMFLWLO.s:1178   .text.eclic_get_irq_lvl_abs:0000000000000008 .LBB180
C:\Users\test\AppData\Local\Temp\ccMFLWLO.s:1190   .text.eclic_get_irq_lvl_abs:000000000000000c .LBE180
C:\Users\test\AppData\Local\Temp\ccMFLWLO.s:1207   .text.eclic_get_irq_lvl_abs:0000000000000016 .LBB182
C:\Users\test\AppData\Local\Temp\ccMFLWLO.s:1215   .text.eclic_get_irq_lvl_abs:000000000000001a .LBE182
C:\Users\test\AppData\Local\Temp\ccMFLWLO.s:1169   .text.eclic_get_irq_lvl_abs:0000000000000004 .LBE170
C:\Users\test\AppData\Local\Temp\ccMFLWLO.s:1180   .text.eclic_get_irq_lvl_abs:0000000000000008 .LBB173
C:\Users\test\AppData\Local\Temp\ccMFLWLO.s:1186   .text.eclic_get_irq_lvl_abs:000000000000000c .LBE173
C:\Users\test\AppData\Local\Temp\ccMFLWLO.s:1177   .text.eclic_get_irq_lvl_abs:0000000000000008 .LBE176
C:\Users\test\AppData\Local\Temp\ccMFLWLO.s:1193   .text.eclic_get_irq_lvl_abs:000000000000000c .LBB181
C:\Users\test\AppData\Local\Temp\ccMFLWLO.s:1206   .text.eclic_get_irq_lvl_abs:0000000000000016 .LBE181
C:\Users\test\AppData\Local\Temp\ccMFLWLO.s:1218   .text.eclic_get_irq_lvl_abs:000000000000001c .LBB183
C:\Users\test\AppData\Local\Temp\ccMFLWLO.s:1224   .text.eclic_get_irq_lvl_abs:0000000000000020 .LBE183
C:\Users\test\AppData\Local\Temp\ccMFLWLO.s:1290   .text.eclic_set_irq_priority:000000000000001e .LBE188
C:\Users\test\AppData\Local\Temp\ccMFLWLO.s:1306   .text.eclic_set_irq_priority:0000000000000036 .LBB191
C:\Users\test\AppData\Local\Temp\ccMFLWLO.s:1310   .text.eclic_set_irq_priority:0000000000000036 .LBE191
C:\Users\test\AppData\Local\Temp\ccMFLWLO.s:1362   .text.eclic_get_irq_priority:0000000000000004 .LBE194
C:\Users\test\AppData\Local\Temp\ccMFLWLO.s:1369   .text.eclic_get_irq_priority:0000000000000008 .LBB206
C:\Users\test\AppData\Local\Temp\ccMFLWLO.s:1381   .text.eclic_get_irq_priority:000000000000000c .LBE206
C:\Users\test\AppData\Local\Temp\ccMFLWLO.s:1398   .text.eclic_get_irq_priority:0000000000000016 .LBB208
C:\Users\test\AppData\Local\Temp\ccMFLWLO.s:1406   .text.eclic_get_irq_priority:000000000000001a .LBE208
C:\Users\test\AppData\Local\Temp\ccMFLWLO.s:1360   .text.eclic_get_irq_priority:0000000000000004 .LBE196
C:\Users\test\AppData\Local\Temp\ccMFLWLO.s:1371   .text.eclic_get_irq_priority:0000000000000008 .LBB199
C:\Users\test\AppData\Local\Temp\ccMFLWLO.s:1377   .text.eclic_get_irq_priority:000000000000000c .LBE199
C:\Users\test\AppData\Local\Temp\ccMFLWLO.s:1368   .text.eclic_get_irq_priority:0000000000000008 .LBE202
C:\Users\test\AppData\Local\Temp\ccMFLWLO.s:1384   .text.eclic_get_irq_priority:000000000000000c .LBB207
C:\Users\test\AppData\Local\Temp\ccMFLWLO.s:1397   .text.eclic_get_irq_priority:0000000000000016 .LBE207
C:\Users\test\AppData\Local\Temp\ccMFLWLO.s:1409   .text.eclic_get_irq_priority:000000000000001c .LBB209
C:\Users\test\AppData\Local\Temp\ccMFLWLO.s:1415   .text.eclic_get_irq_priority:0000000000000020 .LBE209

UNDEFINED SYMBOLS
SystemCoreClock
